ARM GAS  C:\Users\sergio\AppData\Local\Temp\cc0XrIjW.s 			page 1


   1              		.syntax unified
   2              		.cpu cortex-m0
   3              		.fpu softvfp
   4              		.eabi_attribute 20, 1
   5              		.eabi_attribute 21, 1
   6              		.eabi_attribute 23, 3
   7              		.eabi_attribute 24, 1
   8              		.eabi_attribute 25, 1
   9              		.eabi_attribute 26, 1
  10              		.eabi_attribute 30, 6
  11              		.eabi_attribute 34, 0
  12              		.eabi_attribute 18, 4
  13              		.thumb
  14              		.syntax unified
  15              		.file	"I2C_1_SPI.c"
  16              		.text
  17              	.Ltext0:
  18              		.cfi_sections	.debug_frame
  19              		.global	I2C_1_configSpi
  20              		.section	.rodata
  21              		.align	2
  22              		.type	I2C_1_configSpi, %object
  23              		.size	I2C_1_configSpi, 84
  24              	I2C_1_configSpi:
  25 0000 00000000 		.word	0
  26 0004 00000000 		.word	0
  27 0008 00000000 		.word	0
  28 000c 10000000 		.word	16
  29 0010 00000000 		.word	0
  30 0014 00000000 		.word	0
  31 0018 00000000 		.word	0
  32 001c 08000000 		.word	8
  33 0020 08000000 		.word	8
  34 0024 01000000 		.word	1
  35 0028 01000000 		.word	1
  36 002c 00000000 		.word	0
  37 0030 00000000 		.word	0
  38 0034 00000000 		.word	0
  39 0038 00000000 		.word	0
  40 003c 01000000 		.word	1
  41 0040 00000000 		.word	0
  42 0044 07000000 		.word	7
  43 0048 00000000 		.word	0
  44 004c 00000000 		.word	0
  45 0050 00       		.byte	0
  46 0051 00       		.byte	0
  47 0052 00       		.byte	0
  48 0053 00       		.space	1
  49              		.section	.text.I2C_1_SpiInit,"ax",%progbits
  50              		.align	2
  51              		.global	I2C_1_SpiInit
  52              		.code	16
  53              		.thumb_func
  54              		.type	I2C_1_SpiInit, %function
  55              	I2C_1_SpiInit:
  56              	.LFB2:
  57              		.file 1 "Generated_Source\\PSoC4\\I2C_1_SPI.c"
ARM GAS  C:\Users\sergio\AppData\Local\Temp\cc0XrIjW.s 			page 2


   1:Generated_Source\PSoC4/I2C_1_SPI.c **** /***************************************************************************//**
   2:Generated_Source\PSoC4/I2C_1_SPI.c **** * \file I2C_1_SPI.c
   3:Generated_Source\PSoC4/I2C_1_SPI.c **** * \version 4.0
   4:Generated_Source\PSoC4/I2C_1_SPI.c **** *
   5:Generated_Source\PSoC4/I2C_1_SPI.c **** * \brief
   6:Generated_Source\PSoC4/I2C_1_SPI.c **** *  This file provides the source code to the API for the SCB Component in
   7:Generated_Source\PSoC4/I2C_1_SPI.c **** *  SPI mode.
   8:Generated_Source\PSoC4/I2C_1_SPI.c **** *
   9:Generated_Source\PSoC4/I2C_1_SPI.c **** * Note:
  10:Generated_Source\PSoC4/I2C_1_SPI.c **** *
  11:Generated_Source\PSoC4/I2C_1_SPI.c **** *******************************************************************************
  12:Generated_Source\PSoC4/I2C_1_SPI.c **** * \copyright
  13:Generated_Source\PSoC4/I2C_1_SPI.c **** * Copyright 2013-2017, Cypress Semiconductor Corporation.  All rights reserved.
  14:Generated_Source\PSoC4/I2C_1_SPI.c **** * You may use this file only in accordance with the license, terms, conditions,
  15:Generated_Source\PSoC4/I2C_1_SPI.c **** * disclaimers, and limitations in the end user license agreement accompanying
  16:Generated_Source\PSoC4/I2C_1_SPI.c **** * the software package with which this file was provided.
  17:Generated_Source\PSoC4/I2C_1_SPI.c **** *******************************************************************************/
  18:Generated_Source\PSoC4/I2C_1_SPI.c **** 
  19:Generated_Source\PSoC4/I2C_1_SPI.c **** #include "I2C_1_PVT.h"
  20:Generated_Source\PSoC4/I2C_1_SPI.c **** #include "I2C_1_SPI_UART_PVT.h"
  21:Generated_Source\PSoC4/I2C_1_SPI.c **** 
  22:Generated_Source\PSoC4/I2C_1_SPI.c **** #if(I2C_1_SCB_MODE_UNCONFIG_CONST_CFG)
  23:Generated_Source\PSoC4/I2C_1_SPI.c **** 
  24:Generated_Source\PSoC4/I2C_1_SPI.c ****     /***************************************
  25:Generated_Source\PSoC4/I2C_1_SPI.c ****     *  Configuration Structure Initialization
  26:Generated_Source\PSoC4/I2C_1_SPI.c ****     ***************************************/
  27:Generated_Source\PSoC4/I2C_1_SPI.c **** 
  28:Generated_Source\PSoC4/I2C_1_SPI.c ****     const I2C_1_SPI_INIT_STRUCT I2C_1_configSpi =
  29:Generated_Source\PSoC4/I2C_1_SPI.c ****     {
  30:Generated_Source\PSoC4/I2C_1_SPI.c ****         I2C_1_SPI_MODE,
  31:Generated_Source\PSoC4/I2C_1_SPI.c ****         I2C_1_SPI_SUB_MODE,
  32:Generated_Source\PSoC4/I2C_1_SPI.c ****         I2C_1_SPI_CLOCK_MODE,
  33:Generated_Source\PSoC4/I2C_1_SPI.c ****         I2C_1_SPI_OVS_FACTOR,
  34:Generated_Source\PSoC4/I2C_1_SPI.c ****         I2C_1_SPI_MEDIAN_FILTER_ENABLE,
  35:Generated_Source\PSoC4/I2C_1_SPI.c ****         I2C_1_SPI_LATE_MISO_SAMPLE_ENABLE,
  36:Generated_Source\PSoC4/I2C_1_SPI.c ****         I2C_1_SPI_WAKE_ENABLE,
  37:Generated_Source\PSoC4/I2C_1_SPI.c ****         I2C_1_SPI_RX_DATA_BITS_NUM,
  38:Generated_Source\PSoC4/I2C_1_SPI.c ****         I2C_1_SPI_TX_DATA_BITS_NUM,
  39:Generated_Source\PSoC4/I2C_1_SPI.c ****         I2C_1_SPI_BITS_ORDER,
  40:Generated_Source\PSoC4/I2C_1_SPI.c ****         I2C_1_SPI_TRANSFER_SEPARATION,
  41:Generated_Source\PSoC4/I2C_1_SPI.c ****         0u,
  42:Generated_Source\PSoC4/I2C_1_SPI.c ****         NULL,
  43:Generated_Source\PSoC4/I2C_1_SPI.c ****         0u,
  44:Generated_Source\PSoC4/I2C_1_SPI.c ****         NULL,
  45:Generated_Source\PSoC4/I2C_1_SPI.c ****         (uint32) I2C_1_SCB_IRQ_INTERNAL,
  46:Generated_Source\PSoC4/I2C_1_SPI.c ****         I2C_1_SPI_INTR_RX_MASK,
  47:Generated_Source\PSoC4/I2C_1_SPI.c ****         I2C_1_SPI_RX_TRIGGER_LEVEL,
  48:Generated_Source\PSoC4/I2C_1_SPI.c ****         I2C_1_SPI_INTR_TX_MASK,
  49:Generated_Source\PSoC4/I2C_1_SPI.c ****         I2C_1_SPI_TX_TRIGGER_LEVEL,
  50:Generated_Source\PSoC4/I2C_1_SPI.c ****         (uint8) I2C_1_SPI_BYTE_MODE_ENABLE,
  51:Generated_Source\PSoC4/I2C_1_SPI.c ****         (uint8) I2C_1_SPI_FREE_RUN_SCLK_ENABLE,
  52:Generated_Source\PSoC4/I2C_1_SPI.c ****         (uint8) I2C_1_SPI_SS_POLARITY
  53:Generated_Source\PSoC4/I2C_1_SPI.c ****     };
  54:Generated_Source\PSoC4/I2C_1_SPI.c **** 
  55:Generated_Source\PSoC4/I2C_1_SPI.c **** 
  56:Generated_Source\PSoC4/I2C_1_SPI.c ****     /*******************************************************************************
  57:Generated_Source\PSoC4/I2C_1_SPI.c ****     * Function Name: I2C_1_SpiInit
ARM GAS  C:\Users\sergio\AppData\Local\Temp\cc0XrIjW.s 			page 3


  58:Generated_Source\PSoC4/I2C_1_SPI.c ****     ****************************************************************************//**
  59:Generated_Source\PSoC4/I2C_1_SPI.c ****     *
  60:Generated_Source\PSoC4/I2C_1_SPI.c ****     *  Configures the I2C_1 for SPI operation.
  61:Generated_Source\PSoC4/I2C_1_SPI.c ****     *
  62:Generated_Source\PSoC4/I2C_1_SPI.c ****     *  This function is intended specifically to be used when the I2C_1 
  63:Generated_Source\PSoC4/I2C_1_SPI.c ****     *  configuration is set to “Unconfigured I2C_1” in the customizer. 
  64:Generated_Source\PSoC4/I2C_1_SPI.c ****     *  After initializing the I2C_1 in SPI mode using this function, 
  65:Generated_Source\PSoC4/I2C_1_SPI.c ****     *  the component can be enabled using the I2C_1_Start() or 
  66:Generated_Source\PSoC4/I2C_1_SPI.c ****     * I2C_1_Enable() function.
  67:Generated_Source\PSoC4/I2C_1_SPI.c ****     *  This function uses a pointer to a structure that provides the configuration 
  68:Generated_Source\PSoC4/I2C_1_SPI.c ****     *  settings. This structure contains the same information that would otherwise 
  69:Generated_Source\PSoC4/I2C_1_SPI.c ****     *  be provided by the customizer settings.
  70:Generated_Source\PSoC4/I2C_1_SPI.c ****     *
  71:Generated_Source\PSoC4/I2C_1_SPI.c ****     *  \param config: pointer to a structure that contains the following list of 
  72:Generated_Source\PSoC4/I2C_1_SPI.c ****     *   fields. These fields match the selections available in the customizer. 
  73:Generated_Source\PSoC4/I2C_1_SPI.c ****     *   Refer to the customizer for further description of the settings.
  74:Generated_Source\PSoC4/I2C_1_SPI.c ****     *
  75:Generated_Source\PSoC4/I2C_1_SPI.c ****     *******************************************************************************/
  76:Generated_Source\PSoC4/I2C_1_SPI.c ****     void I2C_1_SpiInit(const I2C_1_SPI_INIT_STRUCT *config)
  77:Generated_Source\PSoC4/I2C_1_SPI.c ****     {
  58              		.loc 1 77 0
  59              		.cfi_startproc
  60              		@ args = 0, pretend = 0, frame = 8
  61              		@ frame_needed = 1, uses_anonymous_args = 0
  62 0000 80B5     		push	{r7, lr}
  63              		.cfi_def_cfa_offset 8
  64              		.cfi_offset 7, -8
  65              		.cfi_offset 14, -4
  66 0002 82B0     		sub	sp, sp, #8
  67              		.cfi_def_cfa_offset 16
  68 0004 00AF     		add	r7, sp, #0
  69              		.cfi_def_cfa_register 7
  70 0006 7860     		str	r0, [r7, #4]
  78:Generated_Source\PSoC4/I2C_1_SPI.c ****         if(NULL == config)
  71              		.loc 1 78 0
  72 0008 7B68     		ldr	r3, [r7, #4]
  73 000a 002B     		cmp	r3, #0
  74 000c 03D1     		bne	.L2
  79:Generated_Source\PSoC4/I2C_1_SPI.c ****         {
  80:Generated_Source\PSoC4/I2C_1_SPI.c ****             CYASSERT(0u != 0u); /* Halt execution due to bad function parameter */
  75              		.loc 1 80 0 discriminator 1
  76 000e 0020     		movs	r0, #0
  77 0010 FFF7FEFF 		bl	CyHalt
  81:Generated_Source\PSoC4/I2C_1_SPI.c ****         }
  82:Generated_Source\PSoC4/I2C_1_SPI.c ****         else
  83:Generated_Source\PSoC4/I2C_1_SPI.c ****         {
  84:Generated_Source\PSoC4/I2C_1_SPI.c ****             /* Configure pins */
  85:Generated_Source\PSoC4/I2C_1_SPI.c ****             I2C_1_SetPins(I2C_1_SCB_MODE_SPI, config->mode, I2C_1_DUMMY_PARAM);
  86:Generated_Source\PSoC4/I2C_1_SPI.c **** 
  87:Generated_Source\PSoC4/I2C_1_SPI.c ****             /* Store internal configuration */
  88:Generated_Source\PSoC4/I2C_1_SPI.c ****             I2C_1_scbMode       = (uint8) I2C_1_SCB_MODE_SPI;
  89:Generated_Source\PSoC4/I2C_1_SPI.c ****             I2C_1_scbEnableWake = (uint8) config->enableWake;
  90:Generated_Source\PSoC4/I2C_1_SPI.c ****             I2C_1_scbEnableIntr = (uint8) config->enableInterrupt;
  91:Generated_Source\PSoC4/I2C_1_SPI.c **** 
  92:Generated_Source\PSoC4/I2C_1_SPI.c ****             /* Set RX direction internal variables */
  93:Generated_Source\PSoC4/I2C_1_SPI.c ****             I2C_1_rxBuffer      =         config->rxBuffer;
  94:Generated_Source\PSoC4/I2C_1_SPI.c ****             I2C_1_rxDataBits    = (uint8) config->rxDataBits;
ARM GAS  C:\Users\sergio\AppData\Local\Temp\cc0XrIjW.s 			page 4


  95:Generated_Source\PSoC4/I2C_1_SPI.c ****             I2C_1_rxBufferSize  =         config->rxBufferSize;
  96:Generated_Source\PSoC4/I2C_1_SPI.c **** 
  97:Generated_Source\PSoC4/I2C_1_SPI.c ****             /* Set TX direction internal variables */
  98:Generated_Source\PSoC4/I2C_1_SPI.c ****             I2C_1_txBuffer      =         config->txBuffer;
  99:Generated_Source\PSoC4/I2C_1_SPI.c ****             I2C_1_txDataBits    = (uint8) config->txDataBits;
 100:Generated_Source\PSoC4/I2C_1_SPI.c ****             I2C_1_txBufferSize  =         config->txBufferSize;
 101:Generated_Source\PSoC4/I2C_1_SPI.c **** 
 102:Generated_Source\PSoC4/I2C_1_SPI.c ****             /* Configure SPI interface */
 103:Generated_Source\PSoC4/I2C_1_SPI.c ****             I2C_1_CTRL_REG     = I2C_1_GET_CTRL_OVS(config->oversample)           |
 104:Generated_Source\PSoC4/I2C_1_SPI.c ****                                             I2C_1_GET_CTRL_BYTE_MODE(config->enableByteMode) |
 105:Generated_Source\PSoC4/I2C_1_SPI.c ****                                             I2C_1_GET_CTRL_EC_AM_MODE(config->enableWake)    |
 106:Generated_Source\PSoC4/I2C_1_SPI.c ****                                             I2C_1_CTRL_SPI;
 107:Generated_Source\PSoC4/I2C_1_SPI.c **** 
 108:Generated_Source\PSoC4/I2C_1_SPI.c ****             I2C_1_SPI_CTRL_REG = I2C_1_GET_SPI_CTRL_CONTINUOUS    (config->transferSeperation)  |
 109:Generated_Source\PSoC4/I2C_1_SPI.c ****                                             I2C_1_GET_SPI_CTRL_SELECT_PRECEDE(config->submode &
 110:Generated_Source\PSoC4/I2C_1_SPI.c ****                                                                           I2C_1_SPI_MODE_TI_PRECEDE
 111:Generated_Source\PSoC4/I2C_1_SPI.c ****                                             I2C_1_GET_SPI_CTRL_SCLK_MODE     (config->sclkMode)    
 112:Generated_Source\PSoC4/I2C_1_SPI.c ****                                             I2C_1_GET_SPI_CTRL_LATE_MISO_SAMPLE(config->enableLateS
 113:Generated_Source\PSoC4/I2C_1_SPI.c ****                                             I2C_1_GET_SPI_CTRL_SCLK_CONTINUOUS(config->enableFreeRu
 114:Generated_Source\PSoC4/I2C_1_SPI.c ****                                             I2C_1_GET_SPI_CTRL_SSEL_POLARITY (config->polaritySs)  
 115:Generated_Source\PSoC4/I2C_1_SPI.c ****                                             I2C_1_GET_SPI_CTRL_SUB_MODE      (config->submode)     
 116:Generated_Source\PSoC4/I2C_1_SPI.c ****                                             I2C_1_GET_SPI_CTRL_MASTER_MODE   (config->mode);
 117:Generated_Source\PSoC4/I2C_1_SPI.c **** 
 118:Generated_Source\PSoC4/I2C_1_SPI.c ****             /* Configure RX direction */
 119:Generated_Source\PSoC4/I2C_1_SPI.c ****             I2C_1_RX_CTRL_REG     =  I2C_1_GET_RX_CTRL_DATA_WIDTH(config->rxDataBits)         |
 120:Generated_Source\PSoC4/I2C_1_SPI.c ****                                                 I2C_1_GET_RX_CTRL_BIT_ORDER (config->bitOrder)     
 121:Generated_Source\PSoC4/I2C_1_SPI.c ****                                                 I2C_1_GET_RX_CTRL_MEDIAN    (config->enableMedianFi
 122:Generated_Source\PSoC4/I2C_1_SPI.c ****                                                 I2C_1_SPI_RX_CTRL;
 123:Generated_Source\PSoC4/I2C_1_SPI.c **** 
 124:Generated_Source\PSoC4/I2C_1_SPI.c ****             I2C_1_RX_FIFO_CTRL_REG = I2C_1_GET_RX_FIFO_CTRL_TRIGGER_LEVEL(config->rxTriggerLevel);
 125:Generated_Source\PSoC4/I2C_1_SPI.c **** 
 126:Generated_Source\PSoC4/I2C_1_SPI.c ****             /* Configure TX direction */
 127:Generated_Source\PSoC4/I2C_1_SPI.c ****             I2C_1_TX_CTRL_REG      = I2C_1_GET_TX_CTRL_DATA_WIDTH(config->txDataBits) |
 128:Generated_Source\PSoC4/I2C_1_SPI.c ****                                                 I2C_1_GET_TX_CTRL_BIT_ORDER (config->bitOrder)   |
 129:Generated_Source\PSoC4/I2C_1_SPI.c ****                                                 I2C_1_SPI_TX_CTRL;
 130:Generated_Source\PSoC4/I2C_1_SPI.c **** 
 131:Generated_Source\PSoC4/I2C_1_SPI.c ****             I2C_1_TX_FIFO_CTRL_REG = I2C_1_GET_TX_FIFO_CTRL_TRIGGER_LEVEL(config->txTriggerLevel);
 132:Generated_Source\PSoC4/I2C_1_SPI.c **** 
 133:Generated_Source\PSoC4/I2C_1_SPI.c ****             /* Configure interrupt with SPI handler but do not enable it */
 134:Generated_Source\PSoC4/I2C_1_SPI.c ****             CyIntDisable    (I2C_1_ISR_NUMBER);
 135:Generated_Source\PSoC4/I2C_1_SPI.c ****             CyIntSetPriority(I2C_1_ISR_NUMBER, I2C_1_ISR_PRIORITY);
 136:Generated_Source\PSoC4/I2C_1_SPI.c ****             (void) CyIntSetVector(I2C_1_ISR_NUMBER, &I2C_1_SPI_UART_ISR);
 137:Generated_Source\PSoC4/I2C_1_SPI.c **** 
 138:Generated_Source\PSoC4/I2C_1_SPI.c ****             /* Configure interrupt sources */
 139:Generated_Source\PSoC4/I2C_1_SPI.c ****             I2C_1_INTR_I2C_EC_MASK_REG = I2C_1_NO_INTR_SOURCES;
 140:Generated_Source\PSoC4/I2C_1_SPI.c ****             I2C_1_INTR_SPI_EC_MASK_REG = I2C_1_NO_INTR_SOURCES;
 141:Generated_Source\PSoC4/I2C_1_SPI.c ****             I2C_1_INTR_SLAVE_MASK_REG  = I2C_1_GET_SPI_INTR_SLAVE_MASK(config->rxInterruptMask);
 142:Generated_Source\PSoC4/I2C_1_SPI.c ****             I2C_1_INTR_MASTER_MASK_REG = I2C_1_GET_SPI_INTR_MASTER_MASK(config->txInterruptMask);
 143:Generated_Source\PSoC4/I2C_1_SPI.c ****             I2C_1_INTR_RX_MASK_REG     = I2C_1_GET_SPI_INTR_RX_MASK(config->rxInterruptMask);
 144:Generated_Source\PSoC4/I2C_1_SPI.c ****             I2C_1_INTR_TX_MASK_REG     = I2C_1_GET_SPI_INTR_TX_MASK(config->txInterruptMask);
 145:Generated_Source\PSoC4/I2C_1_SPI.c ****             
 146:Generated_Source\PSoC4/I2C_1_SPI.c ****             /* Configure TX interrupt sources to restore. */
 147:Generated_Source\PSoC4/I2C_1_SPI.c ****             I2C_1_IntrTxMask = LO16(I2C_1_INTR_TX_MASK_REG);
 148:Generated_Source\PSoC4/I2C_1_SPI.c **** 
 149:Generated_Source\PSoC4/I2C_1_SPI.c ****             /* Set active SS0 */
 150:Generated_Source\PSoC4/I2C_1_SPI.c ****             I2C_1_SpiSetActiveSlaveSelect(I2C_1_SPI_SLAVE_SELECT0);
 151:Generated_Source\PSoC4/I2C_1_SPI.c **** 
ARM GAS  C:\Users\sergio\AppData\Local\Temp\cc0XrIjW.s 			page 5


 152:Generated_Source\PSoC4/I2C_1_SPI.c ****             /* Clear RX buffer indexes */
 153:Generated_Source\PSoC4/I2C_1_SPI.c ****             I2C_1_rxBufferHead     = 0u;
 154:Generated_Source\PSoC4/I2C_1_SPI.c ****             I2C_1_rxBufferTail     = 0u;
 155:Generated_Source\PSoC4/I2C_1_SPI.c ****             I2C_1_rxBufferOverflow = 0u;
 156:Generated_Source\PSoC4/I2C_1_SPI.c **** 
 157:Generated_Source\PSoC4/I2C_1_SPI.c ****             /* Clear TX buffer indexes */
 158:Generated_Source\PSoC4/I2C_1_SPI.c ****             I2C_1_txBufferHead = 0u;
 159:Generated_Source\PSoC4/I2C_1_SPI.c ****             I2C_1_txBufferTail = 0u;
 160:Generated_Source\PSoC4/I2C_1_SPI.c ****         }
 161:Generated_Source\PSoC4/I2C_1_SPI.c ****     }
  78              		.loc 1 161 0 discriminator 1
  79 0014 09E1     		b	.L24
  80              	.L2:
  85:Generated_Source\PSoC4/I2C_1_SPI.c **** 
  81              		.loc 1 85 0
  82 0016 7B68     		ldr	r3, [r7, #4]
  83 0018 1B68     		ldr	r3, [r3]
  84 001a 0022     		movs	r2, #0
  85 001c 1900     		movs	r1, r3
  86 001e 0220     		movs	r0, #2
  87 0020 FFF7FEFF 		bl	I2C_1_SetPins
  88:Generated_Source\PSoC4/I2C_1_SPI.c ****             I2C_1_scbEnableWake = (uint8) config->enableWake;
  88              		.loc 1 88 0
  89 0024 834B     		ldr	r3, .L25
  90 0026 0222     		movs	r2, #2
  91 0028 1A70     		strb	r2, [r3]
  89:Generated_Source\PSoC4/I2C_1_SPI.c ****             I2C_1_scbEnableIntr = (uint8) config->enableInterrupt;
  92              		.loc 1 89 0
  93 002a 7B68     		ldr	r3, [r7, #4]
  94 002c 9B69     		ldr	r3, [r3, #24]
  95 002e DAB2     		uxtb	r2, r3
  96 0030 814B     		ldr	r3, .L25+4
  97 0032 1A70     		strb	r2, [r3]
  90:Generated_Source\PSoC4/I2C_1_SPI.c **** 
  98              		.loc 1 90 0
  99 0034 7B68     		ldr	r3, [r7, #4]
 100 0036 DB6B     		ldr	r3, [r3, #60]
 101 0038 DAB2     		uxtb	r2, r3
 102 003a 804B     		ldr	r3, .L25+8
 103 003c 1A70     		strb	r2, [r3]
  93:Generated_Source\PSoC4/I2C_1_SPI.c ****             I2C_1_rxDataBits    = (uint8) config->rxDataBits;
 104              		.loc 1 93 0
 105 003e 7B68     		ldr	r3, [r7, #4]
 106 0040 1A6B     		ldr	r2, [r3, #48]
 107 0042 7F4B     		ldr	r3, .L25+12
 108 0044 1A60     		str	r2, [r3]
  94:Generated_Source\PSoC4/I2C_1_SPI.c ****             I2C_1_rxBufferSize  =         config->rxBufferSize;
 109              		.loc 1 94 0
 110 0046 7B68     		ldr	r3, [r7, #4]
 111 0048 DB69     		ldr	r3, [r3, #28]
 112 004a DAB2     		uxtb	r2, r3
 113 004c 7D4B     		ldr	r3, .L25+16
 114 004e 1A70     		strb	r2, [r3]
  95:Generated_Source\PSoC4/I2C_1_SPI.c **** 
 115              		.loc 1 95 0
 116 0050 7B68     		ldr	r3, [r7, #4]
 117 0052 DA6A     		ldr	r2, [r3, #44]
ARM GAS  C:\Users\sergio\AppData\Local\Temp\cc0XrIjW.s 			page 6


 118 0054 7C4B     		ldr	r3, .L25+20
 119 0056 1A60     		str	r2, [r3]
  98:Generated_Source\PSoC4/I2C_1_SPI.c ****             I2C_1_txDataBits    = (uint8) config->txDataBits;
 120              		.loc 1 98 0
 121 0058 7B68     		ldr	r3, [r7, #4]
 122 005a 9A6B     		ldr	r2, [r3, #56]
 123 005c 7B4B     		ldr	r3, .L25+24
 124 005e 1A60     		str	r2, [r3]
  99:Generated_Source\PSoC4/I2C_1_SPI.c ****             I2C_1_txBufferSize  =         config->txBufferSize;
 125              		.loc 1 99 0
 126 0060 7B68     		ldr	r3, [r7, #4]
 127 0062 1B6A     		ldr	r3, [r3, #32]
 128 0064 DAB2     		uxtb	r2, r3
 129 0066 7A4B     		ldr	r3, .L25+28
 130 0068 1A70     		strb	r2, [r3]
 100:Generated_Source\PSoC4/I2C_1_SPI.c **** 
 131              		.loc 1 100 0
 132 006a 7B68     		ldr	r3, [r7, #4]
 133 006c 5A6B     		ldr	r2, [r3, #52]
 134 006e 794B     		ldr	r3, .L25+32
 135 0070 1A60     		str	r2, [r3]
 103:Generated_Source\PSoC4/I2C_1_SPI.c ****                                             I2C_1_GET_CTRL_BYTE_MODE(config->enableByteMode) |
 136              		.loc 1 103 0
 137 0072 794A     		ldr	r2, .L25+36
 138 0074 7B68     		ldr	r3, [r7, #4]
 139 0076 DB68     		ldr	r3, [r3, #12]
 140 0078 013B     		subs	r3, r3, #1
 141 007a 0F21     		movs	r1, #15
 142 007c 1940     		ands	r1, r3
 104:Generated_Source\PSoC4/I2C_1_SPI.c ****                                             I2C_1_GET_CTRL_EC_AM_MODE(config->enableWake)    |
 143              		.loc 1 104 0
 144 007e 7B68     		ldr	r3, [r7, #4]
 145 0080 5020     		movs	r0, #80
 146 0082 1B5C     		ldrb	r3, [r3, r0]
 147 0084 002B     		cmp	r3, #0
 148 0086 02D0     		beq	.L4
 104:Generated_Source\PSoC4/I2C_1_SPI.c ****                                             I2C_1_GET_CTRL_EC_AM_MODE(config->enableWake)    |
 149              		.loc 1 104 0 is_stmt 0 discriminator 1
 150 0088 8023     		movs	r3, #128
 151 008a 1B01     		lsls	r3, r3, #4
 152 008c 00E0     		b	.L5
 153              	.L4:
 104:Generated_Source\PSoC4/I2C_1_SPI.c ****                                             I2C_1_GET_CTRL_EC_AM_MODE(config->enableWake)    |
 154              		.loc 1 104 0 discriminator 2
 155 008e 0023     		movs	r3, #0
 156              	.L5:
 103:Generated_Source\PSoC4/I2C_1_SPI.c ****                                             I2C_1_GET_CTRL_BYTE_MODE(config->enableByteMode) |
 157              		.loc 1 103 0 is_stmt 1
 158 0090 1943     		orrs	r1, r3
 105:Generated_Source\PSoC4/I2C_1_SPI.c ****                                             I2C_1_CTRL_SPI;
 159              		.loc 1 105 0
 160 0092 7B68     		ldr	r3, [r7, #4]
 161 0094 9B69     		ldr	r3, [r3, #24]
 162 0096 002B     		cmp	r3, #0
 163 0098 02D0     		beq	.L6
 105:Generated_Source\PSoC4/I2C_1_SPI.c ****                                             I2C_1_CTRL_SPI;
 164              		.loc 1 105 0 is_stmt 0 discriminator 1
ARM GAS  C:\Users\sergio\AppData\Local\Temp\cc0XrIjW.s 			page 7


 165 009a 8023     		movs	r3, #128
 166 009c 5B00     		lsls	r3, r3, #1
 167 009e 00E0     		b	.L7
 168              	.L6:
 105:Generated_Source\PSoC4/I2C_1_SPI.c ****                                             I2C_1_CTRL_SPI;
 169              		.loc 1 105 0 discriminator 2
 170 00a0 0023     		movs	r3, #0
 171              	.L7:
 104:Generated_Source\PSoC4/I2C_1_SPI.c ****                                             I2C_1_GET_CTRL_EC_AM_MODE(config->enableWake)    |
 172              		.loc 1 104 0 is_stmt 1
 173 00a2 0B43     		orrs	r3, r1
 105:Generated_Source\PSoC4/I2C_1_SPI.c ****                                             I2C_1_CTRL_SPI;
 174              		.loc 1 105 0
 175 00a4 8021     		movs	r1, #128
 176 00a6 4904     		lsls	r1, r1, #17
 177 00a8 0B43     		orrs	r3, r1
 103:Generated_Source\PSoC4/I2C_1_SPI.c ****                                             I2C_1_GET_CTRL_BYTE_MODE(config->enableByteMode) |
 178              		.loc 1 103 0
 179 00aa 1360     		str	r3, [r2]
 108:Generated_Source\PSoC4/I2C_1_SPI.c ****                                             I2C_1_GET_SPI_CTRL_SELECT_PRECEDE(config->submode &
 180              		.loc 1 108 0
 181 00ac 6B4A     		ldr	r2, .L25+40
 182 00ae 7B68     		ldr	r3, [r7, #4]
 183 00b0 9B6A     		ldr	r3, [r3, #40]
 184 00b2 002B     		cmp	r3, #0
 185 00b4 01D0     		beq	.L8
 108:Generated_Source\PSoC4/I2C_1_SPI.c ****                                             I2C_1_GET_SPI_CTRL_SELECT_PRECEDE(config->submode &
 186              		.loc 1 108 0 is_stmt 0 discriminator 1
 187 00b6 0121     		movs	r1, #1
 188 00b8 00E0     		b	.L9
 189              	.L8:
 108:Generated_Source\PSoC4/I2C_1_SPI.c ****                                             I2C_1_GET_SPI_CTRL_SELECT_PRECEDE(config->submode &
 190              		.loc 1 108 0 discriminator 2
 191 00ba 0021     		movs	r1, #0
 192              	.L9:
 109:Generated_Source\PSoC4/I2C_1_SPI.c ****                                                                           I2C_1_SPI_MODE_TI_PRECEDE
 193              		.loc 1 109 0 is_stmt 1
 194 00bc 7B68     		ldr	r3, [r7, #4]
 195 00be 5B68     		ldr	r3, [r3, #4]
 196 00c0 1020     		movs	r0, #16
 197 00c2 0340     		ands	r3, r0
 198 00c4 01D0     		beq	.L10
 109:Generated_Source\PSoC4/I2C_1_SPI.c ****                                                                           I2C_1_SPI_MODE_TI_PRECEDE
 199              		.loc 1 109 0 is_stmt 0 discriminator 1
 200 00c6 0223     		movs	r3, #2
 201 00c8 00E0     		b	.L11
 202              	.L10:
 109:Generated_Source\PSoC4/I2C_1_SPI.c ****                                                                           I2C_1_SPI_MODE_TI_PRECEDE
 203              		.loc 1 109 0 discriminator 2
 204 00ca 0023     		movs	r3, #0
 205              	.L11:
 108:Generated_Source\PSoC4/I2C_1_SPI.c ****                                             I2C_1_GET_SPI_CTRL_SELECT_PRECEDE(config->submode &
 206              		.loc 1 108 0 is_stmt 1
 207 00cc 1943     		orrs	r1, r3
 111:Generated_Source\PSoC4/I2C_1_SPI.c ****                                             I2C_1_GET_SPI_CTRL_LATE_MISO_SAMPLE(config->enableLateS
 208              		.loc 1 111 0
 209 00ce 7B68     		ldr	r3, [r7, #4]
ARM GAS  C:\Users\sergio\AppData\Local\Temp\cc0XrIjW.s 			page 8


 210 00d0 9B68     		ldr	r3, [r3, #8]
 211 00d2 9B00     		lsls	r3, r3, #2
 212 00d4 0C20     		movs	r0, #12
 213 00d6 0340     		ands	r3, r0
 110:Generated_Source\PSoC4/I2C_1_SPI.c ****                                             I2C_1_GET_SPI_CTRL_SCLK_MODE     (config->sclkMode)    
 214              		.loc 1 110 0
 215 00d8 1943     		orrs	r1, r3
 112:Generated_Source\PSoC4/I2C_1_SPI.c ****                                             I2C_1_GET_SPI_CTRL_SCLK_CONTINUOUS(config->enableFreeRu
 216              		.loc 1 112 0
 217 00da 7B68     		ldr	r3, [r7, #4]
 218 00dc 5B69     		ldr	r3, [r3, #20]
 219 00de 002B     		cmp	r3, #0
 220 00e0 01D0     		beq	.L12
 112:Generated_Source\PSoC4/I2C_1_SPI.c ****                                             I2C_1_GET_SPI_CTRL_SCLK_CONTINUOUS(config->enableFreeRu
 221              		.loc 1 112 0 is_stmt 0 discriminator 1
 222 00e2 1023     		movs	r3, #16
 223 00e4 00E0     		b	.L13
 224              	.L12:
 112:Generated_Source\PSoC4/I2C_1_SPI.c ****                                             I2C_1_GET_SPI_CTRL_SCLK_CONTINUOUS(config->enableFreeRu
 225              		.loc 1 112 0 discriminator 2
 226 00e6 0023     		movs	r3, #0
 227              	.L13:
 111:Generated_Source\PSoC4/I2C_1_SPI.c ****                                             I2C_1_GET_SPI_CTRL_LATE_MISO_SAMPLE(config->enableLateS
 228              		.loc 1 111 0 is_stmt 1
 229 00e8 1943     		orrs	r1, r3
 113:Generated_Source\PSoC4/I2C_1_SPI.c ****                                             I2C_1_GET_SPI_CTRL_SSEL_POLARITY (config->polaritySs)  
 230              		.loc 1 113 0
 231 00ea 7B68     		ldr	r3, [r7, #4]
 232 00ec 5120     		movs	r0, #81
 233 00ee 1B5C     		ldrb	r3, [r3, r0]
 234 00f0 002B     		cmp	r3, #0
 235 00f2 01D0     		beq	.L14
 113:Generated_Source\PSoC4/I2C_1_SPI.c ****                                             I2C_1_GET_SPI_CTRL_SSEL_POLARITY (config->polaritySs)  
 236              		.loc 1 113 0 is_stmt 0 discriminator 1
 237 00f4 2023     		movs	r3, #32
 238 00f6 00E0     		b	.L15
 239              	.L14:
 113:Generated_Source\PSoC4/I2C_1_SPI.c ****                                             I2C_1_GET_SPI_CTRL_SSEL_POLARITY (config->polaritySs)  
 240              		.loc 1 113 0 discriminator 2
 241 00f8 0023     		movs	r3, #0
 242              	.L15:
 112:Generated_Source\PSoC4/I2C_1_SPI.c ****                                             I2C_1_GET_SPI_CTRL_SCLK_CONTINUOUS(config->enableFreeRu
 243              		.loc 1 112 0 is_stmt 1
 244 00fa 1943     		orrs	r1, r3
 114:Generated_Source\PSoC4/I2C_1_SPI.c ****                                             I2C_1_GET_SPI_CTRL_SUB_MODE      (config->submode)     
 245              		.loc 1 114 0
 246 00fc 7B68     		ldr	r3, [r7, #4]
 247 00fe 5220     		movs	r0, #82
 248 0100 1B5C     		ldrb	r3, [r3, r0]
 249 0102 1802     		lsls	r0, r3, #8
 250 0104 F023     		movs	r3, #240
 251 0106 1B01     		lsls	r3, r3, #4
 252 0108 0340     		ands	r3, r0
 113:Generated_Source\PSoC4/I2C_1_SPI.c ****                                             I2C_1_GET_SPI_CTRL_SSEL_POLARITY (config->polaritySs)  
 253              		.loc 1 113 0
 254 010a 1943     		orrs	r1, r3
 115:Generated_Source\PSoC4/I2C_1_SPI.c ****                                             I2C_1_GET_SPI_CTRL_MASTER_MODE   (config->mode);
ARM GAS  C:\Users\sergio\AppData\Local\Temp\cc0XrIjW.s 			page 9


 255              		.loc 1 115 0
 256 010c 7B68     		ldr	r3, [r7, #4]
 257 010e 5B68     		ldr	r3, [r3, #4]
 258 0110 1806     		lsls	r0, r3, #24
 259 0112 C023     		movs	r3, #192
 260 0114 9B04     		lsls	r3, r3, #18
 261 0116 0340     		ands	r3, r0
 114:Generated_Source\PSoC4/I2C_1_SPI.c ****                                             I2C_1_GET_SPI_CTRL_SUB_MODE      (config->submode)     
 262              		.loc 1 114 0
 263 0118 1943     		orrs	r1, r3
 116:Generated_Source\PSoC4/I2C_1_SPI.c **** 
 264              		.loc 1 116 0
 265 011a 7B68     		ldr	r3, [r7, #4]
 266 011c 1B68     		ldr	r3, [r3]
 267 011e 002B     		cmp	r3, #0
 268 0120 02D0     		beq	.L16
 116:Generated_Source\PSoC4/I2C_1_SPI.c **** 
 269              		.loc 1 116 0 is_stmt 0 discriminator 1
 270 0122 8023     		movs	r3, #128
 271 0124 1B06     		lsls	r3, r3, #24
 272 0126 00E0     		b	.L17
 273              	.L16:
 116:Generated_Source\PSoC4/I2C_1_SPI.c **** 
 274              		.loc 1 116 0 discriminator 2
 275 0128 0023     		movs	r3, #0
 276              	.L17:
 115:Generated_Source\PSoC4/I2C_1_SPI.c ****                                             I2C_1_GET_SPI_CTRL_MASTER_MODE   (config->mode);
 277              		.loc 1 115 0 is_stmt 1
 278 012a 0B43     		orrs	r3, r1
 108:Generated_Source\PSoC4/I2C_1_SPI.c ****                                             I2C_1_GET_SPI_CTRL_SELECT_PRECEDE(config->submode &
 279              		.loc 1 108 0
 280 012c 1360     		str	r3, [r2]
 119:Generated_Source\PSoC4/I2C_1_SPI.c ****                                                 I2C_1_GET_RX_CTRL_BIT_ORDER (config->bitOrder)     
 281              		.loc 1 119 0
 282 012e 4C4A     		ldr	r2, .L25+44
 283 0130 7B68     		ldr	r3, [r7, #4]
 284 0132 DB69     		ldr	r3, [r3, #28]
 285 0134 013B     		subs	r3, r3, #1
 286 0136 0F21     		movs	r1, #15
 287 0138 1940     		ands	r1, r3
 120:Generated_Source\PSoC4/I2C_1_SPI.c ****                                                 I2C_1_GET_RX_CTRL_MEDIAN    (config->enableMedianFi
 288              		.loc 1 120 0
 289 013a 7B68     		ldr	r3, [r7, #4]
 290 013c 5B6A     		ldr	r3, [r3, #36]
 291 013e 002B     		cmp	r3, #0
 292 0140 02D0     		beq	.L18
 120:Generated_Source\PSoC4/I2C_1_SPI.c ****                                                 I2C_1_GET_RX_CTRL_MEDIAN    (config->enableMedianFi
 293              		.loc 1 120 0 is_stmt 0 discriminator 1
 294 0142 8023     		movs	r3, #128
 295 0144 5B00     		lsls	r3, r3, #1
 296 0146 00E0     		b	.L19
 297              	.L18:
 120:Generated_Source\PSoC4/I2C_1_SPI.c ****                                                 I2C_1_GET_RX_CTRL_MEDIAN    (config->enableMedianFi
 298              		.loc 1 120 0 discriminator 2
 299 0148 0023     		movs	r3, #0
 300              	.L19:
 119:Generated_Source\PSoC4/I2C_1_SPI.c ****                                                 I2C_1_GET_RX_CTRL_BIT_ORDER (config->bitOrder)     
ARM GAS  C:\Users\sergio\AppData\Local\Temp\cc0XrIjW.s 			page 10


 301              		.loc 1 119 0 is_stmt 1
 302 014a 1943     		orrs	r1, r3
 121:Generated_Source\PSoC4/I2C_1_SPI.c ****                                                 I2C_1_SPI_RX_CTRL;
 303              		.loc 1 121 0
 304 014c 7B68     		ldr	r3, [r7, #4]
 305 014e 1B69     		ldr	r3, [r3, #16]
 306 0150 002B     		cmp	r3, #0
 307 0152 02D0     		beq	.L20
 121:Generated_Source\PSoC4/I2C_1_SPI.c ****                                                 I2C_1_SPI_RX_CTRL;
 308              		.loc 1 121 0 is_stmt 0 discriminator 1
 309 0154 8023     		movs	r3, #128
 310 0156 9B00     		lsls	r3, r3, #2
 311 0158 00E0     		b	.L21
 312              	.L20:
 121:Generated_Source\PSoC4/I2C_1_SPI.c ****                                                 I2C_1_SPI_RX_CTRL;
 313              		.loc 1 121 0 discriminator 2
 314 015a 0023     		movs	r3, #0
 315              	.L21:
 120:Generated_Source\PSoC4/I2C_1_SPI.c ****                                                 I2C_1_GET_RX_CTRL_MEDIAN    (config->enableMedianFi
 316              		.loc 1 120 0 is_stmt 1
 317 015c 0B43     		orrs	r3, r1
 121:Generated_Source\PSoC4/I2C_1_SPI.c ****                                                 I2C_1_SPI_RX_CTRL;
 318              		.loc 1 121 0
 319 015e 8021     		movs	r1, #128
 320 0160 0906     		lsls	r1, r1, #24
 321 0162 0B43     		orrs	r3, r1
 119:Generated_Source\PSoC4/I2C_1_SPI.c ****                                                 I2C_1_GET_RX_CTRL_BIT_ORDER (config->bitOrder)     
 322              		.loc 1 119 0
 323 0164 1360     		str	r3, [r2]
 124:Generated_Source\PSoC4/I2C_1_SPI.c **** 
 324              		.loc 1 124 0
 325 0166 3F4A     		ldr	r2, .L25+48
 326 0168 7B68     		ldr	r3, [r7, #4]
 327 016a 5B6C     		ldr	r3, [r3, #68]
 328 016c 0F21     		movs	r1, #15
 329 016e 0B40     		ands	r3, r1
 330 0170 1360     		str	r3, [r2]
 127:Generated_Source\PSoC4/I2C_1_SPI.c ****                                                 I2C_1_GET_TX_CTRL_BIT_ORDER (config->bitOrder)   |
 331              		.loc 1 127 0
 332 0172 3D4A     		ldr	r2, .L25+52
 333 0174 7B68     		ldr	r3, [r7, #4]
 334 0176 1B6A     		ldr	r3, [r3, #32]
 335 0178 013B     		subs	r3, r3, #1
 336 017a 0F21     		movs	r1, #15
 337 017c 1940     		ands	r1, r3
 128:Generated_Source\PSoC4/I2C_1_SPI.c ****                                                 I2C_1_SPI_TX_CTRL;
 338              		.loc 1 128 0
 339 017e 7B68     		ldr	r3, [r7, #4]
 340 0180 5B6A     		ldr	r3, [r3, #36]
 341 0182 002B     		cmp	r3, #0
 342 0184 02D0     		beq	.L22
 128:Generated_Source\PSoC4/I2C_1_SPI.c ****                                                 I2C_1_SPI_TX_CTRL;
 343              		.loc 1 128 0 is_stmt 0 discriminator 1
 344 0186 8023     		movs	r3, #128
 345 0188 5B00     		lsls	r3, r3, #1
 346 018a 00E0     		b	.L23
 347              	.L22:
ARM GAS  C:\Users\sergio\AppData\Local\Temp\cc0XrIjW.s 			page 11


 128:Generated_Source\PSoC4/I2C_1_SPI.c ****                                                 I2C_1_SPI_TX_CTRL;
 348              		.loc 1 128 0 discriminator 2
 349 018c 0023     		movs	r3, #0
 350              	.L23:
 127:Generated_Source\PSoC4/I2C_1_SPI.c ****                                                 I2C_1_GET_TX_CTRL_BIT_ORDER (config->bitOrder)   |
 351              		.loc 1 127 0 is_stmt 1
 352 018e 0B43     		orrs	r3, r1
 128:Generated_Source\PSoC4/I2C_1_SPI.c ****                                                 I2C_1_SPI_TX_CTRL;
 353              		.loc 1 128 0
 354 0190 8021     		movs	r1, #128
 355 0192 0906     		lsls	r1, r1, #24
 356 0194 0B43     		orrs	r3, r1
 127:Generated_Source\PSoC4/I2C_1_SPI.c ****                                                 I2C_1_GET_TX_CTRL_BIT_ORDER (config->bitOrder)   |
 357              		.loc 1 127 0
 358 0196 1360     		str	r3, [r2]
 131:Generated_Source\PSoC4/I2C_1_SPI.c **** 
 359              		.loc 1 131 0
 360 0198 344A     		ldr	r2, .L25+56
 361 019a 7B68     		ldr	r3, [r7, #4]
 362 019c DB6C     		ldr	r3, [r3, #76]
 363 019e 0F21     		movs	r1, #15
 364 01a0 0B40     		ands	r3, r1
 365 01a2 1360     		str	r3, [r2]
 134:Generated_Source\PSoC4/I2C_1_SPI.c ****             CyIntSetPriority(I2C_1_ISR_NUMBER, I2C_1_ISR_PRIORITY);
 366              		.loc 1 134 0
 367 01a4 0920     		movs	r0, #9
 368 01a6 FFF7FEFF 		bl	CyIntDisable
 135:Generated_Source\PSoC4/I2C_1_SPI.c ****             (void) CyIntSetVector(I2C_1_ISR_NUMBER, &I2C_1_SPI_UART_ISR);
 369              		.loc 1 135 0
 370 01aa 0321     		movs	r1, #3
 371 01ac 0920     		movs	r0, #9
 372 01ae FFF7FEFF 		bl	CyIntSetPriority
 136:Generated_Source\PSoC4/I2C_1_SPI.c **** 
 373              		.loc 1 136 0
 374 01b2 2F4B     		ldr	r3, .L25+60
 375 01b4 1900     		movs	r1, r3
 376 01b6 0920     		movs	r0, #9
 377 01b8 FFF7FEFF 		bl	CyIntSetVector
 139:Generated_Source\PSoC4/I2C_1_SPI.c ****             I2C_1_INTR_SPI_EC_MASK_REG = I2C_1_NO_INTR_SOURCES;
 378              		.loc 1 139 0
 379 01bc 2D4B     		ldr	r3, .L25+64
 380 01be 0022     		movs	r2, #0
 381 01c0 1A60     		str	r2, [r3]
 140:Generated_Source\PSoC4/I2C_1_SPI.c ****             I2C_1_INTR_SLAVE_MASK_REG  = I2C_1_GET_SPI_INTR_SLAVE_MASK(config->rxInterruptMask);
 382              		.loc 1 140 0
 383 01c2 2D4B     		ldr	r3, .L25+68
 384 01c4 0022     		movs	r2, #0
 385 01c6 1A60     		str	r2, [r3]
 141:Generated_Source\PSoC4/I2C_1_SPI.c ****             I2C_1_INTR_MASTER_MASK_REG = I2C_1_GET_SPI_INTR_MASTER_MASK(config->txInterruptMask);
 386              		.loc 1 141 0
 387 01c8 2C4A     		ldr	r2, .L25+72
 388 01ca 7B68     		ldr	r3, [r7, #4]
 389 01cc 196C     		ldr	r1, [r3, #64]
 390 01ce 8023     		movs	r3, #128
 391 01d0 1B01     		lsls	r3, r3, #4
 392 01d2 0B40     		ands	r3, r1
 393 01d4 1360     		str	r3, [r2]
ARM GAS  C:\Users\sergio\AppData\Local\Temp\cc0XrIjW.s 			page 12


 142:Generated_Source\PSoC4/I2C_1_SPI.c ****             I2C_1_INTR_RX_MASK_REG     = I2C_1_GET_SPI_INTR_RX_MASK(config->rxInterruptMask);
 394              		.loc 1 142 0
 395 01d6 2A4A     		ldr	r2, .L25+76
 396 01d8 7B68     		ldr	r3, [r7, #4]
 397 01da 996C     		ldr	r1, [r3, #72]
 398 01dc 8023     		movs	r3, #128
 399 01de 9B00     		lsls	r3, r3, #2
 400 01e0 0B40     		ands	r3, r1
 401 01e2 1360     		str	r3, [r2]
 143:Generated_Source\PSoC4/I2C_1_SPI.c ****             I2C_1_INTR_TX_MASK_REG     = I2C_1_GET_SPI_INTR_TX_MASK(config->txInterruptMask);
 402              		.loc 1 143 0
 403 01e4 274A     		ldr	r2, .L25+80
 404 01e6 7B68     		ldr	r3, [r7, #4]
 405 01e8 1B6C     		ldr	r3, [r3, #64]
 406 01ea 2749     		ldr	r1, .L25+84
 407 01ec 0B40     		ands	r3, r1
 408 01ee 1360     		str	r3, [r2]
 144:Generated_Source\PSoC4/I2C_1_SPI.c ****             
 409              		.loc 1 144 0
 410 01f0 264A     		ldr	r2, .L25+88
 411 01f2 7B68     		ldr	r3, [r7, #4]
 412 01f4 9B6C     		ldr	r3, [r3, #72]
 413 01f6 2649     		ldr	r1, .L25+92
 414 01f8 0B40     		ands	r3, r1
 415 01fa 1360     		str	r3, [r2]
 147:Generated_Source\PSoC4/I2C_1_SPI.c **** 
 416              		.loc 1 147 0
 417 01fc 234B     		ldr	r3, .L25+88
 418 01fe 1B68     		ldr	r3, [r3]
 419 0200 9AB2     		uxth	r2, r3
 420 0202 244B     		ldr	r3, .L25+96
 421 0204 1A80     		strh	r2, [r3]
 150:Generated_Source\PSoC4/I2C_1_SPI.c **** 
 422              		.loc 1 150 0
 423 0206 0020     		movs	r0, #0
 424 0208 FFF7FEFF 		bl	I2C_1_SpiSetActiveSlaveSelect
 153:Generated_Source\PSoC4/I2C_1_SPI.c ****             I2C_1_rxBufferTail     = 0u;
 425              		.loc 1 153 0
 426 020c 224B     		ldr	r3, .L25+100
 427 020e 0022     		movs	r2, #0
 428 0210 1A60     		str	r2, [r3]
 154:Generated_Source\PSoC4/I2C_1_SPI.c ****             I2C_1_rxBufferOverflow = 0u;
 429              		.loc 1 154 0
 430 0212 224B     		ldr	r3, .L25+104
 431 0214 0022     		movs	r2, #0
 432 0216 1A60     		str	r2, [r3]
 155:Generated_Source\PSoC4/I2C_1_SPI.c **** 
 433              		.loc 1 155 0
 434 0218 214B     		ldr	r3, .L25+108
 435 021a 0022     		movs	r2, #0
 436 021c 1A70     		strb	r2, [r3]
 158:Generated_Source\PSoC4/I2C_1_SPI.c ****             I2C_1_txBufferTail = 0u;
 437              		.loc 1 158 0
 438 021e 214B     		ldr	r3, .L25+112
 439 0220 0022     		movs	r2, #0
 440 0222 1A60     		str	r2, [r3]
 159:Generated_Source\PSoC4/I2C_1_SPI.c ****         }
ARM GAS  C:\Users\sergio\AppData\Local\Temp\cc0XrIjW.s 			page 13


 441              		.loc 1 159 0
 442 0224 204B     		ldr	r3, .L25+116
 443 0226 0022     		movs	r2, #0
 444 0228 1A60     		str	r2, [r3]
 445              	.L24:
 446              		.loc 1 161 0
 447 022a C046     		nop
 448 022c BD46     		mov	sp, r7
 449 022e 02B0     		add	sp, sp, #8
 450              		@ sp needed
 451 0230 80BD     		pop	{r7, pc}
 452              	.L26:
 453 0232 C046     		.align	2
 454              	.L25:
 455 0234 00000000 		.word	I2C_1_scbMode
 456 0238 00000000 		.word	I2C_1_scbEnableWake
 457 023c 00000000 		.word	I2C_1_scbEnableIntr
 458 0240 00000000 		.word	I2C_1_rxBuffer
 459 0244 00000000 		.word	I2C_1_rxDataBits
 460 0248 00000000 		.word	I2C_1_rxBufferSize
 461 024c 00000000 		.word	I2C_1_txBuffer
 462 0250 00000000 		.word	I2C_1_txDataBits
 463 0254 00000000 		.word	I2C_1_txBufferSize
 464 0258 00002440 		.word	1076101120
 465 025c 20002440 		.word	1076101152
 466 0260 00032440 		.word	1076101888
 467 0264 04032440 		.word	1076101892
 468 0268 00022440 		.word	1076101632
 469 026c 04022440 		.word	1076101636
 470 0270 00000000 		.word	I2C_1_SPI_UART_ISR
 471 0274 880E2440 		.word	1076104840
 472 0278 C80E2440 		.word	1076104904
 473 027c 480F2440 		.word	1076105032
 474 0280 080F2440 		.word	1076104968
 475 0284 C80F2440 		.word	1076105160
 476 0288 FFF7FFFF 		.word	-2049
 477 028c 880F2440 		.word	1076105096
 478 0290 FFFDFFFF 		.word	-513
 479 0294 00000000 		.word	I2C_1_IntrTxMask
 480 0298 00000000 		.word	I2C_1_rxBufferHead
 481 029c 00000000 		.word	I2C_1_rxBufferTail
 482 02a0 00000000 		.word	I2C_1_rxBufferOverflow
 483 02a4 00000000 		.word	I2C_1_txBufferHead
 484 02a8 00000000 		.word	I2C_1_txBufferTail
 485              		.cfi_endproc
 486              	.LFE2:
 487              		.size	I2C_1_SpiInit, .-I2C_1_SpiInit
 488              		.section	.text.I2C_1_SpiPostEnable,"ax",%progbits
 489              		.align	2
 490              		.global	I2C_1_SpiPostEnable
 491              		.code	16
 492              		.thumb_func
 493              		.type	I2C_1_SpiPostEnable, %function
 494              	I2C_1_SpiPostEnable:
 495              	.LFB3:
 162:Generated_Source\PSoC4/I2C_1_SPI.c **** 
 163:Generated_Source\PSoC4/I2C_1_SPI.c **** #else
ARM GAS  C:\Users\sergio\AppData\Local\Temp\cc0XrIjW.s 			page 14


 164:Generated_Source\PSoC4/I2C_1_SPI.c **** 
 165:Generated_Source\PSoC4/I2C_1_SPI.c ****     /*******************************************************************************
 166:Generated_Source\PSoC4/I2C_1_SPI.c ****     * Function Name: I2C_1_SpiInit
 167:Generated_Source\PSoC4/I2C_1_SPI.c ****     ****************************************************************************//**
 168:Generated_Source\PSoC4/I2C_1_SPI.c ****     *
 169:Generated_Source\PSoC4/I2C_1_SPI.c ****     *  Configures the SCB for the SPI operation.
 170:Generated_Source\PSoC4/I2C_1_SPI.c ****     *
 171:Generated_Source\PSoC4/I2C_1_SPI.c ****     *******************************************************************************/
 172:Generated_Source\PSoC4/I2C_1_SPI.c ****     void I2C_1_SpiInit(void)
 173:Generated_Source\PSoC4/I2C_1_SPI.c ****     {
 174:Generated_Source\PSoC4/I2C_1_SPI.c ****         /* Configure SPI interface */
 175:Generated_Source\PSoC4/I2C_1_SPI.c ****         I2C_1_CTRL_REG     = I2C_1_SPI_DEFAULT_CTRL;
 176:Generated_Source\PSoC4/I2C_1_SPI.c ****         I2C_1_SPI_CTRL_REG = I2C_1_SPI_DEFAULT_SPI_CTRL;
 177:Generated_Source\PSoC4/I2C_1_SPI.c **** 
 178:Generated_Source\PSoC4/I2C_1_SPI.c ****         /* Configure TX and RX direction */
 179:Generated_Source\PSoC4/I2C_1_SPI.c ****         I2C_1_RX_CTRL_REG      = I2C_1_SPI_DEFAULT_RX_CTRL;
 180:Generated_Source\PSoC4/I2C_1_SPI.c ****         I2C_1_RX_FIFO_CTRL_REG = I2C_1_SPI_DEFAULT_RX_FIFO_CTRL;
 181:Generated_Source\PSoC4/I2C_1_SPI.c **** 
 182:Generated_Source\PSoC4/I2C_1_SPI.c ****         /* Configure TX and RX direction */
 183:Generated_Source\PSoC4/I2C_1_SPI.c ****         I2C_1_TX_CTRL_REG      = I2C_1_SPI_DEFAULT_TX_CTRL;
 184:Generated_Source\PSoC4/I2C_1_SPI.c ****         I2C_1_TX_FIFO_CTRL_REG = I2C_1_SPI_DEFAULT_TX_FIFO_CTRL;
 185:Generated_Source\PSoC4/I2C_1_SPI.c **** 
 186:Generated_Source\PSoC4/I2C_1_SPI.c ****         /* Configure interrupt with SPI handler but do not enable it */
 187:Generated_Source\PSoC4/I2C_1_SPI.c ****     #if(I2C_1_SCB_IRQ_INTERNAL)
 188:Generated_Source\PSoC4/I2C_1_SPI.c ****             CyIntDisable    (I2C_1_ISR_NUMBER);
 189:Generated_Source\PSoC4/I2C_1_SPI.c ****             CyIntSetPriority(I2C_1_ISR_NUMBER, I2C_1_ISR_PRIORITY);
 190:Generated_Source\PSoC4/I2C_1_SPI.c ****             (void) CyIntSetVector(I2C_1_ISR_NUMBER, &I2C_1_SPI_UART_ISR);
 191:Generated_Source\PSoC4/I2C_1_SPI.c ****     #endif /* (I2C_1_SCB_IRQ_INTERNAL) */
 192:Generated_Source\PSoC4/I2C_1_SPI.c **** 
 193:Generated_Source\PSoC4/I2C_1_SPI.c ****         /* Configure interrupt sources */
 194:Generated_Source\PSoC4/I2C_1_SPI.c ****         I2C_1_INTR_I2C_EC_MASK_REG = I2C_1_SPI_DEFAULT_INTR_I2C_EC_MASK;
 195:Generated_Source\PSoC4/I2C_1_SPI.c ****         I2C_1_INTR_SPI_EC_MASK_REG = I2C_1_SPI_DEFAULT_INTR_SPI_EC_MASK;
 196:Generated_Source\PSoC4/I2C_1_SPI.c ****         I2C_1_INTR_SLAVE_MASK_REG  = I2C_1_SPI_DEFAULT_INTR_SLAVE_MASK;
 197:Generated_Source\PSoC4/I2C_1_SPI.c ****         I2C_1_INTR_MASTER_MASK_REG = I2C_1_SPI_DEFAULT_INTR_MASTER_MASK;
 198:Generated_Source\PSoC4/I2C_1_SPI.c ****         I2C_1_INTR_RX_MASK_REG     = I2C_1_SPI_DEFAULT_INTR_RX_MASK;
 199:Generated_Source\PSoC4/I2C_1_SPI.c ****         I2C_1_INTR_TX_MASK_REG     = I2C_1_SPI_DEFAULT_INTR_TX_MASK;
 200:Generated_Source\PSoC4/I2C_1_SPI.c **** 
 201:Generated_Source\PSoC4/I2C_1_SPI.c ****         /* Configure TX interrupt sources to restore. */
 202:Generated_Source\PSoC4/I2C_1_SPI.c ****         I2C_1_IntrTxMask = LO16(I2C_1_INTR_TX_MASK_REG);
 203:Generated_Source\PSoC4/I2C_1_SPI.c ****             
 204:Generated_Source\PSoC4/I2C_1_SPI.c ****         /* Set active SS0 for master */
 205:Generated_Source\PSoC4/I2C_1_SPI.c ****     #if (I2C_1_SPI_MASTER_CONST)
 206:Generated_Source\PSoC4/I2C_1_SPI.c ****         I2C_1_SpiSetActiveSlaveSelect(I2C_1_SPI_SLAVE_SELECT0);
 207:Generated_Source\PSoC4/I2C_1_SPI.c ****     #endif /* (I2C_1_SPI_MASTER_CONST) */
 208:Generated_Source\PSoC4/I2C_1_SPI.c **** 
 209:Generated_Source\PSoC4/I2C_1_SPI.c ****     #if(I2C_1_INTERNAL_RX_SW_BUFFER_CONST)
 210:Generated_Source\PSoC4/I2C_1_SPI.c ****         I2C_1_rxBufferHead     = 0u;
 211:Generated_Source\PSoC4/I2C_1_SPI.c ****         I2C_1_rxBufferTail     = 0u;
 212:Generated_Source\PSoC4/I2C_1_SPI.c ****         I2C_1_rxBufferOverflow = 0u;
 213:Generated_Source\PSoC4/I2C_1_SPI.c ****     #endif /* (I2C_1_INTERNAL_RX_SW_BUFFER_CONST) */
 214:Generated_Source\PSoC4/I2C_1_SPI.c **** 
 215:Generated_Source\PSoC4/I2C_1_SPI.c ****     #if(I2C_1_INTERNAL_TX_SW_BUFFER_CONST)
 216:Generated_Source\PSoC4/I2C_1_SPI.c ****         I2C_1_txBufferHead = 0u;
 217:Generated_Source\PSoC4/I2C_1_SPI.c ****         I2C_1_txBufferTail = 0u;
 218:Generated_Source\PSoC4/I2C_1_SPI.c ****     #endif /* (I2C_1_INTERNAL_TX_SW_BUFFER_CONST) */
 219:Generated_Source\PSoC4/I2C_1_SPI.c ****     }
 220:Generated_Source\PSoC4/I2C_1_SPI.c **** #endif /* (I2C_1_SCB_MODE_UNCONFIG_CONST_CFG) */
ARM GAS  C:\Users\sergio\AppData\Local\Temp\cc0XrIjW.s 			page 15


 221:Generated_Source\PSoC4/I2C_1_SPI.c **** 
 222:Generated_Source\PSoC4/I2C_1_SPI.c **** 
 223:Generated_Source\PSoC4/I2C_1_SPI.c **** /*******************************************************************************
 224:Generated_Source\PSoC4/I2C_1_SPI.c **** * Function Name: I2C_1_SpiPostEnable
 225:Generated_Source\PSoC4/I2C_1_SPI.c **** ****************************************************************************//**
 226:Generated_Source\PSoC4/I2C_1_SPI.c **** *
 227:Generated_Source\PSoC4/I2C_1_SPI.c **** *  Restores HSIOM settings for the SPI master output pins (SCLK and/or SS0-SS3) 
 228:Generated_Source\PSoC4/I2C_1_SPI.c **** *  to be controlled by the SCB SPI.
 229:Generated_Source\PSoC4/I2C_1_SPI.c **** *
 230:Generated_Source\PSoC4/I2C_1_SPI.c **** *******************************************************************************/
 231:Generated_Source\PSoC4/I2C_1_SPI.c **** void I2C_1_SpiPostEnable(void)
 232:Generated_Source\PSoC4/I2C_1_SPI.c **** {
 496              		.loc 1 232 0
 497              		.cfi_startproc
 498              		@ args = 0, pretend = 0, frame = 0
 499              		@ frame_needed = 1, uses_anonymous_args = 0
 500 0000 80B5     		push	{r7, lr}
 501              		.cfi_def_cfa_offset 8
 502              		.cfi_offset 7, -8
 503              		.cfi_offset 14, -4
 504 0002 00AF     		add	r7, sp, #0
 505              		.cfi_def_cfa_register 7
 233:Generated_Source\PSoC4/I2C_1_SPI.c **** #if(I2C_1_SCB_MODE_UNCONFIG_CONST_CFG)
 234:Generated_Source\PSoC4/I2C_1_SPI.c **** 
 235:Generated_Source\PSoC4/I2C_1_SPI.c ****     if (I2C_1_CHECK_SPI_MASTER)
 506              		.loc 1 235 0
 507 0004 044B     		ldr	r3, .L28
 508 0006 1B68     		ldr	r3, [r3]
 236:Generated_Source\PSoC4/I2C_1_SPI.c ****     {
 237:Generated_Source\PSoC4/I2C_1_SPI.c ****     #if (I2C_1_CTS_SCLK_PIN)
 238:Generated_Source\PSoC4/I2C_1_SPI.c ****         /* Set SCB SPI to drive output pin */
 239:Generated_Source\PSoC4/I2C_1_SPI.c ****         I2C_1_SET_HSIOM_SEL(I2C_1_CTS_SCLK_HSIOM_REG, I2C_1_CTS_SCLK_HSIOM_MASK,
 240:Generated_Source\PSoC4/I2C_1_SPI.c ****                                        I2C_1_CTS_SCLK_HSIOM_POS, I2C_1_CTS_SCLK_HSIOM_SEL_SPI);
 241:Generated_Source\PSoC4/I2C_1_SPI.c ****     #endif /* (I2C_1_CTS_SCLK_PIN) */
 242:Generated_Source\PSoC4/I2C_1_SPI.c **** 
 243:Generated_Source\PSoC4/I2C_1_SPI.c ****     #if (I2C_1_RTS_SS0_PIN)
 244:Generated_Source\PSoC4/I2C_1_SPI.c ****         /* Set SCB SPI to drive output pin */
 245:Generated_Source\PSoC4/I2C_1_SPI.c ****         I2C_1_SET_HSIOM_SEL(I2C_1_RTS_SS0_HSIOM_REG, I2C_1_RTS_SS0_HSIOM_MASK,
 246:Generated_Source\PSoC4/I2C_1_SPI.c ****                                        I2C_1_RTS_SS0_HSIOM_POS, I2C_1_RTS_SS0_HSIOM_SEL_SPI);
 247:Generated_Source\PSoC4/I2C_1_SPI.c ****     #endif /* (I2C_1_RTS_SS0_PIN) */
 248:Generated_Source\PSoC4/I2C_1_SPI.c **** 
 249:Generated_Source\PSoC4/I2C_1_SPI.c ****     #if (I2C_1_SS1_PIN)
 250:Generated_Source\PSoC4/I2C_1_SPI.c ****         /* Set SCB SPI to drive output pin */
 251:Generated_Source\PSoC4/I2C_1_SPI.c ****         I2C_1_SET_HSIOM_SEL(I2C_1_SS1_HSIOM_REG, I2C_1_SS1_HSIOM_MASK,
 252:Generated_Source\PSoC4/I2C_1_SPI.c ****                                        I2C_1_SS1_HSIOM_POS, I2C_1_SS1_HSIOM_SEL_SPI);
 253:Generated_Source\PSoC4/I2C_1_SPI.c ****     #endif /* (I2C_1_SS1_PIN) */
 254:Generated_Source\PSoC4/I2C_1_SPI.c **** 
 255:Generated_Source\PSoC4/I2C_1_SPI.c ****     #if (I2C_1_SS2_PIN)
 256:Generated_Source\PSoC4/I2C_1_SPI.c ****         /* Set SCB SPI to drive output pin */
 257:Generated_Source\PSoC4/I2C_1_SPI.c ****         I2C_1_SET_HSIOM_SEL(I2C_1_SS2_HSIOM_REG, I2C_1_SS2_HSIOM_MASK,
 258:Generated_Source\PSoC4/I2C_1_SPI.c ****                                        I2C_1_SS2_HSIOM_POS, I2C_1_SS2_HSIOM_SEL_SPI);
 259:Generated_Source\PSoC4/I2C_1_SPI.c ****     #endif /* (I2C_1_SS2_PIN) */
 260:Generated_Source\PSoC4/I2C_1_SPI.c **** 
 261:Generated_Source\PSoC4/I2C_1_SPI.c ****     #if (I2C_1_SS3_PIN)
 262:Generated_Source\PSoC4/I2C_1_SPI.c ****         /* Set SCB SPI to drive output pin */
 263:Generated_Source\PSoC4/I2C_1_SPI.c ****         I2C_1_SET_HSIOM_SEL(I2C_1_SS3_HSIOM_REG, I2C_1_SS3_HSIOM_MASK,
 264:Generated_Source\PSoC4/I2C_1_SPI.c ****                                        I2C_1_SS3_HSIOM_POS, I2C_1_SS3_HSIOM_SEL_SPI);
ARM GAS  C:\Users\sergio\AppData\Local\Temp\cc0XrIjW.s 			page 16


 265:Generated_Source\PSoC4/I2C_1_SPI.c ****     #endif /* (I2C_1_SS3_PIN) */
 266:Generated_Source\PSoC4/I2C_1_SPI.c ****     }
 267:Generated_Source\PSoC4/I2C_1_SPI.c **** 
 268:Generated_Source\PSoC4/I2C_1_SPI.c **** #else
 269:Generated_Source\PSoC4/I2C_1_SPI.c **** 
 270:Generated_Source\PSoC4/I2C_1_SPI.c ****     #if (I2C_1_SPI_MASTER_SCLK_PIN)
 271:Generated_Source\PSoC4/I2C_1_SPI.c ****         /* Set SCB SPI to drive output pin */
 272:Generated_Source\PSoC4/I2C_1_SPI.c ****         I2C_1_SET_HSIOM_SEL(I2C_1_SCLK_M_HSIOM_REG, I2C_1_SCLK_M_HSIOM_MASK,
 273:Generated_Source\PSoC4/I2C_1_SPI.c ****                                        I2C_1_SCLK_M_HSIOM_POS, I2C_1_SCLK_M_HSIOM_SEL_SPI);
 274:Generated_Source\PSoC4/I2C_1_SPI.c ****     #endif /* (I2C_1_MISO_SDA_TX_PIN_PIN) */
 275:Generated_Source\PSoC4/I2C_1_SPI.c **** 
 276:Generated_Source\PSoC4/I2C_1_SPI.c ****     #if (I2C_1_SPI_MASTER_SS0_PIN)
 277:Generated_Source\PSoC4/I2C_1_SPI.c ****         /* Set SCB SPI to drive output pin */
 278:Generated_Source\PSoC4/I2C_1_SPI.c ****         I2C_1_SET_HSIOM_SEL(I2C_1_SS0_M_HSIOM_REG, I2C_1_SS0_M_HSIOM_MASK,
 279:Generated_Source\PSoC4/I2C_1_SPI.c ****                                        I2C_1_SS0_M_HSIOM_POS, I2C_1_SS0_M_HSIOM_SEL_SPI);
 280:Generated_Source\PSoC4/I2C_1_SPI.c ****     #endif /* (I2C_1_SPI_MASTER_SS0_PIN) */
 281:Generated_Source\PSoC4/I2C_1_SPI.c **** 
 282:Generated_Source\PSoC4/I2C_1_SPI.c ****     #if (I2C_1_SPI_MASTER_SS1_PIN)
 283:Generated_Source\PSoC4/I2C_1_SPI.c ****         /* Set SCB SPI to drive output pin */
 284:Generated_Source\PSoC4/I2C_1_SPI.c ****         I2C_1_SET_HSIOM_SEL(I2C_1_SS1_M_HSIOM_REG, I2C_1_SS1_M_HSIOM_MASK,
 285:Generated_Source\PSoC4/I2C_1_SPI.c ****                                        I2C_1_SS1_M_HSIOM_POS, I2C_1_SS1_M_HSIOM_SEL_SPI);
 286:Generated_Source\PSoC4/I2C_1_SPI.c ****     #endif /* (I2C_1_SPI_MASTER_SS1_PIN) */
 287:Generated_Source\PSoC4/I2C_1_SPI.c **** 
 288:Generated_Source\PSoC4/I2C_1_SPI.c ****     #if (I2C_1_SPI_MASTER_SS2_PIN)
 289:Generated_Source\PSoC4/I2C_1_SPI.c ****         /* Set SCB SPI to drive output pin */
 290:Generated_Source\PSoC4/I2C_1_SPI.c ****         I2C_1_SET_HSIOM_SEL(I2C_1_SS2_M_HSIOM_REG, I2C_1_SS2_M_HSIOM_MASK,
 291:Generated_Source\PSoC4/I2C_1_SPI.c ****                                        I2C_1_SS2_M_HSIOM_POS, I2C_1_SS2_M_HSIOM_SEL_SPI);
 292:Generated_Source\PSoC4/I2C_1_SPI.c ****     #endif /* (I2C_1_SPI_MASTER_SS2_PIN) */
 293:Generated_Source\PSoC4/I2C_1_SPI.c **** 
 294:Generated_Source\PSoC4/I2C_1_SPI.c ****     #if (I2C_1_SPI_MASTER_SS3_PIN)
 295:Generated_Source\PSoC4/I2C_1_SPI.c ****         /* Set SCB SPI to drive output pin */
 296:Generated_Source\PSoC4/I2C_1_SPI.c ****         I2C_1_SET_HSIOM_SEL(I2C_1_SS3_M_HSIOM_REG, I2C_1_SS3_M_HSIOM_MASK,
 297:Generated_Source\PSoC4/I2C_1_SPI.c ****                                        I2C_1_SS3_M_HSIOM_POS, I2C_1_SS3_M_HSIOM_SEL_SPI);
 298:Generated_Source\PSoC4/I2C_1_SPI.c ****     #endif /* (I2C_1_SPI_MASTER_SS3_PIN) */
 299:Generated_Source\PSoC4/I2C_1_SPI.c **** 
 300:Generated_Source\PSoC4/I2C_1_SPI.c **** #endif /* (I2C_1_SCB_MODE_UNCONFIG_CONST_CFG) */
 301:Generated_Source\PSoC4/I2C_1_SPI.c **** 
 302:Generated_Source\PSoC4/I2C_1_SPI.c ****     /* Restore TX interrupt sources. */
 303:Generated_Source\PSoC4/I2C_1_SPI.c ****     I2C_1_SetTxInterruptMode(I2C_1_IntrTxMask);
 509              		.loc 1 303 0
 510 0008 044B     		ldr	r3, .L28+4
 511 000a 054A     		ldr	r2, .L28+8
 512 000c 1288     		ldrh	r2, [r2]
 513 000e 1A60     		str	r2, [r3]
 304:Generated_Source\PSoC4/I2C_1_SPI.c **** }
 514              		.loc 1 304 0
 515 0010 C046     		nop
 516 0012 BD46     		mov	sp, r7
 517              		@ sp needed
 518 0014 80BD     		pop	{r7, pc}
 519              	.L29:
 520 0016 C046     		.align	2
 521              	.L28:
 522 0018 20002440 		.word	1076101152
 523 001c 880F2440 		.word	1076105096
 524 0020 00000000 		.word	I2C_1_IntrTxMask
 525              		.cfi_endproc
ARM GAS  C:\Users\sergio\AppData\Local\Temp\cc0XrIjW.s 			page 17


 526              	.LFE3:
 527              		.size	I2C_1_SpiPostEnable, .-I2C_1_SpiPostEnable
 528              		.section	.text.I2C_1_SpiStop,"ax",%progbits
 529              		.align	2
 530              		.global	I2C_1_SpiStop
 531              		.code	16
 532              		.thumb_func
 533              		.type	I2C_1_SpiStop, %function
 534              	I2C_1_SpiStop:
 535              	.LFB4:
 305:Generated_Source\PSoC4/I2C_1_SPI.c **** 
 306:Generated_Source\PSoC4/I2C_1_SPI.c **** 
 307:Generated_Source\PSoC4/I2C_1_SPI.c **** /*******************************************************************************
 308:Generated_Source\PSoC4/I2C_1_SPI.c **** * Function Name: I2C_1_SpiStop
 309:Generated_Source\PSoC4/I2C_1_SPI.c **** ****************************************************************************//**
 310:Generated_Source\PSoC4/I2C_1_SPI.c **** *
 311:Generated_Source\PSoC4/I2C_1_SPI.c **** *  Changes the HSIOM settings for the SPI master output pins 
 312:Generated_Source\PSoC4/I2C_1_SPI.c **** *  (SCLK and/or SS0-SS3) to keep them inactive after the block is disabled. 
 313:Generated_Source\PSoC4/I2C_1_SPI.c **** *  The output pins are controlled by the GPIO data register.
 314:Generated_Source\PSoC4/I2C_1_SPI.c **** *
 315:Generated_Source\PSoC4/I2C_1_SPI.c **** *******************************************************************************/
 316:Generated_Source\PSoC4/I2C_1_SPI.c **** void I2C_1_SpiStop(void)
 317:Generated_Source\PSoC4/I2C_1_SPI.c **** {
 536              		.loc 1 317 0
 537              		.cfi_startproc
 538              		@ args = 0, pretend = 0, frame = 0
 539              		@ frame_needed = 1, uses_anonymous_args = 0
 540 0000 80B5     		push	{r7, lr}
 541              		.cfi_def_cfa_offset 8
 542              		.cfi_offset 7, -8
 543              		.cfi_offset 14, -4
 544 0002 00AF     		add	r7, sp, #0
 545              		.cfi_def_cfa_register 7
 318:Generated_Source\PSoC4/I2C_1_SPI.c **** #if(I2C_1_SCB_MODE_UNCONFIG_CONST_CFG)
 319:Generated_Source\PSoC4/I2C_1_SPI.c **** 
 320:Generated_Source\PSoC4/I2C_1_SPI.c ****     if (I2C_1_CHECK_SPI_MASTER)
 546              		.loc 1 320 0
 547 0004 0B4B     		ldr	r3, .L34
 548 0006 1B68     		ldr	r3, [r3]
 549 0008 002B     		cmp	r3, #0
 550 000a 08DA     		bge	.L31
 321:Generated_Source\PSoC4/I2C_1_SPI.c ****     {
 322:Generated_Source\PSoC4/I2C_1_SPI.c ****     #if (I2C_1_CTS_SCLK_PIN)
 323:Generated_Source\PSoC4/I2C_1_SPI.c ****         /* Set output pin state after block is disabled */
 324:Generated_Source\PSoC4/I2C_1_SPI.c ****         I2C_1_uart_cts_spi_sclk_Write(I2C_1_GET_SPI_SCLK_INACTIVE);
 325:Generated_Source\PSoC4/I2C_1_SPI.c **** 
 326:Generated_Source\PSoC4/I2C_1_SPI.c ****         /* Set GPIO to drive output pin */
 327:Generated_Source\PSoC4/I2C_1_SPI.c ****         I2C_1_SET_HSIOM_SEL(I2C_1_CTS_SCLK_HSIOM_REG, I2C_1_CTS_SCLK_HSIOM_MASK,
 328:Generated_Source\PSoC4/I2C_1_SPI.c ****                                        I2C_1_CTS_SCLK_HSIOM_POS, I2C_1_CTS_SCLK_HSIOM_SEL_GPIO);
 329:Generated_Source\PSoC4/I2C_1_SPI.c ****     #endif /* (I2C_1_uart_cts_spi_sclk_PIN) */
 330:Generated_Source\PSoC4/I2C_1_SPI.c **** 
 331:Generated_Source\PSoC4/I2C_1_SPI.c ****     #if (I2C_1_RTS_SS0_PIN)
 332:Generated_Source\PSoC4/I2C_1_SPI.c ****         /* Set output pin state after block is disabled */
 333:Generated_Source\PSoC4/I2C_1_SPI.c ****         I2C_1_uart_rts_spi_ss0_Write(I2C_1_GET_SPI_SS0_INACTIVE);
 334:Generated_Source\PSoC4/I2C_1_SPI.c **** 
 335:Generated_Source\PSoC4/I2C_1_SPI.c ****         /* Set GPIO to drive output pin */
 336:Generated_Source\PSoC4/I2C_1_SPI.c ****         I2C_1_SET_HSIOM_SEL(I2C_1_RTS_SS0_HSIOM_REG, I2C_1_RTS_SS0_HSIOM_MASK,
ARM GAS  C:\Users\sergio\AppData\Local\Temp\cc0XrIjW.s 			page 18


 337:Generated_Source\PSoC4/I2C_1_SPI.c ****                                        I2C_1_RTS_SS0_HSIOM_POS, I2C_1_RTS_SS0_HSIOM_SEL_GPIO);
 338:Generated_Source\PSoC4/I2C_1_SPI.c ****     #endif /* (I2C_1_uart_rts_spi_ss0_PIN) */
 339:Generated_Source\PSoC4/I2C_1_SPI.c **** 
 340:Generated_Source\PSoC4/I2C_1_SPI.c ****     #if (I2C_1_SS1_PIN)
 341:Generated_Source\PSoC4/I2C_1_SPI.c ****         /* Set output pin state after block is disabled */
 342:Generated_Source\PSoC4/I2C_1_SPI.c ****         I2C_1_spi_ss1_Write(I2C_1_GET_SPI_SS1_INACTIVE);
 343:Generated_Source\PSoC4/I2C_1_SPI.c **** 
 344:Generated_Source\PSoC4/I2C_1_SPI.c ****         /* Set GPIO to drive output pin */
 345:Generated_Source\PSoC4/I2C_1_SPI.c ****         I2C_1_SET_HSIOM_SEL(I2C_1_SS1_HSIOM_REG, I2C_1_SS1_HSIOM_MASK,
 346:Generated_Source\PSoC4/I2C_1_SPI.c ****                                        I2C_1_SS1_HSIOM_POS, I2C_1_SS1_HSIOM_SEL_GPIO);
 347:Generated_Source\PSoC4/I2C_1_SPI.c ****     #endif /* (I2C_1_SS1_PIN) */
 348:Generated_Source\PSoC4/I2C_1_SPI.c **** 
 349:Generated_Source\PSoC4/I2C_1_SPI.c ****     #if (I2C_1_SS2_PIN)
 350:Generated_Source\PSoC4/I2C_1_SPI.c ****         /* Set output pin state after block is disabled */
 351:Generated_Source\PSoC4/I2C_1_SPI.c ****         I2C_1_spi_ss2_Write(I2C_1_GET_SPI_SS2_INACTIVE);
 352:Generated_Source\PSoC4/I2C_1_SPI.c **** 
 353:Generated_Source\PSoC4/I2C_1_SPI.c ****         /* Set GPIO to drive output pin */
 354:Generated_Source\PSoC4/I2C_1_SPI.c ****         I2C_1_SET_HSIOM_SEL(I2C_1_SS2_HSIOM_REG, I2C_1_SS2_HSIOM_MASK,
 355:Generated_Source\PSoC4/I2C_1_SPI.c ****                                        I2C_1_SS2_HSIOM_POS, I2C_1_SS2_HSIOM_SEL_GPIO);
 356:Generated_Source\PSoC4/I2C_1_SPI.c ****     #endif /* (I2C_1_SS2_PIN) */
 357:Generated_Source\PSoC4/I2C_1_SPI.c **** 
 358:Generated_Source\PSoC4/I2C_1_SPI.c ****     #if (I2C_1_SS3_PIN)
 359:Generated_Source\PSoC4/I2C_1_SPI.c ****         /* Set output pin state after block is disabled */
 360:Generated_Source\PSoC4/I2C_1_SPI.c ****         I2C_1_spi_ss3_Write(I2C_1_GET_SPI_SS3_INACTIVE);
 361:Generated_Source\PSoC4/I2C_1_SPI.c **** 
 362:Generated_Source\PSoC4/I2C_1_SPI.c ****         /* Set GPIO to drive output pin */
 363:Generated_Source\PSoC4/I2C_1_SPI.c ****         I2C_1_SET_HSIOM_SEL(I2C_1_SS3_HSIOM_REG, I2C_1_SS3_HSIOM_MASK,
 364:Generated_Source\PSoC4/I2C_1_SPI.c ****                                        I2C_1_SS3_HSIOM_POS, I2C_1_SS3_HSIOM_SEL_GPIO);
 365:Generated_Source\PSoC4/I2C_1_SPI.c ****     #endif /* (I2C_1_SS3_PIN) */
 366:Generated_Source\PSoC4/I2C_1_SPI.c ****     
 367:Generated_Source\PSoC4/I2C_1_SPI.c ****         /* Store TX interrupt sources (exclude level triggered) for master. */
 368:Generated_Source\PSoC4/I2C_1_SPI.c ****         I2C_1_IntrTxMask = LO16(I2C_1_GetTxInterruptMode() & I2C_1_INTR_SPIM_TX_RESTORE);
 551              		.loc 1 368 0
 552 000c 0A4B     		ldr	r3, .L34+4
 553 000e 1B68     		ldr	r3, [r3]
 554 0010 9BB2     		uxth	r3, r3
 555 0012 2022     		movs	r2, #32
 556 0014 1340     		ands	r3, r2
 557 0016 9AB2     		uxth	r2, r3
 558 0018 084B     		ldr	r3, .L34+8
 559 001a 1A80     		strh	r2, [r3]
 369:Generated_Source\PSoC4/I2C_1_SPI.c ****     }
 370:Generated_Source\PSoC4/I2C_1_SPI.c ****     else
 371:Generated_Source\PSoC4/I2C_1_SPI.c ****     {
 372:Generated_Source\PSoC4/I2C_1_SPI.c ****         /* Store TX interrupt sources (exclude level triggered) for slave. */
 373:Generated_Source\PSoC4/I2C_1_SPI.c ****         I2C_1_IntrTxMask = LO16(I2C_1_GetTxInterruptMode() & I2C_1_INTR_SPIS_TX_RESTORE);
 374:Generated_Source\PSoC4/I2C_1_SPI.c ****     }
 375:Generated_Source\PSoC4/I2C_1_SPI.c **** 
 376:Generated_Source\PSoC4/I2C_1_SPI.c **** #else
 377:Generated_Source\PSoC4/I2C_1_SPI.c **** 
 378:Generated_Source\PSoC4/I2C_1_SPI.c **** #if (I2C_1_SPI_MASTER_SCLK_PIN)
 379:Generated_Source\PSoC4/I2C_1_SPI.c ****     /* Set output pin state after block is disabled */
 380:Generated_Source\PSoC4/I2C_1_SPI.c ****     I2C_1_sclk_m_Write(I2C_1_GET_SPI_SCLK_INACTIVE);
 381:Generated_Source\PSoC4/I2C_1_SPI.c **** 
 382:Generated_Source\PSoC4/I2C_1_SPI.c ****     /* Set GPIO to drive output pin */
 383:Generated_Source\PSoC4/I2C_1_SPI.c ****     I2C_1_SET_HSIOM_SEL(I2C_1_SCLK_M_HSIOM_REG, I2C_1_SCLK_M_HSIOM_MASK,
 384:Generated_Source\PSoC4/I2C_1_SPI.c ****                                    I2C_1_SCLK_M_HSIOM_POS, I2C_1_SCLK_M_HSIOM_SEL_GPIO);
ARM GAS  C:\Users\sergio\AppData\Local\Temp\cc0XrIjW.s 			page 19


 385:Generated_Source\PSoC4/I2C_1_SPI.c **** #endif /* (I2C_1_MISO_SDA_TX_PIN_PIN) */
 386:Generated_Source\PSoC4/I2C_1_SPI.c **** 
 387:Generated_Source\PSoC4/I2C_1_SPI.c **** #if (I2C_1_SPI_MASTER_SS0_PIN)
 388:Generated_Source\PSoC4/I2C_1_SPI.c ****     /* Set output pin state after block is disabled */
 389:Generated_Source\PSoC4/I2C_1_SPI.c ****     I2C_1_ss0_m_Write(I2C_1_GET_SPI_SS0_INACTIVE);
 390:Generated_Source\PSoC4/I2C_1_SPI.c **** 
 391:Generated_Source\PSoC4/I2C_1_SPI.c ****     /* Set GPIO to drive output pin */
 392:Generated_Source\PSoC4/I2C_1_SPI.c ****     I2C_1_SET_HSIOM_SEL(I2C_1_SS0_M_HSIOM_REG, I2C_1_SS0_M_HSIOM_MASK,
 393:Generated_Source\PSoC4/I2C_1_SPI.c ****                                    I2C_1_SS0_M_HSIOM_POS, I2C_1_SS0_M_HSIOM_SEL_GPIO);
 394:Generated_Source\PSoC4/I2C_1_SPI.c **** #endif /* (I2C_1_SPI_MASTER_SS0_PIN) */
 395:Generated_Source\PSoC4/I2C_1_SPI.c **** 
 396:Generated_Source\PSoC4/I2C_1_SPI.c **** #if (I2C_1_SPI_MASTER_SS1_PIN)
 397:Generated_Source\PSoC4/I2C_1_SPI.c ****     /* Set output pin state after block is disabled */
 398:Generated_Source\PSoC4/I2C_1_SPI.c ****     I2C_1_ss1_m_Write(I2C_1_GET_SPI_SS1_INACTIVE);
 399:Generated_Source\PSoC4/I2C_1_SPI.c **** 
 400:Generated_Source\PSoC4/I2C_1_SPI.c ****     /* Set GPIO to drive output pin */
 401:Generated_Source\PSoC4/I2C_1_SPI.c ****     I2C_1_SET_HSIOM_SEL(I2C_1_SS1_M_HSIOM_REG, I2C_1_SS1_M_HSIOM_MASK,
 402:Generated_Source\PSoC4/I2C_1_SPI.c ****                                    I2C_1_SS1_M_HSIOM_POS, I2C_1_SS1_M_HSIOM_SEL_GPIO);
 403:Generated_Source\PSoC4/I2C_1_SPI.c **** #endif /* (I2C_1_SPI_MASTER_SS1_PIN) */
 404:Generated_Source\PSoC4/I2C_1_SPI.c **** 
 405:Generated_Source\PSoC4/I2C_1_SPI.c **** #if (I2C_1_SPI_MASTER_SS2_PIN)
 406:Generated_Source\PSoC4/I2C_1_SPI.c ****     /* Set output pin state after block is disabled */
 407:Generated_Source\PSoC4/I2C_1_SPI.c ****     I2C_1_ss2_m_Write(I2C_1_GET_SPI_SS2_INACTIVE);
 408:Generated_Source\PSoC4/I2C_1_SPI.c **** 
 409:Generated_Source\PSoC4/I2C_1_SPI.c ****     /* Set GPIO to drive output pin */
 410:Generated_Source\PSoC4/I2C_1_SPI.c ****     I2C_1_SET_HSIOM_SEL(I2C_1_SS2_M_HSIOM_REG, I2C_1_SS2_M_HSIOM_MASK,
 411:Generated_Source\PSoC4/I2C_1_SPI.c ****                                    I2C_1_SS2_M_HSIOM_POS, I2C_1_SS2_M_HSIOM_SEL_GPIO);
 412:Generated_Source\PSoC4/I2C_1_SPI.c **** #endif /* (I2C_1_SPI_MASTER_SS2_PIN) */
 413:Generated_Source\PSoC4/I2C_1_SPI.c **** 
 414:Generated_Source\PSoC4/I2C_1_SPI.c **** #if (I2C_1_SPI_MASTER_SS3_PIN)
 415:Generated_Source\PSoC4/I2C_1_SPI.c ****     /* Set output pin state after block is disabled */
 416:Generated_Source\PSoC4/I2C_1_SPI.c ****     I2C_1_ss3_m_Write(I2C_1_GET_SPI_SS3_INACTIVE);
 417:Generated_Source\PSoC4/I2C_1_SPI.c **** 
 418:Generated_Source\PSoC4/I2C_1_SPI.c ****     /* Set GPIO to drive output pin */
 419:Generated_Source\PSoC4/I2C_1_SPI.c ****     I2C_1_SET_HSIOM_SEL(I2C_1_SS3_M_HSIOM_REG, I2C_1_SS3_M_HSIOM_MASK,
 420:Generated_Source\PSoC4/I2C_1_SPI.c ****                                    I2C_1_SS3_M_HSIOM_POS, I2C_1_SS3_M_HSIOM_SEL_GPIO);
 421:Generated_Source\PSoC4/I2C_1_SPI.c **** #endif /* (I2C_1_SPI_MASTER_SS3_PIN) */
 422:Generated_Source\PSoC4/I2C_1_SPI.c **** 
 423:Generated_Source\PSoC4/I2C_1_SPI.c ****     #if (I2C_1_SPI_MASTER_CONST)
 424:Generated_Source\PSoC4/I2C_1_SPI.c ****         /* Store TX interrupt sources (exclude level triggered). */
 425:Generated_Source\PSoC4/I2C_1_SPI.c ****         I2C_1_IntrTxMask = LO16(I2C_1_GetTxInterruptMode() & I2C_1_INTR_SPIM_TX_RESTORE);
 426:Generated_Source\PSoC4/I2C_1_SPI.c ****     #else
 427:Generated_Source\PSoC4/I2C_1_SPI.c ****         /* Store TX interrupt sources (exclude level triggered). */
 428:Generated_Source\PSoC4/I2C_1_SPI.c ****         I2C_1_IntrTxMask = LO16(I2C_1_GetTxInterruptMode() & I2C_1_INTR_SPIS_TX_RESTORE);
 429:Generated_Source\PSoC4/I2C_1_SPI.c ****     #endif /* (I2C_1_SPI_MASTER_CONST) */
 430:Generated_Source\PSoC4/I2C_1_SPI.c **** 
 431:Generated_Source\PSoC4/I2C_1_SPI.c **** #endif /* (I2C_1_SCB_MODE_UNCONFIG_CONST_CFG) */
 432:Generated_Source\PSoC4/I2C_1_SPI.c **** }
 560              		.loc 1 432 0
 561 001c 07E0     		b	.L33
 562              	.L31:
 373:Generated_Source\PSoC4/I2C_1_SPI.c ****     }
 563              		.loc 1 373 0
 564 001e 064B     		ldr	r3, .L34+4
 565 0020 1B68     		ldr	r3, [r3]
 566 0022 9BB2     		uxth	r3, r3
 567 0024 6022     		movs	r2, #96
ARM GAS  C:\Users\sergio\AppData\Local\Temp\cc0XrIjW.s 			page 20


 568 0026 1340     		ands	r3, r2
 569 0028 9AB2     		uxth	r2, r3
 570 002a 044B     		ldr	r3, .L34+8
 571 002c 1A80     		strh	r2, [r3]
 572              	.L33:
 573              		.loc 1 432 0
 574 002e C046     		nop
 575 0030 BD46     		mov	sp, r7
 576              		@ sp needed
 577 0032 80BD     		pop	{r7, pc}
 578              	.L35:
 579              		.align	2
 580              	.L34:
 581 0034 20002440 		.word	1076101152
 582 0038 880F2440 		.word	1076105096
 583 003c 00000000 		.word	I2C_1_IntrTxMask
 584              		.cfi_endproc
 585              	.LFE4:
 586              		.size	I2C_1_SpiStop, .-I2C_1_SpiStop
 587              		.section	.text.I2C_1_SpiSetActiveSlaveSelect,"ax",%progbits
 588              		.align	2
 589              		.global	I2C_1_SpiSetActiveSlaveSelect
 590              		.code	16
 591              		.thumb_func
 592              		.type	I2C_1_SpiSetActiveSlaveSelect, %function
 593              	I2C_1_SpiSetActiveSlaveSelect:
 594              	.LFB5:
 433:Generated_Source\PSoC4/I2C_1_SPI.c **** 
 434:Generated_Source\PSoC4/I2C_1_SPI.c **** 
 435:Generated_Source\PSoC4/I2C_1_SPI.c **** #if (I2C_1_SPI_MASTER_CONST)
 436:Generated_Source\PSoC4/I2C_1_SPI.c ****     /*******************************************************************************
 437:Generated_Source\PSoC4/I2C_1_SPI.c ****     * Function Name: I2C_1_SetActiveSlaveSelect
 438:Generated_Source\PSoC4/I2C_1_SPI.c ****     ****************************************************************************//**
 439:Generated_Source\PSoC4/I2C_1_SPI.c ****     *
 440:Generated_Source\PSoC4/I2C_1_SPI.c ****     *  Selects one of the four slave select lines to be active during the transfer.
 441:Generated_Source\PSoC4/I2C_1_SPI.c ****     *  After initialization the active slave select line is 0.
 442:Generated_Source\PSoC4/I2C_1_SPI.c ****     *  The component should be in one of the following states to change the active
 443:Generated_Source\PSoC4/I2C_1_SPI.c ****     *  slave select signal source correctly:
 444:Generated_Source\PSoC4/I2C_1_SPI.c ****     *   - The component is disabled.
 445:Generated_Source\PSoC4/I2C_1_SPI.c ****     *   - The component has completed transfer (TX FIFO is empty and the
 446:Generated_Source\PSoC4/I2C_1_SPI.c ****     *     SCB_INTR_MASTER_SPI_DONE status is set).
 447:Generated_Source\PSoC4/I2C_1_SPI.c ****     *
 448:Generated_Source\PSoC4/I2C_1_SPI.c ****     *  This function does not check that these conditions are met.
 449:Generated_Source\PSoC4/I2C_1_SPI.c ****     *  This function is only applicable to SPI Master mode of operation.
 450:Generated_Source\PSoC4/I2C_1_SPI.c ****     *
 451:Generated_Source\PSoC4/I2C_1_SPI.c ****     *  \param slaveSelect: slave select line which will be active while the following
 452:Generated_Source\PSoC4/I2C_1_SPI.c ****     *   transfer.
 453:Generated_Source\PSoC4/I2C_1_SPI.c ****     *   - I2C_1_SPI_SLAVE_SELECT0 - Slave select 0.
 454:Generated_Source\PSoC4/I2C_1_SPI.c ****     *   - I2C_1_SPI_SLAVE_SELECT1 - Slave select 1.
 455:Generated_Source\PSoC4/I2C_1_SPI.c ****     *   - I2C_1_SPI_SLAVE_SELECT2 - Slave select 2.
 456:Generated_Source\PSoC4/I2C_1_SPI.c ****     *   - I2C_1_SPI_SLAVE_SELECT3 - Slave select 3.
 457:Generated_Source\PSoC4/I2C_1_SPI.c ****     *
 458:Generated_Source\PSoC4/I2C_1_SPI.c ****     *******************************************************************************/
 459:Generated_Source\PSoC4/I2C_1_SPI.c ****     void I2C_1_SpiSetActiveSlaveSelect(uint32 slaveSelect)
 460:Generated_Source\PSoC4/I2C_1_SPI.c ****     {
 595              		.loc 1 460 0
 596              		.cfi_startproc
ARM GAS  C:\Users\sergio\AppData\Local\Temp\cc0XrIjW.s 			page 21


 597              		@ args = 0, pretend = 0, frame = 16
 598              		@ frame_needed = 1, uses_anonymous_args = 0
 599 0000 80B5     		push	{r7, lr}
 600              		.cfi_def_cfa_offset 8
 601              		.cfi_offset 7, -8
 602              		.cfi_offset 14, -4
 603 0002 84B0     		sub	sp, sp, #16
 604              		.cfi_def_cfa_offset 24
 605 0004 00AF     		add	r7, sp, #0
 606              		.cfi_def_cfa_register 7
 607 0006 7860     		str	r0, [r7, #4]
 461:Generated_Source\PSoC4/I2C_1_SPI.c ****         uint32 spiCtrl;
 462:Generated_Source\PSoC4/I2C_1_SPI.c **** 
 463:Generated_Source\PSoC4/I2C_1_SPI.c ****         spiCtrl = I2C_1_SPI_CTRL_REG;
 608              		.loc 1 463 0
 609 0008 0A4B     		ldr	r3, .L37
 610 000a 1B68     		ldr	r3, [r3]
 611 000c FB60     		str	r3, [r7, #12]
 464:Generated_Source\PSoC4/I2C_1_SPI.c **** 
 465:Generated_Source\PSoC4/I2C_1_SPI.c ****         spiCtrl &= (uint32) ~I2C_1_SPI_CTRL_SLAVE_SELECT_MASK;
 612              		.loc 1 465 0
 613 000e FB68     		ldr	r3, [r7, #12]
 614 0010 094A     		ldr	r2, .L37+4
 615 0012 1340     		ands	r3, r2
 616 0014 FB60     		str	r3, [r7, #12]
 466:Generated_Source\PSoC4/I2C_1_SPI.c ****         spiCtrl |= (uint32)  I2C_1_GET_SPI_CTRL_SS(slaveSelect);
 617              		.loc 1 466 0
 618 0016 7B68     		ldr	r3, [r7, #4]
 619 0018 9A06     		lsls	r2, r3, #26
 620 001a C023     		movs	r3, #192
 621 001c 1B05     		lsls	r3, r3, #20
 622 001e 1340     		ands	r3, r2
 623 0020 FA68     		ldr	r2, [r7, #12]
 624 0022 1343     		orrs	r3, r2
 625 0024 FB60     		str	r3, [r7, #12]
 467:Generated_Source\PSoC4/I2C_1_SPI.c **** 
 468:Generated_Source\PSoC4/I2C_1_SPI.c ****         I2C_1_SPI_CTRL_REG = spiCtrl;
 626              		.loc 1 468 0
 627 0026 034B     		ldr	r3, .L37
 628 0028 FA68     		ldr	r2, [r7, #12]
 629 002a 1A60     		str	r2, [r3]
 469:Generated_Source\PSoC4/I2C_1_SPI.c ****     }
 630              		.loc 1 469 0
 631 002c C046     		nop
 632 002e BD46     		mov	sp, r7
 633 0030 04B0     		add	sp, sp, #16
 634              		@ sp needed
 635 0032 80BD     		pop	{r7, pc}
 636              	.L38:
 637              		.align	2
 638              	.L37:
 639 0034 20002440 		.word	1076101152
 640 0038 FFFFFFF3 		.word	-201326593
 641              		.cfi_endproc
 642              	.LFE5:
 643              		.size	I2C_1_SpiSetActiveSlaveSelect, .-I2C_1_SpiSetActiveSlaveSelect
 644              		.section	.text.I2C_1_SpiSetSlaveSelectPolarity,"ax",%progbits
ARM GAS  C:\Users\sergio\AppData\Local\Temp\cc0XrIjW.s 			page 22


 645              		.align	2
 646              		.global	I2C_1_SpiSetSlaveSelectPolarity
 647              		.code	16
 648              		.thumb_func
 649              		.type	I2C_1_SpiSetSlaveSelectPolarity, %function
 650              	I2C_1_SpiSetSlaveSelectPolarity:
 651              	.LFB6:
 470:Generated_Source\PSoC4/I2C_1_SPI.c **** #endif /* (I2C_1_SPI_MASTER_CONST) */
 471:Generated_Source\PSoC4/I2C_1_SPI.c **** 
 472:Generated_Source\PSoC4/I2C_1_SPI.c **** 
 473:Generated_Source\PSoC4/I2C_1_SPI.c **** #if !(I2C_1_CY_SCBIP_V0 || I2C_1_CY_SCBIP_V1)
 474:Generated_Source\PSoC4/I2C_1_SPI.c ****     /*******************************************************************************
 475:Generated_Source\PSoC4/I2C_1_SPI.c ****     * Function Name: I2C_1_SpiSetSlaveSelectPolarity
 476:Generated_Source\PSoC4/I2C_1_SPI.c ****     ****************************************************************************//**
 477:Generated_Source\PSoC4/I2C_1_SPI.c ****     *
 478:Generated_Source\PSoC4/I2C_1_SPI.c ****     *  Sets active polarity for slave select line.
 479:Generated_Source\PSoC4/I2C_1_SPI.c ****     *  The component should be in one of the following states to change the active
 480:Generated_Source\PSoC4/I2C_1_SPI.c ****     *  slave select signal source correctly:
 481:Generated_Source\PSoC4/I2C_1_SPI.c ****     *   - The component is disabled.
 482:Generated_Source\PSoC4/I2C_1_SPI.c ****     *   - The component has completed transfer.
 483:Generated_Source\PSoC4/I2C_1_SPI.c ****     *  
 484:Generated_Source\PSoC4/I2C_1_SPI.c ****     *  This function does not check that these conditions are met.
 485:Generated_Source\PSoC4/I2C_1_SPI.c ****     *
 486:Generated_Source\PSoC4/I2C_1_SPI.c ****     *  \param slaveSelect: slave select line to change active polarity.
 487:Generated_Source\PSoC4/I2C_1_SPI.c ****     *   - I2C_1_SPI_SLAVE_SELECT0 - Slave select 0.
 488:Generated_Source\PSoC4/I2C_1_SPI.c ****     *   - I2C_1_SPI_SLAVE_SELECT1 - Slave select 1.
 489:Generated_Source\PSoC4/I2C_1_SPI.c ****     *   - I2C_1_SPI_SLAVE_SELECT2 - Slave select 2.
 490:Generated_Source\PSoC4/I2C_1_SPI.c ****     *   - I2C_1_SPI_SLAVE_SELECT3 - Slave select 3.
 491:Generated_Source\PSoC4/I2C_1_SPI.c ****     *
 492:Generated_Source\PSoC4/I2C_1_SPI.c ****     *  \param polarity: active polarity of slave select line.
 493:Generated_Source\PSoC4/I2C_1_SPI.c ****     *   - I2C_1_SPI_SS_ACTIVE_LOW  - Slave select is active low.
 494:Generated_Source\PSoC4/I2C_1_SPI.c ****     *   - I2C_1_SPI_SS_ACTIVE_HIGH - Slave select is active high.
 495:Generated_Source\PSoC4/I2C_1_SPI.c ****     *
 496:Generated_Source\PSoC4/I2C_1_SPI.c ****     *******************************************************************************/
 497:Generated_Source\PSoC4/I2C_1_SPI.c ****     void I2C_1_SpiSetSlaveSelectPolarity(uint32 slaveSelect, uint32 polarity)
 498:Generated_Source\PSoC4/I2C_1_SPI.c ****     {
 652              		.loc 1 498 0
 653              		.cfi_startproc
 654              		@ args = 0, pretend = 0, frame = 16
 655              		@ frame_needed = 1, uses_anonymous_args = 0
 656 0000 80B5     		push	{r7, lr}
 657              		.cfi_def_cfa_offset 8
 658              		.cfi_offset 7, -8
 659              		.cfi_offset 14, -4
 660 0002 84B0     		sub	sp, sp, #16
 661              		.cfi_def_cfa_offset 24
 662 0004 00AF     		add	r7, sp, #0
 663              		.cfi_def_cfa_register 7
 664 0006 7860     		str	r0, [r7, #4]
 665 0008 3960     		str	r1, [r7]
 499:Generated_Source\PSoC4/I2C_1_SPI.c ****         uint32 ssPolarity;
 500:Generated_Source\PSoC4/I2C_1_SPI.c **** 
 501:Generated_Source\PSoC4/I2C_1_SPI.c ****         /* Get position of the polarity bit associated with slave select line */
 502:Generated_Source\PSoC4/I2C_1_SPI.c ****         ssPolarity = I2C_1_GET_SPI_CTRL_SSEL_POLARITY((uint32) 1u << slaveSelect);
 666              		.loc 1 502 0
 667 000a 0122     		movs	r2, #1
 668 000c 7B68     		ldr	r3, [r7, #4]
ARM GAS  C:\Users\sergio\AppData\Local\Temp\cc0XrIjW.s 			page 23


 669 000e 9A40     		lsls	r2, r2, r3
 670 0010 1300     		movs	r3, r2
 671 0012 1A02     		lsls	r2, r3, #8
 672 0014 F023     		movs	r3, #240
 673 0016 1B01     		lsls	r3, r3, #4
 674 0018 1340     		ands	r3, r2
 675 001a FB60     		str	r3, [r7, #12]
 503:Generated_Source\PSoC4/I2C_1_SPI.c **** 
 504:Generated_Source\PSoC4/I2C_1_SPI.c ****         if (0u != polarity)
 676              		.loc 1 504 0
 677 001c 3B68     		ldr	r3, [r7]
 678 001e 002B     		cmp	r3, #0
 679 0020 06D0     		beq	.L40
 505:Generated_Source\PSoC4/I2C_1_SPI.c ****         {
 506:Generated_Source\PSoC4/I2C_1_SPI.c ****             I2C_1_SPI_CTRL_REG |= (uint32)  ssPolarity;
 680              		.loc 1 506 0
 681 0022 094B     		ldr	r3, .L43
 682 0024 084A     		ldr	r2, .L43
 683 0026 1168     		ldr	r1, [r2]
 684 0028 FA68     		ldr	r2, [r7, #12]
 685 002a 0A43     		orrs	r2, r1
 686 002c 1A60     		str	r2, [r3]
 507:Generated_Source\PSoC4/I2C_1_SPI.c ****         }
 508:Generated_Source\PSoC4/I2C_1_SPI.c ****         else
 509:Generated_Source\PSoC4/I2C_1_SPI.c ****         {
 510:Generated_Source\PSoC4/I2C_1_SPI.c ****             I2C_1_SPI_CTRL_REG &= (uint32) ~ssPolarity;
 511:Generated_Source\PSoC4/I2C_1_SPI.c ****         }
 512:Generated_Source\PSoC4/I2C_1_SPI.c ****     }
 687              		.loc 1 512 0
 688 002e 06E0     		b	.L42
 689              	.L40:
 510:Generated_Source\PSoC4/I2C_1_SPI.c ****         }
 690              		.loc 1 510 0
 691 0030 054B     		ldr	r3, .L43
 692 0032 054A     		ldr	r2, .L43
 693 0034 1268     		ldr	r2, [r2]
 694 0036 F968     		ldr	r1, [r7, #12]
 695 0038 C943     		mvns	r1, r1
 696 003a 0A40     		ands	r2, r1
 697 003c 1A60     		str	r2, [r3]
 698              	.L42:
 699              		.loc 1 512 0
 700 003e C046     		nop
 701 0040 BD46     		mov	sp, r7
 702 0042 04B0     		add	sp, sp, #16
 703              		@ sp needed
 704 0044 80BD     		pop	{r7, pc}
 705              	.L44:
 706 0046 C046     		.align	2
 707              	.L43:
 708 0048 20002440 		.word	1076101152
 709              		.cfi_endproc
 710              	.LFE6:
 711              		.size	I2C_1_SpiSetSlaveSelectPolarity, .-I2C_1_SpiSetSlaveSelectPolarity
 712              		.section	.text.I2C_1_SpiSaveConfig,"ax",%progbits
 713              		.align	2
 714              		.global	I2C_1_SpiSaveConfig
ARM GAS  C:\Users\sergio\AppData\Local\Temp\cc0XrIjW.s 			page 24


 715              		.code	16
 716              		.thumb_func
 717              		.type	I2C_1_SpiSaveConfig, %function
 718              	I2C_1_SpiSaveConfig:
 719              	.LFB7:
 513:Generated_Source\PSoC4/I2C_1_SPI.c **** #endif /* !(I2C_1_CY_SCBIP_V0 || I2C_1_CY_SCBIP_V1) */
 514:Generated_Source\PSoC4/I2C_1_SPI.c **** 
 515:Generated_Source\PSoC4/I2C_1_SPI.c **** 
 516:Generated_Source\PSoC4/I2C_1_SPI.c **** #if(I2C_1_SPI_WAKE_ENABLE_CONST)
 517:Generated_Source\PSoC4/I2C_1_SPI.c ****     /*******************************************************************************
 518:Generated_Source\PSoC4/I2C_1_SPI.c ****     * Function Name: I2C_1_SpiSaveConfig
 519:Generated_Source\PSoC4/I2C_1_SPI.c ****     ****************************************************************************//**
 520:Generated_Source\PSoC4/I2C_1_SPI.c ****     *
 521:Generated_Source\PSoC4/I2C_1_SPI.c ****     *  Clears INTR_SPI_EC.WAKE_UP and enables it. This interrupt
 522:Generated_Source\PSoC4/I2C_1_SPI.c ****     *  source triggers when the master assigns the SS line and wakes up the device.
 523:Generated_Source\PSoC4/I2C_1_SPI.c ****     *
 524:Generated_Source\PSoC4/I2C_1_SPI.c ****     *******************************************************************************/
 525:Generated_Source\PSoC4/I2C_1_SPI.c ****     void I2C_1_SpiSaveConfig(void)
 526:Generated_Source\PSoC4/I2C_1_SPI.c ****     {
 720              		.loc 1 526 0
 721              		.cfi_startproc
 722              		@ args = 0, pretend = 0, frame = 0
 723              		@ frame_needed = 1, uses_anonymous_args = 0
 724 0000 80B5     		push	{r7, lr}
 725              		.cfi_def_cfa_offset 8
 726              		.cfi_offset 7, -8
 727              		.cfi_offset 14, -4
 728 0002 00AF     		add	r7, sp, #0
 729              		.cfi_def_cfa_register 7
 527:Generated_Source\PSoC4/I2C_1_SPI.c ****         /* Clear and enable SPI wakeup interrupt source */
 528:Generated_Source\PSoC4/I2C_1_SPI.c ****         I2C_1_ClearSpiExtClkInterruptSource(I2C_1_INTR_SPI_EC_WAKE_UP);
 730              		.loc 1 528 0
 731 0004 044B     		ldr	r3, .L46
 732 0006 0122     		movs	r2, #1
 733 0008 1A60     		str	r2, [r3]
 529:Generated_Source\PSoC4/I2C_1_SPI.c ****         I2C_1_SetSpiExtClkInterruptMode(I2C_1_INTR_SPI_EC_WAKE_UP);
 734              		.loc 1 529 0
 735 000a 044B     		ldr	r3, .L46+4
 736 000c 0122     		movs	r2, #1
 737 000e 1A60     		str	r2, [r3]
 530:Generated_Source\PSoC4/I2C_1_SPI.c ****     }
 738              		.loc 1 530 0
 739 0010 C046     		nop
 740 0012 BD46     		mov	sp, r7
 741              		@ sp needed
 742 0014 80BD     		pop	{r7, pc}
 743              	.L47:
 744 0016 C046     		.align	2
 745              	.L46:
 746 0018 C00E2440 		.word	1076104896
 747 001c C80E2440 		.word	1076104904
 748              		.cfi_endproc
 749              	.LFE7:
 750              		.size	I2C_1_SpiSaveConfig, .-I2C_1_SpiSaveConfig
 751              		.section	.text.I2C_1_SpiRestoreConfig,"ax",%progbits
 752              		.align	2
 753              		.global	I2C_1_SpiRestoreConfig
ARM GAS  C:\Users\sergio\AppData\Local\Temp\cc0XrIjW.s 			page 25


 754              		.code	16
 755              		.thumb_func
 756              		.type	I2C_1_SpiRestoreConfig, %function
 757              	I2C_1_SpiRestoreConfig:
 758              	.LFB8:
 531:Generated_Source\PSoC4/I2C_1_SPI.c **** 
 532:Generated_Source\PSoC4/I2C_1_SPI.c **** 
 533:Generated_Source\PSoC4/I2C_1_SPI.c ****     /*******************************************************************************
 534:Generated_Source\PSoC4/I2C_1_SPI.c ****     * Function Name: I2C_1_SpiRestoreConfig
 535:Generated_Source\PSoC4/I2C_1_SPI.c ****     ****************************************************************************//**
 536:Generated_Source\PSoC4/I2C_1_SPI.c ****     *
 537:Generated_Source\PSoC4/I2C_1_SPI.c ****     *  Disables the INTR_SPI_EC.WAKE_UP interrupt source. After wakeup
 538:Generated_Source\PSoC4/I2C_1_SPI.c ****     *  slave does not drive the MISO line and the master receives 0xFF.
 539:Generated_Source\PSoC4/I2C_1_SPI.c ****     *
 540:Generated_Source\PSoC4/I2C_1_SPI.c ****     *******************************************************************************/
 541:Generated_Source\PSoC4/I2C_1_SPI.c ****     void I2C_1_SpiRestoreConfig(void)
 542:Generated_Source\PSoC4/I2C_1_SPI.c ****     {
 759              		.loc 1 542 0
 760              		.cfi_startproc
 761              		@ args = 0, pretend = 0, frame = 0
 762              		@ frame_needed = 1, uses_anonymous_args = 0
 763 0000 80B5     		push	{r7, lr}
 764              		.cfi_def_cfa_offset 8
 765              		.cfi_offset 7, -8
 766              		.cfi_offset 14, -4
 767 0002 00AF     		add	r7, sp, #0
 768              		.cfi_def_cfa_register 7
 543:Generated_Source\PSoC4/I2C_1_SPI.c ****         /* Disable SPI wakeup interrupt source */
 544:Generated_Source\PSoC4/I2C_1_SPI.c ****         I2C_1_SetSpiExtClkInterruptMode(I2C_1_NO_INTR_SOURCES);
 769              		.loc 1 544 0
 770 0004 024B     		ldr	r3, .L49
 771 0006 0022     		movs	r2, #0
 772 0008 1A60     		str	r2, [r3]
 545:Generated_Source\PSoC4/I2C_1_SPI.c ****     }
 773              		.loc 1 545 0
 774 000a C046     		nop
 775 000c BD46     		mov	sp, r7
 776              		@ sp needed
 777 000e 80BD     		pop	{r7, pc}
 778              	.L50:
 779              		.align	2
 780              	.L49:
 781 0010 C80E2440 		.word	1076104904
 782              		.cfi_endproc
 783              	.LFE8:
 784              		.size	I2C_1_SpiRestoreConfig, .-I2C_1_SpiRestoreConfig
 785              		.text
 786              	.Letext0:
 787              		.file 2 "Generated_Source\\PSoC4/cytypes.h"
 788              		.file 3 "Generated_Source\\PSoC4\\I2C_1_SPI_UART.h"
 789              		.file 4 "Generated_Source\\PSoC4\\I2C_1_PVT.h"
 790              		.file 5 "Generated_Source\\PSoC4\\I2C_1_SPI_UART_PVT.h"