ARM GAS  C:\Users\sergio\AppData\Local\Temp\ccWBsYYG.s 			page 1


   1              		.syntax unified
   2              		.cpu cortex-m0
   3              		.fpu softvfp
   4              		.eabi_attribute 20, 1
   5              		.eabi_attribute 21, 1
   6              		.eabi_attribute 23, 3
   7              		.eabi_attribute 24, 1
   8              		.eabi_attribute 25, 1
   9              		.eabi_attribute 26, 1
  10              		.eabi_attribute 30, 6
  11              		.eabi_attribute 34, 0
  12              		.eabi_attribute 18, 4
  13              		.thumb
  14              		.syntax unified
  15              		.file	"I2C_1_SPI_UART_INT.c"
  16              		.text
  17              	.Ltext0:
  18              		.cfi_sections	.debug_frame
  19              		.section	.text.I2C_1_SPI_UART_ISR,"ax",%progbits
  20              		.align	2
  21              		.global	I2C_1_SPI_UART_ISR
  22              		.code	16
  23              		.thumb_func
  24              		.type	I2C_1_SPI_UART_ISR, %function
  25              	I2C_1_SPI_UART_ISR:
  26              	.LFB2:
  27              		.file 1 "Generated_Source\\PSoC4\\I2C_1_SPI_UART_INT.c"
   1:Generated_Source\PSoC4/I2C_1_SPI_UART_INT.c **** /***************************************************************************//**
   2:Generated_Source\PSoC4/I2C_1_SPI_UART_INT.c **** * \file I2C_1_SPI_UART_INT.c
   3:Generated_Source\PSoC4/I2C_1_SPI_UART_INT.c **** * \version 4.0
   4:Generated_Source\PSoC4/I2C_1_SPI_UART_INT.c **** *
   5:Generated_Source\PSoC4/I2C_1_SPI_UART_INT.c **** * \brief
   6:Generated_Source\PSoC4/I2C_1_SPI_UART_INT.c **** *  This file provides the source code to the Interrupt Service Routine for
   7:Generated_Source\PSoC4/I2C_1_SPI_UART_INT.c **** *  the SCB Component in SPI and UART modes.
   8:Generated_Source\PSoC4/I2C_1_SPI_UART_INT.c **** *
   9:Generated_Source\PSoC4/I2C_1_SPI_UART_INT.c **** * Note:
  10:Generated_Source\PSoC4/I2C_1_SPI_UART_INT.c **** *
  11:Generated_Source\PSoC4/I2C_1_SPI_UART_INT.c **** ********************************************************************************
  12:Generated_Source\PSoC4/I2C_1_SPI_UART_INT.c **** * \copyright
  13:Generated_Source\PSoC4/I2C_1_SPI_UART_INT.c **** * Copyright 2013-2017, Cypress Semiconductor Corporation.  All rights reserved.
  14:Generated_Source\PSoC4/I2C_1_SPI_UART_INT.c **** * You may use this file only in accordance with the license, terms, conditions,
  15:Generated_Source\PSoC4/I2C_1_SPI_UART_INT.c **** * disclaimers, and limitations in the end user license agreement accompanying
  16:Generated_Source\PSoC4/I2C_1_SPI_UART_INT.c **** * the software package with which this file was provided.
  17:Generated_Source\PSoC4/I2C_1_SPI_UART_INT.c **** *******************************************************************************/
  18:Generated_Source\PSoC4/I2C_1_SPI_UART_INT.c **** 
  19:Generated_Source\PSoC4/I2C_1_SPI_UART_INT.c **** #include "I2C_1_PVT.h"
  20:Generated_Source\PSoC4/I2C_1_SPI_UART_INT.c **** #include "I2C_1_SPI_UART_PVT.h"
  21:Generated_Source\PSoC4/I2C_1_SPI_UART_INT.c **** #include "cyapicallbacks.h"
  22:Generated_Source\PSoC4/I2C_1_SPI_UART_INT.c **** 
  23:Generated_Source\PSoC4/I2C_1_SPI_UART_INT.c **** #if (I2C_1_SCB_IRQ_INTERNAL)
  24:Generated_Source\PSoC4/I2C_1_SPI_UART_INT.c **** /*******************************************************************************
  25:Generated_Source\PSoC4/I2C_1_SPI_UART_INT.c **** * Function Name: I2C_1_SPI_UART_ISR
  26:Generated_Source\PSoC4/I2C_1_SPI_UART_INT.c **** ****************************************************************************//**
  27:Generated_Source\PSoC4/I2C_1_SPI_UART_INT.c **** *
  28:Generated_Source\PSoC4/I2C_1_SPI_UART_INT.c **** *  Handles the Interrupt Service Routine for the SCB SPI or UART modes.
  29:Generated_Source\PSoC4/I2C_1_SPI_UART_INT.c **** *
  30:Generated_Source\PSoC4/I2C_1_SPI_UART_INT.c **** *******************************************************************************/
ARM GAS  C:\Users\sergio\AppData\Local\Temp\ccWBsYYG.s 			page 2


  31:Generated_Source\PSoC4/I2C_1_SPI_UART_INT.c **** CY_ISR(I2C_1_SPI_UART_ISR)
  32:Generated_Source\PSoC4/I2C_1_SPI_UART_INT.c **** {
  28              		.loc 1 32 0
  29              		.cfi_startproc
  30              		@ args = 0, pretend = 0, frame = 8
  31              		@ frame_needed = 1, uses_anonymous_args = 0
  32 0000 90B5     		push	{r4, r7, lr}
  33              		.cfi_def_cfa_offset 12
  34              		.cfi_offset 4, -12
  35              		.cfi_offset 7, -8
  36              		.cfi_offset 14, -4
  37 0002 83B0     		sub	sp, sp, #12
  38              		.cfi_def_cfa_offset 24
  39 0004 00AF     		add	r7, sp, #0
  40              		.cfi_def_cfa_register 7
  33:Generated_Source\PSoC4/I2C_1_SPI_UART_INT.c **** #if (I2C_1_INTERNAL_RX_SW_BUFFER_CONST)
  34:Generated_Source\PSoC4/I2C_1_SPI_UART_INT.c ****     uint32 locHead;
  35:Generated_Source\PSoC4/I2C_1_SPI_UART_INT.c **** #endif /* (I2C_1_INTERNAL_RX_SW_BUFFER_CONST) */
  36:Generated_Source\PSoC4/I2C_1_SPI_UART_INT.c **** 
  37:Generated_Source\PSoC4/I2C_1_SPI_UART_INT.c **** #if (I2C_1_INTERNAL_TX_SW_BUFFER_CONST)
  38:Generated_Source\PSoC4/I2C_1_SPI_UART_INT.c ****     uint32 locTail;
  39:Generated_Source\PSoC4/I2C_1_SPI_UART_INT.c **** #endif /* (I2C_1_INTERNAL_TX_SW_BUFFER_CONST) */
  40:Generated_Source\PSoC4/I2C_1_SPI_UART_INT.c **** 
  41:Generated_Source\PSoC4/I2C_1_SPI_UART_INT.c **** #ifdef I2C_1_SPI_UART_ISR_ENTRY_CALLBACK
  42:Generated_Source\PSoC4/I2C_1_SPI_UART_INT.c ****     I2C_1_SPI_UART_ISR_EntryCallback();
  43:Generated_Source\PSoC4/I2C_1_SPI_UART_INT.c **** #endif /* I2C_1_SPI_UART_ISR_ENTRY_CALLBACK */
  44:Generated_Source\PSoC4/I2C_1_SPI_UART_INT.c **** 
  45:Generated_Source\PSoC4/I2C_1_SPI_UART_INT.c ****     if (NULL != I2C_1_customIntrHandler)
  41              		.loc 1 45 0
  42 0006 4B4B     		ldr	r3, .L21
  43 0008 1B68     		ldr	r3, [r3]
  44 000a 002B     		cmp	r3, #0
  45 000c 02D0     		beq	.L2
  46:Generated_Source\PSoC4/I2C_1_SPI_UART_INT.c ****     {
  47:Generated_Source\PSoC4/I2C_1_SPI_UART_INT.c ****         I2C_1_customIntrHandler();
  46              		.loc 1 47 0
  47 000e 494B     		ldr	r3, .L21
  48 0010 1B68     		ldr	r3, [r3]
  49 0012 9847     		blx	r3
  50              	.L2:
  48:Generated_Source\PSoC4/I2C_1_SPI_UART_INT.c ****     }
  49:Generated_Source\PSoC4/I2C_1_SPI_UART_INT.c **** 
  50:Generated_Source\PSoC4/I2C_1_SPI_UART_INT.c ****     if(I2C_1_CHECK_SPI_WAKE_ENABLE)
  51              		.loc 1 50 0
  52 0014 484B     		ldr	r3, .L21+4
  53 0016 1B78     		ldrb	r3, [r3]
  54 0018 002B     		cmp	r3, #0
  55 001a 06D0     		beq	.L3
  56              		.loc 1 50 0 is_stmt 0 discriminator 1
  57 001c 474B     		ldr	r3, .L21+8
  58 001e 1B78     		ldrb	r3, [r3]
  59 0020 022B     		cmp	r3, #2
  60 0022 02D1     		bne	.L3
  51:Generated_Source\PSoC4/I2C_1_SPI_UART_INT.c ****     {
  52:Generated_Source\PSoC4/I2C_1_SPI_UART_INT.c ****         /* Clear SPI wakeup source */
  53:Generated_Source\PSoC4/I2C_1_SPI_UART_INT.c ****         I2C_1_ClearSpiExtClkInterruptSource(I2C_1_INTR_SPI_EC_WAKE_UP);
  61              		.loc 1 53 0 is_stmt 1
ARM GAS  C:\Users\sergio\AppData\Local\Temp\ccWBsYYG.s 			page 3


  62 0024 464B     		ldr	r3, .L21+12
  63 0026 0122     		movs	r2, #1
  64 0028 1A60     		str	r2, [r3]
  65              	.L3:
  54:Generated_Source\PSoC4/I2C_1_SPI_UART_INT.c ****     }
  55:Generated_Source\PSoC4/I2C_1_SPI_UART_INT.c ****     
  56:Generated_Source\PSoC4/I2C_1_SPI_UART_INT.c **** 
  57:Generated_Source\PSoC4/I2C_1_SPI_UART_INT.c ****     if (I2C_1_CHECK_RX_SW_BUFFER)
  66              		.loc 1 57 0
  67 002a 464B     		ldr	r3, .L21+16
  68 002c 1B68     		ldr	r3, [r3]
  69 002e 002B     		cmp	r3, #0
  70 0030 3DD0     		beq	.L4
  58:Generated_Source\PSoC4/I2C_1_SPI_UART_INT.c ****     {
  59:Generated_Source\PSoC4/I2C_1_SPI_UART_INT.c ****         if (I2C_1_CHECK_INTR_RX_MASKED(I2C_1_INTR_RX_NOT_EMPTY))
  71              		.loc 1 59 0
  72 0032 454B     		ldr	r3, .L21+20
  73 0034 1B68     		ldr	r3, [r3]
  74 0036 0422     		movs	r2, #4
  75 0038 1340     		ands	r3, r2
  76 003a 38D0     		beq	.L4
  77              	.L10:
  60:Generated_Source\PSoC4/I2C_1_SPI_UART_INT.c ****         {
  61:Generated_Source\PSoC4/I2C_1_SPI_UART_INT.c ****             do
  62:Generated_Source\PSoC4/I2C_1_SPI_UART_INT.c ****             {
  63:Generated_Source\PSoC4/I2C_1_SPI_UART_INT.c ****                 /* Move local head index */
  64:Generated_Source\PSoC4/I2C_1_SPI_UART_INT.c ****                 locHead = (I2C_1_rxBufferHead + 1u);
  78              		.loc 1 64 0
  79 003c 434B     		ldr	r3, .L21+24
  80 003e 1B68     		ldr	r3, [r3]
  81 0040 0133     		adds	r3, r3, #1
  82 0042 7B60     		str	r3, [r7, #4]
  65:Generated_Source\PSoC4/I2C_1_SPI_UART_INT.c **** 
  66:Generated_Source\PSoC4/I2C_1_SPI_UART_INT.c ****                 /* Adjust local head index */
  67:Generated_Source\PSoC4/I2C_1_SPI_UART_INT.c ****                 if (I2C_1_INTERNAL_RX_BUFFER_SIZE == locHead)
  83              		.loc 1 67 0
  84 0044 424B     		ldr	r3, .L21+28
  85 0046 1B68     		ldr	r3, [r3]
  86 0048 5A1C     		adds	r2, r3, #1
  87 004a 7B68     		ldr	r3, [r7, #4]
  88 004c 9A42     		cmp	r2, r3
  89 004e 01D1     		bne	.L5
  68:Generated_Source\PSoC4/I2C_1_SPI_UART_INT.c ****                 {
  69:Generated_Source\PSoC4/I2C_1_SPI_UART_INT.c ****                     locHead = 0u;
  90              		.loc 1 69 0
  91 0050 0023     		movs	r3, #0
  92 0052 7B60     		str	r3, [r7, #4]
  93              	.L5:
  70:Generated_Source\PSoC4/I2C_1_SPI_UART_INT.c ****                 }
  71:Generated_Source\PSoC4/I2C_1_SPI_UART_INT.c **** 
  72:Generated_Source\PSoC4/I2C_1_SPI_UART_INT.c ****                 if (locHead == I2C_1_rxBufferTail)
  94              		.loc 1 72 0
  95 0054 3F4B     		ldr	r3, .L21+32
  96 0056 1B68     		ldr	r3, [r3]
  97 0058 7A68     		ldr	r2, [r7, #4]
  98 005a 9A42     		cmp	r2, r3
  99 005c 15D1     		bne	.L6
ARM GAS  C:\Users\sergio\AppData\Local\Temp\ccWBsYYG.s 			page 4


  73:Generated_Source\PSoC4/I2C_1_SPI_UART_INT.c ****                 {
  74:Generated_Source\PSoC4/I2C_1_SPI_UART_INT.c ****                     if (I2C_1_CHECK_UART_RTS_CONTROL_FLOW)
 100              		.loc 1 74 0
 101 005e 374B     		ldr	r3, .L21+8
 102 0060 1B78     		ldrb	r3, [r3]
 103 0062 042B     		cmp	r3, #4
 104 0064 0BD1     		bne	.L7
 105              		.loc 1 74 0 is_stmt 0 discriminator 1
 106 0066 3C4B     		ldr	r3, .L21+36
 107 0068 1B68     		ldr	r3, [r3]
 108 006a 0F22     		movs	r2, #15
 109 006c 1340     		ands	r3, r2
 110 006e 06D0     		beq	.L7
  75:Generated_Source\PSoC4/I2C_1_SPI_UART_INT.c ****                     {
  76:Generated_Source\PSoC4/I2C_1_SPI_UART_INT.c ****                         /* There is no space in the software buffer - disable the
  77:Generated_Source\PSoC4/I2C_1_SPI_UART_INT.c ****                         * RX Not Empty interrupt source. The data elements are
  78:Generated_Source\PSoC4/I2C_1_SPI_UART_INT.c ****                         * still being received into the RX FIFO until the RTS signal
  79:Generated_Source\PSoC4/I2C_1_SPI_UART_INT.c ****                         * stops the transmitter. After the data element is read from the
  80:Generated_Source\PSoC4/I2C_1_SPI_UART_INT.c ****                         * buffer, the RX Not Empty interrupt source is enabled to
  81:Generated_Source\PSoC4/I2C_1_SPI_UART_INT.c ****                         * move the next data element in the software buffer.
  82:Generated_Source\PSoC4/I2C_1_SPI_UART_INT.c ****                         */
  83:Generated_Source\PSoC4/I2C_1_SPI_UART_INT.c ****                         I2C_1_INTR_RX_MASK_REG &= ~I2C_1_INTR_RX_NOT_EMPTY;
 111              		.loc 1 83 0 is_stmt 1
 112 0070 3A4B     		ldr	r3, .L21+40
 113 0072 3A4A     		ldr	r2, .L21+40
 114 0074 1268     		ldr	r2, [r2]
 115 0076 0421     		movs	r1, #4
 116 0078 8A43     		bics	r2, r1
 117 007a 1A60     		str	r2, [r3]
  84:Generated_Source\PSoC4/I2C_1_SPI_UART_INT.c ****                         break;
 118              		.loc 1 84 0
 119 007c 14E0     		b	.L8
 120              	.L7:
  85:Generated_Source\PSoC4/I2C_1_SPI_UART_INT.c ****                     }
  86:Generated_Source\PSoC4/I2C_1_SPI_UART_INT.c ****                     else
  87:Generated_Source\PSoC4/I2C_1_SPI_UART_INT.c ****                     {
  88:Generated_Source\PSoC4/I2C_1_SPI_UART_INT.c ****                         /* Overflow: through away received data element */
  89:Generated_Source\PSoC4/I2C_1_SPI_UART_INT.c ****                         (void) I2C_1_RX_FIFO_RD_REG;
 121              		.loc 1 89 0
 122 007e 384B     		ldr	r3, .L21+44
 123 0080 1B68     		ldr	r3, [r3]
  90:Generated_Source\PSoC4/I2C_1_SPI_UART_INT.c ****                         I2C_1_rxBufferOverflow = (uint8) I2C_1_INTR_RX_OVERFLOW;
 124              		.loc 1 90 0
 125 0082 384B     		ldr	r3, .L21+48
 126 0084 2022     		movs	r2, #32
 127 0086 1A70     		strb	r2, [r3]
 128 0088 09E0     		b	.L9
 129              	.L6:
  91:Generated_Source\PSoC4/I2C_1_SPI_UART_INT.c ****                     }
  92:Generated_Source\PSoC4/I2C_1_SPI_UART_INT.c ****                     
  93:Generated_Source\PSoC4/I2C_1_SPI_UART_INT.c ****                 }
  94:Generated_Source\PSoC4/I2C_1_SPI_UART_INT.c ****                 else
  95:Generated_Source\PSoC4/I2C_1_SPI_UART_INT.c ****                 {
  96:Generated_Source\PSoC4/I2C_1_SPI_UART_INT.c ****                     /* Store received data */
  97:Generated_Source\PSoC4/I2C_1_SPI_UART_INT.c ****                     I2C_1_PutWordInRxBuffer(locHead, I2C_1_RX_FIFO_RD_REG);
 130              		.loc 1 97 0
 131 008a 354B     		ldr	r3, .L21+44
ARM GAS  C:\Users\sergio\AppData\Local\Temp\ccWBsYYG.s 			page 5


 132 008c 1A68     		ldr	r2, [r3]
 133 008e 7B68     		ldr	r3, [r7, #4]
 134 0090 1100     		movs	r1, r2
 135 0092 1800     		movs	r0, r3
 136 0094 FFF7FEFF 		bl	I2C_1_PutWordInRxBuffer
  98:Generated_Source\PSoC4/I2C_1_SPI_UART_INT.c **** 
  99:Generated_Source\PSoC4/I2C_1_SPI_UART_INT.c ****                     /* Move head index */
 100:Generated_Source\PSoC4/I2C_1_SPI_UART_INT.c ****                     I2C_1_rxBufferHead = locHead;
 137              		.loc 1 100 0
 138 0098 2C4B     		ldr	r3, .L21+24
 139 009a 7A68     		ldr	r2, [r7, #4]
 140 009c 1A60     		str	r2, [r3]
 141              	.L9:
 101:Generated_Source\PSoC4/I2C_1_SPI_UART_INT.c ****                 }
 102:Generated_Source\PSoC4/I2C_1_SPI_UART_INT.c ****             }
 103:Generated_Source\PSoC4/I2C_1_SPI_UART_INT.c ****             while(0u != I2C_1_GET_RX_FIFO_ENTRIES);
 142              		.loc 1 103 0
 143 009e 324B     		ldr	r3, .L21+52
 144 00a0 1B68     		ldr	r3, [r3]
 145 00a2 1F22     		movs	r2, #31
 146 00a4 1340     		ands	r3, r2
 147 00a6 C9D1     		bne	.L10
 148              	.L8:
 104:Generated_Source\PSoC4/I2C_1_SPI_UART_INT.c **** 
 105:Generated_Source\PSoC4/I2C_1_SPI_UART_INT.c ****             I2C_1_ClearRxInterruptSource(I2C_1_INTR_RX_NOT_EMPTY);
 149              		.loc 1 105 0
 150 00a8 304B     		ldr	r3, .L21+56
 151 00aa 0422     		movs	r2, #4
 152 00ac 1A60     		str	r2, [r3]
 153              	.L4:
 106:Generated_Source\PSoC4/I2C_1_SPI_UART_INT.c ****         }
 107:Generated_Source\PSoC4/I2C_1_SPI_UART_INT.c ****     }
 108:Generated_Source\PSoC4/I2C_1_SPI_UART_INT.c ****     
 109:Generated_Source\PSoC4/I2C_1_SPI_UART_INT.c **** 
 110:Generated_Source\PSoC4/I2C_1_SPI_UART_INT.c **** 
 111:Generated_Source\PSoC4/I2C_1_SPI_UART_INT.c ****     if (I2C_1_CHECK_TX_SW_BUFFER)
 154              		.loc 1 111 0
 155 00ae 304B     		ldr	r3, .L21+60
 156 00b0 1B68     		ldr	r3, [r3]
 157 00b2 002B     		cmp	r3, #0
 158 00b4 39D0     		beq	.L20
 112:Generated_Source\PSoC4/I2C_1_SPI_UART_INT.c ****     {
 113:Generated_Source\PSoC4/I2C_1_SPI_UART_INT.c ****         if (I2C_1_CHECK_INTR_TX_MASKED(I2C_1_INTR_TX_NOT_FULL))
 159              		.loc 1 113 0
 160 00b6 2F4B     		ldr	r3, .L21+64
 161 00b8 1B68     		ldr	r3, [r3]
 162 00ba 0222     		movs	r2, #2
 163 00bc 1340     		ands	r3, r2
 164 00be 34D0     		beq	.L20
 165              	.L18:
 114:Generated_Source\PSoC4/I2C_1_SPI_UART_INT.c ****         {
 115:Generated_Source\PSoC4/I2C_1_SPI_UART_INT.c ****             do
 116:Generated_Source\PSoC4/I2C_1_SPI_UART_INT.c ****             {
 117:Generated_Source\PSoC4/I2C_1_SPI_UART_INT.c ****                 /* Check for room in TX software buffer */
 118:Generated_Source\PSoC4/I2C_1_SPI_UART_INT.c ****                 if (I2C_1_txBufferHead != I2C_1_txBufferTail)
 166              		.loc 1 118 0
 167 00c0 2D4B     		ldr	r3, .L21+68
ARM GAS  C:\Users\sergio\AppData\Local\Temp\ccWBsYYG.s 			page 6


 168 00c2 1A68     		ldr	r2, [r3]
 169 00c4 2D4B     		ldr	r3, .L21+72
 170 00c6 1B68     		ldr	r3, [r3]
 171 00c8 9A42     		cmp	r2, r3
 172 00ca 1BD0     		beq	.L12
 119:Generated_Source\PSoC4/I2C_1_SPI_UART_INT.c ****                 {
 120:Generated_Source\PSoC4/I2C_1_SPI_UART_INT.c ****                     /* Move local tail index */
 121:Generated_Source\PSoC4/I2C_1_SPI_UART_INT.c ****                     locTail = (I2C_1_txBufferTail + 1u);
 173              		.loc 1 121 0
 174 00cc 2B4B     		ldr	r3, .L21+72
 175 00ce 1B68     		ldr	r3, [r3]
 176 00d0 0133     		adds	r3, r3, #1
 177 00d2 3B60     		str	r3, [r7]
 122:Generated_Source\PSoC4/I2C_1_SPI_UART_INT.c **** 
 123:Generated_Source\PSoC4/I2C_1_SPI_UART_INT.c ****                     /* Adjust local tail index */
 124:Generated_Source\PSoC4/I2C_1_SPI_UART_INT.c ****                     if (I2C_1_TX_BUFFER_SIZE == locTail)
 178              		.loc 1 124 0
 179 00d4 2A4B     		ldr	r3, .L21+76
 180 00d6 1A68     		ldr	r2, [r3]
 181 00d8 3B68     		ldr	r3, [r7]
 182 00da 9A42     		cmp	r2, r3
 183 00dc 01D1     		bne	.L13
 125:Generated_Source\PSoC4/I2C_1_SPI_UART_INT.c ****                     {
 126:Generated_Source\PSoC4/I2C_1_SPI_UART_INT.c ****                         locTail = 0u;
 184              		.loc 1 126 0
 185 00de 0023     		movs	r3, #0
 186 00e0 3B60     		str	r3, [r7]
 187              	.L13:
 127:Generated_Source\PSoC4/I2C_1_SPI_UART_INT.c ****                     }
 128:Generated_Source\PSoC4/I2C_1_SPI_UART_INT.c **** 
 129:Generated_Source\PSoC4/I2C_1_SPI_UART_INT.c ****                     /* Put data into TX FIFO */
 130:Generated_Source\PSoC4/I2C_1_SPI_UART_INT.c ****                     I2C_1_TX_FIFO_WR_REG = I2C_1_GetWordFromTxBuffer(locTail);
 188              		.loc 1 130 0
 189 00e2 284C     		ldr	r4, .L21+80
 190 00e4 3B68     		ldr	r3, [r7]
 191 00e6 1800     		movs	r0, r3
 192 00e8 FFF7FEFF 		bl	I2C_1_GetWordFromTxBuffer
 193 00ec 0300     		movs	r3, r0
 194 00ee 2360     		str	r3, [r4]
 131:Generated_Source\PSoC4/I2C_1_SPI_UART_INT.c **** 
 132:Generated_Source\PSoC4/I2C_1_SPI_UART_INT.c ****                     /* Move tail index */
 133:Generated_Source\PSoC4/I2C_1_SPI_UART_INT.c ****                     I2C_1_txBufferTail = locTail;
 195              		.loc 1 133 0
 196 00f0 224B     		ldr	r3, .L21+72
 197 00f2 3A68     		ldr	r2, [r7]
 198 00f4 1A60     		str	r2, [r3]
 134:Generated_Source\PSoC4/I2C_1_SPI_UART_INT.c ****                 }
 135:Generated_Source\PSoC4/I2C_1_SPI_UART_INT.c ****                 else
 136:Generated_Source\PSoC4/I2C_1_SPI_UART_INT.c ****                 {
 137:Generated_Source\PSoC4/I2C_1_SPI_UART_INT.c ****                     /* TX software buffer is empty: complete transfer */
 138:Generated_Source\PSoC4/I2C_1_SPI_UART_INT.c ****                     I2C_1_DISABLE_INTR_TX(I2C_1_INTR_TX_NOT_FULL);
 139:Generated_Source\PSoC4/I2C_1_SPI_UART_INT.c ****                     break;
 140:Generated_Source\PSoC4/I2C_1_SPI_UART_INT.c ****                 }
 141:Generated_Source\PSoC4/I2C_1_SPI_UART_INT.c ****             }
 142:Generated_Source\PSoC4/I2C_1_SPI_UART_INT.c ****             while (I2C_1_SPI_UART_FIFO_SIZE != I2C_1_GET_TX_FIFO_ENTRIES);
 199              		.loc 1 142 0
 200 00f6 244B     		ldr	r3, .L21+84
ARM GAS  C:\Users\sergio\AppData\Local\Temp\ccWBsYYG.s 			page 7


 201 00f8 1A68     		ldr	r2, [r3]
 202 00fa 8023     		movs	r3, #128
 203 00fc 1B01     		lsls	r3, r3, #4
 204 00fe 1340     		ands	r3, r2
 205 0100 09D0     		beq	.L16
 206 0102 06E0     		b	.L19
 207              	.L12:
 138:Generated_Source\PSoC4/I2C_1_SPI_UART_INT.c ****                     break;
 208              		.loc 1 138 0
 209 0104 214B     		ldr	r3, .L21+88
 210 0106 214A     		ldr	r2, .L21+88
 211 0108 1268     		ldr	r2, [r2]
 212 010a 0221     		movs	r1, #2
 213 010c 8A43     		bics	r2, r1
 214 010e 1A60     		str	r2, [r3]
 139:Generated_Source\PSoC4/I2C_1_SPI_UART_INT.c ****                 }
 215              		.loc 1 139 0
 216 0110 08E0     		b	.L15
 217              	.L19:
 218              		.loc 1 142 0 discriminator 1
 219 0112 1022     		movs	r2, #16
 220 0114 00E0     		b	.L17
 221              	.L16:
 222              		.loc 1 142 0 is_stmt 0 discriminator 2
 223 0116 0822     		movs	r2, #8
 224              	.L17:
 225              		.loc 1 142 0 discriminator 4
 226 0118 1D4B     		ldr	r3, .L21+92
 227 011a 1B68     		ldr	r3, [r3]
 228 011c 1F21     		movs	r1, #31
 229 011e 0B40     		ands	r3, r1
 230 0120 9A42     		cmp	r2, r3
 231 0122 CDD1     		bne	.L18
 232              	.L15:
 143:Generated_Source\PSoC4/I2C_1_SPI_UART_INT.c **** 
 144:Generated_Source\PSoC4/I2C_1_SPI_UART_INT.c ****             I2C_1_ClearTxInterruptSource(I2C_1_INTR_TX_NOT_FULL);
 233              		.loc 1 144 0 is_stmt 1
 234 0124 1B4B     		ldr	r3, .L21+96
 235 0126 0222     		movs	r2, #2
 236 0128 1A60     		str	r2, [r3]
 237              	.L20:
 145:Generated_Source\PSoC4/I2C_1_SPI_UART_INT.c ****         }
 146:Generated_Source\PSoC4/I2C_1_SPI_UART_INT.c ****     }
 147:Generated_Source\PSoC4/I2C_1_SPI_UART_INT.c ****     
 148:Generated_Source\PSoC4/I2C_1_SPI_UART_INT.c **** 
 149:Generated_Source\PSoC4/I2C_1_SPI_UART_INT.c **** #ifdef I2C_1_SPI_UART_ISR_EXIT_CALLBACK
 150:Generated_Source\PSoC4/I2C_1_SPI_UART_INT.c ****     I2C_1_SPI_UART_ISR_ExitCallback();
 151:Generated_Source\PSoC4/I2C_1_SPI_UART_INT.c **** #endif /* I2C_1_SPI_UART_ISR_EXIT_CALLBACK */
 152:Generated_Source\PSoC4/I2C_1_SPI_UART_INT.c **** 
 153:Generated_Source\PSoC4/I2C_1_SPI_UART_INT.c **** }
 238              		.loc 1 153 0
 239 012a C046     		nop
 240 012c BD46     		mov	sp, r7
 241 012e 03B0     		add	sp, sp, #12
 242              		@ sp needed
 243 0130 90BD     		pop	{r4, r7, pc}
 244              	.L22:
ARM GAS  C:\Users\sergio\AppData\Local\Temp\ccWBsYYG.s 			page 8


 245 0132 C046     		.align	2
 246              	.L21:
 247 0134 00000000 		.word	I2C_1_customIntrHandler
 248 0138 00000000 		.word	I2C_1_scbEnableWake
 249 013c 00000000 		.word	I2C_1_scbMode
 250 0140 C00E2440 		.word	1076104896
 251 0144 00000000 		.word	I2C_1_rxBuffer
 252 0148 CC0F2440 		.word	1076105164
 253 014c 00000000 		.word	I2C_1_rxBufferHead
 254 0150 00000000 		.word	I2C_1_rxBufferSize
 255 0154 00000000 		.word	I2C_1_rxBufferTail
 256 0158 50002440 		.word	1076101200
 257 015c C80F2440 		.word	1076105160
 258 0160 40032440 		.word	1076101952
 259 0164 00000000 		.word	I2C_1_rxBufferOverflow
 260 0168 08032440 		.word	1076101896
 261 016c C00F2440 		.word	1076105152
 262 0170 00000000 		.word	I2C_1_txBuffer
 263 0174 8C0F2440 		.word	1076105100
 264 0178 00000000 		.word	I2C_1_txBufferHead
 265 017c 00000000 		.word	I2C_1_txBufferTail
 266 0180 00000000 		.word	I2C_1_txBufferSize
 267 0184 40022440 		.word	1076101696
 268 0188 00002440 		.word	1076101120
 269 018c 880F2440 		.word	1076105096
 270 0190 08022440 		.word	1076101640
 271 0194 800F2440 		.word	1076105088
 272              		.cfi_endproc
 273              	.LFE2:
 274              		.size	I2C_1_SPI_UART_ISR, .-I2C_1_SPI_UART_ISR
 275              		.text
 276              	.Letext0:
 277              		.file 2 "Generated_Source\\PSoC4/cytypes.h"
 278              		.file 3 "Generated_Source\\PSoC4\\I2C_1_PVT.h"
 279              		.file 4 "Generated_Source\\PSoC4\\I2C_1_SPI_UART_PVT.h"