ARM GAS  C:\Users\sergio\AppData\Local\Temp\cc9Uh5UG.s 			page 1


   1              		.syntax unified
   2              		.cpu cortex-m0
   3              		.fpu softvfp
   4              		.eabi_attribute 20, 1
   5              		.eabi_attribute 21, 1
   6              		.eabi_attribute 23, 3
   7              		.eabi_attribute 24, 1
   8              		.eabi_attribute 25, 1
   9              		.eabi_attribute 26, 1
  10              		.eabi_attribute 30, 6
  11              		.eabi_attribute 34, 0
  12              		.eabi_attribute 18, 4
  13              		.thumb
  14              		.syntax unified
  15              		.file	"I2C_1_I2C_SLAVE.c"
  16              		.text
  17              	.Ltext0:
  18              		.cfi_sections	.debug_frame
  19              		.comm	I2C_1_slStatus,1,1
  20              		.comm	I2C_1_slWrBufPtr,4,4
  21              		.comm	I2C_1_slWrBufSize,4,4
  22              		.comm	I2C_1_slWrBufIndex,4,4
  23              		.comm	I2C_1_slRdBufPtr,4,4
  24              		.comm	I2C_1_slRdBufSize,4,4
  25              		.comm	I2C_1_slRdBufIndex,4,4
  26              		.comm	I2C_1_slRdBufIndexTmp,4,4
  27              		.comm	I2C_1_slOverFlowCount,1,1
  28              		.global	I2C_1_customAddressHandler
  29              		.bss
  30              		.align	2
  31              		.type	I2C_1_customAddressHandler, %object
  32              		.size	I2C_1_customAddressHandler, 4
  33              	I2C_1_customAddressHandler:
  34 0000 00000000 		.space	4
  35              		.section	.text.I2C_1_SetI2cAddressCustomInterruptHandler,"ax",%progbits
  36              		.align	2
  37              		.global	I2C_1_SetI2cAddressCustomInterruptHandler
  38              		.code	16
  39              		.thumb_func
  40              		.type	I2C_1_SetI2cAddressCustomInterruptHandler, %function
  41              	I2C_1_SetI2cAddressCustomInterruptHandler:
  42              	.LFB2:
  43              		.file 1 "Generated_Source\\PSoC4\\I2C_1_I2C_SLAVE.c"
   1:Generated_Source\PSoC4/I2C_1_I2C_SLAVE.c **** /***************************************************************************//**
   2:Generated_Source\PSoC4/I2C_1_I2C_SLAVE.c **** * \file I2C_1_I2C_SLAVE.c
   3:Generated_Source\PSoC4/I2C_1_I2C_SLAVE.c **** * \version 4.0
   4:Generated_Source\PSoC4/I2C_1_I2C_SLAVE.c **** *
   5:Generated_Source\PSoC4/I2C_1_I2C_SLAVE.c **** * \brief
   6:Generated_Source\PSoC4/I2C_1_I2C_SLAVE.c **** *  This file provides the source code to the API for the SCB Component in
   7:Generated_Source\PSoC4/I2C_1_I2C_SLAVE.c **** *  I2C Slave mode.
   8:Generated_Source\PSoC4/I2C_1_I2C_SLAVE.c **** *
   9:Generated_Source\PSoC4/I2C_1_I2C_SLAVE.c **** * Note:
  10:Generated_Source\PSoC4/I2C_1_I2C_SLAVE.c **** *
  11:Generated_Source\PSoC4/I2C_1_I2C_SLAVE.c **** *******************************************************************************
  12:Generated_Source\PSoC4/I2C_1_I2C_SLAVE.c **** * \copyright
  13:Generated_Source\PSoC4/I2C_1_I2C_SLAVE.c **** * Copyright 2013-2017, Cypress Semiconductor Corporation.  All rights reserved.
  14:Generated_Source\PSoC4/I2C_1_I2C_SLAVE.c **** * You may use this file only in accordance with the license, terms, conditions,
ARM GAS  C:\Users\sergio\AppData\Local\Temp\cc9Uh5UG.s 			page 2


  15:Generated_Source\PSoC4/I2C_1_I2C_SLAVE.c **** * disclaimers, and limitations in the end user license agreement accompanying
  16:Generated_Source\PSoC4/I2C_1_I2C_SLAVE.c **** * the software package with which this file was provided.
  17:Generated_Source\PSoC4/I2C_1_I2C_SLAVE.c **** *******************************************************************************/
  18:Generated_Source\PSoC4/I2C_1_I2C_SLAVE.c **** 
  19:Generated_Source\PSoC4/I2C_1_I2C_SLAVE.c **** #include "I2C_1_I2C_PVT.h"
  20:Generated_Source\PSoC4/I2C_1_I2C_SLAVE.c **** 
  21:Generated_Source\PSoC4/I2C_1_I2C_SLAVE.c **** #if(I2C_1_I2C_SLAVE_CONST)
  22:Generated_Source\PSoC4/I2C_1_I2C_SLAVE.c **** 
  23:Generated_Source\PSoC4/I2C_1_I2C_SLAVE.c **** /***************************************
  24:Generated_Source\PSoC4/I2C_1_I2C_SLAVE.c **** *      I2C Slave Private Vars
  25:Generated_Source\PSoC4/I2C_1_I2C_SLAVE.c **** ***************************************/
  26:Generated_Source\PSoC4/I2C_1_I2C_SLAVE.c **** 
  27:Generated_Source\PSoC4/I2C_1_I2C_SLAVE.c **** volatile uint8 I2C_1_slStatus;          /* Slave Status */
  28:Generated_Source\PSoC4/I2C_1_I2C_SLAVE.c **** 
  29:Generated_Source\PSoC4/I2C_1_I2C_SLAVE.c **** /* Receive buffer variables */
  30:Generated_Source\PSoC4/I2C_1_I2C_SLAVE.c **** volatile uint8 * I2C_1_slWrBufPtr;      /* Pointer to Receive buffer  */
  31:Generated_Source\PSoC4/I2C_1_I2C_SLAVE.c **** volatile uint32  I2C_1_slWrBufSize;     /* Slave Receive buffer size  */
  32:Generated_Source\PSoC4/I2C_1_I2C_SLAVE.c **** volatile uint32  I2C_1_slWrBufIndex;    /* Slave Receive buffer Index */
  33:Generated_Source\PSoC4/I2C_1_I2C_SLAVE.c **** 
  34:Generated_Source\PSoC4/I2C_1_I2C_SLAVE.c **** /* Transmit buffer variables */
  35:Generated_Source\PSoC4/I2C_1_I2C_SLAVE.c **** volatile uint8 * I2C_1_slRdBufPtr;      /* Pointer to Transmit buffer  */
  36:Generated_Source\PSoC4/I2C_1_I2C_SLAVE.c **** volatile uint32  I2C_1_slRdBufSize;     /* Slave Transmit buffer size  */
  37:Generated_Source\PSoC4/I2C_1_I2C_SLAVE.c **** volatile uint32  I2C_1_slRdBufIndex;    /* Slave Transmit buffer Index */
  38:Generated_Source\PSoC4/I2C_1_I2C_SLAVE.c **** volatile uint32  I2C_1_slRdBufIndexTmp; /* Slave Transmit buffer Index Tmp */
  39:Generated_Source\PSoC4/I2C_1_I2C_SLAVE.c **** volatile uint8   I2C_1_slOverFlowCount; /* Slave Transmit Overflow counter */
  40:Generated_Source\PSoC4/I2C_1_I2C_SLAVE.c **** 
  41:Generated_Source\PSoC4/I2C_1_I2C_SLAVE.c **** #if (I2C_1_I2C_CUSTOM_ADDRESS_HANDLER_CONST)
  42:Generated_Source\PSoC4/I2C_1_I2C_SLAVE.c **** 
  43:Generated_Source\PSoC4/I2C_1_I2C_SLAVE.c ****     uint32 (*I2C_1_customAddressHandler)(void) = NULL;
  44:Generated_Source\PSoC4/I2C_1_I2C_SLAVE.c **** 
  45:Generated_Source\PSoC4/I2C_1_I2C_SLAVE.c ****     /*******************************************************************************
  46:Generated_Source\PSoC4/I2C_1_I2C_SLAVE.c ****     * Function Name: I2C_1_SetI2cAddressCustomInterruptHandler
  47:Generated_Source\PSoC4/I2C_1_I2C_SLAVE.c ****     ****************************************************************************//**
  48:Generated_Source\PSoC4/I2C_1_I2C_SLAVE.c ****     *
  49:Generated_Source\PSoC4/I2C_1_I2C_SLAVE.c ****     *  Registers a function to be called by the I2C slave interrupt handler during
  50:Generated_Source\PSoC4/I2C_1_I2C_SLAVE.c ****     *  the I2C interrupt address processing. This function should be used when
  51:Generated_Source\PSoC4/I2C_1_I2C_SLAVE.c ****     *  multiple I2C addresses need to be decoded or general call address supported.
  52:Generated_Source\PSoC4/I2C_1_I2C_SLAVE.c ****     *  The registered function must return decision whether to ACK or NACK address.
  53:Generated_Source\PSoC4/I2C_1_I2C_SLAVE.c ****     *  Only one I2C address handler is supported, which is the function provided
  54:Generated_Source\PSoC4/I2C_1_I2C_SLAVE.c ****     *  by the most recent call.
  55:Generated_Source\PSoC4/I2C_1_I2C_SLAVE.c ****     *  At initialization time no I2C address handler is registered.
  56:Generated_Source\PSoC4/I2C_1_I2C_SLAVE.c ****     *
  57:Generated_Source\PSoC4/I2C_1_I2C_SLAVE.c ****     *  \param func: Pointer to the function to register.
  58:Generated_Source\PSoC4/I2C_1_I2C_SLAVE.c ****     *   The value NULL indicates to remove the current custom interrupt
  59:Generated_Source\PSoC4/I2C_1_I2C_SLAVE.c ****     *   handler.
  60:Generated_Source\PSoC4/I2C_1_I2C_SLAVE.c ****     *   The registered function must return decision whether to ACK or NACK 
  61:Generated_Source\PSoC4/I2C_1_I2C_SLAVE.c ****     *   accepted address: 0 – ACK, other values – NACK. The registered 
  62:Generated_Source\PSoC4/I2C_1_I2C_SLAVE.c ****     *   callback function does not perform the ACK/NACK, this operation is 
  63:Generated_Source\PSoC4/I2C_1_I2C_SLAVE.c ****     *   performed in the I2C ISR.
  64:Generated_Source\PSoC4/I2C_1_I2C_SLAVE.c ****     *
  65:Generated_Source\PSoC4/I2C_1_I2C_SLAVE.c ****     *******************************************************************************/
  66:Generated_Source\PSoC4/I2C_1_I2C_SLAVE.c ****     void I2C_1_SetI2cAddressCustomInterruptHandler(uint32 (*func) (void))
  67:Generated_Source\PSoC4/I2C_1_I2C_SLAVE.c ****     {
  44              		.loc 1 67 0
  45              		.cfi_startproc
  46              		@ args = 0, pretend = 0, frame = 8
  47              		@ frame_needed = 1, uses_anonymous_args = 0
ARM GAS  C:\Users\sergio\AppData\Local\Temp\cc9Uh5UG.s 			page 3


  48 0000 80B5     		push	{r7, lr}
  49              		.cfi_def_cfa_offset 8
  50              		.cfi_offset 7, -8
  51              		.cfi_offset 14, -4
  52 0002 82B0     		sub	sp, sp, #8
  53              		.cfi_def_cfa_offset 16
  54 0004 00AF     		add	r7, sp, #0
  55              		.cfi_def_cfa_register 7
  56 0006 7860     		str	r0, [r7, #4]
  68:Generated_Source\PSoC4/I2C_1_I2C_SLAVE.c ****         /* Register custom address handler */
  69:Generated_Source\PSoC4/I2C_1_I2C_SLAVE.c ****         I2C_1_customAddressHandler = func;
  57              		.loc 1 69 0
  58 0008 034B     		ldr	r3, .L2
  59 000a 7A68     		ldr	r2, [r7, #4]
  60 000c 1A60     		str	r2, [r3]
  70:Generated_Source\PSoC4/I2C_1_I2C_SLAVE.c ****     }
  61              		.loc 1 70 0
  62 000e C046     		nop
  63 0010 BD46     		mov	sp, r7
  64 0012 02B0     		add	sp, sp, #8
  65              		@ sp needed
  66 0014 80BD     		pop	{r7, pc}
  67              	.L3:
  68 0016 C046     		.align	2
  69              	.L2:
  70 0018 00000000 		.word	I2C_1_customAddressHandler
  71              		.cfi_endproc
  72              	.LFE2:
  73              		.size	I2C_1_SetI2cAddressCustomInterruptHandler, .-I2C_1_SetI2cAddressCustomInterruptHandler
  74              		.section	.text.I2C_1_I2CSlaveStatus,"ax",%progbits
  75              		.align	2
  76              		.global	I2C_1_I2CSlaveStatus
  77              		.code	16
  78              		.thumb_func
  79              		.type	I2C_1_I2CSlaveStatus, %function
  80              	I2C_1_I2CSlaveStatus:
  81              	.LFB3:
  71:Generated_Source\PSoC4/I2C_1_I2C_SLAVE.c **** #endif /* (I2C_1_I2C_CUSTOM_ADDRESS_HANDLER_CONST) */
  72:Generated_Source\PSoC4/I2C_1_I2C_SLAVE.c **** 
  73:Generated_Source\PSoC4/I2C_1_I2C_SLAVE.c **** 
  74:Generated_Source\PSoC4/I2C_1_I2C_SLAVE.c **** /*******************************************************************************
  75:Generated_Source\PSoC4/I2C_1_I2C_SLAVE.c **** * Function Name: I2C_1_I2CSlaveStatus
  76:Generated_Source\PSoC4/I2C_1_I2C_SLAVE.c **** ****************************************************************************//**
  77:Generated_Source\PSoC4/I2C_1_I2C_SLAVE.c **** *
  78:Generated_Source\PSoC4/I2C_1_I2C_SLAVE.c **** *  Returns the I2C slave's communication status.
  79:Generated_Source\PSoC4/I2C_1_I2C_SLAVE.c **** *
  80:Generated_Source\PSoC4/I2C_1_I2C_SLAVE.c **** * \return
  81:Generated_Source\PSoC4/I2C_1_I2C_SLAVE.c **** *  Current status of I2C slave.
  82:Generated_Source\PSoC4/I2C_1_I2C_SLAVE.c **** *  This status incorporates read and write status constants. 
  83:Generated_Source\PSoC4/I2C_1_I2C_SLAVE.c **** *  Each constant is a bit field value. The value returned may have multiple 
  84:Generated_Source\PSoC4/I2C_1_I2C_SLAVE.c **** *  bits set to indicate the status of the read or write transfer.
  85:Generated_Source\PSoC4/I2C_1_I2C_SLAVE.c **** *   - I2C_1_I2C_SSTAT_RD_CMPLT - Slave read transfer complete. 
  86:Generated_Source\PSoC4/I2C_1_I2C_SLAVE.c **** *     Set when master indicates it is done reading by sending a NAK.
  87:Generated_Source\PSoC4/I2C_1_I2C_SLAVE.c **** *     The read error condition status bit must be checked to ensure that 
  88:Generated_Source\PSoC4/I2C_1_I2C_SLAVE.c **** *     the read transfer was completed successfully.
  89:Generated_Source\PSoC4/I2C_1_I2C_SLAVE.c **** *   - I2C_1_I2C_SSTAT_RD_BUSY - Slave read transfer is in progress. 
  90:Generated_Source\PSoC4/I2C_1_I2C_SLAVE.c **** *     Set when master addresses slave with a read, cleared when 
ARM GAS  C:\Users\sergio\AppData\Local\Temp\cc9Uh5UG.s 			page 4


  91:Generated_Source\PSoC4/I2C_1_I2C_SLAVE.c **** *    I2C_1_I2C_SSTAT_RD_CMPLT is set.
  92:Generated_Source\PSoC4/I2C_1_I2C_SLAVE.c **** *   - I2C_1_I2C_SSTAT_RD_OVFL - Master attempted to read more bytes
  93:Generated_Source\PSoC4/I2C_1_I2C_SLAVE.c **** *     than are in buffer. Slave continually returns 0xFF byte in this case.
  94:Generated_Source\PSoC4/I2C_1_I2C_SLAVE.c **** *   - I2C_1_I2C_SSTAT_RD_ERR - Slave captured error on the bus during 
  95:Generated_Source\PSoC4/I2C_1_I2C_SLAVE.c **** *     a read transfer. The sources of error are: misplaced Start or Stop 
  96:Generated_Source\PSoC4/I2C_1_I2C_SLAVE.c **** *     condition or lost arbitration while slave drives SDA.
  97:Generated_Source\PSoC4/I2C_1_I2C_SLAVE.c **** *   - I2C_1_I2C_SSTAT_WR_CMPLT - Slave write transfer complete. 
  98:Generated_Source\PSoC4/I2C_1_I2C_SLAVE.c **** *     Set at reception of a Stop or ReStart condition. The write error condition
  99:Generated_Source\PSoC4/I2C_1_I2C_SLAVE.c **** *     status bit must be checked to ensure that write transfer was completed
 100:Generated_Source\PSoC4/I2C_1_I2C_SLAVE.c **** *     successfully.
 101:Generated_Source\PSoC4/I2C_1_I2C_SLAVE.c **** *   - I2C_1_I2C_SSTAT_WR_BUSY - Slave write transfer is in progress. 
 102:Generated_Source\PSoC4/I2C_1_I2C_SLAVE.c **** *     Set when the master addresses the slave with a write, cleared when 
 103:Generated_Source\PSoC4/I2C_1_I2C_SLAVE.c **** *    I2C_1_I2C_SSTAT_WR_CMPLT is set.
 104:Generated_Source\PSoC4/I2C_1_I2C_SLAVE.c **** *   - I2C_1_I2C_SSTAT_WR_OVFL - Master attempted to write past end of 
 105:Generated_Source\PSoC4/I2C_1_I2C_SLAVE.c **** *     buffer. Further bytes are ignored.
 106:Generated_Source\PSoC4/I2C_1_I2C_SLAVE.c **** *   - I2C_1_I2C_SSTAT_WR_ERR - Slave captured error on the bus during
 107:Generated_Source\PSoC4/I2C_1_I2C_SLAVE.c **** *     write transfer. The sources of error are: misplaced Start or Stop condition
 108:Generated_Source\PSoC4/I2C_1_I2C_SLAVE.c **** *     or lost arbitration while slave drives SDA.
 109:Generated_Source\PSoC4/I2C_1_I2C_SLAVE.c **** *     The write buffer may contain invalid bytes or part of the data transfer when 
 110:Generated_Source\PSoC4/I2C_1_I2C_SLAVE.c **** *     I2C_1_I2C_SSTAT_WR_ERR is set. It is recommended to discard write 
 111:Generated_Source\PSoC4/I2C_1_I2C_SLAVE.c **** *     buffer content in this case.
 112:Generated_Source\PSoC4/I2C_1_I2C_SLAVE.c **** *
 113:Generated_Source\PSoC4/I2C_1_I2C_SLAVE.c **** * \globalvars
 114:Generated_Source\PSoC4/I2C_1_I2C_SLAVE.c **** *  I2C_1_slStatus  - used to store current status of I2C slave.
 115:Generated_Source\PSoC4/I2C_1_I2C_SLAVE.c **** *
 116:Generated_Source\PSoC4/I2C_1_I2C_SLAVE.c **** *******************************************************************************/
 117:Generated_Source\PSoC4/I2C_1_I2C_SLAVE.c **** uint32 I2C_1_I2CSlaveStatus(void)
 118:Generated_Source\PSoC4/I2C_1_I2C_SLAVE.c **** {
  82              		.loc 1 118 0
  83              		.cfi_startproc
  84              		@ args = 0, pretend = 0, frame = 0
  85              		@ frame_needed = 1, uses_anonymous_args = 0
  86 0000 80B5     		push	{r7, lr}
  87              		.cfi_def_cfa_offset 8
  88              		.cfi_offset 7, -8
  89              		.cfi_offset 14, -4
  90 0002 00AF     		add	r7, sp, #0
  91              		.cfi_def_cfa_register 7
 119:Generated_Source\PSoC4/I2C_1_I2C_SLAVE.c ****     return((uint32) I2C_1_slStatus);
  92              		.loc 1 119 0
  93 0004 024B     		ldr	r3, .L6
  94 0006 1B78     		ldrb	r3, [r3]
  95 0008 DBB2     		uxtb	r3, r3
 120:Generated_Source\PSoC4/I2C_1_I2C_SLAVE.c **** }
  96              		.loc 1 120 0
  97 000a 1800     		movs	r0, r3
  98 000c BD46     		mov	sp, r7
  99              		@ sp needed
 100 000e 80BD     		pop	{r7, pc}
 101              	.L7:
 102              		.align	2
 103              	.L6:
 104 0010 00000000 		.word	I2C_1_slStatus
 105              		.cfi_endproc
 106              	.LFE3:
 107              		.size	I2C_1_I2CSlaveStatus, .-I2C_1_I2CSlaveStatus
 108              		.section	.text.I2C_1_I2CSlaveClearReadStatus,"ax",%progbits
ARM GAS  C:\Users\sergio\AppData\Local\Temp\cc9Uh5UG.s 			page 5


 109              		.align	2
 110              		.global	I2C_1_I2CSlaveClearReadStatus
 111              		.code	16
 112              		.thumb_func
 113              		.type	I2C_1_I2CSlaveClearReadStatus, %function
 114              	I2C_1_I2CSlaveClearReadStatus:
 115              	.LFB4:
 121:Generated_Source\PSoC4/I2C_1_I2C_SLAVE.c **** 
 122:Generated_Source\PSoC4/I2C_1_I2C_SLAVE.c **** 
 123:Generated_Source\PSoC4/I2C_1_I2C_SLAVE.c **** /*******************************************************************************
 124:Generated_Source\PSoC4/I2C_1_I2C_SLAVE.c **** * Function Name: I2C_1_I2CSlaveClearReadStatus
 125:Generated_Source\PSoC4/I2C_1_I2C_SLAVE.c **** ****************************************************************************//**
 126:Generated_Source\PSoC4/I2C_1_I2C_SLAVE.c **** *
 127:Generated_Source\PSoC4/I2C_1_I2C_SLAVE.c **** *  Clears the read status flags and returns their values. No other status flags
 128:Generated_Source\PSoC4/I2C_1_I2C_SLAVE.c **** *  are affected.
 129:Generated_Source\PSoC4/I2C_1_I2C_SLAVE.c **** *
 130:Generated_Source\PSoC4/I2C_1_I2C_SLAVE.c **** * \return
 131:Generated_Source\PSoC4/I2C_1_I2C_SLAVE.c **** *  Current read status of slave. See the SCB_I2CSlaveStatus() function for 
 132:Generated_Source\PSoC4/I2C_1_I2C_SLAVE.c **** *  constants.
 133:Generated_Source\PSoC4/I2C_1_I2C_SLAVE.c **** *
 134:Generated_Source\PSoC4/I2C_1_I2C_SLAVE.c **** * \sideeffect
 135:Generated_Source\PSoC4/I2C_1_I2C_SLAVE.c **** *  This function does not clear I2C_1_I2C_SSTAT_RD_BUSY.
 136:Generated_Source\PSoC4/I2C_1_I2C_SLAVE.c **** *
 137:Generated_Source\PSoC4/I2C_1_I2C_SLAVE.c **** * \globalvars
 138:Generated_Source\PSoC4/I2C_1_I2C_SLAVE.c **** *  I2C_1_slStatus  - used to store current status of I2C slave.
 139:Generated_Source\PSoC4/I2C_1_I2C_SLAVE.c **** *
 140:Generated_Source\PSoC4/I2C_1_I2C_SLAVE.c **** *******************************************************************************/
 141:Generated_Source\PSoC4/I2C_1_I2C_SLAVE.c **** uint32 I2C_1_I2CSlaveClearReadStatus(void)
 142:Generated_Source\PSoC4/I2C_1_I2C_SLAVE.c **** {
 116              		.loc 1 142 0
 117              		.cfi_startproc
 118              		@ args = 0, pretend = 0, frame = 8
 119              		@ frame_needed = 1, uses_anonymous_args = 0
 120 0000 80B5     		push	{r7, lr}
 121              		.cfi_def_cfa_offset 8
 122              		.cfi_offset 7, -8
 123              		.cfi_offset 14, -4
 124 0002 82B0     		sub	sp, sp, #8
 125              		.cfi_def_cfa_offset 16
 126 0004 00AF     		add	r7, sp, #0
 127              		.cfi_def_cfa_register 7
 143:Generated_Source\PSoC4/I2C_1_I2C_SLAVE.c ****     uint32 status;
 144:Generated_Source\PSoC4/I2C_1_I2C_SLAVE.c **** 
 145:Generated_Source\PSoC4/I2C_1_I2C_SLAVE.c ****     I2C_1_DisableInt();  /* Lock from interruption */
 128              		.loc 1 145 0
 129 0006 0920     		movs	r0, #9
 130 0008 FFF7FEFF 		bl	CyIntDisable
 146:Generated_Source\PSoC4/I2C_1_I2C_SLAVE.c **** 
 147:Generated_Source\PSoC4/I2C_1_I2C_SLAVE.c ****     /* Mask of transfer complete flag and error status */
 148:Generated_Source\PSoC4/I2C_1_I2C_SLAVE.c ****     status = ((uint32) I2C_1_slStatus & I2C_1_I2C_SSTAT_RD_MASK);
 131              		.loc 1 148 0
 132 000c 0B4B     		ldr	r3, .L10
 133 000e 1B78     		ldrb	r3, [r3]
 134 0010 DBB2     		uxtb	r3, r3
 135 0012 1A00     		movs	r2, r3
 136 0014 0F23     		movs	r3, #15
 137 0016 1340     		ands	r3, r2
ARM GAS  C:\Users\sergio\AppData\Local\Temp\cc9Uh5UG.s 			page 6


 138 0018 7B60     		str	r3, [r7, #4]
 149:Generated_Source\PSoC4/I2C_1_I2C_SLAVE.c ****     I2C_1_slStatus &= (uint8) ~I2C_1_I2C_SSTAT_RD_CLEAR;
 139              		.loc 1 149 0
 140 001a 084B     		ldr	r3, .L10
 141 001c 1B78     		ldrb	r3, [r3]
 142 001e DBB2     		uxtb	r3, r3
 143 0020 0D22     		movs	r2, #13
 144 0022 9343     		bics	r3, r2
 145 0024 DAB2     		uxtb	r2, r3
 146 0026 054B     		ldr	r3, .L10
 147 0028 1A70     		strb	r2, [r3]
 150:Generated_Source\PSoC4/I2C_1_I2C_SLAVE.c **** 
 151:Generated_Source\PSoC4/I2C_1_I2C_SLAVE.c ****     I2C_1_EnableInt();   /* Release lock */
 148              		.loc 1 151 0
 149 002a 0920     		movs	r0, #9
 150 002c FFF7FEFF 		bl	CyIntEnable
 152:Generated_Source\PSoC4/I2C_1_I2C_SLAVE.c **** 
 153:Generated_Source\PSoC4/I2C_1_I2C_SLAVE.c ****     return(status);
 151              		.loc 1 153 0
 152 0030 7B68     		ldr	r3, [r7, #4]
 154:Generated_Source\PSoC4/I2C_1_I2C_SLAVE.c **** }
 153              		.loc 1 154 0
 154 0032 1800     		movs	r0, r3
 155 0034 BD46     		mov	sp, r7
 156 0036 02B0     		add	sp, sp, #8
 157              		@ sp needed
 158 0038 80BD     		pop	{r7, pc}
 159              	.L11:
 160 003a C046     		.align	2
 161              	.L10:
 162 003c 00000000 		.word	I2C_1_slStatus
 163              		.cfi_endproc
 164              	.LFE4:
 165              		.size	I2C_1_I2CSlaveClearReadStatus, .-I2C_1_I2CSlaveClearReadStatus
 166              		.section	.text.I2C_1_I2CSlaveClearWriteStatus,"ax",%progbits
 167              		.align	2
 168              		.global	I2C_1_I2CSlaveClearWriteStatus
 169              		.code	16
 170              		.thumb_func
 171              		.type	I2C_1_I2CSlaveClearWriteStatus, %function
 172              	I2C_1_I2CSlaveClearWriteStatus:
 173              	.LFB5:
 155:Generated_Source\PSoC4/I2C_1_I2C_SLAVE.c **** 
 156:Generated_Source\PSoC4/I2C_1_I2C_SLAVE.c **** 
 157:Generated_Source\PSoC4/I2C_1_I2C_SLAVE.c **** /*******************************************************************************
 158:Generated_Source\PSoC4/I2C_1_I2C_SLAVE.c **** * Function Name: I2C_1_I2CSlaveClearWriteStatus
 159:Generated_Source\PSoC4/I2C_1_I2C_SLAVE.c **** ****************************************************************************//**
 160:Generated_Source\PSoC4/I2C_1_I2C_SLAVE.c **** *
 161:Generated_Source\PSoC4/I2C_1_I2C_SLAVE.c **** *  Clears the write status flags and returns their values. No other status flags
 162:Generated_Source\PSoC4/I2C_1_I2C_SLAVE.c **** *  are affected.
 163:Generated_Source\PSoC4/I2C_1_I2C_SLAVE.c **** *
 164:Generated_Source\PSoC4/I2C_1_I2C_SLAVE.c **** * \return
 165:Generated_Source\PSoC4/I2C_1_I2C_SLAVE.c **** *  Current write status of slave. See the SCB_I2CSlaveStatus() function 
 166:Generated_Source\PSoC4/I2C_1_I2C_SLAVE.c **** *  for constants.
 167:Generated_Source\PSoC4/I2C_1_I2C_SLAVE.c **** *
 168:Generated_Source\PSoC4/I2C_1_I2C_SLAVE.c **** * \sideeffect
 169:Generated_Source\PSoC4/I2C_1_I2C_SLAVE.c **** *  This function does not clear I2C_1_I2C_SSTAT_WR_BUSY.*
ARM GAS  C:\Users\sergio\AppData\Local\Temp\cc9Uh5UG.s 			page 7


 170:Generated_Source\PSoC4/I2C_1_I2C_SLAVE.c **** *
 171:Generated_Source\PSoC4/I2C_1_I2C_SLAVE.c **** * \globalvars
 172:Generated_Source\PSoC4/I2C_1_I2C_SLAVE.c **** *  I2C_1_slStatus  - used to store current status of I2C slave.
 173:Generated_Source\PSoC4/I2C_1_I2C_SLAVE.c **** *
 174:Generated_Source\PSoC4/I2C_1_I2C_SLAVE.c **** *******************************************************************************/
 175:Generated_Source\PSoC4/I2C_1_I2C_SLAVE.c **** uint32 I2C_1_I2CSlaveClearWriteStatus(void)
 176:Generated_Source\PSoC4/I2C_1_I2C_SLAVE.c **** {
 174              		.loc 1 176 0
 175              		.cfi_startproc
 176              		@ args = 0, pretend = 0, frame = 8
 177              		@ frame_needed = 1, uses_anonymous_args = 0
 178 0000 80B5     		push	{r7, lr}
 179              		.cfi_def_cfa_offset 8
 180              		.cfi_offset 7, -8
 181              		.cfi_offset 14, -4
 182 0002 82B0     		sub	sp, sp, #8
 183              		.cfi_def_cfa_offset 16
 184 0004 00AF     		add	r7, sp, #0
 185              		.cfi_def_cfa_register 7
 177:Generated_Source\PSoC4/I2C_1_I2C_SLAVE.c ****     uint32 status;
 178:Generated_Source\PSoC4/I2C_1_I2C_SLAVE.c **** 
 179:Generated_Source\PSoC4/I2C_1_I2C_SLAVE.c ****     I2C_1_DisableInt();  /* Lock from interruption */
 186              		.loc 1 179 0
 187 0006 0920     		movs	r0, #9
 188 0008 FFF7FEFF 		bl	CyIntDisable
 180:Generated_Source\PSoC4/I2C_1_I2C_SLAVE.c **** 
 181:Generated_Source\PSoC4/I2C_1_I2C_SLAVE.c ****     /* Mask of transfer complete flag and Error status */
 182:Generated_Source\PSoC4/I2C_1_I2C_SLAVE.c ****     status = ((uint32) I2C_1_slStatus & I2C_1_I2C_SSTAT_WR_MASK);
 189              		.loc 1 182 0
 190 000c 0B4B     		ldr	r3, .L14
 191 000e 1B78     		ldrb	r3, [r3]
 192 0010 DBB2     		uxtb	r3, r3
 193 0012 1A00     		movs	r2, r3
 194 0014 F023     		movs	r3, #240
 195 0016 1340     		ands	r3, r2
 196 0018 7B60     		str	r3, [r7, #4]
 183:Generated_Source\PSoC4/I2C_1_I2C_SLAVE.c ****     I2C_1_slStatus &= (uint8) ~I2C_1_I2C_SSTAT_WR_CLEAR;
 197              		.loc 1 183 0
 198 001a 084B     		ldr	r3, .L14
 199 001c 1B78     		ldrb	r3, [r3]
 200 001e DBB2     		uxtb	r3, r3
 201 0020 2F22     		movs	r2, #47
 202 0022 1340     		ands	r3, r2
 203 0024 DAB2     		uxtb	r2, r3
 204 0026 054B     		ldr	r3, .L14
 205 0028 1A70     		strb	r2, [r3]
 184:Generated_Source\PSoC4/I2C_1_I2C_SLAVE.c **** 
 185:Generated_Source\PSoC4/I2C_1_I2C_SLAVE.c ****     I2C_1_EnableInt();   /* Release lock */
 206              		.loc 1 185 0
 207 002a 0920     		movs	r0, #9
 208 002c FFF7FEFF 		bl	CyIntEnable
 186:Generated_Source\PSoC4/I2C_1_I2C_SLAVE.c **** 
 187:Generated_Source\PSoC4/I2C_1_I2C_SLAVE.c ****     return(status);
 209              		.loc 1 187 0
 210 0030 7B68     		ldr	r3, [r7, #4]
 188:Generated_Source\PSoC4/I2C_1_I2C_SLAVE.c **** }
 211              		.loc 1 188 0
ARM GAS  C:\Users\sergio\AppData\Local\Temp\cc9Uh5UG.s 			page 8


 212 0032 1800     		movs	r0, r3
 213 0034 BD46     		mov	sp, r7
 214 0036 02B0     		add	sp, sp, #8
 215              		@ sp needed
 216 0038 80BD     		pop	{r7, pc}
 217              	.L15:
 218 003a C046     		.align	2
 219              	.L14:
 220 003c 00000000 		.word	I2C_1_slStatus
 221              		.cfi_endproc
 222              	.LFE5:
 223              		.size	I2C_1_I2CSlaveClearWriteStatus, .-I2C_1_I2CSlaveClearWriteStatus
 224              		.section	.text.I2C_1_I2CSlaveSetAddress,"ax",%progbits
 225              		.align	2
 226              		.global	I2C_1_I2CSlaveSetAddress
 227              		.code	16
 228              		.thumb_func
 229              		.type	I2C_1_I2CSlaveSetAddress, %function
 230              	I2C_1_I2CSlaveSetAddress:
 231              	.LFB6:
 189:Generated_Source\PSoC4/I2C_1_I2C_SLAVE.c **** 
 190:Generated_Source\PSoC4/I2C_1_I2C_SLAVE.c **** 
 191:Generated_Source\PSoC4/I2C_1_I2C_SLAVE.c **** /*******************************************************************************
 192:Generated_Source\PSoC4/I2C_1_I2C_SLAVE.c **** * Function Name: I2C_1_I2CSlaveSetAddress
 193:Generated_Source\PSoC4/I2C_1_I2C_SLAVE.c **** ****************************************************************************//**
 194:Generated_Source\PSoC4/I2C_1_I2C_SLAVE.c **** *
 195:Generated_Source\PSoC4/I2C_1_I2C_SLAVE.c **** * Sets the I2C slave address.
 196:Generated_Source\PSoC4/I2C_1_I2C_SLAVE.c **** *
 197:Generated_Source\PSoC4/I2C_1_I2C_SLAVE.c **** * \param address: I2C slave address for the primary device.
 198:Generated_Source\PSoC4/I2C_1_I2C_SLAVE.c **** *  This address is the 7-bit right-justified slave address and does not 
 199:Generated_Source\PSoC4/I2C_1_I2C_SLAVE.c **** *  include the R/W bit.
 200:Generated_Source\PSoC4/I2C_1_I2C_SLAVE.c **** *  The address value is not checked to see if it violates the I2C spec. 
 201:Generated_Source\PSoC4/I2C_1_I2C_SLAVE.c **** *  The preferred addresses are between 8 and 120 (0x08 to 0x78).
 202:Generated_Source\PSoC4/I2C_1_I2C_SLAVE.c **** *
 203:Generated_Source\PSoC4/I2C_1_I2C_SLAVE.c **** *******************************************************************************/
 204:Generated_Source\PSoC4/I2C_1_I2C_SLAVE.c **** void I2C_1_I2CSlaveSetAddress(uint32 address)
 205:Generated_Source\PSoC4/I2C_1_I2C_SLAVE.c **** {
 232              		.loc 1 205 0
 233              		.cfi_startproc
 234              		@ args = 0, pretend = 0, frame = 16
 235              		@ frame_needed = 1, uses_anonymous_args = 0
 236 0000 80B5     		push	{r7, lr}
 237              		.cfi_def_cfa_offset 8
 238              		.cfi_offset 7, -8
 239              		.cfi_offset 14, -4
 240 0002 84B0     		sub	sp, sp, #16
 241              		.cfi_def_cfa_offset 24
 242 0004 00AF     		add	r7, sp, #0
 243              		.cfi_def_cfa_register 7
 244 0006 7860     		str	r0, [r7, #4]
 206:Generated_Source\PSoC4/I2C_1_I2C_SLAVE.c ****     uint32 matchReg;
 207:Generated_Source\PSoC4/I2C_1_I2C_SLAVE.c **** 
 208:Generated_Source\PSoC4/I2C_1_I2C_SLAVE.c ****     matchReg = I2C_1_RX_MATCH_REG;
 245              		.loc 1 208 0
 246 0008 0A4B     		ldr	r3, .L17
 247 000a 1B68     		ldr	r3, [r3]
 248 000c FB60     		str	r3, [r7, #12]
ARM GAS  C:\Users\sergio\AppData\Local\Temp\cc9Uh5UG.s 			page 9


 209:Generated_Source\PSoC4/I2C_1_I2C_SLAVE.c **** 
 210:Generated_Source\PSoC4/I2C_1_I2C_SLAVE.c ****     matchReg &= ((uint32) ~I2C_1_RX_MATCH_ADDR_MASK); /* Clear address bits */
 249              		.loc 1 210 0
 250 000e FB68     		ldr	r3, [r7, #12]
 251 0010 FF22     		movs	r2, #255
 252 0012 9343     		bics	r3, r2
 253 0014 FB60     		str	r3, [r7, #12]
 211:Generated_Source\PSoC4/I2C_1_I2C_SLAVE.c ****     matchReg |= ((uint32)  I2C_1_GET_I2C_8BIT_ADDRESS(address));
 254              		.loc 1 211 0
 255 0016 7B68     		ldr	r3, [r7, #4]
 256 0018 5B00     		lsls	r3, r3, #1
 257 001a FF22     		movs	r2, #255
 258 001c 1340     		ands	r3, r2
 259 001e FA68     		ldr	r2, [r7, #12]
 260 0020 1343     		orrs	r3, r2
 261 0022 FB60     		str	r3, [r7, #12]
 212:Generated_Source\PSoC4/I2C_1_I2C_SLAVE.c **** 
 213:Generated_Source\PSoC4/I2C_1_I2C_SLAVE.c ****     I2C_1_RX_MATCH_REG = matchReg;
 262              		.loc 1 213 0
 263 0024 034B     		ldr	r3, .L17
 264 0026 FA68     		ldr	r2, [r7, #12]
 265 0028 1A60     		str	r2, [r3]
 214:Generated_Source\PSoC4/I2C_1_I2C_SLAVE.c **** }
 266              		.loc 1 214 0
 267 002a C046     		nop
 268 002c BD46     		mov	sp, r7
 269 002e 04B0     		add	sp, sp, #16
 270              		@ sp needed
 271 0030 80BD     		pop	{r7, pc}
 272              	.L18:
 273 0032 C046     		.align	2
 274              	.L17:
 275 0034 10032440 		.word	1076101904
 276              		.cfi_endproc
 277              	.LFE6:
 278              		.size	I2C_1_I2CSlaveSetAddress, .-I2C_1_I2CSlaveSetAddress
 279              		.section	.text.I2C_1_I2CSlaveSetAddressMask,"ax",%progbits
 280              		.align	2
 281              		.global	I2C_1_I2CSlaveSetAddressMask
 282              		.code	16
 283              		.thumb_func
 284              		.type	I2C_1_I2CSlaveSetAddressMask, %function
 285              	I2C_1_I2CSlaveSetAddressMask:
 286              	.LFB7:
 215:Generated_Source\PSoC4/I2C_1_I2C_SLAVE.c **** 
 216:Generated_Source\PSoC4/I2C_1_I2C_SLAVE.c **** 
 217:Generated_Source\PSoC4/I2C_1_I2C_SLAVE.c **** /*******************************************************************************
 218:Generated_Source\PSoC4/I2C_1_I2C_SLAVE.c **** * Function Name: I2C_1_I2CSlaveSetAddressMask
 219:Generated_Source\PSoC4/I2C_1_I2C_SLAVE.c **** ****************************************************************************//**
 220:Generated_Source\PSoC4/I2C_1_I2C_SLAVE.c **** *
 221:Generated_Source\PSoC4/I2C_1_I2C_SLAVE.c **** *  Sets the I2C slave address mask.
 222:Generated_Source\PSoC4/I2C_1_I2C_SLAVE.c **** *
 223:Generated_Source\PSoC4/I2C_1_I2C_SLAVE.c **** * \param addressMask: I2C slave address mask.
 224:Generated_Source\PSoC4/I2C_1_I2C_SLAVE.c **** *  - Bit value 0 – excludes bit from address comparison.
 225:Generated_Source\PSoC4/I2C_1_I2C_SLAVE.c **** *  - Bit value 1 – the bit needs to match with the corresponding bit of the 
 226:Generated_Source\PSoC4/I2C_1_I2C_SLAVE.c **** *  I2C slave address.
 227:Generated_Source\PSoC4/I2C_1_I2C_SLAVE.c **** *
ARM GAS  C:\Users\sergio\AppData\Local\Temp\cc9Uh5UG.s 			page 10


 228:Generated_Source\PSoC4/I2C_1_I2C_SLAVE.c **** *  The range of valid values is between 0 and 254 (0x00 to 0xFE). 
 229:Generated_Source\PSoC4/I2C_1_I2C_SLAVE.c **** *  The LSB of the address mask must be 0 because it corresponds to R/W bit 
 230:Generated_Source\PSoC4/I2C_1_I2C_SLAVE.c **** *  within I2C slave address byte.
 231:Generated_Source\PSoC4/I2C_1_I2C_SLAVE.c **** *
 232:Generated_Source\PSoC4/I2C_1_I2C_SLAVE.c **** *******************************************************************************/
 233:Generated_Source\PSoC4/I2C_1_I2C_SLAVE.c **** void I2C_1_I2CSlaveSetAddressMask(uint32 addressMask)
 234:Generated_Source\PSoC4/I2C_1_I2C_SLAVE.c **** {
 287              		.loc 1 234 0
 288              		.cfi_startproc
 289              		@ args = 0, pretend = 0, frame = 16
 290              		@ frame_needed = 1, uses_anonymous_args = 0
 291 0000 80B5     		push	{r7, lr}
 292              		.cfi_def_cfa_offset 8
 293              		.cfi_offset 7, -8
 294              		.cfi_offset 14, -4
 295 0002 84B0     		sub	sp, sp, #16
 296              		.cfi_def_cfa_offset 24
 297 0004 00AF     		add	r7, sp, #0
 298              		.cfi_def_cfa_register 7
 299 0006 7860     		str	r0, [r7, #4]
 235:Generated_Source\PSoC4/I2C_1_I2C_SLAVE.c ****     uint32 matchReg;
 236:Generated_Source\PSoC4/I2C_1_I2C_SLAVE.c **** 
 237:Generated_Source\PSoC4/I2C_1_I2C_SLAVE.c ****     matchReg = I2C_1_RX_MATCH_REG;
 300              		.loc 1 237 0
 301 0008 094B     		ldr	r3, .L20
 302 000a 1B68     		ldr	r3, [r3]
 303 000c FB60     		str	r3, [r7, #12]
 238:Generated_Source\PSoC4/I2C_1_I2C_SLAVE.c **** 
 239:Generated_Source\PSoC4/I2C_1_I2C_SLAVE.c ****     matchReg &= ((uint32) ~I2C_1_RX_MATCH_MASK_MASK);
 304              		.loc 1 239 0
 305 000e FB68     		ldr	r3, [r7, #12]
 306 0010 084A     		ldr	r2, .L20+4
 307 0012 1340     		ands	r3, r2
 308 0014 FB60     		str	r3, [r7, #12]
 240:Generated_Source\PSoC4/I2C_1_I2C_SLAVE.c ****     matchReg |= ((uint32) (addressMask << I2C_1_RX_MATCH_MASK_POS));
 309              		.loc 1 240 0
 310 0016 7B68     		ldr	r3, [r7, #4]
 311 0018 1B04     		lsls	r3, r3, #16
 312 001a FA68     		ldr	r2, [r7, #12]
 313 001c 1343     		orrs	r3, r2
 314 001e FB60     		str	r3, [r7, #12]
 241:Generated_Source\PSoC4/I2C_1_I2C_SLAVE.c **** 
 242:Generated_Source\PSoC4/I2C_1_I2C_SLAVE.c ****     I2C_1_RX_MATCH_REG = matchReg;
 315              		.loc 1 242 0
 316 0020 034B     		ldr	r3, .L20
 317 0022 FA68     		ldr	r2, [r7, #12]
 318 0024 1A60     		str	r2, [r3]
 243:Generated_Source\PSoC4/I2C_1_I2C_SLAVE.c **** }
 319              		.loc 1 243 0
 320 0026 C046     		nop
 321 0028 BD46     		mov	sp, r7
 322 002a 04B0     		add	sp, sp, #16
 323              		@ sp needed
 324 002c 80BD     		pop	{r7, pc}
 325              	.L21:
 326 002e C046     		.align	2
 327              	.L20:
ARM GAS  C:\Users\sergio\AppData\Local\Temp\cc9Uh5UG.s 			page 11


 328 0030 10032440 		.word	1076101904
 329 0034 FFFF00FF 		.word	-16711681
 330              		.cfi_endproc
 331              	.LFE7:
 332              		.size	I2C_1_I2CSlaveSetAddressMask, .-I2C_1_I2CSlaveSetAddressMask
 333              		.section	.text.I2C_1_I2CSlaveInitReadBuf,"ax",%progbits
 334              		.align	2
 335              		.global	I2C_1_I2CSlaveInitReadBuf
 336              		.code	16
 337              		.thumb_func
 338              		.type	I2C_1_I2CSlaveInitReadBuf, %function
 339              	I2C_1_I2CSlaveInitReadBuf:
 340              	.LFB8:
 244:Generated_Source\PSoC4/I2C_1_I2C_SLAVE.c **** 
 245:Generated_Source\PSoC4/I2C_1_I2C_SLAVE.c **** 
 246:Generated_Source\PSoC4/I2C_1_I2C_SLAVE.c **** /*******************************************************************************
 247:Generated_Source\PSoC4/I2C_1_I2C_SLAVE.c **** * Function Name: I2C_1_I2CSlaveInitReadBuf
 248:Generated_Source\PSoC4/I2C_1_I2C_SLAVE.c **** ****************************************************************************//**
 249:Generated_Source\PSoC4/I2C_1_I2C_SLAVE.c **** *
 250:Generated_Source\PSoC4/I2C_1_I2C_SLAVE.c **** *  Sets the buffer pointer and size of the read buffer. This function also
 251:Generated_Source\PSoC4/I2C_1_I2C_SLAVE.c **** *  resets the transfer count returned with the 
 252:Generated_Source\PSoC4/I2C_1_I2C_SLAVE.c **** *  I2C_1_SlaveGetReadBufSize() function.
 253:Generated_Source\PSoC4/I2C_1_I2C_SLAVE.c **** *
 254:Generated_Source\PSoC4/I2C_1_I2C_SLAVE.c **** * \param readBuf: Pointer to the data buffer to be read by the master.
 255:Generated_Source\PSoC4/I2C_1_I2C_SLAVE.c **** * \param bufSize: Size of the read buffer exposed to the I2C master.
 256:Generated_Source\PSoC4/I2C_1_I2C_SLAVE.c **** *
 257:Generated_Source\PSoC4/I2C_1_I2C_SLAVE.c **** * \sideeffect
 258:Generated_Source\PSoC4/I2C_1_I2C_SLAVE.c **** *  If this function is called during a bus transaction, data from the previous
 259:Generated_Source\PSoC4/I2C_1_I2C_SLAVE.c **** *  buffer location and the beginning of current buffer may be transmitted.
 260:Generated_Source\PSoC4/I2C_1_I2C_SLAVE.c **** *
 261:Generated_Source\PSoC4/I2C_1_I2C_SLAVE.c **** * \globalvars
 262:Generated_Source\PSoC4/I2C_1_I2C_SLAVE.c **** *  I2C_1_slRdBufPtr   - used to store pointer to slave read buffer.
 263:Generated_Source\PSoC4/I2C_1_I2C_SLAVE.c **** *  I2C_1_slRdBufSize  - used to store salve read buffer size.
 264:Generated_Source\PSoC4/I2C_1_I2C_SLAVE.c **** *  I2C_1_slRdBufIndex - used to store current index within slave
 265:Generated_Source\PSoC4/I2C_1_I2C_SLAVE.c **** *  read buffer.
 266:Generated_Source\PSoC4/I2C_1_I2C_SLAVE.c **** *
 267:Generated_Source\PSoC4/I2C_1_I2C_SLAVE.c **** *******************************************************************************/
 268:Generated_Source\PSoC4/I2C_1_I2C_SLAVE.c **** void I2C_1_I2CSlaveInitReadBuf(uint8 * rdBuf, uint32 bufSize)
 269:Generated_Source\PSoC4/I2C_1_I2C_SLAVE.c **** {
 341              		.loc 1 269 0
 342              		.cfi_startproc
 343              		@ args = 0, pretend = 0, frame = 8
 344              		@ frame_needed = 1, uses_anonymous_args = 0
 345 0000 80B5     		push	{r7, lr}
 346              		.cfi_def_cfa_offset 8
 347              		.cfi_offset 7, -8
 348              		.cfi_offset 14, -4
 349 0002 82B0     		sub	sp, sp, #8
 350              		.cfi_def_cfa_offset 16
 351 0004 00AF     		add	r7, sp, #0
 352              		.cfi_def_cfa_register 7
 353 0006 7860     		str	r0, [r7, #4]
 354 0008 3960     		str	r1, [r7]
 270:Generated_Source\PSoC4/I2C_1_I2C_SLAVE.c ****     /* Check for proper buffer */
 271:Generated_Source\PSoC4/I2C_1_I2C_SLAVE.c ****     if(NULL != rdBuf)
 355              		.loc 1 271 0
 356 000a 7B68     		ldr	r3, [r7, #4]
ARM GAS  C:\Users\sergio\AppData\Local\Temp\cc9Uh5UG.s 			page 12


 357 000c 002B     		cmp	r3, #0
 358 000e 11D0     		beq	.L24
 272:Generated_Source\PSoC4/I2C_1_I2C_SLAVE.c ****     {
 273:Generated_Source\PSoC4/I2C_1_I2C_SLAVE.c ****         I2C_1_DisableInt();  /* Lock from interruption */
 359              		.loc 1 273 0
 360 0010 0920     		movs	r0, #9
 361 0012 FFF7FEFF 		bl	CyIntDisable
 274:Generated_Source\PSoC4/I2C_1_I2C_SLAVE.c **** 
 275:Generated_Source\PSoC4/I2C_1_I2C_SLAVE.c ****         I2C_1_slRdBufPtr      = (volatile uint8 *) rdBuf; /* Set buffer pointer  */
 362              		.loc 1 275 0
 363 0016 094B     		ldr	r3, .L25
 364 0018 7A68     		ldr	r2, [r7, #4]
 365 001a 1A60     		str	r2, [r3]
 276:Generated_Source\PSoC4/I2C_1_I2C_SLAVE.c ****         I2C_1_slRdBufSize     = bufSize;                  /* Set buffer size     */
 366              		.loc 1 276 0
 367 001c 084B     		ldr	r3, .L25+4
 368 001e 3A68     		ldr	r2, [r7]
 369 0020 1A60     		str	r2, [r3]
 277:Generated_Source\PSoC4/I2C_1_I2C_SLAVE.c ****         I2C_1_slRdBufIndex    = 0u;                       /* Clear buffer index  */
 370              		.loc 1 277 0
 371 0022 084B     		ldr	r3, .L25+8
 372 0024 0022     		movs	r2, #0
 373 0026 1A60     		str	r2, [r3]
 278:Generated_Source\PSoC4/I2C_1_I2C_SLAVE.c ****         I2C_1_slRdBufIndexTmp = 0u;                       /* Clear buffer index  */
 374              		.loc 1 278 0
 375 0028 074B     		ldr	r3, .L25+12
 376 002a 0022     		movs	r2, #0
 377 002c 1A60     		str	r2, [r3]
 279:Generated_Source\PSoC4/I2C_1_I2C_SLAVE.c **** 
 280:Generated_Source\PSoC4/I2C_1_I2C_SLAVE.c ****         I2C_1_EnableInt();   /* Release lock */
 378              		.loc 1 280 0
 379 002e 0920     		movs	r0, #9
 380 0030 FFF7FEFF 		bl	CyIntEnable
 381              	.L24:
 281:Generated_Source\PSoC4/I2C_1_I2C_SLAVE.c ****     }
 282:Generated_Source\PSoC4/I2C_1_I2C_SLAVE.c **** }
 382              		.loc 1 282 0
 383 0034 C046     		nop
 384 0036 BD46     		mov	sp, r7
 385 0038 02B0     		add	sp, sp, #8
 386              		@ sp needed
 387 003a 80BD     		pop	{r7, pc}
 388              	.L26:
 389              		.align	2
 390              	.L25:
 391 003c 00000000 		.word	I2C_1_slRdBufPtr
 392 0040 00000000 		.word	I2C_1_slRdBufSize
 393 0044 00000000 		.word	I2C_1_slRdBufIndex
 394 0048 00000000 		.word	I2C_1_slRdBufIndexTmp
 395              		.cfi_endproc
 396              	.LFE8:
 397              		.size	I2C_1_I2CSlaveInitReadBuf, .-I2C_1_I2CSlaveInitReadBuf
 398              		.section	.text.I2C_1_I2CSlaveInitWriteBuf,"ax",%progbits
 399              		.align	2
 400              		.global	I2C_1_I2CSlaveInitWriteBuf
 401              		.code	16
 402              		.thumb_func
ARM GAS  C:\Users\sergio\AppData\Local\Temp\cc9Uh5UG.s 			page 13


 403              		.type	I2C_1_I2CSlaveInitWriteBuf, %function
 404              	I2C_1_I2CSlaveInitWriteBuf:
 405              	.LFB9:
 283:Generated_Source\PSoC4/I2C_1_I2C_SLAVE.c **** 
 284:Generated_Source\PSoC4/I2C_1_I2C_SLAVE.c **** 
 285:Generated_Source\PSoC4/I2C_1_I2C_SLAVE.c **** /*******************************************************************************
 286:Generated_Source\PSoC4/I2C_1_I2C_SLAVE.c **** * Function Name: I2C_1_I2CSlaveInitWriteBuf
 287:Generated_Source\PSoC4/I2C_1_I2C_SLAVE.c **** ****************************************************************************//**
 288:Generated_Source\PSoC4/I2C_1_I2C_SLAVE.c **** *
 289:Generated_Source\PSoC4/I2C_1_I2C_SLAVE.c **** *  Sets the buffer pointer and size of the write buffer. This function also 
 290:Generated_Source\PSoC4/I2C_1_I2C_SLAVE.c **** *  resets the transfer count returned with the 
 291:Generated_Source\PSoC4/I2C_1_I2C_SLAVE.c **** *  I2C_1_I2CSlaveGetWriteBufSize() function.
 292:Generated_Source\PSoC4/I2C_1_I2C_SLAVE.c **** *
 293:Generated_Source\PSoC4/I2C_1_I2C_SLAVE.c **** * \param writeBuf: Pointer to the data buffer to be written by the master.
 294:Generated_Source\PSoC4/I2C_1_I2C_SLAVE.c **** * \param bufSize:  Size of the write buffer exposed to the I2C master.
 295:Generated_Source\PSoC4/I2C_1_I2C_SLAVE.c **** *
 296:Generated_Source\PSoC4/I2C_1_I2C_SLAVE.c **** * \sideeffect
 297:Generated_Source\PSoC4/I2C_1_I2C_SLAVE.c **** *  If this function is called during a bus transaction, data may be received in 
 298:Generated_Source\PSoC4/I2C_1_I2C_SLAVE.c **** *  the previous buffer and the current buffer location.
 299:Generated_Source\PSoC4/I2C_1_I2C_SLAVE.c **** *
 300:Generated_Source\PSoC4/I2C_1_I2C_SLAVE.c **** * \globalvars
 301:Generated_Source\PSoC4/I2C_1_I2C_SLAVE.c **** *  I2C_1_slWrBufPtr   - used to store pointer to slave write buffer.
 302:Generated_Source\PSoC4/I2C_1_I2C_SLAVE.c **** *  I2C_1_slWrBufSize  - used to store salve write buffer size.
 303:Generated_Source\PSoC4/I2C_1_I2C_SLAVE.c **** *  I2C_1_slWrBufIndex - used to store current index within slave
 304:Generated_Source\PSoC4/I2C_1_I2C_SLAVE.c **** *   write buffer.
 305:Generated_Source\PSoC4/I2C_1_I2C_SLAVE.c **** *
 306:Generated_Source\PSoC4/I2C_1_I2C_SLAVE.c **** *******************************************************************************/
 307:Generated_Source\PSoC4/I2C_1_I2C_SLAVE.c **** void I2C_1_I2CSlaveInitWriteBuf(uint8 * wrBuf, uint32 bufSize)
 308:Generated_Source\PSoC4/I2C_1_I2C_SLAVE.c **** {
 406              		.loc 1 308 0
 407              		.cfi_startproc
 408              		@ args = 0, pretend = 0, frame = 8
 409              		@ frame_needed = 1, uses_anonymous_args = 0
 410 0000 80B5     		push	{r7, lr}
 411              		.cfi_def_cfa_offset 8
 412              		.cfi_offset 7, -8
 413              		.cfi_offset 14, -4
 414 0002 82B0     		sub	sp, sp, #8
 415              		.cfi_def_cfa_offset 16
 416 0004 00AF     		add	r7, sp, #0
 417              		.cfi_def_cfa_register 7
 418 0006 7860     		str	r0, [r7, #4]
 419 0008 3960     		str	r1, [r7]
 309:Generated_Source\PSoC4/I2C_1_I2C_SLAVE.c ****     /* Check buffer pointer */
 310:Generated_Source\PSoC4/I2C_1_I2C_SLAVE.c ****     if(NULL != wrBuf)
 420              		.loc 1 310 0
 421 000a 7B68     		ldr	r3, [r7, #4]
 422 000c 002B     		cmp	r3, #0
 423 000e 0ED0     		beq	.L29
 311:Generated_Source\PSoC4/I2C_1_I2C_SLAVE.c ****     {
 312:Generated_Source\PSoC4/I2C_1_I2C_SLAVE.c ****         I2C_1_DisableInt();  /* Lock from interruption */
 424              		.loc 1 312 0
 425 0010 0920     		movs	r0, #9
 426 0012 FFF7FEFF 		bl	CyIntDisable
 313:Generated_Source\PSoC4/I2C_1_I2C_SLAVE.c **** 
 314:Generated_Source\PSoC4/I2C_1_I2C_SLAVE.c ****         I2C_1_slWrBufPtr   = (volatile uint8 *) wrBuf; /* Set buffer pointer  */
 427              		.loc 1 314 0
ARM GAS  C:\Users\sergio\AppData\Local\Temp\cc9Uh5UG.s 			page 14


 428 0016 084B     		ldr	r3, .L30
 429 0018 7A68     		ldr	r2, [r7, #4]
 430 001a 1A60     		str	r2, [r3]
 315:Generated_Source\PSoC4/I2C_1_I2C_SLAVE.c ****         I2C_1_slWrBufSize  = bufSize;                  /* Set buffer size     */
 431              		.loc 1 315 0
 432 001c 074B     		ldr	r3, .L30+4
 433 001e 3A68     		ldr	r2, [r7]
 434 0020 1A60     		str	r2, [r3]
 316:Generated_Source\PSoC4/I2C_1_I2C_SLAVE.c ****         I2C_1_slWrBufIndex = 0u;                       /* Clear buffer index  */
 435              		.loc 1 316 0
 436 0022 074B     		ldr	r3, .L30+8
 437 0024 0022     		movs	r2, #0
 438 0026 1A60     		str	r2, [r3]
 317:Generated_Source\PSoC4/I2C_1_I2C_SLAVE.c **** 
 318:Generated_Source\PSoC4/I2C_1_I2C_SLAVE.c ****         I2C_1_EnableInt();   /* Release lock */
 439              		.loc 1 318 0
 440 0028 0920     		movs	r0, #9
 441 002a FFF7FEFF 		bl	CyIntEnable
 442              	.L29:
 319:Generated_Source\PSoC4/I2C_1_I2C_SLAVE.c ****     }
 320:Generated_Source\PSoC4/I2C_1_I2C_SLAVE.c **** }
 443              		.loc 1 320 0
 444 002e C046     		nop
 445 0030 BD46     		mov	sp, r7
 446 0032 02B0     		add	sp, sp, #8
 447              		@ sp needed
 448 0034 80BD     		pop	{r7, pc}
 449              	.L31:
 450 0036 C046     		.align	2
 451              	.L30:
 452 0038 00000000 		.word	I2C_1_slWrBufPtr
 453 003c 00000000 		.word	I2C_1_slWrBufSize
 454 0040 00000000 		.word	I2C_1_slWrBufIndex
 455              		.cfi_endproc
 456              	.LFE9:
 457              		.size	I2C_1_I2CSlaveInitWriteBuf, .-I2C_1_I2CSlaveInitWriteBuf
 458              		.section	.text.I2C_1_I2CSlaveGetReadBufSize,"ax",%progbits
 459              		.align	2
 460              		.global	I2C_1_I2CSlaveGetReadBufSize
 461              		.code	16
 462              		.thumb_func
 463              		.type	I2C_1_I2CSlaveGetReadBufSize, %function
 464              	I2C_1_I2CSlaveGetReadBufSize:
 465              	.LFB10:
 321:Generated_Source\PSoC4/I2C_1_I2C_SLAVE.c **** 
 322:Generated_Source\PSoC4/I2C_1_I2C_SLAVE.c **** 
 323:Generated_Source\PSoC4/I2C_1_I2C_SLAVE.c **** /*******************************************************************************
 324:Generated_Source\PSoC4/I2C_1_I2C_SLAVE.c **** * Function Name: I2C_1_I2CSlaveGetReadBufSize
 325:Generated_Source\PSoC4/I2C_1_I2C_SLAVE.c **** ****************************************************************************//**
 326:Generated_Source\PSoC4/I2C_1_I2C_SLAVE.c **** *
 327:Generated_Source\PSoC4/I2C_1_I2C_SLAVE.c **** *  Returns the number of bytes read by the I2C master since an
 328:Generated_Source\PSoC4/I2C_1_I2C_SLAVE.c **** *  I2C_1_I2CSlaveInitReadBuf() or 
 329:Generated_Source\PSoC4/I2C_1_I2C_SLAVE.c **** *  I2C_1_I2CSlaveClearReadBuf() function was executed.
 330:Generated_Source\PSoC4/I2C_1_I2C_SLAVE.c **** *  The maximum return value is the size of the read buffer.
 331:Generated_Source\PSoC4/I2C_1_I2C_SLAVE.c **** *
 332:Generated_Source\PSoC4/I2C_1_I2C_SLAVE.c **** * \return
 333:Generated_Source\PSoC4/I2C_1_I2C_SLAVE.c **** *  Bytes read by master. If the transfer is not yet complete, it returns 
ARM GAS  C:\Users\sergio\AppData\Local\Temp\cc9Uh5UG.s 			page 15


 334:Generated_Source\PSoC4/I2C_1_I2C_SLAVE.c **** *  zero until transfer completion.
 335:Generated_Source\PSoC4/I2C_1_I2C_SLAVE.c **** *
 336:Generated_Source\PSoC4/I2C_1_I2C_SLAVE.c **** * \sideeffect
 337:Generated_Source\PSoC4/I2C_1_I2C_SLAVE.c **** *  The returned value is not valid if I2C_1_I2C_SSTAT_RD_ERR was 
 338:Generated_Source\PSoC4/I2C_1_I2C_SLAVE.c **** *  captured by the slave.
 339:Generated_Source\PSoC4/I2C_1_I2C_SLAVE.c **** *
 340:Generated_Source\PSoC4/I2C_1_I2C_SLAVE.c **** * \globalvars
 341:Generated_Source\PSoC4/I2C_1_I2C_SLAVE.c **** *  I2C_1_slRdBufIndex - used to store current index within slave
 342:Generated_Source\PSoC4/I2C_1_I2C_SLAVE.c **** *  read buffer.
 343:Generated_Source\PSoC4/I2C_1_I2C_SLAVE.c **** *
 344:Generated_Source\PSoC4/I2C_1_I2C_SLAVE.c **** *******************************************************************************/
 345:Generated_Source\PSoC4/I2C_1_I2C_SLAVE.c **** uint32 I2C_1_I2CSlaveGetReadBufSize(void)
 346:Generated_Source\PSoC4/I2C_1_I2C_SLAVE.c **** {
 466              		.loc 1 346 0
 467              		.cfi_startproc
 468              		@ args = 0, pretend = 0, frame = 0
 469              		@ frame_needed = 1, uses_anonymous_args = 0
 470 0000 80B5     		push	{r7, lr}
 471              		.cfi_def_cfa_offset 8
 472              		.cfi_offset 7, -8
 473              		.cfi_offset 14, -4
 474 0002 00AF     		add	r7, sp, #0
 475              		.cfi_def_cfa_register 7
 347:Generated_Source\PSoC4/I2C_1_I2C_SLAVE.c ****     return(I2C_1_slRdBufIndex);
 476              		.loc 1 347 0
 477 0004 024B     		ldr	r3, .L34
 478 0006 1B68     		ldr	r3, [r3]
 348:Generated_Source\PSoC4/I2C_1_I2C_SLAVE.c **** }
 479              		.loc 1 348 0
 480 0008 1800     		movs	r0, r3
 481 000a BD46     		mov	sp, r7
 482              		@ sp needed
 483 000c 80BD     		pop	{r7, pc}
 484              	.L35:
 485 000e C046     		.align	2
 486              	.L34:
 487 0010 00000000 		.word	I2C_1_slRdBufIndex
 488              		.cfi_endproc
 489              	.LFE10:
 490              		.size	I2C_1_I2CSlaveGetReadBufSize, .-I2C_1_I2CSlaveGetReadBufSize
 491              		.section	.text.I2C_1_I2CSlaveGetWriteBufSize,"ax",%progbits
 492              		.align	2
 493              		.global	I2C_1_I2CSlaveGetWriteBufSize
 494              		.code	16
 495              		.thumb_func
 496              		.type	I2C_1_I2CSlaveGetWriteBufSize, %function
 497              	I2C_1_I2CSlaveGetWriteBufSize:
 498              	.LFB11:
 349:Generated_Source\PSoC4/I2C_1_I2C_SLAVE.c **** 
 350:Generated_Source\PSoC4/I2C_1_I2C_SLAVE.c **** 
 351:Generated_Source\PSoC4/I2C_1_I2C_SLAVE.c **** /*******************************************************************************
 352:Generated_Source\PSoC4/I2C_1_I2C_SLAVE.c **** * Function Name: I2C_1_I2CSlaveGetWriteBufSize
 353:Generated_Source\PSoC4/I2C_1_I2C_SLAVE.c **** ****************************************************************************//**
 354:Generated_Source\PSoC4/I2C_1_I2C_SLAVE.c **** *
 355:Generated_Source\PSoC4/I2C_1_I2C_SLAVE.c **** *  Returns the number of bytes written by the I2C master since an
 356:Generated_Source\PSoC4/I2C_1_I2C_SLAVE.c **** *  I2C_1_I2CSlaveInitWriteBuf() or 
 357:Generated_Source\PSoC4/I2C_1_I2C_SLAVE.c **** *  I2C_1_I2CSlaveClearWriteBuf() function was executed.
ARM GAS  C:\Users\sergio\AppData\Local\Temp\cc9Uh5UG.s 			page 16


 358:Generated_Source\PSoC4/I2C_1_I2C_SLAVE.c **** *  The maximum return value is the size of the write buffer.
 359:Generated_Source\PSoC4/I2C_1_I2C_SLAVE.c **** *
 360:Generated_Source\PSoC4/I2C_1_I2C_SLAVE.c **** * \return
 361:Generated_Source\PSoC4/I2C_1_I2C_SLAVE.c **** *  Bytes written by master.
 362:Generated_Source\PSoC4/I2C_1_I2C_SLAVE.c **** *
 363:Generated_Source\PSoC4/I2C_1_I2C_SLAVE.c **** * \sideeffect
 364:Generated_Source\PSoC4/I2C_1_I2C_SLAVE.c **** *  The returned value is not valid if I2C_1_I2C_SSTAT_WR_ERR was 
 365:Generated_Source\PSoC4/I2C_1_I2C_SLAVE.c **** *  captured by the slave.
 366:Generated_Source\PSoC4/I2C_1_I2C_SLAVE.c **** *
 367:Generated_Source\PSoC4/I2C_1_I2C_SLAVE.c **** * \globalvars
 368:Generated_Source\PSoC4/I2C_1_I2C_SLAVE.c **** *  I2C_1_slWrBufIndex - used to store current index within slave
 369:Generated_Source\PSoC4/I2C_1_I2C_SLAVE.c **** *   write buffer.
 370:Generated_Source\PSoC4/I2C_1_I2C_SLAVE.c **** *
 371:Generated_Source\PSoC4/I2C_1_I2C_SLAVE.c **** *******************************************************************************/
 372:Generated_Source\PSoC4/I2C_1_I2C_SLAVE.c **** uint32 I2C_1_I2CSlaveGetWriteBufSize(void)
 373:Generated_Source\PSoC4/I2C_1_I2C_SLAVE.c **** {
 499              		.loc 1 373 0
 500              		.cfi_startproc
 501              		@ args = 0, pretend = 0, frame = 0
 502              		@ frame_needed = 1, uses_anonymous_args = 0
 503 0000 80B5     		push	{r7, lr}
 504              		.cfi_def_cfa_offset 8
 505              		.cfi_offset 7, -8
 506              		.cfi_offset 14, -4
 507 0002 00AF     		add	r7, sp, #0
 508              		.cfi_def_cfa_register 7
 374:Generated_Source\PSoC4/I2C_1_I2C_SLAVE.c ****     return(I2C_1_slWrBufIndex);
 509              		.loc 1 374 0
 510 0004 024B     		ldr	r3, .L38
 511 0006 1B68     		ldr	r3, [r3]
 375:Generated_Source\PSoC4/I2C_1_I2C_SLAVE.c **** }
 512              		.loc 1 375 0
 513 0008 1800     		movs	r0, r3
 514 000a BD46     		mov	sp, r7
 515              		@ sp needed
 516 000c 80BD     		pop	{r7, pc}
 517              	.L39:
 518 000e C046     		.align	2
 519              	.L38:
 520 0010 00000000 		.word	I2C_1_slWrBufIndex
 521              		.cfi_endproc
 522              	.LFE11:
 523              		.size	I2C_1_I2CSlaveGetWriteBufSize, .-I2C_1_I2CSlaveGetWriteBufSize
 524              		.section	.text.I2C_1_I2CSlaveClearReadBuf,"ax",%progbits
 525              		.align	2
 526              		.global	I2C_1_I2CSlaveClearReadBuf
 527              		.code	16
 528              		.thumb_func
 529              		.type	I2C_1_I2CSlaveClearReadBuf, %function
 530              	I2C_1_I2CSlaveClearReadBuf:
 531              	.LFB12:
 376:Generated_Source\PSoC4/I2C_1_I2C_SLAVE.c **** 
 377:Generated_Source\PSoC4/I2C_1_I2C_SLAVE.c **** 
 378:Generated_Source\PSoC4/I2C_1_I2C_SLAVE.c **** /*******************************************************************************
 379:Generated_Source\PSoC4/I2C_1_I2C_SLAVE.c **** * Function Name: I2C_1_I2CSlaveClearReadBuf
 380:Generated_Source\PSoC4/I2C_1_I2C_SLAVE.c **** ****************************************************************************//**
 381:Generated_Source\PSoC4/I2C_1_I2C_SLAVE.c **** *
ARM GAS  C:\Users\sergio\AppData\Local\Temp\cc9Uh5UG.s 			page 17


 382:Generated_Source\PSoC4/I2C_1_I2C_SLAVE.c **** *  Resets the read pointer to the first byte in the read buffer. The next byte
 383:Generated_Source\PSoC4/I2C_1_I2C_SLAVE.c **** *  read by the master will be the first byte in the read buffer.
 384:Generated_Source\PSoC4/I2C_1_I2C_SLAVE.c **** *
 385:Generated_Source\PSoC4/I2C_1_I2C_SLAVE.c **** * \globalvars
 386:Generated_Source\PSoC4/I2C_1_I2C_SLAVE.c **** *  I2C_1_slRdBufIndex - used to store current index within slave
 387:Generated_Source\PSoC4/I2C_1_I2C_SLAVE.c **** *  read buffer.
 388:Generated_Source\PSoC4/I2C_1_I2C_SLAVE.c **** *
 389:Generated_Source\PSoC4/I2C_1_I2C_SLAVE.c **** *******************************************************************************/
 390:Generated_Source\PSoC4/I2C_1_I2C_SLAVE.c **** void I2C_1_I2CSlaveClearReadBuf(void)
 391:Generated_Source\PSoC4/I2C_1_I2C_SLAVE.c **** {
 532              		.loc 1 391 0
 533              		.cfi_startproc
 534              		@ args = 0, pretend = 0, frame = 0
 535              		@ frame_needed = 1, uses_anonymous_args = 0
 536 0000 80B5     		push	{r7, lr}
 537              		.cfi_def_cfa_offset 8
 538              		.cfi_offset 7, -8
 539              		.cfi_offset 14, -4
 540 0002 00AF     		add	r7, sp, #0
 541              		.cfi_def_cfa_register 7
 392:Generated_Source\PSoC4/I2C_1_I2C_SLAVE.c ****     I2C_1_slRdBufIndex = 0u;
 542              		.loc 1 392 0
 543 0004 024B     		ldr	r3, .L41
 544 0006 0022     		movs	r2, #0
 545 0008 1A60     		str	r2, [r3]
 393:Generated_Source\PSoC4/I2C_1_I2C_SLAVE.c **** }
 546              		.loc 1 393 0
 547 000a C046     		nop
 548 000c BD46     		mov	sp, r7
 549              		@ sp needed
 550 000e 80BD     		pop	{r7, pc}
 551              	.L42:
 552              		.align	2
 553              	.L41:
 554 0010 00000000 		.word	I2C_1_slRdBufIndex
 555              		.cfi_endproc
 556              	.LFE12:
 557              		.size	I2C_1_I2CSlaveClearReadBuf, .-I2C_1_I2CSlaveClearReadBuf
 558              		.section	.text.I2C_1_I2CSlaveClearWriteBuf,"ax",%progbits
 559              		.align	2
 560              		.global	I2C_1_I2CSlaveClearWriteBuf
 561              		.code	16
 562              		.thumb_func
 563              		.type	I2C_1_I2CSlaveClearWriteBuf, %function
 564              	I2C_1_I2CSlaveClearWriteBuf:
 565              	.LFB13:
 394:Generated_Source\PSoC4/I2C_1_I2C_SLAVE.c **** 
 395:Generated_Source\PSoC4/I2C_1_I2C_SLAVE.c **** 
 396:Generated_Source\PSoC4/I2C_1_I2C_SLAVE.c **** /*******************************************************************************
 397:Generated_Source\PSoC4/I2C_1_I2C_SLAVE.c **** * Function Name: I2C_1_I2CSlaveClearWriteBuf
 398:Generated_Source\PSoC4/I2C_1_I2C_SLAVE.c **** ****************************************************************************//**
 399:Generated_Source\PSoC4/I2C_1_I2C_SLAVE.c **** *
 400:Generated_Source\PSoC4/I2C_1_I2C_SLAVE.c **** *  Resets the write pointer to the first byte in the write buffer. The next byte
 401:Generated_Source\PSoC4/I2C_1_I2C_SLAVE.c **** *  written by the master will be the first byte in the write buffer.
 402:Generated_Source\PSoC4/I2C_1_I2C_SLAVE.c **** *
 403:Generated_Source\PSoC4/I2C_1_I2C_SLAVE.c **** * \globalvars
 404:Generated_Source\PSoC4/I2C_1_I2C_SLAVE.c **** *  I2C_1_slWrBufIndex - used to store current index within slave
ARM GAS  C:\Users\sergio\AppData\Local\Temp\cc9Uh5UG.s 			page 18


 405:Generated_Source\PSoC4/I2C_1_I2C_SLAVE.c **** *  write buffer.
 406:Generated_Source\PSoC4/I2C_1_I2C_SLAVE.c **** *
 407:Generated_Source\PSoC4/I2C_1_I2C_SLAVE.c **** *******************************************************************************/
 408:Generated_Source\PSoC4/I2C_1_I2C_SLAVE.c **** void I2C_1_I2CSlaveClearWriteBuf(void)
 409:Generated_Source\PSoC4/I2C_1_I2C_SLAVE.c **** {
 566              		.loc 1 409 0
 567              		.cfi_startproc
 568              		@ args = 0, pretend = 0, frame = 0
 569              		@ frame_needed = 1, uses_anonymous_args = 0
 570 0000 80B5     		push	{r7, lr}
 571              		.cfi_def_cfa_offset 8
 572              		.cfi_offset 7, -8
 573              		.cfi_offset 14, -4
 574 0002 00AF     		add	r7, sp, #0
 575              		.cfi_def_cfa_register 7
 410:Generated_Source\PSoC4/I2C_1_I2C_SLAVE.c ****     I2C_1_slWrBufIndex = 0u;
 576              		.loc 1 410 0
 577 0004 024B     		ldr	r3, .L44
 578 0006 0022     		movs	r2, #0
 579 0008 1A60     		str	r2, [r3]
 411:Generated_Source\PSoC4/I2C_1_I2C_SLAVE.c **** }
 580              		.loc 1 411 0
 581 000a C046     		nop
 582 000c BD46     		mov	sp, r7
 583              		@ sp needed
 584 000e 80BD     		pop	{r7, pc}
 585              	.L45:
 586              		.align	2
 587              	.L44:
 588 0010 00000000 		.word	I2C_1_slWrBufIndex
 589              		.cfi_endproc
 590              	.LFE13:
 591              		.size	I2C_1_I2CSlaveClearWriteBuf, .-I2C_1_I2CSlaveClearWriteBuf
 592              		.text
 593              	.Letext0:
 594              		.file 2 "Generated_Source\\PSoC4/cytypes.h"