ARM GAS  C:\Users\sergio\AppData\Local\Temp\cchSrVJR.s 			page 1


   1              		.syntax unified
   2              		.cpu cortex-m0
   3              		.fpu softvfp
   4              		.eabi_attribute 20, 1
   5              		.eabi_attribute 21, 1
   6              		.eabi_attribute 23, 3
   7              		.eabi_attribute 24, 1
   8              		.eabi_attribute 25, 1
   9              		.eabi_attribute 26, 1
  10              		.eabi_attribute 30, 6
  11              		.eabi_attribute 34, 0
  12              		.eabi_attribute 18, 4
  13              		.thumb
  14              		.syntax unified
  15              		.file	"I2C_1_EZI2C.c"
  16              		.text
  17              	.Ltext0:
  18              		.cfi_sections	.debug_frame
  19              		.comm	I2C_1_curStatus,1,1
  20              		.comm	I2C_1_fsmState,1,1
  21              		.comm	I2C_1_dataBuffer1,4,4
  22              		.comm	I2C_1_bufSizeBuf1,2,2
  23              		.comm	I2C_1_protectBuf1,2,2
  24              		.comm	I2C_1_offsetBuf1,2,2
  25              		.comm	I2C_1_indexBuf1,2,2
  26              		.comm	I2C_1_addrBuf1,1,1
  27              		.comm	I2C_1_addrBuf2,1,1
  28              		.comm	I2C_1_dataBuffer2,4,4
  29              		.comm	I2C_1_bufSizeBuf2,2,2
  30              		.comm	I2C_1_protectBuf2,2,2
  31              		.comm	I2C_1_offsetBuf2,2,2
  32              		.comm	I2C_1_indexBuf2,2,2
  33              		.global	I2C_1_configEzI2C
  34              		.section	.rodata
  35              		.align	2
  36              		.type	I2C_1_configEzI2C, %object
  37              		.size	I2C_1_configEzI2C, 32
  38              	I2C_1_configEzI2C:
  39 0000 01000000 		.word	1
  40 0004 01000000 		.word	1
  41 0008 00000000 		.word	0
  42 000c 08000000 		.word	8
  43 0010 09000000 		.word	9
  44 0014 00000000 		.word	0
  45 0018 00000000 		.word	0
  46 001c 00       		.byte	0
  47 001d 000000   		.space	3
  48              		.section	.text.I2C_1_EzI2CInit,"ax",%progbits
  49              		.align	2
  50              		.global	I2C_1_EzI2CInit
  51              		.code	16
  52              		.thumb_func
  53              		.type	I2C_1_EzI2CInit, %function
  54              	I2C_1_EzI2CInit:
  55              	.LFB2:
  56              		.file 1 "Generated_Source\\PSoC4\\I2C_1_EZI2C.c"
   1:Generated_Source\PSoC4/I2C_1_EZI2C.c **** /***************************************************************************//**
ARM GAS  C:\Users\sergio\AppData\Local\Temp\cchSrVJR.s 			page 2


   2:Generated_Source\PSoC4/I2C_1_EZI2C.c **** * \file I2C_1_EZI2C.c
   3:Generated_Source\PSoC4/I2C_1_EZI2C.c **** * \version 4.0
   4:Generated_Source\PSoC4/I2C_1_EZI2C.c **** *
   5:Generated_Source\PSoC4/I2C_1_EZI2C.c **** * \brief
   6:Generated_Source\PSoC4/I2C_1_EZI2C.c **** *  This file provides the source code to the API for the SCB Component in
   7:Generated_Source\PSoC4/I2C_1_EZI2C.c **** *  EZI2C mode.
   8:Generated_Source\PSoC4/I2C_1_EZI2C.c **** *
   9:Generated_Source\PSoC4/I2C_1_EZI2C.c **** * Note:
  10:Generated_Source\PSoC4/I2C_1_EZI2C.c **** *
  11:Generated_Source\PSoC4/I2C_1_EZI2C.c **** *******************************************************************************
  12:Generated_Source\PSoC4/I2C_1_EZI2C.c **** * \copyright
  13:Generated_Source\PSoC4/I2C_1_EZI2C.c **** * Copyright 2013-2017, Cypress Semiconductor Corporation.  All rights reserved.
  14:Generated_Source\PSoC4/I2C_1_EZI2C.c **** * You may use this file only in accordance with the license, terms, conditions,
  15:Generated_Source\PSoC4/I2C_1_EZI2C.c **** * disclaimers, and limitations in the end user license agreement accompanying
  16:Generated_Source\PSoC4/I2C_1_EZI2C.c **** * the software package with which this file was provided.
  17:Generated_Source\PSoC4/I2C_1_EZI2C.c **** *******************************************************************************/
  18:Generated_Source\PSoC4/I2C_1_EZI2C.c **** 
  19:Generated_Source\PSoC4/I2C_1_EZI2C.c **** #include "I2C_1_PVT.h"
  20:Generated_Source\PSoC4/I2C_1_EZI2C.c **** #include "I2C_1_EZI2C_PVT.h"
  21:Generated_Source\PSoC4/I2C_1_EZI2C.c **** 
  22:Generated_Source\PSoC4/I2C_1_EZI2C.c **** 
  23:Generated_Source\PSoC4/I2C_1_EZI2C.c **** /***************************************
  24:Generated_Source\PSoC4/I2C_1_EZI2C.c **** *      EZI2C Private Vars
  25:Generated_Source\PSoC4/I2C_1_EZI2C.c **** ***************************************/
  26:Generated_Source\PSoC4/I2C_1_EZI2C.c **** 
  27:Generated_Source\PSoC4/I2C_1_EZI2C.c **** volatile uint8 I2C_1_curStatus; /* Status byte */
  28:Generated_Source\PSoC4/I2C_1_EZI2C.c **** uint8 I2C_1_fsmState;           /* FSM state   */
  29:Generated_Source\PSoC4/I2C_1_EZI2C.c **** 
  30:Generated_Source\PSoC4/I2C_1_EZI2C.c **** /* Variables intended to be used with Buffer 1: Primary slave address */
  31:Generated_Source\PSoC4/I2C_1_EZI2C.c **** volatile uint8 * I2C_1_dataBuffer1; /* Pointer to data buffer 1 */
  32:Generated_Source\PSoC4/I2C_1_EZI2C.c **** uint16 I2C_1_bufSizeBuf1;           /* Size of buffer 1 in bytes      */
  33:Generated_Source\PSoC4/I2C_1_EZI2C.c **** uint16 I2C_1_protectBuf1;           /* Start index of write protected area buffer 1 */
  34:Generated_Source\PSoC4/I2C_1_EZI2C.c **** uint16 I2C_1_offsetBuf1; /* Current offset within buffer 1 */
  35:Generated_Source\PSoC4/I2C_1_EZI2C.c **** uint16 I2C_1_indexBuf1;             /* Current index within buffer 1  */
  36:Generated_Source\PSoC4/I2C_1_EZI2C.c **** 
  37:Generated_Source\PSoC4/I2C_1_EZI2C.c **** #if(I2C_1_SECONDARY_ADDRESS_ENABLE_CONST)
  38:Generated_Source\PSoC4/I2C_1_EZI2C.c ****     uint8 I2C_1_addrBuf1; /* Primary slave address. Used for software comparison   */
  39:Generated_Source\PSoC4/I2C_1_EZI2C.c ****     uint8 I2C_1_addrBuf2; /* Secondary slave address. Used for software comparison */
  40:Generated_Source\PSoC4/I2C_1_EZI2C.c **** 
  41:Generated_Source\PSoC4/I2C_1_EZI2C.c ****     /* Variables intended to be used with Buffer 2: Primary slave address */
  42:Generated_Source\PSoC4/I2C_1_EZI2C.c ****     volatile uint8 * I2C_1_dataBuffer2; /* Pointer to data buffer 2 */
  43:Generated_Source\PSoC4/I2C_1_EZI2C.c ****     uint16 I2C_1_bufSizeBuf2;           /* Size of buffer 2 in bytes */
  44:Generated_Source\PSoC4/I2C_1_EZI2C.c ****     uint16 I2C_1_protectBuf2;           /* Start index of write protected area buffer 2 */
  45:Generated_Source\PSoC4/I2C_1_EZI2C.c ****     uint16 I2C_1_offsetBuf2; /* Current offset within buffer 2 */
  46:Generated_Source\PSoC4/I2C_1_EZI2C.c ****     uint16 I2C_1_indexBuf2;             /* Current index within buffer 2 */
  47:Generated_Source\PSoC4/I2C_1_EZI2C.c **** #endif /* (I2C_1_SECONDARY_ADDRESS_ENABLE_CONST) */
  48:Generated_Source\PSoC4/I2C_1_EZI2C.c **** 
  49:Generated_Source\PSoC4/I2C_1_EZI2C.c **** 
  50:Generated_Source\PSoC4/I2C_1_EZI2C.c **** /***************************************
  51:Generated_Source\PSoC4/I2C_1_EZI2C.c **** *      EZI2C Private Functions
  52:Generated_Source\PSoC4/I2C_1_EZI2C.c **** ***************************************/
  53:Generated_Source\PSoC4/I2C_1_EZI2C.c **** 
  54:Generated_Source\PSoC4/I2C_1_EZI2C.c **** #if(I2C_1_SECONDARY_ADDRESS_ENABLE_CONST)
  55:Generated_Source\PSoC4/I2C_1_EZI2C.c ****     static uint32 I2C_1_EzI2CUpdateRxMatchReg(uint32 addr1, uint32 addr2);
  56:Generated_Source\PSoC4/I2C_1_EZI2C.c **** #endif /* (I2C_1_SECONDARY_ADDRESS_ENABLE_CONST) */
  57:Generated_Source\PSoC4/I2C_1_EZI2C.c **** 
  58:Generated_Source\PSoC4/I2C_1_EZI2C.c **** #if(I2C_1_SCB_MODE_UNCONFIG_CONST_CFG)
ARM GAS  C:\Users\sergio\AppData\Local\Temp\cchSrVJR.s 			page 3


  59:Generated_Source\PSoC4/I2C_1_EZI2C.c **** 
  60:Generated_Source\PSoC4/I2C_1_EZI2C.c ****     /***************************************
  61:Generated_Source\PSoC4/I2C_1_EZI2C.c ****     *  Configuration Structure Initialization
  62:Generated_Source\PSoC4/I2C_1_EZI2C.c ****     ***************************************/
  63:Generated_Source\PSoC4/I2C_1_EZI2C.c **** 
  64:Generated_Source\PSoC4/I2C_1_EZI2C.c ****     /* Constant configuration of EZI2C */
  65:Generated_Source\PSoC4/I2C_1_EZI2C.c ****     const I2C_1_EZI2C_INIT_STRUCT I2C_1_configEzI2C =
  66:Generated_Source\PSoC4/I2C_1_EZI2C.c ****     {
  67:Generated_Source\PSoC4/I2C_1_EZI2C.c ****         I2C_1_EZI2C_CLOCK_STRETCHING,
  68:Generated_Source\PSoC4/I2C_1_EZI2C.c ****         I2C_1_EZI2C_MEDIAN_FILTER_ENABLE,
  69:Generated_Source\PSoC4/I2C_1_EZI2C.c ****         I2C_1_EZI2C_NUMBER_OF_ADDRESSES,
  70:Generated_Source\PSoC4/I2C_1_EZI2C.c ****         I2C_1_EZI2C_PRIMARY_SLAVE_ADDRESS,
  71:Generated_Source\PSoC4/I2C_1_EZI2C.c ****         I2C_1_EZI2C_SECONDARY_SLAVE_ADDRESS,
  72:Generated_Source\PSoC4/I2C_1_EZI2C.c ****         I2C_1_EZI2C_SUB_ADDRESS_SIZE,
  73:Generated_Source\PSoC4/I2C_1_EZI2C.c ****         I2C_1_EZI2C_WAKE_ENABLE,
  74:Generated_Source\PSoC4/I2C_1_EZI2C.c ****         I2C_1_EZI2C_BYTE_MODE_ENABLE
  75:Generated_Source\PSoC4/I2C_1_EZI2C.c ****     };
  76:Generated_Source\PSoC4/I2C_1_EZI2C.c **** 
  77:Generated_Source\PSoC4/I2C_1_EZI2C.c ****     /*******************************************************************************
  78:Generated_Source\PSoC4/I2C_1_EZI2C.c ****     * Function Name: I2C_1_EzI2CInit
  79:Generated_Source\PSoC4/I2C_1_EZI2C.c ****     ****************************************************************************//**
  80:Generated_Source\PSoC4/I2C_1_EZI2C.c ****     *
  81:Generated_Source\PSoC4/I2C_1_EZI2C.c ****     *  Configures the I2C_1 for EZI2C operation.
  82:Generated_Source\PSoC4/I2C_1_EZI2C.c ****     *
  83:Generated_Source\PSoC4/I2C_1_EZI2C.c ****     *  This function is intended specifically to be used when the I2C_1 
  84:Generated_Source\PSoC4/I2C_1_EZI2C.c ****     *  configuration is set to “Unconfigured I2C_1” in the customizer. 
  85:Generated_Source\PSoC4/I2C_1_EZI2C.c ****     *  After initializing the I2C_1 in EZI2C mode using this function, 
  86:Generated_Source\PSoC4/I2C_1_EZI2C.c ****     *  the component can be enabled using the I2C_1_Start() or 
  87:Generated_Source\PSoC4/I2C_1_EZI2C.c ****     * I2C_1_Enable() function.
  88:Generated_Source\PSoC4/I2C_1_EZI2C.c ****     *  This function uses a pointer to a structure that provides the configuration 
  89:Generated_Source\PSoC4/I2C_1_EZI2C.c ****     *  settings. This structure contains the same information that would otherwise 
  90:Generated_Source\PSoC4/I2C_1_EZI2C.c ****     *  be provided by the customizer settings.
  91:Generated_Source\PSoC4/I2C_1_EZI2C.c ****     *
  92:Generated_Source\PSoC4/I2C_1_EZI2C.c ****     * \param config: pointer to a structure that contains the following list of 
  93:Generated_Source\PSoC4/I2C_1_EZI2C.c ****     *  fields. These fields match the selections available in the customizer. 
  94:Generated_Source\PSoC4/I2C_1_EZI2C.c ****     *  Refer to the customizer for further description of the settings.
  95:Generated_Source\PSoC4/I2C_1_EZI2C.c ****     *
  96:Generated_Source\PSoC4/I2C_1_EZI2C.c ****     *******************************************************************************/
  97:Generated_Source\PSoC4/I2C_1_EZI2C.c ****     void I2C_1_EzI2CInit(const I2C_1_EZI2C_INIT_STRUCT *config)
  98:Generated_Source\PSoC4/I2C_1_EZI2C.c ****     {
  57              		.loc 1 98 0
  58              		.cfi_startproc
  59              		@ args = 0, pretend = 0, frame = 8
  60              		@ frame_needed = 1, uses_anonymous_args = 0
  61 0000 90B5     		push	{r4, r7, lr}
  62              		.cfi_def_cfa_offset 12
  63              		.cfi_offset 4, -12
  64              		.cfi_offset 7, -8
  65              		.cfi_offset 14, -4
  66 0002 83B0     		sub	sp, sp, #12
  67              		.cfi_def_cfa_offset 24
  68 0004 00AF     		add	r7, sp, #0
  69              		.cfi_def_cfa_register 7
  70 0006 7860     		str	r0, [r7, #4]
  99:Generated_Source\PSoC4/I2C_1_EZI2C.c ****         if(NULL == config)
  71              		.loc 1 99 0
  72 0008 7B68     		ldr	r3, [r7, #4]
ARM GAS  C:\Users\sergio\AppData\Local\Temp\cchSrVJR.s 			page 4


  73 000a 002B     		cmp	r3, #0
  74 000c 03D1     		bne	.L2
 100:Generated_Source\PSoC4/I2C_1_EZI2C.c ****         {
 101:Generated_Source\PSoC4/I2C_1_EZI2C.c ****             CYASSERT(0u != 0u); /* Halt execution due to bad function parameter */
  75              		.loc 1 101 0 discriminator 1
  76 000e 0020     		movs	r0, #0
  77 0010 FFF7FEFF 		bl	CyHalt
 102:Generated_Source\PSoC4/I2C_1_EZI2C.c ****         }
 103:Generated_Source\PSoC4/I2C_1_EZI2C.c ****         else
 104:Generated_Source\PSoC4/I2C_1_EZI2C.c ****         {
 105:Generated_Source\PSoC4/I2C_1_EZI2C.c ****             /* Configure pins */
 106:Generated_Source\PSoC4/I2C_1_EZI2C.c ****             I2C_1_SetPins(I2C_1_SCB_MODE_EZI2C, I2C_1_DUMMY_PARAM,
 107:Generated_Source\PSoC4/I2C_1_EZI2C.c ****                                                                       I2C_1_DUMMY_PARAM);
 108:Generated_Source\PSoC4/I2C_1_EZI2C.c **** 
 109:Generated_Source\PSoC4/I2C_1_EZI2C.c ****             /* Store internal configuration */
 110:Generated_Source\PSoC4/I2C_1_EZI2C.c ****             I2C_1_scbMode       = (uint8) I2C_1_SCB_MODE_EZI2C;
 111:Generated_Source\PSoC4/I2C_1_EZI2C.c ****             I2C_1_scbEnableWake = (uint8) config->enableWake;
 112:Generated_Source\PSoC4/I2C_1_EZI2C.c ****             I2C_1_scbEnableIntr = (uint8) I2C_1_SCB_IRQ_INTERNAL;
 113:Generated_Source\PSoC4/I2C_1_EZI2C.c **** 
 114:Generated_Source\PSoC4/I2C_1_EZI2C.c ****             I2C_1_numberOfAddr  = (uint8) config->numberOfAddresses;
 115:Generated_Source\PSoC4/I2C_1_EZI2C.c ****             I2C_1_subAddrSize   = (uint8) config->subAddrSize;
 116:Generated_Source\PSoC4/I2C_1_EZI2C.c **** 
 117:Generated_Source\PSoC4/I2C_1_EZI2C.c ****         #if (I2C_1_CY_SCBIP_V0)
 118:Generated_Source\PSoC4/I2C_1_EZI2C.c ****             /* Adjust SDA filter settings. Ticket ID#150521 */
 119:Generated_Source\PSoC4/I2C_1_EZI2C.c ****             I2C_1_SET_I2C_CFG_SDA_FILT_TRIM(I2C_1_EC_AM_I2C_CFG_SDA_FILT_TRIM);
 120:Generated_Source\PSoC4/I2C_1_EZI2C.c ****         #endif /* (I2C_1_CY_SCBIP_V0) */
 121:Generated_Source\PSoC4/I2C_1_EZI2C.c **** 
 122:Generated_Source\PSoC4/I2C_1_EZI2C.c ****             /* Adjust AF and DF filter settings, AF = 1, DF = 0. Ticket ID#176179 */
 123:Generated_Source\PSoC4/I2C_1_EZI2C.c ****             I2C_1_I2C_CFG_ANALOG_FITER_ENABLE;
 124:Generated_Source\PSoC4/I2C_1_EZI2C.c **** 
 125:Generated_Source\PSoC4/I2C_1_EZI2C.c ****             /* Configure I2C interface */
 126:Generated_Source\PSoC4/I2C_1_EZI2C.c ****             I2C_1_CTRL_REG     = I2C_1_GET_CTRL_BYTE_MODE  (config->enableByteMode)    |
 127:Generated_Source\PSoC4/I2C_1_EZI2C.c ****                                             I2C_1_GET_CTRL_ADDR_ACCEPT(config->numberOfAddresses) |
 128:Generated_Source\PSoC4/I2C_1_EZI2C.c ****                                             I2C_1_GET_CTRL_EC_AM_MODE (config->enableWake);
 129:Generated_Source\PSoC4/I2C_1_EZI2C.c **** 
 130:Generated_Source\PSoC4/I2C_1_EZI2C.c ****             I2C_1_I2C_CTRL_REG = I2C_1_EZI2C_CTRL;
 131:Generated_Source\PSoC4/I2C_1_EZI2C.c **** 
 132:Generated_Source\PSoC4/I2C_1_EZI2C.c ****             /* Configure RX direction */
 133:Generated_Source\PSoC4/I2C_1_EZI2C.c ****             I2C_1_RX_CTRL_REG = I2C_1_EZI2C_RX_CTRL |
 134:Generated_Source\PSoC4/I2C_1_EZI2C.c ****                                         I2C_1_GET_RX_CTRL_MEDIAN(I2C_1_DIGITAL_FILTER_DISABLE);
 135:Generated_Source\PSoC4/I2C_1_EZI2C.c ****                                                 ;
 136:Generated_Source\PSoC4/I2C_1_EZI2C.c ****             I2C_1_RX_FIFO_CTRL_REG = I2C_1_CLEAR_REG;
 137:Generated_Source\PSoC4/I2C_1_EZI2C.c **** 
 138:Generated_Source\PSoC4/I2C_1_EZI2C.c ****             /* Set default address and mask */
 139:Generated_Source\PSoC4/I2C_1_EZI2C.c ****             if(I2C_1_EZI2C_PRIMARY_ADDRESS == config->numberOfAddresses)
 140:Generated_Source\PSoC4/I2C_1_EZI2C.c ****             {
 141:Generated_Source\PSoC4/I2C_1_EZI2C.c ****                 I2C_1_RX_MATCH_REG = I2C_1_EzI2CUpdateRxMatchReg(config->primarySlaveAddr,
 142:Generated_Source\PSoC4/I2C_1_EZI2C.c ****                                                                                        config->prim
 143:Generated_Source\PSoC4/I2C_1_EZI2C.c ****             }
 144:Generated_Source\PSoC4/I2C_1_EZI2C.c ****             else
 145:Generated_Source\PSoC4/I2C_1_EZI2C.c ****             {
 146:Generated_Source\PSoC4/I2C_1_EZI2C.c ****                 I2C_1_RX_MATCH_REG = I2C_1_EzI2CUpdateRxMatchReg(config->primarySlaveAddr,
 147:Generated_Source\PSoC4/I2C_1_EZI2C.c ****                                                                                        config->seco
 148:Generated_Source\PSoC4/I2C_1_EZI2C.c ****             }
 149:Generated_Source\PSoC4/I2C_1_EZI2C.c **** 
 150:Generated_Source\PSoC4/I2C_1_EZI2C.c ****             /* Configure TX direction */
 151:Generated_Source\PSoC4/I2C_1_EZI2C.c ****             I2C_1_TX_CTRL_REG      = I2C_1_EZI2C_TX_CTRL;
ARM GAS  C:\Users\sergio\AppData\Local\Temp\cchSrVJR.s 			page 5


 152:Generated_Source\PSoC4/I2C_1_EZI2C.c ****             I2C_1_TX_FIFO_CTRL_REG = ((0u != (config->enableClockStretch)) ?
 153:Generated_Source\PSoC4/I2C_1_EZI2C.c ****                                                  I2C_1_CLEAR_REG : I2C_1_EZI2C_TX_FIFO_CTRL);
 154:Generated_Source\PSoC4/I2C_1_EZI2C.c **** 
 155:Generated_Source\PSoC4/I2C_1_EZI2C.c ****             /* Configure interrupt sources */
 156:Generated_Source\PSoC4/I2C_1_EZI2C.c ****         #if (!I2C_1_CY_SCBIP_V1)
 157:Generated_Source\PSoC4/I2C_1_EZI2C.c ****            I2C_1_INTR_SPI_EC_MASK_REG = I2C_1_NO_INTR_SOURCES;
 158:Generated_Source\PSoC4/I2C_1_EZI2C.c ****         #endif /* (!I2C_1_CY_SCBIP_V1) */
 159:Generated_Source\PSoC4/I2C_1_EZI2C.c **** 
 160:Generated_Source\PSoC4/I2C_1_EZI2C.c ****             I2C_1_INTR_I2C_EC_MASK_REG = I2C_1_NO_INTR_SOURCES;
 161:Generated_Source\PSoC4/I2C_1_EZI2C.c ****             I2C_1_INTR_MASTER_MASK_REG = I2C_1_NO_INTR_SOURCES;
 162:Generated_Source\PSoC4/I2C_1_EZI2C.c ****             I2C_1_INTR_SLAVE_MASK_REG  = I2C_1_EZI2C_INTR_SLAVE_MASK;
 163:Generated_Source\PSoC4/I2C_1_EZI2C.c ****             I2C_1_INTR_TX_MASK_REG     = I2C_1_NO_INTR_SOURCES;
 164:Generated_Source\PSoC4/I2C_1_EZI2C.c **** 
 165:Generated_Source\PSoC4/I2C_1_EZI2C.c ****             /* Configure interrupt with EZI2C handler but do not enable it */
 166:Generated_Source\PSoC4/I2C_1_EZI2C.c ****             CyIntDisable    (I2C_1_ISR_NUMBER);
 167:Generated_Source\PSoC4/I2C_1_EZI2C.c ****             CyIntSetPriority(I2C_1_ISR_NUMBER, I2C_1_ISR_PRIORITY);
 168:Generated_Source\PSoC4/I2C_1_EZI2C.c ****             (void) CyIntSetVector(I2C_1_ISR_NUMBER, (0u != (config->enableClockStretch)) ?
 169:Generated_Source\PSoC4/I2C_1_EZI2C.c ****                                                                       (&I2C_1_EZI2C_STRETCH_ISR) :
 170:Generated_Source\PSoC4/I2C_1_EZI2C.c ****                                                                       (&I2C_1_EZI2C_NO_STRETCH_ISR)
 171:Generated_Source\PSoC4/I2C_1_EZI2C.c **** 
 172:Generated_Source\PSoC4/I2C_1_EZI2C.c ****             if(0u != (config->enableClockStretch))
 173:Generated_Source\PSoC4/I2C_1_EZI2C.c ****             {
 174:Generated_Source\PSoC4/I2C_1_EZI2C.c ****                 /* Configure interrupt sources */
 175:Generated_Source\PSoC4/I2C_1_EZI2C.c ****                 I2C_1_INTR_SLAVE_MASK_REG |= I2C_1_INTR_SLAVE_I2C_ADDR_MATCH;
 176:Generated_Source\PSoC4/I2C_1_EZI2C.c ****                 I2C_1_INTR_RX_MASK_REG     = I2C_1_NO_INTR_SOURCES;
 177:Generated_Source\PSoC4/I2C_1_EZI2C.c ****             }
 178:Generated_Source\PSoC4/I2C_1_EZI2C.c ****             else
 179:Generated_Source\PSoC4/I2C_1_EZI2C.c ****             {
 180:Generated_Source\PSoC4/I2C_1_EZI2C.c ****                 /* Enable Auto ACK/NACK features */
 181:Generated_Source\PSoC4/I2C_1_EZI2C.c ****                 I2C_1_I2C_CTRL_REG |= I2C_1_EZI2C_CTRL_AUTO;
 182:Generated_Source\PSoC4/I2C_1_EZI2C.c **** 
 183:Generated_Source\PSoC4/I2C_1_EZI2C.c ****                 /* Configure RX interrupt source */
 184:Generated_Source\PSoC4/I2C_1_EZI2C.c ****                 I2C_1_INTR_SLAVE_MASK_REG |= I2C_1_INTR_SLAVE_I2C_START;
 185:Generated_Source\PSoC4/I2C_1_EZI2C.c ****                 I2C_1_INTR_RX_MASK_REG     = I2C_1_INTR_RX_NOT_EMPTY;
 186:Generated_Source\PSoC4/I2C_1_EZI2C.c ****             }
 187:Generated_Source\PSoC4/I2C_1_EZI2C.c **** 
 188:Generated_Source\PSoC4/I2C_1_EZI2C.c ****             /* Configure global variables */
 189:Generated_Source\PSoC4/I2C_1_EZI2C.c ****             I2C_1_fsmState = I2C_1_EZI2C_FSM_IDLE;
 190:Generated_Source\PSoC4/I2C_1_EZI2C.c **** 
 191:Generated_Source\PSoC4/I2C_1_EZI2C.c ****             I2C_1_curStatus  = 0u;
 192:Generated_Source\PSoC4/I2C_1_EZI2C.c ****             I2C_1_indexBuf1  = 0u;
 193:Generated_Source\PSoC4/I2C_1_EZI2C.c ****             I2C_1_offsetBuf1 = 0u;
 194:Generated_Source\PSoC4/I2C_1_EZI2C.c ****             I2C_1_indexBuf2  = 0u;
 195:Generated_Source\PSoC4/I2C_1_EZI2C.c ****             I2C_1_offsetBuf2 = 0u;
 196:Generated_Source\PSoC4/I2C_1_EZI2C.c **** 
 197:Generated_Source\PSoC4/I2C_1_EZI2C.c ****             I2C_1_addrBuf1 = (uint8) config->primarySlaveAddr;
 198:Generated_Source\PSoC4/I2C_1_EZI2C.c ****             I2C_1_addrBuf2 = (uint8) config->secondarySlaveAddr;
 199:Generated_Source\PSoC4/I2C_1_EZI2C.c ****         }
 200:Generated_Source\PSoC4/I2C_1_EZI2C.c ****     }
  78              		.loc 1 200 0 discriminator 1
  79 0014 CDE0     		b	.L20
  80              	.L2:
 106:Generated_Source\PSoC4/I2C_1_EZI2C.c ****                                                                       I2C_1_DUMMY_PARAM);
  81              		.loc 1 106 0
  82 0016 0022     		movs	r2, #0
  83 0018 0021     		movs	r1, #0
  84 001a 0820     		movs	r0, #8
ARM GAS  C:\Users\sergio\AppData\Local\Temp\cchSrVJR.s 			page 6


  85 001c FFF7FEFF 		bl	I2C_1_SetPins
 110:Generated_Source\PSoC4/I2C_1_EZI2C.c ****             I2C_1_scbEnableWake = (uint8) config->enableWake;
  86              		.loc 1 110 0
  87 0020 664B     		ldr	r3, .L21
  88 0022 0822     		movs	r2, #8
  89 0024 1A70     		strb	r2, [r3]
 111:Generated_Source\PSoC4/I2C_1_EZI2C.c ****             I2C_1_scbEnableIntr = (uint8) I2C_1_SCB_IRQ_INTERNAL;
  90              		.loc 1 111 0
  91 0026 7B68     		ldr	r3, [r7, #4]
  92 0028 9B69     		ldr	r3, [r3, #24]
  93 002a DAB2     		uxtb	r2, r3
  94 002c 644B     		ldr	r3, .L21+4
  95 002e 1A70     		strb	r2, [r3]
 112:Generated_Source\PSoC4/I2C_1_EZI2C.c **** 
  96              		.loc 1 112 0
  97 0030 644B     		ldr	r3, .L21+8
  98 0032 0122     		movs	r2, #1
  99 0034 1A70     		strb	r2, [r3]
 114:Generated_Source\PSoC4/I2C_1_EZI2C.c ****             I2C_1_subAddrSize   = (uint8) config->subAddrSize;
 100              		.loc 1 114 0
 101 0036 7B68     		ldr	r3, [r7, #4]
 102 0038 9B68     		ldr	r3, [r3, #8]
 103 003a DAB2     		uxtb	r2, r3
 104 003c 624B     		ldr	r3, .L21+12
 105 003e 1A70     		strb	r2, [r3]
 115:Generated_Source\PSoC4/I2C_1_EZI2C.c **** 
 106              		.loc 1 115 0
 107 0040 7B68     		ldr	r3, [r7, #4]
 108 0042 5B69     		ldr	r3, [r3, #20]
 109 0044 DAB2     		uxtb	r2, r3
 110 0046 614B     		ldr	r3, .L21+16
 111 0048 1A70     		strb	r2, [r3]
 123:Generated_Source\PSoC4/I2C_1_EZI2C.c **** 
 112              		.loc 1 123 0
 113 004a 614B     		ldr	r3, .L21+20
 114 004c 604A     		ldr	r2, .L21+20
 115 004e 1268     		ldr	r2, [r2]
 116 0050 6049     		ldr	r1, .L21+24
 117 0052 0A43     		orrs	r2, r1
 118 0054 1A60     		str	r2, [r3]
 126:Generated_Source\PSoC4/I2C_1_EZI2C.c ****                                             I2C_1_GET_CTRL_ADDR_ACCEPT(config->numberOfAddresses) |
 119              		.loc 1 126 0
 120 0056 604A     		ldr	r2, .L21+28
 121 0058 7B68     		ldr	r3, [r7, #4]
 122 005a 1B7F     		ldrb	r3, [r3, #28]
 123 005c 002B     		cmp	r3, #0
 124 005e 02D0     		beq	.L4
 126:Generated_Source\PSoC4/I2C_1_EZI2C.c ****                                             I2C_1_GET_CTRL_ADDR_ACCEPT(config->numberOfAddresses) |
 125              		.loc 1 126 0 is_stmt 0 discriminator 1
 126 0060 8023     		movs	r3, #128
 127 0062 1901     		lsls	r1, r3, #4
 128 0064 00E0     		b	.L5
 129              	.L4:
 126:Generated_Source\PSoC4/I2C_1_EZI2C.c ****                                             I2C_1_GET_CTRL_ADDR_ACCEPT(config->numberOfAddresses) |
 130              		.loc 1 126 0 discriminator 2
 131 0066 0021     		movs	r1, #0
 132              	.L5:
ARM GAS  C:\Users\sergio\AppData\Local\Temp\cchSrVJR.s 			page 7


 127:Generated_Source\PSoC4/I2C_1_EZI2C.c ****                                             I2C_1_GET_CTRL_EC_AM_MODE (config->enableWake);
 133              		.loc 1 127 0 is_stmt 1
 134 0068 7B68     		ldr	r3, [r7, #4]
 135 006a 9B68     		ldr	r3, [r3, #8]
 136 006c 002B     		cmp	r3, #0
 137 006e 02D0     		beq	.L6
 127:Generated_Source\PSoC4/I2C_1_EZI2C.c ****                                             I2C_1_GET_CTRL_EC_AM_MODE (config->enableWake);
 138              		.loc 1 127 0 is_stmt 0 discriminator 1
 139 0070 8023     		movs	r3, #128
 140 0072 5B02     		lsls	r3, r3, #9
 141 0074 00E0     		b	.L7
 142              	.L6:
 127:Generated_Source\PSoC4/I2C_1_EZI2C.c ****                                             I2C_1_GET_CTRL_EC_AM_MODE (config->enableWake);
 143              		.loc 1 127 0 discriminator 2
 144 0076 0023     		movs	r3, #0
 145              	.L7:
 126:Generated_Source\PSoC4/I2C_1_EZI2C.c ****                                             I2C_1_GET_CTRL_ADDR_ACCEPT(config->numberOfAddresses) |
 146              		.loc 1 126 0 is_stmt 1
 147 0078 1943     		orrs	r1, r3
 128:Generated_Source\PSoC4/I2C_1_EZI2C.c **** 
 148              		.loc 1 128 0
 149 007a 7B68     		ldr	r3, [r7, #4]
 150 007c 9B69     		ldr	r3, [r3, #24]
 151 007e 002B     		cmp	r3, #0
 152 0080 02D0     		beq	.L8
 128:Generated_Source\PSoC4/I2C_1_EZI2C.c **** 
 153              		.loc 1 128 0 is_stmt 0 discriminator 1
 154 0082 8023     		movs	r3, #128
 155 0084 5B00     		lsls	r3, r3, #1
 156 0086 00E0     		b	.L9
 157              	.L8:
 128:Generated_Source\PSoC4/I2C_1_EZI2C.c **** 
 158              		.loc 1 128 0 discriminator 2
 159 0088 0023     		movs	r3, #0
 160              	.L9:
 127:Generated_Source\PSoC4/I2C_1_EZI2C.c ****                                             I2C_1_GET_CTRL_EC_AM_MODE (config->enableWake);
 161              		.loc 1 127 0 is_stmt 1
 162 008a 0B43     		orrs	r3, r1
 126:Generated_Source\PSoC4/I2C_1_EZI2C.c ****                                             I2C_1_GET_CTRL_ADDR_ACCEPT(config->numberOfAddresses) |
 163              		.loc 1 126 0
 164 008c 1360     		str	r3, [r2]
 130:Generated_Source\PSoC4/I2C_1_EZI2C.c **** 
 165              		.loc 1 130 0
 166 008e 534B     		ldr	r3, .L21+32
 167 0090 534A     		ldr	r2, .L21+36
 168 0092 1A60     		str	r2, [r3]
 133:Generated_Source\PSoC4/I2C_1_EZI2C.c ****                                         I2C_1_GET_RX_CTRL_MEDIAN(I2C_1_DIGITAL_FILTER_DISABLE);
 169              		.loc 1 133 0
 170 0094 534B     		ldr	r3, .L21+40
 171 0096 544A     		ldr	r2, .L21+44
 172 0098 1A60     		str	r2, [r3]
 136:Generated_Source\PSoC4/I2C_1_EZI2C.c **** 
 173              		.loc 1 136 0
 174 009a 544B     		ldr	r3, .L21+48
 175 009c 0022     		movs	r2, #0
 176 009e 1A60     		str	r2, [r3]
 139:Generated_Source\PSoC4/I2C_1_EZI2C.c ****             {
ARM GAS  C:\Users\sergio\AppData\Local\Temp\cchSrVJR.s 			page 8


 177              		.loc 1 139 0
 178 00a0 7B68     		ldr	r3, [r7, #4]
 179 00a2 9B68     		ldr	r3, [r3, #8]
 180 00a4 002B     		cmp	r3, #0
 181 00a6 0BD1     		bne	.L10
 141:Generated_Source\PSoC4/I2C_1_EZI2C.c ****                                                                                        config->prim
 182              		.loc 1 141 0
 183 00a8 514C     		ldr	r4, .L21+52
 184 00aa 7B68     		ldr	r3, [r7, #4]
 185 00ac DA68     		ldr	r2, [r3, #12]
 186 00ae 7B68     		ldr	r3, [r7, #4]
 187 00b0 DB68     		ldr	r3, [r3, #12]
 188 00b2 1900     		movs	r1, r3
 189 00b4 1000     		movs	r0, r2
 190 00b6 FFF7FEFF 		bl	I2C_1_EzI2CUpdateRxMatchReg
 191 00ba 0300     		movs	r3, r0
 192 00bc 2360     		str	r3, [r4]
 193 00be 0AE0     		b	.L11
 194              	.L10:
 146:Generated_Source\PSoC4/I2C_1_EZI2C.c ****                                                                                        config->seco
 195              		.loc 1 146 0
 196 00c0 4B4C     		ldr	r4, .L21+52
 197 00c2 7B68     		ldr	r3, [r7, #4]
 198 00c4 DA68     		ldr	r2, [r3, #12]
 199 00c6 7B68     		ldr	r3, [r7, #4]
 200 00c8 1B69     		ldr	r3, [r3, #16]
 201 00ca 1900     		movs	r1, r3
 202 00cc 1000     		movs	r0, r2
 203 00ce FFF7FEFF 		bl	I2C_1_EzI2CUpdateRxMatchReg
 204 00d2 0300     		movs	r3, r0
 205 00d4 2360     		str	r3, [r4]
 206              	.L11:
 151:Generated_Source\PSoC4/I2C_1_EZI2C.c ****             I2C_1_TX_FIFO_CTRL_REG = ((0u != (config->enableClockStretch)) ?
 207              		.loc 1 151 0
 208 00d6 474B     		ldr	r3, .L21+56
 209 00d8 434A     		ldr	r2, .L21+44
 210 00da 1A60     		str	r2, [r3]
 152:Generated_Source\PSoC4/I2C_1_EZI2C.c ****                                                  I2C_1_CLEAR_REG : I2C_1_EZI2C_TX_FIFO_CTRL);
 211              		.loc 1 152 0
 212 00dc 464A     		ldr	r2, .L21+60
 213 00de 7B68     		ldr	r3, [r7, #4]
 214 00e0 1B68     		ldr	r3, [r3]
 153:Generated_Source\PSoC4/I2C_1_EZI2C.c **** 
 215              		.loc 1 153 0
 216 00e2 002B     		cmp	r3, #0
 217 00e4 01D0     		beq	.L12
 153:Generated_Source\PSoC4/I2C_1_EZI2C.c **** 
 218              		.loc 1 153 0 is_stmt 0 discriminator 1
 219 00e6 0023     		movs	r3, #0
 220 00e8 00E0     		b	.L13
 221              	.L12:
 153:Generated_Source\PSoC4/I2C_1_EZI2C.c **** 
 222              		.loc 1 153 0 discriminator 2
 223 00ea 0223     		movs	r3, #2
 224              	.L13:
 152:Generated_Source\PSoC4/I2C_1_EZI2C.c ****                                                  I2C_1_CLEAR_REG : I2C_1_EZI2C_TX_FIFO_CTRL);
 225              		.loc 1 152 0 is_stmt 1
ARM GAS  C:\Users\sergio\AppData\Local\Temp\cchSrVJR.s 			page 9


 226 00ec 1360     		str	r3, [r2]
 157:Generated_Source\PSoC4/I2C_1_EZI2C.c ****         #endif /* (!I2C_1_CY_SCBIP_V1) */
 227              		.loc 1 157 0
 228 00ee 434B     		ldr	r3, .L21+64
 229 00f0 0022     		movs	r2, #0
 230 00f2 1A60     		str	r2, [r3]
 160:Generated_Source\PSoC4/I2C_1_EZI2C.c ****             I2C_1_INTR_MASTER_MASK_REG = I2C_1_NO_INTR_SOURCES;
 231              		.loc 1 160 0
 232 00f4 424B     		ldr	r3, .L21+68
 233 00f6 0022     		movs	r2, #0
 234 00f8 1A60     		str	r2, [r3]
 161:Generated_Source\PSoC4/I2C_1_EZI2C.c ****             I2C_1_INTR_SLAVE_MASK_REG  = I2C_1_EZI2C_INTR_SLAVE_MASK;
 235              		.loc 1 161 0
 236 00fa 424B     		ldr	r3, .L21+72
 237 00fc 0022     		movs	r2, #0
 238 00fe 1A60     		str	r2, [r3]
 162:Generated_Source\PSoC4/I2C_1_EZI2C.c ****             I2C_1_INTR_TX_MASK_REG     = I2C_1_NO_INTR_SOURCES;
 239              		.loc 1 162 0
 240 0100 414B     		ldr	r3, .L21+76
 241 0102 1222     		movs	r2, #18
 242 0104 FF32     		adds	r2, r2, #255
 243 0106 1A60     		str	r2, [r3]
 163:Generated_Source\PSoC4/I2C_1_EZI2C.c **** 
 244              		.loc 1 163 0
 245 0108 404B     		ldr	r3, .L21+80
 246 010a 0022     		movs	r2, #0
 247 010c 1A60     		str	r2, [r3]
 166:Generated_Source\PSoC4/I2C_1_EZI2C.c ****             CyIntSetPriority(I2C_1_ISR_NUMBER, I2C_1_ISR_PRIORITY);
 248              		.loc 1 166 0
 249 010e 0920     		movs	r0, #9
 250 0110 FFF7FEFF 		bl	CyIntDisable
 167:Generated_Source\PSoC4/I2C_1_EZI2C.c ****             (void) CyIntSetVector(I2C_1_ISR_NUMBER, (0u != (config->enableClockStretch)) ?
 251              		.loc 1 167 0
 252 0114 0321     		movs	r1, #3
 253 0116 0920     		movs	r0, #9
 254 0118 FFF7FEFF 		bl	CyIntSetPriority
 168:Generated_Source\PSoC4/I2C_1_EZI2C.c ****                                                                       (&I2C_1_EZI2C_STRETCH_ISR) :
 255              		.loc 1 168 0
 256 011c 7B68     		ldr	r3, [r7, #4]
 257 011e 1B68     		ldr	r3, [r3]
 258 0120 002B     		cmp	r3, #0
 259 0122 01D0     		beq	.L14
 168:Generated_Source\PSoC4/I2C_1_EZI2C.c ****                                                                       (&I2C_1_EZI2C_STRETCH_ISR) :
 260              		.loc 1 168 0 is_stmt 0 discriminator 1
 261 0124 3A4B     		ldr	r3, .L21+84
 262 0126 00E0     		b	.L15
 263              	.L14:
 168:Generated_Source\PSoC4/I2C_1_EZI2C.c ****                                                                       (&I2C_1_EZI2C_STRETCH_ISR) :
 264              		.loc 1 168 0 discriminator 2
 265 0128 3A4B     		ldr	r3, .L21+88
 266              	.L15:
 168:Generated_Source\PSoC4/I2C_1_EZI2C.c ****                                                                       (&I2C_1_EZI2C_STRETCH_ISR) :
 267              		.loc 1 168 0 discriminator 4
 268 012a 1900     		movs	r1, r3
 269 012c 0920     		movs	r0, #9
 270 012e FFF7FEFF 		bl	CyIntSetVector
 172:Generated_Source\PSoC4/I2C_1_EZI2C.c ****             {
ARM GAS  C:\Users\sergio\AppData\Local\Temp\cchSrVJR.s 			page 10


 271              		.loc 1 172 0 is_stmt 1 discriminator 4
 272 0132 7B68     		ldr	r3, [r7, #4]
 273 0134 1B68     		ldr	r3, [r3]
 274 0136 002B     		cmp	r3, #0
 275 0138 09D0     		beq	.L16
 175:Generated_Source\PSoC4/I2C_1_EZI2C.c ****                 I2C_1_INTR_RX_MASK_REG     = I2C_1_NO_INTR_SOURCES;
 276              		.loc 1 175 0
 277 013a 334B     		ldr	r3, .L21+76
 278 013c 324A     		ldr	r2, .L21+76
 279 013e 1268     		ldr	r2, [r2]
 280 0140 4021     		movs	r1, #64
 281 0142 0A43     		orrs	r2, r1
 282 0144 1A60     		str	r2, [r3]
 176:Generated_Source\PSoC4/I2C_1_EZI2C.c ****             }
 283              		.loc 1 176 0
 284 0146 344B     		ldr	r3, .L21+92
 285 0148 0022     		movs	r2, #0
 286 014a 1A60     		str	r2, [r3]
 287 014c 0FE0     		b	.L17
 288              	.L16:
 181:Generated_Source\PSoC4/I2C_1_EZI2C.c **** 
 289              		.loc 1 181 0
 290 014e 234B     		ldr	r3, .L21+32
 291 0150 224A     		ldr	r2, .L21+32
 292 0152 1268     		ldr	r2, [r2]
 293 0154 F021     		movs	r1, #240
 294 0156 0902     		lsls	r1, r1, #8
 295 0158 0A43     		orrs	r2, r1
 296 015a 1A60     		str	r2, [r3]
 184:Generated_Source\PSoC4/I2C_1_EZI2C.c ****                 I2C_1_INTR_RX_MASK_REG     = I2C_1_INTR_RX_NOT_EMPTY;
 297              		.loc 1 184 0
 298 015c 2A4B     		ldr	r3, .L21+76
 299 015e 2A4A     		ldr	r2, .L21+76
 300 0160 1268     		ldr	r2, [r2]
 301 0162 2021     		movs	r1, #32
 302 0164 0A43     		orrs	r2, r1
 303 0166 1A60     		str	r2, [r3]
 185:Generated_Source\PSoC4/I2C_1_EZI2C.c ****             }
 304              		.loc 1 185 0
 305 0168 2B4B     		ldr	r3, .L21+92
 306 016a 0422     		movs	r2, #4
 307 016c 1A60     		str	r2, [r3]
 308              	.L17:
 189:Generated_Source\PSoC4/I2C_1_EZI2C.c **** 
 309              		.loc 1 189 0
 310 016e 174B     		ldr	r3, .L21+16
 311 0170 1B78     		ldrb	r3, [r3]
 312 0172 002B     		cmp	r3, #0
 313 0174 01D0     		beq	.L18
 189:Generated_Source\PSoC4/I2C_1_EZI2C.c **** 
 314              		.loc 1 189 0 is_stmt 0 discriminator 1
 315 0176 0222     		movs	r2, #2
 316 0178 00E0     		b	.L19
 317              	.L18:
 189:Generated_Source\PSoC4/I2C_1_EZI2C.c **** 
 318              		.loc 1 189 0 discriminator 2
 319 017a 0022     		movs	r2, #0
ARM GAS  C:\Users\sergio\AppData\Local\Temp\cchSrVJR.s 			page 11


 320              	.L19:
 189:Generated_Source\PSoC4/I2C_1_EZI2C.c **** 
 321              		.loc 1 189 0 discriminator 4
 322 017c 274B     		ldr	r3, .L21+96
 323 017e 1A70     		strb	r2, [r3]
 191:Generated_Source\PSoC4/I2C_1_EZI2C.c ****             I2C_1_indexBuf1  = 0u;
 324              		.loc 1 191 0 is_stmt 1 discriminator 4
 325 0180 274B     		ldr	r3, .L21+100
 326 0182 0022     		movs	r2, #0
 327 0184 1A70     		strb	r2, [r3]
 192:Generated_Source\PSoC4/I2C_1_EZI2C.c ****             I2C_1_offsetBuf1 = 0u;
 328              		.loc 1 192 0 discriminator 4
 329 0186 274B     		ldr	r3, .L21+104
 330 0188 0022     		movs	r2, #0
 331 018a 1A80     		strh	r2, [r3]
 193:Generated_Source\PSoC4/I2C_1_EZI2C.c ****             I2C_1_indexBuf2  = 0u;
 332              		.loc 1 193 0 discriminator 4
 333 018c 264B     		ldr	r3, .L21+108
 334 018e 0022     		movs	r2, #0
 335 0190 1A80     		strh	r2, [r3]
 194:Generated_Source\PSoC4/I2C_1_EZI2C.c ****             I2C_1_offsetBuf2 = 0u;
 336              		.loc 1 194 0 discriminator 4
 337 0192 264B     		ldr	r3, .L21+112
 338 0194 0022     		movs	r2, #0
 339 0196 1A80     		strh	r2, [r3]
 195:Generated_Source\PSoC4/I2C_1_EZI2C.c **** 
 340              		.loc 1 195 0 discriminator 4
 341 0198 254B     		ldr	r3, .L21+116
 342 019a 0022     		movs	r2, #0
 343 019c 1A80     		strh	r2, [r3]
 197:Generated_Source\PSoC4/I2C_1_EZI2C.c ****             I2C_1_addrBuf2 = (uint8) config->secondarySlaveAddr;
 344              		.loc 1 197 0 discriminator 4
 345 019e 7B68     		ldr	r3, [r7, #4]
 346 01a0 DB68     		ldr	r3, [r3, #12]
 347 01a2 DAB2     		uxtb	r2, r3
 348 01a4 234B     		ldr	r3, .L21+120
 349 01a6 1A70     		strb	r2, [r3]
 198:Generated_Source\PSoC4/I2C_1_EZI2C.c ****         }
 350              		.loc 1 198 0 discriminator 4
 351 01a8 7B68     		ldr	r3, [r7, #4]
 352 01aa 1B69     		ldr	r3, [r3, #16]
 353 01ac DAB2     		uxtb	r2, r3
 354 01ae 224B     		ldr	r3, .L21+124
 355 01b0 1A70     		strb	r2, [r3]
 356              	.L20:
 357              		.loc 1 200 0
 358 01b2 C046     		nop
 359 01b4 BD46     		mov	sp, r7
 360 01b6 03B0     		add	sp, sp, #12
 361              		@ sp needed
 362 01b8 90BD     		pop	{r4, r7, pc}
 363              	.L22:
 364 01ba C046     		.align	2
 365              	.L21:
 366 01bc 00000000 		.word	I2C_1_scbMode
 367 01c0 00000000 		.word	I2C_1_scbEnableWake
 368 01c4 00000000 		.word	I2C_1_scbEnableIntr
ARM GAS  C:\Users\sergio\AppData\Local\Temp\cchSrVJR.s 			page 12


 369 01c8 00000000 		.word	I2C_1_numberOfAddr
 370 01cc 00000000 		.word	I2C_1_subAddrSize
 371 01d0 70002440 		.word	1076101232
 372 01d4 10100000 		.word	4112
 373 01d8 00002440 		.word	1076101120
 374 01dc 60002440 		.word	1076101216
 375 01e0 00080040 		.word	1073743872
 376 01e4 00032440 		.word	1076101888
 377 01e8 07010080 		.word	-2147483385
 378 01ec 04032440 		.word	1076101892
 379 01f0 10032440 		.word	1076101904
 380 01f4 00022440 		.word	1076101632
 381 01f8 04022440 		.word	1076101636
 382 01fc C80E2440 		.word	1076104904
 383 0200 880E2440 		.word	1076104840
 384 0204 080F2440 		.word	1076104968
 385 0208 480F2440 		.word	1076105032
 386 020c 880F2440 		.word	1076105096
 387 0210 00000000 		.word	I2C_1_EZI2C_STRETCH_ISR
 388 0214 00000000 		.word	I2C_1_EZI2C_NO_STRETCH_ISR
 389 0218 C80F2440 		.word	1076105160
 390 021c 00000000 		.word	I2C_1_fsmState
 391 0220 00000000 		.word	I2C_1_curStatus
 392 0224 00000000 		.word	I2C_1_indexBuf1
 393 0228 00000000 		.word	I2C_1_offsetBuf1
 394 022c 00000000 		.word	I2C_1_indexBuf2
 395 0230 00000000 		.word	I2C_1_offsetBuf2
 396 0234 00000000 		.word	I2C_1_addrBuf1
 397 0238 00000000 		.word	I2C_1_addrBuf2
 398              		.cfi_endproc
 399              	.LFE2:
 400              		.size	I2C_1_EzI2CInit, .-I2C_1_EzI2CInit
 401              		.section	.text.I2C_1_EzI2CStop,"ax",%progbits
 402              		.align	2
 403              		.global	I2C_1_EzI2CStop
 404              		.code	16
 405              		.thumb_func
 406              		.type	I2C_1_EzI2CStop, %function
 407              	I2C_1_EzI2CStop:
 408              	.LFB3:
 201:Generated_Source\PSoC4/I2C_1_EZI2C.c **** 
 202:Generated_Source\PSoC4/I2C_1_EZI2C.c **** #else
 203:Generated_Source\PSoC4/I2C_1_EZI2C.c **** 
 204:Generated_Source\PSoC4/I2C_1_EZI2C.c ****     /*******************************************************************************
 205:Generated_Source\PSoC4/I2C_1_EZI2C.c ****     * Function Name: I2C_1_EzI2CInit
 206:Generated_Source\PSoC4/I2C_1_EZI2C.c ****     ****************************************************************************//**
 207:Generated_Source\PSoC4/I2C_1_EZI2C.c ****     *
 208:Generated_Source\PSoC4/I2C_1_EZI2C.c ****     *  Configures the SCB for the EZI2C operation.
 209:Generated_Source\PSoC4/I2C_1_EZI2C.c ****     *
 210:Generated_Source\PSoC4/I2C_1_EZI2C.c ****     *******************************************************************************/
 211:Generated_Source\PSoC4/I2C_1_EZI2C.c ****     void I2C_1_EzI2CInit(void)
 212:Generated_Source\PSoC4/I2C_1_EZI2C.c ****     {
 213:Generated_Source\PSoC4/I2C_1_EZI2C.c ****         /* Configure I2C interface */
 214:Generated_Source\PSoC4/I2C_1_EZI2C.c ****         I2C_1_CTRL_REG     = I2C_1_EZI2C_DEFAULT_CTRL;
 215:Generated_Source\PSoC4/I2C_1_EZI2C.c ****         I2C_1_I2C_CTRL_REG = I2C_1_EZI2C_DEFAULT_I2C_CTRL;
 216:Generated_Source\PSoC4/I2C_1_EZI2C.c **** 
 217:Generated_Source\PSoC4/I2C_1_EZI2C.c ****     #if (I2C_1_CY_SCBIP_V0)
ARM GAS  C:\Users\sergio\AppData\Local\Temp\cchSrVJR.s 			page 13


 218:Generated_Source\PSoC4/I2C_1_EZI2C.c ****         /* Adjust SDA filter settings. Ticket ID#150521 */
 219:Generated_Source\PSoC4/I2C_1_EZI2C.c ****         I2C_1_SET_I2C_CFG_SDA_FILT_TRIM(I2C_1_EC_AM_I2C_CFG_SDA_FILT_TRIM);
 220:Generated_Source\PSoC4/I2C_1_EZI2C.c ****     #endif /* (I2C_1_CY_SCBIP_V0) */
 221:Generated_Source\PSoC4/I2C_1_EZI2C.c **** 
 222:Generated_Source\PSoC4/I2C_1_EZI2C.c ****         /* Configure RX direction */
 223:Generated_Source\PSoC4/I2C_1_EZI2C.c ****         I2C_1_RX_CTRL_REG      = I2C_1_EZI2C_DEFAULT_RX_CTRL;
 224:Generated_Source\PSoC4/I2C_1_EZI2C.c ****         I2C_1_RX_FIFO_CTRL_REG = I2C_1_EZI2C_DEFAULT_RX_FIFO_CTRL;
 225:Generated_Source\PSoC4/I2C_1_EZI2C.c **** 
 226:Generated_Source\PSoC4/I2C_1_EZI2C.c ****         /* Set default address and mask */
 227:Generated_Source\PSoC4/I2C_1_EZI2C.c ****         I2C_1_RX_MATCH_REG     = I2C_1_EZI2C_DEFAULT_RX_MATCH;
 228:Generated_Source\PSoC4/I2C_1_EZI2C.c **** 
 229:Generated_Source\PSoC4/I2C_1_EZI2C.c ****         /* Configure TX direction */
 230:Generated_Source\PSoC4/I2C_1_EZI2C.c ****         I2C_1_TX_CTRL_REG      = I2C_1_EZI2C_DEFAULT_TX_CTRL;
 231:Generated_Source\PSoC4/I2C_1_EZI2C.c ****         I2C_1_TX_FIFO_CTRL_REG = I2C_1_EZI2C_DEFAULT_TX_FIFO_CTRL;
 232:Generated_Source\PSoC4/I2C_1_EZI2C.c **** 
 233:Generated_Source\PSoC4/I2C_1_EZI2C.c ****         /* Configure interrupt with EZI2C handler but do not enable it */
 234:Generated_Source\PSoC4/I2C_1_EZI2C.c ****     #if !defined (CY_EXTERNAL_INTERRUPT_CONFIG)
 235:Generated_Source\PSoC4/I2C_1_EZI2C.c ****         CyIntDisable    (I2C_1_ISR_NUMBER);
 236:Generated_Source\PSoC4/I2C_1_EZI2C.c ****         CyIntSetPriority(I2C_1_ISR_NUMBER, I2C_1_ISR_PRIORITY);
 237:Generated_Source\PSoC4/I2C_1_EZI2C.c **** 
 238:Generated_Source\PSoC4/I2C_1_EZI2C.c ****     #if (I2C_1_EZI2C_SCL_STRETCH_ENABLE_CONST)
 239:Generated_Source\PSoC4/I2C_1_EZI2C.c ****         (void) CyIntSetVector(I2C_1_ISR_NUMBER, &I2C_1_EZI2C_STRETCH_ISR);
 240:Generated_Source\PSoC4/I2C_1_EZI2C.c ****     #else
 241:Generated_Source\PSoC4/I2C_1_EZI2C.c ****         (void) CyIntSetVector(I2C_1_ISR_NUMBER, &I2C_1_EZI2C_NO_STRETCH_ISR);
 242:Generated_Source\PSoC4/I2C_1_EZI2C.c ****     #endif /* (I2C_1_EZI2C_SCL_STRETCH_ENABLE_CONST) */
 243:Generated_Source\PSoC4/I2C_1_EZI2C.c **** 
 244:Generated_Source\PSoC4/I2C_1_EZI2C.c ****     #endif /* !defined (CY_EXTERNAL_INTERRUPT_CONFIG) */
 245:Generated_Source\PSoC4/I2C_1_EZI2C.c **** 
 246:Generated_Source\PSoC4/I2C_1_EZI2C.c ****         /* Configure interrupt sources */
 247:Generated_Source\PSoC4/I2C_1_EZI2C.c ****     #if (!I2C_1_CY_SCBIP_V1)
 248:Generated_Source\PSoC4/I2C_1_EZI2C.c ****         I2C_1_INTR_SPI_EC_MASK_REG = I2C_1_EZI2C_DEFAULT_INTR_SPI_EC_MASK;
 249:Generated_Source\PSoC4/I2C_1_EZI2C.c ****     #endif /* (!I2C_1_CY_SCBIP_V1) */
 250:Generated_Source\PSoC4/I2C_1_EZI2C.c **** 
 251:Generated_Source\PSoC4/I2C_1_EZI2C.c ****         I2C_1_INTR_I2C_EC_MASK_REG = I2C_1_EZI2C_DEFAULT_INTR_I2C_EC_MASK;
 252:Generated_Source\PSoC4/I2C_1_EZI2C.c ****         I2C_1_INTR_SLAVE_MASK_REG  = I2C_1_EZI2C_DEFAULT_INTR_SLAVE_MASK;
 253:Generated_Source\PSoC4/I2C_1_EZI2C.c ****         I2C_1_INTR_MASTER_MASK_REG = I2C_1_EZI2C_DEFAULT_INTR_MASTER_MASK;
 254:Generated_Source\PSoC4/I2C_1_EZI2C.c ****         I2C_1_INTR_RX_MASK_REG     = I2C_1_EZI2C_DEFAULT_INTR_RX_MASK;
 255:Generated_Source\PSoC4/I2C_1_EZI2C.c ****         I2C_1_INTR_TX_MASK_REG     = I2C_1_EZI2C_DEFAULT_INTR_TX_MASK;
 256:Generated_Source\PSoC4/I2C_1_EZI2C.c **** 
 257:Generated_Source\PSoC4/I2C_1_EZI2C.c ****         /* Configure global variables */
 258:Generated_Source\PSoC4/I2C_1_EZI2C.c ****         I2C_1_fsmState = I2C_1_EZI2C_FSM_IDLE;
 259:Generated_Source\PSoC4/I2C_1_EZI2C.c **** 
 260:Generated_Source\PSoC4/I2C_1_EZI2C.c ****         I2C_1_curStatus  = 0u;
 261:Generated_Source\PSoC4/I2C_1_EZI2C.c ****         I2C_1_indexBuf1  = 0u;
 262:Generated_Source\PSoC4/I2C_1_EZI2C.c ****         I2C_1_offsetBuf1 = 0u;
 263:Generated_Source\PSoC4/I2C_1_EZI2C.c **** 
 264:Generated_Source\PSoC4/I2C_1_EZI2C.c ****     #if(I2C_1_SECONDARY_ADDRESS_ENABLE_CONST)
 265:Generated_Source\PSoC4/I2C_1_EZI2C.c ****         I2C_1_indexBuf2  = 0u;
 266:Generated_Source\PSoC4/I2C_1_EZI2C.c ****         I2C_1_offsetBuf2 = 0u;
 267:Generated_Source\PSoC4/I2C_1_EZI2C.c **** 
 268:Generated_Source\PSoC4/I2C_1_EZI2C.c ****         I2C_1_addrBuf1 = I2C_1_EZI2C_PRIMARY_SLAVE_ADDRESS;
 269:Generated_Source\PSoC4/I2C_1_EZI2C.c ****         I2C_1_addrBuf2 = I2C_1_EZI2C_SECONDARY_SLAVE_ADDRESS;
 270:Generated_Source\PSoC4/I2C_1_EZI2C.c ****     #endif /* (I2C_1_SECONDARY_ADDRESS_ENABLE_CONST) */
 271:Generated_Source\PSoC4/I2C_1_EZI2C.c ****     }
 272:Generated_Source\PSoC4/I2C_1_EZI2C.c **** #endif /* (I2C_1_SCB_MODE_UNCONFIG_CONST_CFG) */
 273:Generated_Source\PSoC4/I2C_1_EZI2C.c **** 
 274:Generated_Source\PSoC4/I2C_1_EZI2C.c **** 
ARM GAS  C:\Users\sergio\AppData\Local\Temp\cchSrVJR.s 			page 14


 275:Generated_Source\PSoC4/I2C_1_EZI2C.c **** /*******************************************************************************
 276:Generated_Source\PSoC4/I2C_1_EZI2C.c **** * Function Name: I2C_1_EzI2CStop
 277:Generated_Source\PSoC4/I2C_1_EZI2C.c **** ****************************************************************************//**
 278:Generated_Source\PSoC4/I2C_1_EZI2C.c **** *
 279:Generated_Source\PSoC4/I2C_1_EZI2C.c **** *  Resets the EZI2C FSM into the default state.
 280:Generated_Source\PSoC4/I2C_1_EZI2C.c **** *
 281:Generated_Source\PSoC4/I2C_1_EZI2C.c **** *******************************************************************************/
 282:Generated_Source\PSoC4/I2C_1_EZI2C.c **** void I2C_1_EzI2CStop(void)
 283:Generated_Source\PSoC4/I2C_1_EZI2C.c **** {
 409              		.loc 1 283 0
 410              		.cfi_startproc
 411              		@ args = 0, pretend = 0, frame = 0
 412              		@ frame_needed = 1, uses_anonymous_args = 0
 413 0000 80B5     		push	{r7, lr}
 414              		.cfi_def_cfa_offset 8
 415              		.cfi_offset 7, -8
 416              		.cfi_offset 14, -4
 417 0002 00AF     		add	r7, sp, #0
 418              		.cfi_def_cfa_register 7
 284:Generated_Source\PSoC4/I2C_1_EZI2C.c ****     I2C_1_fsmState = I2C_1_EZI2C_FSM_IDLE;
 419              		.loc 1 284 0
 420 0004 054B     		ldr	r3, .L26
 421 0006 1B78     		ldrb	r3, [r3]
 422 0008 002B     		cmp	r3, #0
 423 000a 01D0     		beq	.L24
 424              		.loc 1 284 0 is_stmt 0 discriminator 1
 425 000c 0222     		movs	r2, #2
 426 000e 00E0     		b	.L25
 427              	.L24:
 428              		.loc 1 284 0 discriminator 2
 429 0010 0022     		movs	r2, #0
 430              	.L25:
 431              		.loc 1 284 0 discriminator 4
 432 0012 034B     		ldr	r3, .L26+4
 433 0014 1A70     		strb	r2, [r3]
 285:Generated_Source\PSoC4/I2C_1_EZI2C.c **** }
 434              		.loc 1 285 0 is_stmt 1 discriminator 4
 435 0016 C046     		nop
 436 0018 BD46     		mov	sp, r7
 437              		@ sp needed
 438 001a 80BD     		pop	{r7, pc}
 439              	.L27:
 440              		.align	2
 441              	.L26:
 442 001c 00000000 		.word	I2C_1_subAddrSize
 443 0020 00000000 		.word	I2C_1_fsmState
 444              		.cfi_endproc
 445              	.LFE3:
 446              		.size	I2C_1_EzI2CStop, .-I2C_1_EzI2CStop
 447              		.section	.text.I2C_1_EzI2CGetActivity,"ax",%progbits
 448              		.align	2
 449              		.global	I2C_1_EzI2CGetActivity
 450              		.code	16
 451              		.thumb_func
 452              		.type	I2C_1_EzI2CGetActivity, %function
 453              	I2C_1_EzI2CGetActivity:
 454              	.LFB4:
ARM GAS  C:\Users\sergio\AppData\Local\Temp\cchSrVJR.s 			page 15


 286:Generated_Source\PSoC4/I2C_1_EZI2C.c **** 
 287:Generated_Source\PSoC4/I2C_1_EZI2C.c **** 
 288:Generated_Source\PSoC4/I2C_1_EZI2C.c **** /*******************************************************************************
 289:Generated_Source\PSoC4/I2C_1_EZI2C.c **** * Function Name: I2C_1_EzI2CGetActivity
 290:Generated_Source\PSoC4/I2C_1_EZI2C.c **** ****************************************************************************//**
 291:Generated_Source\PSoC4/I2C_1_EZI2C.c **** *
 292:Generated_Source\PSoC4/I2C_1_EZI2C.c **** *  Returns the EZI2C slave status.
 293:Generated_Source\PSoC4/I2C_1_EZI2C.c **** *  The read, write and error status flags reset to zero after this function
 294:Generated_Source\PSoC4/I2C_1_EZI2C.c **** *  call. The busy status flag is cleared when the transaction intended for
 295:Generated_Source\PSoC4/I2C_1_EZI2C.c **** *  the EZI2C slave completes.
 296:Generated_Source\PSoC4/I2C_1_EZI2C.c **** *
 297:Generated_Source\PSoC4/I2C_1_EZI2C.c **** * \return
 298:Generated_Source\PSoC4/I2C_1_EZI2C.c **** *  Returns the status of the EZI2C Slave activity.
 299:Generated_Source\PSoC4/I2C_1_EZI2C.c **** *  - I2C_1_EZI2C_STATUS_READ1 - Read transfer complete. The transfer 
 300:Generated_Source\PSoC4/I2C_1_EZI2C.c **** *    used the primary slave address. The error condition status bit must be 
 301:Generated_Source\PSoC4/I2C_1_EZI2C.c **** *    checked to ensure that read transfer was completed successfully.
 302:Generated_Source\PSoC4/I2C_1_EZI2C.c **** *  - I2C_1_EZI2C_STATUS_WRITE1 - Write transfer complete. The buffer 
 303:Generated_Source\PSoC4/I2C_1_EZI2C.c **** *    content was modified. The transfer used the primary slave address. 
 304:Generated_Source\PSoC4/I2C_1_EZI2C.c **** *    The error condition status bit must be checked to ensure that write 
 305:Generated_Source\PSoC4/I2C_1_EZI2C.c **** *    transfer was completed successfully.
 306:Generated_Source\PSoC4/I2C_1_EZI2C.c **** *  - I2C_1_EZI2C_STATUS_READ2 - Read transfer complete. The transfer
 307:Generated_Source\PSoC4/I2C_1_EZI2C.c **** *    used the secondary slave address. The error condition status bit must be 
 308:Generated_Source\PSoC4/I2C_1_EZI2C.c **** *    checked to ensure that read transfer was completed successfully.
 309:Generated_Source\PSoC4/I2C_1_EZI2C.c **** *  - I2C_1_EZI2C_STATUS_WRITE2 - Write transfer complete. The buffer
 310:Generated_Source\PSoC4/I2C_1_EZI2C.c **** *    content was modified. The transfer used the secondary slave address. 
 311:Generated_Source\PSoC4/I2C_1_EZI2C.c **** *    The error condition status bit must be checked to ensure that write 
 312:Generated_Source\PSoC4/I2C_1_EZI2C.c **** *    transfer was completed successfully.
 313:Generated_Source\PSoC4/I2C_1_EZI2C.c **** *  - I2C_1_EZI2C_STATUS_BUSY - A transfer intended for the primary 
 314:Generated_Source\PSoC4/I2C_1_EZI2C.c **** *    or secondary address is in progress. The status bit is set after an 
 315:Generated_Source\PSoC4/I2C_1_EZI2C.c **** *    address match and cleared on a Stop or ReStart condition.
 316:Generated_Source\PSoC4/I2C_1_EZI2C.c **** *  - I2C_1_EZI2C_STATUS_ERR - An error occurred during a transfer 
 317:Generated_Source\PSoC4/I2C_1_EZI2C.c **** *    intended for the primary or secondary slave address. The sources of error
 318:Generated_Source\PSoC4/I2C_1_EZI2C.c **** *    are: misplaced Start or Stop condition or lost arbitration while slave 
 319:Generated_Source\PSoC4/I2C_1_EZI2C.c **** *    drives SDA.
 320:Generated_Source\PSoC4/I2C_1_EZI2C.c **** *    The write buffer may contain invalid byte or part of the transaction when 
 321:Generated_Source\PSoC4/I2C_1_EZI2C.c **** *    I2C_1_EZI2C_STATUS_ERR and I2C_1_EZI2C_STATUS_WRITE1/2 
 322:Generated_Source\PSoC4/I2C_1_EZI2C.c **** *    is set. It is recommended to discard buffer content in this case.
 323:Generated_Source\PSoC4/I2C_1_EZI2C.c **** *
 324:Generated_Source\PSoC4/I2C_1_EZI2C.c **** * \globalvars
 325:Generated_Source\PSoC4/I2C_1_EZI2C.c **** *  I2C_1_curStatus - used to store the current status of the EZI2C 
 326:Generated_Source\PSoC4/I2C_1_EZI2C.c **** *  slave.
 327:Generated_Source\PSoC4/I2C_1_EZI2C.c **** *
 328:Generated_Source\PSoC4/I2C_1_EZI2C.c **** *******************************************************************************/
 329:Generated_Source\PSoC4/I2C_1_EZI2C.c **** uint32 I2C_1_EzI2CGetActivity(void)
 330:Generated_Source\PSoC4/I2C_1_EZI2C.c **** {
 455              		.loc 1 330 0
 456              		.cfi_startproc
 457              		@ args = 0, pretend = 0, frame = 8
 458              		@ frame_needed = 1, uses_anonymous_args = 0
 459 0000 80B5     		push	{r7, lr}
 460              		.cfi_def_cfa_offset 8
 461              		.cfi_offset 7, -8
 462              		.cfi_offset 14, -4
 463 0002 82B0     		sub	sp, sp, #8
 464              		.cfi_def_cfa_offset 16
 465 0004 00AF     		add	r7, sp, #0
 466              		.cfi_def_cfa_register 7
ARM GAS  C:\Users\sergio\AppData\Local\Temp\cchSrVJR.s 			page 16


 331:Generated_Source\PSoC4/I2C_1_EZI2C.c ****     uint32 status;
 332:Generated_Source\PSoC4/I2C_1_EZI2C.c **** 
 333:Generated_Source\PSoC4/I2C_1_EZI2C.c ****     I2C_1_DisableInt();  /* Lock from interruption */
 467              		.loc 1 333 0
 468 0006 0920     		movs	r0, #9
 469 0008 FFF7FEFF 		bl	CyIntDisable
 334:Generated_Source\PSoC4/I2C_1_EZI2C.c **** 
 335:Generated_Source\PSoC4/I2C_1_EZI2C.c ****     status = I2C_1_curStatus;
 470              		.loc 1 335 0
 471 000c 1A4B     		ldr	r3, .L36
 472 000e 1B78     		ldrb	r3, [r3]
 473 0010 DBB2     		uxtb	r3, r3
 474 0012 7B60     		str	r3, [r7, #4]
 336:Generated_Source\PSoC4/I2C_1_EZI2C.c **** 
 337:Generated_Source\PSoC4/I2C_1_EZI2C.c ****     /* Relay on address match event from HW as bus busy status */
 338:Generated_Source\PSoC4/I2C_1_EZI2C.c ****     if(I2C_1_EZI2C_SCL_STRETCH_DISABLE)
 475              		.loc 1 338 0
 476 0014 194B     		ldr	r3, .L36+4
 477 0016 1B68     		ldr	r3, [r3]
 478 0018 4022     		movs	r2, #64
 479 001a 1340     		ands	r3, r2
 480 001c 1CD1     		bne	.L29
 339:Generated_Source\PSoC4/I2C_1_EZI2C.c ****     {
 340:Generated_Source\PSoC4/I2C_1_EZI2C.c ****         /* For I2C_1_CY_SCBIP_V0 the wake is prohibited by customizer */
 341:Generated_Source\PSoC4/I2C_1_EZI2C.c ****         if(I2C_1_EZI2C_EC_AM_ENABLE)
 481              		.loc 1 341 0
 482 001e 184B     		ldr	r3, .L36+8
 483 0020 1A68     		ldr	r2, [r3]
 484 0022 8023     		movs	r3, #128
 485 0024 5B00     		lsls	r3, r3, #1
 486 0026 1340     		ands	r3, r2
 487 0028 0BD0     		beq	.L30
 342:Generated_Source\PSoC4/I2C_1_EZI2C.c ****         {
 343:Generated_Source\PSoC4/I2C_1_EZI2C.c ****             status |= I2C_1_CHECK_INTR_I2C_EC(I2C_1_INTR_I2C_EC_WAKE_UP) ?
 488              		.loc 1 343 0
 489 002a 164B     		ldr	r3, .L36+12
 490 002c 1B68     		ldr	r3, [r3]
 491 002e 0122     		movs	r2, #1
 492 0030 1340     		ands	r3, r2
 344:Generated_Source\PSoC4/I2C_1_EZI2C.c ****                         I2C_1_EZI2C_STATUS_BUSY : 0u;
 493              		.loc 1 344 0
 494 0032 01D0     		beq	.L31
 495              		.loc 1 344 0 is_stmt 0 discriminator 1
 496 0034 2023     		movs	r3, #32
 497 0036 00E0     		b	.L32
 498              	.L31:
 499              		.loc 1 344 0 discriminator 2
 500 0038 0023     		movs	r3, #0
 501              	.L32:
 343:Generated_Source\PSoC4/I2C_1_EZI2C.c ****                         I2C_1_EZI2C_STATUS_BUSY : 0u;
 502              		.loc 1 343 0 is_stmt 1 discriminator 4
 503 003a 7A68     		ldr	r2, [r7, #4]
 504 003c 1343     		orrs	r3, r2
 505 003e 7B60     		str	r3, [r7, #4]
 506 0040 0AE0     		b	.L29
 507              	.L30:
 345:Generated_Source\PSoC4/I2C_1_EZI2C.c ****         }
ARM GAS  C:\Users\sergio\AppData\Local\Temp\cchSrVJR.s 			page 17


 346:Generated_Source\PSoC4/I2C_1_EZI2C.c ****         else
 347:Generated_Source\PSoC4/I2C_1_EZI2C.c ****         {
 348:Generated_Source\PSoC4/I2C_1_EZI2C.c ****             status |= I2C_1_CHECK_INTR_SLAVE(I2C_1_INTR_SLAVE_I2C_ADDR_MATCH) ?
 508              		.loc 1 348 0
 509 0042 114B     		ldr	r3, .L36+16
 510 0044 1B68     		ldr	r3, [r3]
 511 0046 4022     		movs	r2, #64
 512 0048 1340     		ands	r3, r2
 349:Generated_Source\PSoC4/I2C_1_EZI2C.c ****                         I2C_1_EZI2C_STATUS_BUSY : 0u;
 513              		.loc 1 349 0
 514 004a 01D0     		beq	.L33
 515              		.loc 1 349 0 is_stmt 0 discriminator 1
 516 004c 2023     		movs	r3, #32
 517 004e 00E0     		b	.L34
 518              	.L33:
 519              		.loc 1 349 0 discriminator 2
 520 0050 0023     		movs	r3, #0
 521              	.L34:
 348:Generated_Source\PSoC4/I2C_1_EZI2C.c ****                         I2C_1_EZI2C_STATUS_BUSY : 0u;
 522              		.loc 1 348 0 is_stmt 1 discriminator 4
 523 0052 7A68     		ldr	r2, [r7, #4]
 524 0054 1343     		orrs	r3, r2
 525 0056 7B60     		str	r3, [r7, #4]
 526              	.L29:
 350:Generated_Source\PSoC4/I2C_1_EZI2C.c ****         }
 351:Generated_Source\PSoC4/I2C_1_EZI2C.c ****         
 352:Generated_Source\PSoC4/I2C_1_EZI2C.c ****     }
 353:Generated_Source\PSoC4/I2C_1_EZI2C.c ****     
 354:Generated_Source\PSoC4/I2C_1_EZI2C.c **** 
 355:Generated_Source\PSoC4/I2C_1_EZI2C.c ****     I2C_1_curStatus &= ((uint8) ~I2C_1_EZI2C_CLEAR_STATUS);
 527              		.loc 1 355 0
 528 0058 074B     		ldr	r3, .L36
 529 005a 1B78     		ldrb	r3, [r3]
 530 005c DBB2     		uxtb	r3, r3
 531 005e 1F22     		movs	r2, #31
 532 0060 9343     		bics	r3, r2
 533 0062 DAB2     		uxtb	r2, r3
 534 0064 044B     		ldr	r3, .L36
 535 0066 1A70     		strb	r2, [r3]
 356:Generated_Source\PSoC4/I2C_1_EZI2C.c **** 
 357:Generated_Source\PSoC4/I2C_1_EZI2C.c ****     I2C_1_EnableInt();   /* Release lock */
 536              		.loc 1 357 0
 537 0068 0920     		movs	r0, #9
 538 006a FFF7FEFF 		bl	CyIntEnable
 358:Generated_Source\PSoC4/I2C_1_EZI2C.c **** 
 359:Generated_Source\PSoC4/I2C_1_EZI2C.c ****     return(status);
 539              		.loc 1 359 0
 540 006e 7B68     		ldr	r3, [r7, #4]
 360:Generated_Source\PSoC4/I2C_1_EZI2C.c **** }
 541              		.loc 1 360 0
 542 0070 1800     		movs	r0, r3
 543 0072 BD46     		mov	sp, r7
 544 0074 02B0     		add	sp, sp, #8
 545              		@ sp needed
 546 0076 80BD     		pop	{r7, pc}
 547              	.L37:
 548              		.align	2
ARM GAS  C:\Users\sergio\AppData\Local\Temp\cchSrVJR.s 			page 18


 549              	.L36:
 550 0078 00000000 		.word	I2C_1_curStatus
 551 007c 480F2440 		.word	1076105032
 552 0080 00002440 		.word	1076101120
 553 0084 800E2440 		.word	1076104832
 554 0088 400F2440 		.word	1076105024
 555              		.cfi_endproc
 556              	.LFE4:
 557              		.size	I2C_1_EzI2CGetActivity, .-I2C_1_EzI2CGetActivity
 558              		.section	.text.I2C_1_EzI2CSetAddress1,"ax",%progbits
 559              		.align	2
 560              		.global	I2C_1_EzI2CSetAddress1
 561              		.code	16
 562              		.thumb_func
 563              		.type	I2C_1_EzI2CSetAddress1, %function
 564              	I2C_1_EzI2CSetAddress1:
 565              	.LFB5:
 361:Generated_Source\PSoC4/I2C_1_EZI2C.c **** 
 362:Generated_Source\PSoC4/I2C_1_EZI2C.c **** 
 363:Generated_Source\PSoC4/I2C_1_EZI2C.c **** /*******************************************************************************
 364:Generated_Source\PSoC4/I2C_1_EZI2C.c **** * Function Name: I2C_1_EzI2CSetAddress1
 365:Generated_Source\PSoC4/I2C_1_EZI2C.c **** ****************************************************************************//**
 366:Generated_Source\PSoC4/I2C_1_EZI2C.c **** *
 367:Generated_Source\PSoC4/I2C_1_EZI2C.c **** *  Sets the primary EZI2C slave address.
 368:Generated_Source\PSoC4/I2C_1_EZI2C.c **** *
 369:Generated_Source\PSoC4/I2C_1_EZI2C.c **** * \param address: I2C slave address for the secondary device.
 370:Generated_Source\PSoC4/I2C_1_EZI2C.c **** *  This address is the 7-bit right-justified slave address and does not 
 371:Generated_Source\PSoC4/I2C_1_EZI2C.c **** *   include the R/W bit.
 372:Generated_Source\PSoC4/I2C_1_EZI2C.c **** *
 373:Generated_Source\PSoC4/I2C_1_EZI2C.c **** *  The address value is not checked to see if it violates the I2C spec. 
 374:Generated_Source\PSoC4/I2C_1_EZI2C.c **** *  The preferred addresses are in the range between 8 and 120 (0x08 to 0x78).
 375:Generated_Source\PSoC4/I2C_1_EZI2C.c **** *
 376:Generated_Source\PSoC4/I2C_1_EZI2C.c **** * \globalvars
 377:Generated_Source\PSoC4/I2C_1_EZI2C.c **** *  I2C_1_addrBuf1 - used to store the primary 7-bit slave address 
 378:Generated_Source\PSoC4/I2C_1_EZI2C.c **** *  value.
 379:Generated_Source\PSoC4/I2C_1_EZI2C.c **** *
 380:Generated_Source\PSoC4/I2C_1_EZI2C.c **** *******************************************************************************/
 381:Generated_Source\PSoC4/I2C_1_EZI2C.c **** void I2C_1_EzI2CSetAddress1(uint32 address)
 382:Generated_Source\PSoC4/I2C_1_EZI2C.c **** {
 566              		.loc 1 382 0
 567              		.cfi_startproc
 568              		@ args = 0, pretend = 0, frame = 16
 569              		@ frame_needed = 1, uses_anonymous_args = 0
 570 0000 90B5     		push	{r4, r7, lr}
 571              		.cfi_def_cfa_offset 12
 572              		.cfi_offset 4, -12
 573              		.cfi_offset 7, -8
 574              		.cfi_offset 14, -4
 575 0002 85B0     		sub	sp, sp, #20
 576              		.cfi_def_cfa_offset 32
 577 0004 00AF     		add	r7, sp, #0
 578              		.cfi_def_cfa_register 7
 579 0006 7860     		str	r0, [r7, #4]
 383:Generated_Source\PSoC4/I2C_1_EZI2C.c ****     if(I2C_1_SECONDARY_ADDRESS_ENABLE)
 580              		.loc 1 383 0
 581 0008 144B     		ldr	r3, .L42
 582 000a 1B78     		ldrb	r3, [r3]
ARM GAS  C:\Users\sergio\AppData\Local\Temp\cchSrVJR.s 			page 19


 583 000c 002B     		cmp	r3, #0
 584 000e 0FD0     		beq	.L39
 384:Generated_Source\PSoC4/I2C_1_EZI2C.c ****     {
 385:Generated_Source\PSoC4/I2C_1_EZI2C.c ****         I2C_1_addrBuf1 = (uint8) address;
 585              		.loc 1 385 0
 586 0010 7B68     		ldr	r3, [r7, #4]
 587 0012 DAB2     		uxtb	r2, r3
 588 0014 124B     		ldr	r3, .L42+4
 589 0016 1A70     		strb	r2, [r3]
 386:Generated_Source\PSoC4/I2C_1_EZI2C.c **** 
 387:Generated_Source\PSoC4/I2C_1_EZI2C.c ****         I2C_1_RX_MATCH_REG = 
 590              		.loc 1 387 0
 591 0018 124C     		ldr	r4, .L42+8
 388:Generated_Source\PSoC4/I2C_1_EZI2C.c ****                         I2C_1_EzI2CUpdateRxMatchReg(address, (uint32) I2C_1_addrBuf2);
 592              		.loc 1 388 0
 593 001a 134B     		ldr	r3, .L42+12
 594 001c 1B78     		ldrb	r3, [r3]
 595 001e 1A00     		movs	r2, r3
 596 0020 7B68     		ldr	r3, [r7, #4]
 597 0022 1100     		movs	r1, r2
 598 0024 1800     		movs	r0, r3
 599 0026 FFF7FEFF 		bl	I2C_1_EzI2CUpdateRxMatchReg
 600 002a 0300     		movs	r3, r0
 387:Generated_Source\PSoC4/I2C_1_EZI2C.c ****                         I2C_1_EzI2CUpdateRxMatchReg(address, (uint32) I2C_1_addrBuf2);
 601              		.loc 1 387 0
 602 002c 2360     		str	r3, [r4]
 389:Generated_Source\PSoC4/I2C_1_EZI2C.c ****     }
 390:Generated_Source\PSoC4/I2C_1_EZI2C.c ****     else
 391:Generated_Source\PSoC4/I2C_1_EZI2C.c ****     {
 392:Generated_Source\PSoC4/I2C_1_EZI2C.c ****         uint32 matchReg;
 393:Generated_Source\PSoC4/I2C_1_EZI2C.c **** 
 394:Generated_Source\PSoC4/I2C_1_EZI2C.c ****         matchReg = I2C_1_RX_MATCH_REG;
 395:Generated_Source\PSoC4/I2C_1_EZI2C.c **** 
 396:Generated_Source\PSoC4/I2C_1_EZI2C.c ****         /* Set address. */
 397:Generated_Source\PSoC4/I2C_1_EZI2C.c ****         matchReg &= (uint32) ~I2C_1_RX_MATCH_ADDR_MASK;
 398:Generated_Source\PSoC4/I2C_1_EZI2C.c ****         matchReg |= (uint32)  I2C_1_GET_I2C_8BIT_ADDRESS(address);
 399:Generated_Source\PSoC4/I2C_1_EZI2C.c **** 
 400:Generated_Source\PSoC4/I2C_1_EZI2C.c ****         I2C_1_RX_MATCH_REG = matchReg;
 401:Generated_Source\PSoC4/I2C_1_EZI2C.c ****     }
 402:Generated_Source\PSoC4/I2C_1_EZI2C.c ****     
 403:Generated_Source\PSoC4/I2C_1_EZI2C.c **** }
 603              		.loc 1 403 0
 604 002e 10E0     		b	.L41
 605              	.L39:
 606              	.LBB2:
 394:Generated_Source\PSoC4/I2C_1_EZI2C.c **** 
 607              		.loc 1 394 0
 608 0030 0C4B     		ldr	r3, .L42+8
 609 0032 1B68     		ldr	r3, [r3]
 610 0034 FB60     		str	r3, [r7, #12]
 397:Generated_Source\PSoC4/I2C_1_EZI2C.c ****         matchReg |= (uint32)  I2C_1_GET_I2C_8BIT_ADDRESS(address);
 611              		.loc 1 397 0
 612 0036 FB68     		ldr	r3, [r7, #12]
 613 0038 FF22     		movs	r2, #255
 614 003a 9343     		bics	r3, r2
 615 003c FB60     		str	r3, [r7, #12]
 398:Generated_Source\PSoC4/I2C_1_EZI2C.c **** 
ARM GAS  C:\Users\sergio\AppData\Local\Temp\cchSrVJR.s 			page 20


 616              		.loc 1 398 0
 617 003e 7B68     		ldr	r3, [r7, #4]
 618 0040 5B00     		lsls	r3, r3, #1
 619 0042 FF22     		movs	r2, #255
 620 0044 1340     		ands	r3, r2
 621 0046 FA68     		ldr	r2, [r7, #12]
 622 0048 1343     		orrs	r3, r2
 623 004a FB60     		str	r3, [r7, #12]
 400:Generated_Source\PSoC4/I2C_1_EZI2C.c ****     }
 624              		.loc 1 400 0
 625 004c 054B     		ldr	r3, .L42+8
 626 004e FA68     		ldr	r2, [r7, #12]
 627 0050 1A60     		str	r2, [r3]
 628              	.L41:
 629              	.LBE2:
 630              		.loc 1 403 0
 631 0052 C046     		nop
 632 0054 BD46     		mov	sp, r7
 633 0056 05B0     		add	sp, sp, #20
 634              		@ sp needed
 635 0058 90BD     		pop	{r4, r7, pc}
 636              	.L43:
 637 005a C046     		.align	2
 638              	.L42:
 639 005c 00000000 		.word	I2C_1_numberOfAddr
 640 0060 00000000 		.word	I2C_1_addrBuf1
 641 0064 10032440 		.word	1076101904
 642 0068 00000000 		.word	I2C_1_addrBuf2
 643              		.cfi_endproc
 644              	.LFE5:
 645              		.size	I2C_1_EzI2CSetAddress1, .-I2C_1_EzI2CSetAddress1
 646              		.section	.text.I2C_1_EzI2CGetAddress1,"ax",%progbits
 647              		.align	2
 648              		.global	I2C_1_EzI2CGetAddress1
 649              		.code	16
 650              		.thumb_func
 651              		.type	I2C_1_EzI2CGetAddress1, %function
 652              	I2C_1_EzI2CGetAddress1:
 653              	.LFB6:
 404:Generated_Source\PSoC4/I2C_1_EZI2C.c **** 
 405:Generated_Source\PSoC4/I2C_1_EZI2C.c **** 
 406:Generated_Source\PSoC4/I2C_1_EZI2C.c **** /*******************************************************************************
 407:Generated_Source\PSoC4/I2C_1_EZI2C.c **** * Function Name: I2C_1_EzI2CGetAddress1
 408:Generated_Source\PSoC4/I2C_1_EZI2C.c **** ****************************************************************************//**
 409:Generated_Source\PSoC4/I2C_1_EZI2C.c **** *
 410:Generated_Source\PSoC4/I2C_1_EZI2C.c **** *  Returns primary the EZ I2C slave address.
 411:Generated_Source\PSoC4/I2C_1_EZI2C.c **** *  This address is the 7-bit right-justified slave address and does not include 
 412:Generated_Source\PSoC4/I2C_1_EZI2C.c **** *  the R/W bit.
 413:Generated_Source\PSoC4/I2C_1_EZI2C.c **** *
 414:Generated_Source\PSoC4/I2C_1_EZI2C.c **** * \return
 415:Generated_Source\PSoC4/I2C_1_EZI2C.c **** *  Primary EZI2C slave address.
 416:Generated_Source\PSoC4/I2C_1_EZI2C.c **** *
 417:Generated_Source\PSoC4/I2C_1_EZI2C.c **** * \globalvars
 418:Generated_Source\PSoC4/I2C_1_EZI2C.c **** *  I2C_1_addrBuf1 - used to store the primary 7-bit slave address 
 419:Generated_Source\PSoC4/I2C_1_EZI2C.c **** *  value.
 420:Generated_Source\PSoC4/I2C_1_EZI2C.c **** *
 421:Generated_Source\PSoC4/I2C_1_EZI2C.c **** *******************************************************************************/
ARM GAS  C:\Users\sergio\AppData\Local\Temp\cchSrVJR.s 			page 21


 422:Generated_Source\PSoC4/I2C_1_EZI2C.c **** uint32 I2C_1_EzI2CGetAddress1(void)
 423:Generated_Source\PSoC4/I2C_1_EZI2C.c **** {
 654              		.loc 1 423 0
 655              		.cfi_startproc
 656              		@ args = 0, pretend = 0, frame = 8
 657              		@ frame_needed = 1, uses_anonymous_args = 0
 658 0000 80B5     		push	{r7, lr}
 659              		.cfi_def_cfa_offset 8
 660              		.cfi_offset 7, -8
 661              		.cfi_offset 14, -4
 662 0002 82B0     		sub	sp, sp, #8
 663              		.cfi_def_cfa_offset 16
 664 0004 00AF     		add	r7, sp, #0
 665              		.cfi_def_cfa_register 7
 424:Generated_Source\PSoC4/I2C_1_EZI2C.c ****     uint32 address;
 425:Generated_Source\PSoC4/I2C_1_EZI2C.c **** 
 426:Generated_Source\PSoC4/I2C_1_EZI2C.c ****     if(I2C_1_SECONDARY_ADDRESS_ENABLE)
 666              		.loc 1 426 0
 667 0006 094B     		ldr	r3, .L48
 668 0008 1B78     		ldrb	r3, [r3]
 669 000a 002B     		cmp	r3, #0
 670 000c 03D0     		beq	.L45
 427:Generated_Source\PSoC4/I2C_1_EZI2C.c ****     {
 428:Generated_Source\PSoC4/I2C_1_EZI2C.c ****         address = (uint32) I2C_1_addrBuf1;
 671              		.loc 1 428 0
 672 000e 084B     		ldr	r3, .L48+4
 673 0010 1B78     		ldrb	r3, [r3]
 674 0012 7B60     		str	r3, [r7, #4]
 675 0014 05E0     		b	.L46
 676              	.L45:
 429:Generated_Source\PSoC4/I2C_1_EZI2C.c ****     }
 430:Generated_Source\PSoC4/I2C_1_EZI2C.c ****     else
 431:Generated_Source\PSoC4/I2C_1_EZI2C.c ****     {
 432:Generated_Source\PSoC4/I2C_1_EZI2C.c ****         address = (I2C_1_GET_RX_MATCH_ADDR(I2C_1_RX_MATCH_REG) >>
 677              		.loc 1 432 0
 678 0016 074B     		ldr	r3, .L48+8
 679 0018 1B68     		ldr	r3, [r3]
 680 001a FF22     		movs	r2, #255
 681 001c 1340     		ands	r3, r2
 682 001e 5B08     		lsrs	r3, r3, #1
 683 0020 7B60     		str	r3, [r7, #4]
 684              	.L46:
 433:Generated_Source\PSoC4/I2C_1_EZI2C.c ****                    I2C_1_I2C_SLAVE_ADDR_POS);
 434:Generated_Source\PSoC4/I2C_1_EZI2C.c ****     }
 435:Generated_Source\PSoC4/I2C_1_EZI2C.c ****     
 436:Generated_Source\PSoC4/I2C_1_EZI2C.c **** 
 437:Generated_Source\PSoC4/I2C_1_EZI2C.c ****     return(address);
 685              		.loc 1 437 0
 686 0022 7B68     		ldr	r3, [r7, #4]
 438:Generated_Source\PSoC4/I2C_1_EZI2C.c **** }
 687              		.loc 1 438 0
 688 0024 1800     		movs	r0, r3
 689 0026 BD46     		mov	sp, r7
 690 0028 02B0     		add	sp, sp, #8
 691              		@ sp needed
 692 002a 80BD     		pop	{r7, pc}
 693              	.L49:
ARM GAS  C:\Users\sergio\AppData\Local\Temp\cchSrVJR.s 			page 22


 694              		.align	2
 695              	.L48:
 696 002c 00000000 		.word	I2C_1_numberOfAddr
 697 0030 00000000 		.word	I2C_1_addrBuf1
 698 0034 10032440 		.word	1076101904
 699              		.cfi_endproc
 700              	.LFE6:
 701              		.size	I2C_1_EzI2CGetAddress1, .-I2C_1_EzI2CGetAddress1
 702              		.section	.text.I2C_1_EzI2CSetBuffer1,"ax",%progbits
 703              		.align	2
 704              		.global	I2C_1_EzI2CSetBuffer1
 705              		.code	16
 706              		.thumb_func
 707              		.type	I2C_1_EzI2CSetBuffer1, %function
 708              	I2C_1_EzI2CSetBuffer1:
 709              	.LFB7:
 439:Generated_Source\PSoC4/I2C_1_EZI2C.c **** 
 440:Generated_Source\PSoC4/I2C_1_EZI2C.c **** 
 441:Generated_Source\PSoC4/I2C_1_EZI2C.c **** /*******************************************************************************
 442:Generated_Source\PSoC4/I2C_1_EZI2C.c **** * Function Name: I2C_1_EzI2CSetBuffer1
 443:Generated_Source\PSoC4/I2C_1_EZI2C.c **** ****************************************************************************//**
 444:Generated_Source\PSoC4/I2C_1_EZI2C.c **** *
 445:Generated_Source\PSoC4/I2C_1_EZI2C.c **** *  Sets up the data buffer to be exposed to the I2C master on a primary slave
 446:Generated_Source\PSoC4/I2C_1_EZI2C.c **** *  address request.
 447:Generated_Source\PSoC4/I2C_1_EZI2C.c **** *
 448:Generated_Source\PSoC4/I2C_1_EZI2C.c **** * \param bufSize: Size of the buffer in bytes.
 449:Generated_Source\PSoC4/I2C_1_EZI2C.c **** * \param rwBoundary: Number of data bytes starting from the beginning of the 
 450:Generated_Source\PSoC4/I2C_1_EZI2C.c **** *  buffer with read and write access. Data bytes located at offset rwBoundary 
 451:Generated_Source\PSoC4/I2C_1_EZI2C.c **** *  or greater are read only.
 452:Generated_Source\PSoC4/I2C_1_EZI2C.c **** *  This value must be less than or equal to the buffer size.
 453:Generated_Source\PSoC4/I2C_1_EZI2C.c **** * \param buffer: Pointer to the data buffer.
 454:Generated_Source\PSoC4/I2C_1_EZI2C.c **** *
 455:Generated_Source\PSoC4/I2C_1_EZI2C.c **** * \sideeffect
 456:Generated_Source\PSoC4/I2C_1_EZI2C.c **** *  Calling this function in the middle of a transaction intended for the 
 457:Generated_Source\PSoC4/I2C_1_EZI2C.c **** *  primary slave address leads to unexpected behavior.
 458:Generated_Source\PSoC4/I2C_1_EZI2C.c **** *
 459:Generated_Source\PSoC4/I2C_1_EZI2C.c **** * \globalvars
 460:Generated_Source\PSoC4/I2C_1_EZI2C.c **** *  I2C_1_dataBuffer1 – the pointer to the buffer to be exposed to the
 461:Generated_Source\PSoC4/I2C_1_EZI2C.c **** *  master on a primary address.
 462:Generated_Source\PSoC4/I2C_1_EZI2C.c **** *  I2C_1_bufSizeBuf1 - the size of the buffer to be exposed to the 
 463:Generated_Source\PSoC4/I2C_1_EZI2C.c **** *  master on a primary address.
 464:Generated_Source\PSoC4/I2C_1_EZI2C.c **** *  I2C_1_protectBuf1 - the start index of the read-only region in the
 465:Generated_Source\PSoC4/I2C_1_EZI2C.c **** *  buffer to be exposed to the master on a primary address. The read-only region
 466:Generated_Source\PSoC4/I2C_1_EZI2C.c **** *  continues up to the end the buffer.
 467:Generated_Source\PSoC4/I2C_1_EZI2C.c **** *
 468:Generated_Source\PSoC4/I2C_1_EZI2C.c **** *******************************************************************************/
 469:Generated_Source\PSoC4/I2C_1_EZI2C.c **** void I2C_1_EzI2CSetBuffer1(uint32 bufSize, uint32 rwBoundary, volatile uint8 * buffer)
 470:Generated_Source\PSoC4/I2C_1_EZI2C.c **** {
 710              		.loc 1 470 0
 711              		.cfi_startproc
 712              		@ args = 0, pretend = 0, frame = 16
 713              		@ frame_needed = 1, uses_anonymous_args = 0
 714 0000 80B5     		push	{r7, lr}
 715              		.cfi_def_cfa_offset 8
 716              		.cfi_offset 7, -8
 717              		.cfi_offset 14, -4
 718 0002 84B0     		sub	sp, sp, #16
ARM GAS  C:\Users\sergio\AppData\Local\Temp\cchSrVJR.s 			page 23


 719              		.cfi_def_cfa_offset 24
 720 0004 00AF     		add	r7, sp, #0
 721              		.cfi_def_cfa_register 7
 722 0006 F860     		str	r0, [r7, #12]
 723 0008 B960     		str	r1, [r7, #8]
 724 000a 7A60     		str	r2, [r7, #4]
 471:Generated_Source\PSoC4/I2C_1_EZI2C.c ****     if (NULL != buffer)
 725              		.loc 1 471 0
 726 000c 7B68     		ldr	r3, [r7, #4]
 727 000e 002B     		cmp	r3, #0
 728 0010 10D0     		beq	.L52
 472:Generated_Source\PSoC4/I2C_1_EZI2C.c ****     {
 473:Generated_Source\PSoC4/I2C_1_EZI2C.c ****         I2C_1_DisableInt();  /* Lock from interruption */
 729              		.loc 1 473 0
 730 0012 0920     		movs	r0, #9
 731 0014 FFF7FEFF 		bl	CyIntDisable
 474:Generated_Source\PSoC4/I2C_1_EZI2C.c **** 
 475:Generated_Source\PSoC4/I2C_1_EZI2C.c ****         I2C_1_dataBuffer1 =  buffer;
 732              		.loc 1 475 0
 733 0018 084B     		ldr	r3, .L53
 734 001a 7A68     		ldr	r2, [r7, #4]
 735 001c 1A60     		str	r2, [r3]
 476:Generated_Source\PSoC4/I2C_1_EZI2C.c ****         I2C_1_bufSizeBuf1 = (uint16) bufSize;
 736              		.loc 1 476 0
 737 001e FB68     		ldr	r3, [r7, #12]
 738 0020 9AB2     		uxth	r2, r3
 739 0022 074B     		ldr	r3, .L53+4
 740 0024 1A80     		strh	r2, [r3]
 477:Generated_Source\PSoC4/I2C_1_EZI2C.c ****         I2C_1_protectBuf1 = (uint16) rwBoundary;
 741              		.loc 1 477 0
 742 0026 BB68     		ldr	r3, [r7, #8]
 743 0028 9AB2     		uxth	r2, r3
 744 002a 064B     		ldr	r3, .L53+8
 745 002c 1A80     		strh	r2, [r3]
 478:Generated_Source\PSoC4/I2C_1_EZI2C.c **** 
 479:Generated_Source\PSoC4/I2C_1_EZI2C.c ****         I2C_1_EnableInt();   /* Release lock */
 746              		.loc 1 479 0
 747 002e 0920     		movs	r0, #9
 748 0030 FFF7FEFF 		bl	CyIntEnable
 749              	.L52:
 480:Generated_Source\PSoC4/I2C_1_EZI2C.c ****     }
 481:Generated_Source\PSoC4/I2C_1_EZI2C.c **** }
 750              		.loc 1 481 0
 751 0034 C046     		nop
 752 0036 BD46     		mov	sp, r7
 753 0038 04B0     		add	sp, sp, #16
 754              		@ sp needed
 755 003a 80BD     		pop	{r7, pc}
 756              	.L54:
 757              		.align	2
 758              	.L53:
 759 003c 00000000 		.word	I2C_1_dataBuffer1
 760 0040 00000000 		.word	I2C_1_bufSizeBuf1
 761 0044 00000000 		.word	I2C_1_protectBuf1
 762              		.cfi_endproc
 763              	.LFE7:
 764              		.size	I2C_1_EzI2CSetBuffer1, .-I2C_1_EzI2CSetBuffer1
ARM GAS  C:\Users\sergio\AppData\Local\Temp\cchSrVJR.s 			page 24


 765              		.section	.text.I2C_1_EzI2CSetReadBoundaryBuffer1,"ax",%progbits
 766              		.align	2
 767              		.global	I2C_1_EzI2CSetReadBoundaryBuffer1
 768              		.code	16
 769              		.thumb_func
 770              		.type	I2C_1_EzI2CSetReadBoundaryBuffer1, %function
 771              	I2C_1_EzI2CSetReadBoundaryBuffer1:
 772              	.LFB8:
 482:Generated_Source\PSoC4/I2C_1_EZI2C.c **** 
 483:Generated_Source\PSoC4/I2C_1_EZI2C.c **** 
 484:Generated_Source\PSoC4/I2C_1_EZI2C.c **** /*******************************************************************************
 485:Generated_Source\PSoC4/I2C_1_EZI2C.c **** * Function Name: I2C_1_EzI2CSetReadBoundaryBuffer1
 486:Generated_Source\PSoC4/I2C_1_EZI2C.c **** ****************************************************************************//**
 487:Generated_Source\PSoC4/I2C_1_EZI2C.c **** *
 488:Generated_Source\PSoC4/I2C_1_EZI2C.c **** *  Sets the read only boundary in the data buffer to be exposed to the I2C
 489:Generated_Source\PSoC4/I2C_1_EZI2C.c **** *  master on a primary slave address request.
 490:Generated_Source\PSoC4/I2C_1_EZI2C.c **** *
 491:Generated_Source\PSoC4/I2C_1_EZI2C.c **** * \param rwBoundry: Number of data bytes starting from the beginning of the 
 492:Generated_Source\PSoC4/I2C_1_EZI2C.c **** *  buffer with read and write access. Data bytes located at offset rwBoundary 
 493:Generated_Source\PSoC4/I2C_1_EZI2C.c **** *  or greater are read only.
 494:Generated_Source\PSoC4/I2C_1_EZI2C.c **** *  This value must be less than or equal to the buffer size.
 495:Generated_Source\PSoC4/I2C_1_EZI2C.c **** *
 496:Generated_Source\PSoC4/I2C_1_EZI2C.c **** * \sideeffect
 497:Generated_Source\PSoC4/I2C_1_EZI2C.c **** *  Calling this function in the middle of a transaction intended for the 
 498:Generated_Source\PSoC4/I2C_1_EZI2C.c **** *  primary slave address leads to unexpected behavior.
 499:Generated_Source\PSoC4/I2C_1_EZI2C.c **** *
 500:Generated_Source\PSoC4/I2C_1_EZI2C.c **** * \globalvars
 501:Generated_Source\PSoC4/I2C_1_EZI2C.c **** *  I2C_1_protectBuf1 - the start index of the read-only region in the
 502:Generated_Source\PSoC4/I2C_1_EZI2C.c **** *  buffer to be exposed to the master on a primary address. The read-only region
 503:Generated_Source\PSoC4/I2C_1_EZI2C.c **** *  continues up to the end the buffer.
 504:Generated_Source\PSoC4/I2C_1_EZI2C.c **** *
 505:Generated_Source\PSoC4/I2C_1_EZI2C.c **** *******************************************************************************/
 506:Generated_Source\PSoC4/I2C_1_EZI2C.c **** void I2C_1_EzI2CSetReadBoundaryBuffer1(uint32 rwBoundary)
 507:Generated_Source\PSoC4/I2C_1_EZI2C.c **** {
 773              		.loc 1 507 0
 774              		.cfi_startproc
 775              		@ args = 0, pretend = 0, frame = 8
 776              		@ frame_needed = 1, uses_anonymous_args = 0
 777 0000 80B5     		push	{r7, lr}
 778              		.cfi_def_cfa_offset 8
 779              		.cfi_offset 7, -8
 780              		.cfi_offset 14, -4
 781 0002 82B0     		sub	sp, sp, #8
 782              		.cfi_def_cfa_offset 16
 783 0004 00AF     		add	r7, sp, #0
 784              		.cfi_def_cfa_register 7
 785 0006 7860     		str	r0, [r7, #4]
 508:Generated_Source\PSoC4/I2C_1_EZI2C.c ****     I2C_1_protectBuf1 = (uint16) rwBoundary;
 786              		.loc 1 508 0
 787 0008 7B68     		ldr	r3, [r7, #4]
 788 000a 9AB2     		uxth	r2, r3
 789 000c 024B     		ldr	r3, .L56
 790 000e 1A80     		strh	r2, [r3]
 509:Generated_Source\PSoC4/I2C_1_EZI2C.c **** }
 791              		.loc 1 509 0
 792 0010 C046     		nop
 793 0012 BD46     		mov	sp, r7
ARM GAS  C:\Users\sergio\AppData\Local\Temp\cchSrVJR.s 			page 25


 794 0014 02B0     		add	sp, sp, #8
 795              		@ sp needed
 796 0016 80BD     		pop	{r7, pc}
 797              	.L57:
 798              		.align	2
 799              	.L56:
 800 0018 00000000 		.word	I2C_1_protectBuf1
 801              		.cfi_endproc
 802              	.LFE8:
 803              		.size	I2C_1_EzI2CSetReadBoundaryBuffer1, .-I2C_1_EzI2CSetReadBoundaryBuffer1
 804              		.section	.text.I2C_1_EzI2CUpdateRxMatchReg,"ax",%progbits
 805              		.align	2
 806              		.code	16
 807              		.thumb_func
 808              		.type	I2C_1_EzI2CUpdateRxMatchReg, %function
 809              	I2C_1_EzI2CUpdateRxMatchReg:
 810              	.LFB9:
 510:Generated_Source\PSoC4/I2C_1_EZI2C.c **** 
 511:Generated_Source\PSoC4/I2C_1_EZI2C.c **** 
 512:Generated_Source\PSoC4/I2C_1_EZI2C.c **** #if(I2C_1_SECONDARY_ADDRESS_ENABLE_CONST)
 513:Generated_Source\PSoC4/I2C_1_EZI2C.c ****     /*******************************************************************************
 514:Generated_Source\PSoC4/I2C_1_EZI2C.c ****     * Function Name: I2C_1_EzI2CUpdateRxMatchReg
 515:Generated_Source\PSoC4/I2C_1_EZI2C.c ****     ****************************************************************************//**
 516:Generated_Source\PSoC4/I2C_1_EZI2C.c ****     *
 517:Generated_Source\PSoC4/I2C_1_EZI2C.c ****     *  Returns the value of the RX MATCH register for addr1 and addr2. The addr1 is
 518:Generated_Source\PSoC4/I2C_1_EZI2C.c ****     *  accepted as the primary address and it is written to RX_MATCH.ADDRESS
 519:Generated_Source\PSoC4/I2C_1_EZI2C.c ****     *  (addr1 << 0x01).
 520:Generated_Source\PSoC4/I2C_1_EZI2C.c ****     *  The RX_MATCH.MASK is set as follow: addr1 and addr2 equal bits set to 1
 521:Generated_Source\PSoC4/I2C_1_EZI2C.c ****     *  otherwise 0.
 522:Generated_Source\PSoC4/I2C_1_EZI2C.c ****     *
 523:Generated_Source\PSoC4/I2C_1_EZI2C.c ****     * \param addr1: I2C slave address for the primary device.
 524:Generated_Source\PSoC4/I2C_1_EZI2C.c ****     * \param addr2: I2C slave address for the secondary device.
 525:Generated_Source\PSoC4/I2C_1_EZI2C.c ****     *  This address is the 7-bit right-justified slave address and does
 526:Generated_Source\PSoC4/I2C_1_EZI2C.c ****     *  not include the R/W bit.
 527:Generated_Source\PSoC4/I2C_1_EZI2C.c ****     *
 528:Generated_Source\PSoC4/I2C_1_EZI2C.c ****     * \return
 529:Generated_Source\PSoC4/I2C_1_EZI2C.c ****     *  Value of RX MATCH register.
 530:Generated_Source\PSoC4/I2C_1_EZI2C.c ****     *
 531:Generated_Source\PSoC4/I2C_1_EZI2C.c ****     *******************************************************************************/
 532:Generated_Source\PSoC4/I2C_1_EZI2C.c ****     static uint32 I2C_1_EzI2CUpdateRxMatchReg(uint32 addr1, uint32 addr2)
 533:Generated_Source\PSoC4/I2C_1_EZI2C.c ****     {
 811              		.loc 1 533 0
 812              		.cfi_startproc
 813              		@ args = 0, pretend = 0, frame = 16
 814              		@ frame_needed = 1, uses_anonymous_args = 0
 815 0000 80B5     		push	{r7, lr}
 816              		.cfi_def_cfa_offset 8
 817              		.cfi_offset 7, -8
 818              		.cfi_offset 14, -4
 819 0002 84B0     		sub	sp, sp, #16
 820              		.cfi_def_cfa_offset 24
 821 0004 00AF     		add	r7, sp, #0
 822              		.cfi_def_cfa_register 7
 823 0006 7860     		str	r0, [r7, #4]
 824 0008 3960     		str	r1, [r7]
 534:Generated_Source\PSoC4/I2C_1_EZI2C.c ****         uint32 matchReg;
 535:Generated_Source\PSoC4/I2C_1_EZI2C.c **** 
ARM GAS  C:\Users\sergio\AppData\Local\Temp\cchSrVJR.s 			page 26


 536:Generated_Source\PSoC4/I2C_1_EZI2C.c ****         matchReg  = ~(addr1 ^ addr2); /* If (addr1 and addr2) bit matches - mask bit equals 1, in o
 825              		.loc 1 536 0
 826 000a 7A68     		ldr	r2, [r7, #4]
 827 000c 3B68     		ldr	r3, [r7]
 828 000e 5340     		eors	r3, r2
 829 0010 DB43     		mvns	r3, r3
 830 0012 FB60     		str	r3, [r7, #12]
 537:Generated_Source\PSoC4/I2C_1_EZI2C.c **** 
 538:Generated_Source\PSoC4/I2C_1_EZI2C.c ****         matchReg  = (uint32) (I2C_1_GET_I2C_8BIT_ADDRESS(matchReg) << I2C_1_RX_MATCH_MASK_POS);
 831              		.loc 1 538 0
 832 0014 FB68     		ldr	r3, [r7, #12]
 833 0016 5A04     		lsls	r2, r3, #17
 834 0018 FF23     		movs	r3, #255
 835 001a 1B04     		lsls	r3, r3, #16
 836 001c 1340     		ands	r3, r2
 837 001e FB60     		str	r3, [r7, #12]
 539:Generated_Source\PSoC4/I2C_1_EZI2C.c ****         matchReg |= I2C_1_GET_I2C_8BIT_ADDRESS(addr1);
 838              		.loc 1 539 0
 839 0020 7B68     		ldr	r3, [r7, #4]
 840 0022 5B00     		lsls	r3, r3, #1
 841 0024 FF22     		movs	r2, #255
 842 0026 1340     		ands	r3, r2
 843 0028 FA68     		ldr	r2, [r7, #12]
 844 002a 1343     		orrs	r3, r2
 845 002c FB60     		str	r3, [r7, #12]
 540:Generated_Source\PSoC4/I2C_1_EZI2C.c **** 
 541:Generated_Source\PSoC4/I2C_1_EZI2C.c ****         return(matchReg);
 846              		.loc 1 541 0
 847 002e FB68     		ldr	r3, [r7, #12]
 542:Generated_Source\PSoC4/I2C_1_EZI2C.c ****     }
 848              		.loc 1 542 0
 849 0030 1800     		movs	r0, r3
 850 0032 BD46     		mov	sp, r7
 851 0034 04B0     		add	sp, sp, #16
 852              		@ sp needed
 853 0036 80BD     		pop	{r7, pc}
 854              		.cfi_endproc
 855              	.LFE9:
 856              		.size	I2C_1_EzI2CUpdateRxMatchReg, .-I2C_1_EzI2CUpdateRxMatchReg
 857              		.section	.text.I2C_1_EzI2CSetAddress2,"ax",%progbits
 858              		.align	2
 859              		.global	I2C_1_EzI2CSetAddress2
 860              		.code	16
 861              		.thumb_func
 862              		.type	I2C_1_EzI2CSetAddress2, %function
 863              	I2C_1_EzI2CSetAddress2:
 864              	.LFB10:
 543:Generated_Source\PSoC4/I2C_1_EZI2C.c **** 
 544:Generated_Source\PSoC4/I2C_1_EZI2C.c ****     /*******************************************************************************
 545:Generated_Source\PSoC4/I2C_1_EZI2C.c ****     * Function Name: I2C_1_EzI2CSetAddress2
 546:Generated_Source\PSoC4/I2C_1_EZI2C.c ****     ****************************************************************************//**
 547:Generated_Source\PSoC4/I2C_1_EZI2C.c ****     *
 548:Generated_Source\PSoC4/I2C_1_EZI2C.c ****     *  Sets the secondary EZI2C slave address.
 549:Generated_Source\PSoC4/I2C_1_EZI2C.c ****     *
 550:Generated_Source\PSoC4/I2C_1_EZI2C.c ****     * \param address: secondary I2C slave address.
 551:Generated_Source\PSoC4/I2C_1_EZI2C.c ****     *  This address is the 7-bit right-justified slave address and does not 
 552:Generated_Source\PSoC4/I2C_1_EZI2C.c ****     *  include the R/W bit.
ARM GAS  C:\Users\sergio\AppData\Local\Temp\cchSrVJR.s 			page 27


 553:Generated_Source\PSoC4/I2C_1_EZI2C.c ****     *  The address value is not checked to see if it violates the I2C spec. 
 554:Generated_Source\PSoC4/I2C_1_EZI2C.c ****     *  The preferred addresses are in the range between 8 and 120 (0x08 to 0x78).
 555:Generated_Source\PSoC4/I2C_1_EZI2C.c ****     *
 556:Generated_Source\PSoC4/I2C_1_EZI2C.c ****     * \globalvars
 557:Generated_Source\PSoC4/I2C_1_EZI2C.c ****     *  I2C_1_addrBuf2 - used to store the secondary 7-bit slave address 
 558:Generated_Source\PSoC4/I2C_1_EZI2C.c ****     *  value.
 559:Generated_Source\PSoC4/I2C_1_EZI2C.c ****     *
 560:Generated_Source\PSoC4/I2C_1_EZI2C.c ****     *******************************************************************************/
 561:Generated_Source\PSoC4/I2C_1_EZI2C.c ****     void I2C_1_EzI2CSetAddress2(uint32 address)
 562:Generated_Source\PSoC4/I2C_1_EZI2C.c ****     {
 865              		.loc 1 562 0
 866              		.cfi_startproc
 867              		@ args = 0, pretend = 0, frame = 8
 868              		@ frame_needed = 1, uses_anonymous_args = 0
 869 0000 90B5     		push	{r4, r7, lr}
 870              		.cfi_def_cfa_offset 12
 871              		.cfi_offset 4, -12
 872              		.cfi_offset 7, -8
 873              		.cfi_offset 14, -4
 874 0002 83B0     		sub	sp, sp, #12
 875              		.cfi_def_cfa_offset 24
 876 0004 00AF     		add	r7, sp, #0
 877              		.cfi_def_cfa_register 7
 878 0006 7860     		str	r0, [r7, #4]
 563:Generated_Source\PSoC4/I2C_1_EZI2C.c ****         I2C_1_addrBuf2 = (uint8) address;
 879              		.loc 1 563 0
 880 0008 7B68     		ldr	r3, [r7, #4]
 881 000a DAB2     		uxtb	r2, r3
 882 000c 084B     		ldr	r3, .L61
 883 000e 1A70     		strb	r2, [r3]
 564:Generated_Source\PSoC4/I2C_1_EZI2C.c **** 
 565:Generated_Source\PSoC4/I2C_1_EZI2C.c ****         I2C_1_RX_MATCH_REG = 
 884              		.loc 1 565 0
 885 0010 084C     		ldr	r4, .L61+4
 566:Generated_Source\PSoC4/I2C_1_EZI2C.c ****                         I2C_1_EzI2CUpdateRxMatchReg((uint32) I2C_1_addrBuf1, address);
 886              		.loc 1 566 0
 887 0012 094B     		ldr	r3, .L61+8
 888 0014 1B78     		ldrb	r3, [r3]
 889 0016 1A00     		movs	r2, r3
 890 0018 7B68     		ldr	r3, [r7, #4]
 891 001a 1900     		movs	r1, r3
 892 001c 1000     		movs	r0, r2
 893 001e FFF7FEFF 		bl	I2C_1_EzI2CUpdateRxMatchReg
 894 0022 0300     		movs	r3, r0
 565:Generated_Source\PSoC4/I2C_1_EZI2C.c ****                         I2C_1_EzI2CUpdateRxMatchReg((uint32) I2C_1_addrBuf1, address);
 895              		.loc 1 565 0
 896 0024 2360     		str	r3, [r4]
 567:Generated_Source\PSoC4/I2C_1_EZI2C.c ****     }
 897              		.loc 1 567 0
 898 0026 C046     		nop
 899 0028 BD46     		mov	sp, r7
 900 002a 03B0     		add	sp, sp, #12
 901              		@ sp needed
 902 002c 90BD     		pop	{r4, r7, pc}
 903              	.L62:
 904 002e C046     		.align	2
 905              	.L61:
ARM GAS  C:\Users\sergio\AppData\Local\Temp\cchSrVJR.s 			page 28


 906 0030 00000000 		.word	I2C_1_addrBuf2
 907 0034 10032440 		.word	1076101904
 908 0038 00000000 		.word	I2C_1_addrBuf1
 909              		.cfi_endproc
 910              	.LFE10:
 911              		.size	I2C_1_EzI2CSetAddress2, .-I2C_1_EzI2CSetAddress2
 912              		.section	.text.I2C_1_EzI2CGetAddress2,"ax",%progbits
 913              		.align	2
 914              		.global	I2C_1_EzI2CGetAddress2
 915              		.code	16
 916              		.thumb_func
 917              		.type	I2C_1_EzI2CGetAddress2, %function
 918              	I2C_1_EzI2CGetAddress2:
 919              	.LFB11:
 568:Generated_Source\PSoC4/I2C_1_EZI2C.c **** 
 569:Generated_Source\PSoC4/I2C_1_EZI2C.c **** 
 570:Generated_Source\PSoC4/I2C_1_EZI2C.c ****     /*******************************************************************************
 571:Generated_Source\PSoC4/I2C_1_EZI2C.c ****     * Function Name: I2C_1_EzI2CGetAddress2
 572:Generated_Source\PSoC4/I2C_1_EZI2C.c ****     ****************************************************************************//**
 573:Generated_Source\PSoC4/I2C_1_EZI2C.c ****     *
 574:Generated_Source\PSoC4/I2C_1_EZI2C.c ****     *  Returns the secondary EZ I2C slave address.
 575:Generated_Source\PSoC4/I2C_1_EZI2C.c ****     *  This address is the 7-bit right-justified slave address and does not include 
 576:Generated_Source\PSoC4/I2C_1_EZI2C.c ****     *  the R/W bit.
 577:Generated_Source\PSoC4/I2C_1_EZI2C.c ****     *
 578:Generated_Source\PSoC4/I2C_1_EZI2C.c ****     * \return
 579:Generated_Source\PSoC4/I2C_1_EZI2C.c ****     *  Secondary I2C slave address.
 580:Generated_Source\PSoC4/I2C_1_EZI2C.c ****     *
 581:Generated_Source\PSoC4/I2C_1_EZI2C.c ****     * \globalvars
 582:Generated_Source\PSoC4/I2C_1_EZI2C.c ****     *  I2C_1_addrBuf2 - used to store the secondary 7-bit slave address 
 583:Generated_Source\PSoC4/I2C_1_EZI2C.c ****     *  value.
 584:Generated_Source\PSoC4/I2C_1_EZI2C.c ****     *
 585:Generated_Source\PSoC4/I2C_1_EZI2C.c ****     *******************************************************************************/
 586:Generated_Source\PSoC4/I2C_1_EZI2C.c ****     uint32 I2C_1_EzI2CGetAddress2(void)
 587:Generated_Source\PSoC4/I2C_1_EZI2C.c ****     {
 920              		.loc 1 587 0
 921              		.cfi_startproc
 922              		@ args = 0, pretend = 0, frame = 0
 923              		@ frame_needed = 1, uses_anonymous_args = 0
 924 0000 80B5     		push	{r7, lr}
 925              		.cfi_def_cfa_offset 8
 926              		.cfi_offset 7, -8
 927              		.cfi_offset 14, -4
 928 0002 00AF     		add	r7, sp, #0
 929              		.cfi_def_cfa_register 7
 588:Generated_Source\PSoC4/I2C_1_EZI2C.c ****         return((uint32) I2C_1_addrBuf2);
 930              		.loc 1 588 0
 931 0004 024B     		ldr	r3, .L65
 932 0006 1B78     		ldrb	r3, [r3]
 589:Generated_Source\PSoC4/I2C_1_EZI2C.c ****     }
 933              		.loc 1 589 0
 934 0008 1800     		movs	r0, r3
 935 000a BD46     		mov	sp, r7
 936              		@ sp needed
 937 000c 80BD     		pop	{r7, pc}
 938              	.L66:
 939 000e C046     		.align	2
 940              	.L65:
ARM GAS  C:\Users\sergio\AppData\Local\Temp\cchSrVJR.s 			page 29


 941 0010 00000000 		.word	I2C_1_addrBuf2
 942              		.cfi_endproc
 943              	.LFE11:
 944              		.size	I2C_1_EzI2CGetAddress2, .-I2C_1_EzI2CGetAddress2
 945              		.section	.text.I2C_1_EzI2CSetBuffer2,"ax",%progbits
 946              		.align	2
 947              		.global	I2C_1_EzI2CSetBuffer2
 948              		.code	16
 949              		.thumb_func
 950              		.type	I2C_1_EzI2CSetBuffer2, %function
 951              	I2C_1_EzI2CSetBuffer2:
 952              	.LFB12:
 590:Generated_Source\PSoC4/I2C_1_EZI2C.c **** 
 591:Generated_Source\PSoC4/I2C_1_EZI2C.c **** 
 592:Generated_Source\PSoC4/I2C_1_EZI2C.c ****     /*******************************************************************************
 593:Generated_Source\PSoC4/I2C_1_EZI2C.c ****     * Function Name: I2C_1_EzI2CSetBuffer2
 594:Generated_Source\PSoC4/I2C_1_EZI2C.c ****     ****************************************************************************//**
 595:Generated_Source\PSoC4/I2C_1_EZI2C.c ****     *
 596:Generated_Source\PSoC4/I2C_1_EZI2C.c ****     *  Sets up the data buffer to be exposed to the I2C master on a secondary slave
 597:Generated_Source\PSoC4/I2C_1_EZI2C.c ****     *  address request.
 598:Generated_Source\PSoC4/I2C_1_EZI2C.c ****     *
 599:Generated_Source\PSoC4/I2C_1_EZI2C.c ****     * \param bufSize: Size of the buffer in bytes.
 600:Generated_Source\PSoC4/I2C_1_EZI2C.c ****     * \param rwBoundary: Number of data bytes starting from the beginning of the 
 601:Generated_Source\PSoC4/I2C_1_EZI2C.c ****     *  buffer with read and write access. Data bytes located at offset rwBoundary 
 602:Generated_Source\PSoC4/I2C_1_EZI2C.c ****     *  or greater are read only.
 603:Generated_Source\PSoC4/I2C_1_EZI2C.c ****     *  This value must be less than or equal to the buffer size.
 604:Generated_Source\PSoC4/I2C_1_EZI2C.c ****     * \param buffer: Pointer to the data buffer.
 605:Generated_Source\PSoC4/I2C_1_EZI2C.c ****     *
 606:Generated_Source\PSoC4/I2C_1_EZI2C.c ****     * \sideeffects
 607:Generated_Source\PSoC4/I2C_1_EZI2C.c ****     *  Calling this function in the middle of a transaction intended for the 
 608:Generated_Source\PSoC4/I2C_1_EZI2C.c ****     *  secondary slave address leads to unexpected behavior.
 609:Generated_Source\PSoC4/I2C_1_EZI2C.c ****     *
 610:Generated_Source\PSoC4/I2C_1_EZI2C.c ****     * \globalvars
 611:Generated_Source\PSoC4/I2C_1_EZI2C.c ****     *  I2C_1_dataBuffer2 – the pointer to the buffer to be exposed to the
 612:Generated_Source\PSoC4/I2C_1_EZI2C.c ****     *  master on a secondary address.
 613:Generated_Source\PSoC4/I2C_1_EZI2C.c ****     *  I2C_1_bufSizeBuf2 - the size of the buffer to be exposed to the 
 614:Generated_Source\PSoC4/I2C_1_EZI2C.c ****     *  master on a secondary address.
 615:Generated_Source\PSoC4/I2C_1_EZI2C.c ****     *  I2C_1_protectBuf2 - the start index of the read-only region in the
 616:Generated_Source\PSoC4/I2C_1_EZI2C.c ****     *  buffer to be exposed to the master on a secondary address. The read-only 
 617:Generated_Source\PSoC4/I2C_1_EZI2C.c ****     *  region continues up to the end the buffer.
 618:Generated_Source\PSoC4/I2C_1_EZI2C.c ****     *
 619:Generated_Source\PSoC4/I2C_1_EZI2C.c ****     *******************************************************************************/
 620:Generated_Source\PSoC4/I2C_1_EZI2C.c ****     void I2C_1_EzI2CSetBuffer2(uint32 bufSize, uint32 rwBoundary, volatile uint8 * buffer)
 621:Generated_Source\PSoC4/I2C_1_EZI2C.c ****     {
 953              		.loc 1 621 0
 954              		.cfi_startproc
 955              		@ args = 0, pretend = 0, frame = 16
 956              		@ frame_needed = 1, uses_anonymous_args = 0
 957 0000 80B5     		push	{r7, lr}
 958              		.cfi_def_cfa_offset 8
 959              		.cfi_offset 7, -8
 960              		.cfi_offset 14, -4
 961 0002 84B0     		sub	sp, sp, #16
 962              		.cfi_def_cfa_offset 24
 963 0004 00AF     		add	r7, sp, #0
 964              		.cfi_def_cfa_register 7
 965 0006 F860     		str	r0, [r7, #12]
ARM GAS  C:\Users\sergio\AppData\Local\Temp\cchSrVJR.s 			page 30


 966 0008 B960     		str	r1, [r7, #8]
 967 000a 7A60     		str	r2, [r7, #4]
 622:Generated_Source\PSoC4/I2C_1_EZI2C.c ****         if (NULL != buffer)
 968              		.loc 1 622 0
 969 000c 7B68     		ldr	r3, [r7, #4]
 970 000e 002B     		cmp	r3, #0
 971 0010 10D0     		beq	.L69
 623:Generated_Source\PSoC4/I2C_1_EZI2C.c ****         {
 624:Generated_Source\PSoC4/I2C_1_EZI2C.c ****             I2C_1_DisableInt();  /* Lock from interruption */
 972              		.loc 1 624 0
 973 0012 0920     		movs	r0, #9
 974 0014 FFF7FEFF 		bl	CyIntDisable
 625:Generated_Source\PSoC4/I2C_1_EZI2C.c **** 
 626:Generated_Source\PSoC4/I2C_1_EZI2C.c ****             I2C_1_dataBuffer2 =  buffer;
 975              		.loc 1 626 0
 976 0018 084B     		ldr	r3, .L70
 977 001a 7A68     		ldr	r2, [r7, #4]
 978 001c 1A60     		str	r2, [r3]
 627:Generated_Source\PSoC4/I2C_1_EZI2C.c ****             I2C_1_bufSizeBuf2 = (uint16) bufSize;
 979              		.loc 1 627 0
 980 001e FB68     		ldr	r3, [r7, #12]
 981 0020 9AB2     		uxth	r2, r3
 982 0022 074B     		ldr	r3, .L70+4
 983 0024 1A80     		strh	r2, [r3]
 628:Generated_Source\PSoC4/I2C_1_EZI2C.c ****             I2C_1_protectBuf2 = (uint16) rwBoundary;
 984              		.loc 1 628 0
 985 0026 BB68     		ldr	r3, [r7, #8]
 986 0028 9AB2     		uxth	r2, r3
 987 002a 064B     		ldr	r3, .L70+8
 988 002c 1A80     		strh	r2, [r3]
 629:Generated_Source\PSoC4/I2C_1_EZI2C.c **** 
 630:Generated_Source\PSoC4/I2C_1_EZI2C.c ****             I2C_1_EnableInt();   /* Release lock */
 989              		.loc 1 630 0
 990 002e 0920     		movs	r0, #9
 991 0030 FFF7FEFF 		bl	CyIntEnable
 992              	.L69:
 631:Generated_Source\PSoC4/I2C_1_EZI2C.c ****         }
 632:Generated_Source\PSoC4/I2C_1_EZI2C.c ****     }
 993              		.loc 1 632 0
 994 0034 C046     		nop
 995 0036 BD46     		mov	sp, r7
 996 0038 04B0     		add	sp, sp, #16
 997              		@ sp needed
 998 003a 80BD     		pop	{r7, pc}
 999              	.L71:
 1000              		.align	2
 1001              	.L70:
 1002 003c 00000000 		.word	I2C_1_dataBuffer2
 1003 0040 00000000 		.word	I2C_1_bufSizeBuf2
 1004 0044 00000000 		.word	I2C_1_protectBuf2
 1005              		.cfi_endproc
 1006              	.LFE12:
 1007              		.size	I2C_1_EzI2CSetBuffer2, .-I2C_1_EzI2CSetBuffer2
 1008              		.section	.text.I2C_1_EzI2CSetReadBoundaryBuffer2,"ax",%progbits
 1009              		.align	2
 1010              		.global	I2C_1_EzI2CSetReadBoundaryBuffer2
 1011              		.code	16
ARM GAS  C:\Users\sergio\AppData\Local\Temp\cchSrVJR.s 			page 31


 1012              		.thumb_func
 1013              		.type	I2C_1_EzI2CSetReadBoundaryBuffer2, %function
 1014              	I2C_1_EzI2CSetReadBoundaryBuffer2:
 1015              	.LFB13:
 633:Generated_Source\PSoC4/I2C_1_EZI2C.c **** 
 634:Generated_Source\PSoC4/I2C_1_EZI2C.c **** 
 635:Generated_Source\PSoC4/I2C_1_EZI2C.c ****     /*******************************************************************************
 636:Generated_Source\PSoC4/I2C_1_EZI2C.c ****     * Function Name: I2C_1_EzI2CSetReadBoundaryBuffer2
 637:Generated_Source\PSoC4/I2C_1_EZI2C.c ****     ****************************************************************************//**
 638:Generated_Source\PSoC4/I2C_1_EZI2C.c ****     *
 639:Generated_Source\PSoC4/I2C_1_EZI2C.c ****     *  Sets the read only boundary in the data buffer to be exposed to the I2C
 640:Generated_Source\PSoC4/I2C_1_EZI2C.c ****     *  master on a secondary address request.
 641:Generated_Source\PSoC4/I2C_1_EZI2C.c ****     *
 642:Generated_Source\PSoC4/I2C_1_EZI2C.c ****     *  \param rwBoundary: Number of data bytes starting from the beginning of the
 643:Generated_Source\PSoC4/I2C_1_EZI2C.c ****     *   buffer with read and write access. Data bytes located at offset rwBoundary 
 644:Generated_Source\PSoC4/I2C_1_EZI2C.c ****     *   or greater are read only.
 645:Generated_Source\PSoC4/I2C_1_EZI2C.c ****     *   This value must be less than or equal to the buffer size.
 646:Generated_Source\PSoC4/I2C_1_EZI2C.c ****     *
 647:Generated_Source\PSoC4/I2C_1_EZI2C.c ****     *  \sideeffect
 648:Generated_Source\PSoC4/I2C_1_EZI2C.c ****     *   Calling this function in the middle of a transaction intended for the 
 649:Generated_Source\PSoC4/I2C_1_EZI2C.c ****     *   secondary slave address leads to unexpected behavior.
 650:Generated_Source\PSoC4/I2C_1_EZI2C.c ****     *
 651:Generated_Source\PSoC4/I2C_1_EZI2C.c ****     * \globalvars
 652:Generated_Source\PSoC4/I2C_1_EZI2C.c ****     *  I2C_1_protectBuf2 - the start index of the read-only region in the
 653:Generated_Source\PSoC4/I2C_1_EZI2C.c ****     *  buffer to be exposed to the master on a secondary address. The read-only 
 654:Generated_Source\PSoC4/I2C_1_EZI2C.c ****     *  region continues up to the end the buffe
 655:Generated_Source\PSoC4/I2C_1_EZI2C.c ****     *
 656:Generated_Source\PSoC4/I2C_1_EZI2C.c ****     *******************************************************************************/
 657:Generated_Source\PSoC4/I2C_1_EZI2C.c ****     void I2C_1_EzI2CSetReadBoundaryBuffer2(uint32 rwBoundary)
 658:Generated_Source\PSoC4/I2C_1_EZI2C.c ****     {
 1016              		.loc 1 658 0
 1017              		.cfi_startproc
 1018              		@ args = 0, pretend = 0, frame = 8
 1019              		@ frame_needed = 1, uses_anonymous_args = 0
 1020 0000 80B5     		push	{r7, lr}
 1021              		.cfi_def_cfa_offset 8
 1022              		.cfi_offset 7, -8
 1023              		.cfi_offset 14, -4
 1024 0002 82B0     		sub	sp, sp, #8
 1025              		.cfi_def_cfa_offset 16
 1026 0004 00AF     		add	r7, sp, #0
 1027              		.cfi_def_cfa_register 7
 1028 0006 7860     		str	r0, [r7, #4]
 659:Generated_Source\PSoC4/I2C_1_EZI2C.c ****         I2C_1_protectBuf2 = (uint16) rwBoundary;
 1029              		.loc 1 659 0
 1030 0008 7B68     		ldr	r3, [r7, #4]
 1031 000a 9AB2     		uxth	r2, r3
 1032 000c 024B     		ldr	r3, .L73
 1033 000e 1A80     		strh	r2, [r3]
 660:Generated_Source\PSoC4/I2C_1_EZI2C.c ****     }
 1034              		.loc 1 660 0
 1035 0010 C046     		nop
 1036 0012 BD46     		mov	sp, r7
 1037 0014 02B0     		add	sp, sp, #8
 1038              		@ sp needed
 1039 0016 80BD     		pop	{r7, pc}
 1040              	.L74:
ARM GAS  C:\Users\sergio\AppData\Local\Temp\cchSrVJR.s 			page 32


 1041              		.align	2
 1042              	.L73:
 1043 0018 00000000 		.word	I2C_1_protectBuf2
 1044              		.cfi_endproc
 1045              	.LFE13:
 1046              		.size	I2C_1_EzI2CSetReadBoundaryBuffer2, .-I2C_1_EzI2CSetReadBoundaryBuffer2
 1047              		.section	.text.I2C_1_EzI2CSaveConfig,"ax",%progbits
 1048              		.align	2
 1049              		.global	I2C_1_EzI2CSaveConfig
 1050              		.code	16
 1051              		.thumb_func
 1052              		.type	I2C_1_EzI2CSaveConfig, %function
 1053              	I2C_1_EzI2CSaveConfig:
 1054              	.LFB14:
 661:Generated_Source\PSoC4/I2C_1_EZI2C.c **** 
 662:Generated_Source\PSoC4/I2C_1_EZI2C.c **** #endif /* (I2C_1_SECONDARY_ADDRESS_ENABLE_CONST) */
 663:Generated_Source\PSoC4/I2C_1_EZI2C.c **** 
 664:Generated_Source\PSoC4/I2C_1_EZI2C.c **** 
 665:Generated_Source\PSoC4/I2C_1_EZI2C.c **** #if(I2C_1_EZI2C_WAKE_ENABLE_CONST)
 666:Generated_Source\PSoC4/I2C_1_EZI2C.c ****     /*******************************************************************************
 667:Generated_Source\PSoC4/I2C_1_EZI2C.c ****     * Function Name: I2C_1_EzI2CSaveConfig
 668:Generated_Source\PSoC4/I2C_1_EZI2C.c ****     ****************************************************************************//**
 669:Generated_Source\PSoC4/I2C_1_EZI2C.c ****     *
 670:Generated_Source\PSoC4/I2C_1_EZI2C.c ****     *  Clock stretching is  enabled: Enables INTR_I2C_EC.WAKE_UP interrupt source.
 671:Generated_Source\PSoC4/I2C_1_EZI2C.c ****     *  It triggers on the slave address match.
 672:Generated_Source\PSoC4/I2C_1_EZI2C.c ****     *  Clock stretching is disabled: Waits until the I2C slave becomes free and
 673:Generated_Source\PSoC4/I2C_1_EZI2C.c ****     *  disables the block to perform reconfiguration from the active mode operation
 674:Generated_Source\PSoC4/I2C_1_EZI2C.c ****     *  to deep sleep with wake up on the address match: enables INTR_I2C_EC.WAKE_UP
 675:Generated_Source\PSoC4/I2C_1_EZI2C.c ****     *  interrupt source and disables the INTR_S and INTR_TX interrupt sources.
 676:Generated_Source\PSoC4/I2C_1_EZI2C.c ****     *  The block is disabled before reconfiguration and enabled when
 677:Generated_Source\PSoC4/I2C_1_EZI2C.c ****     *  it is completed.
 678:Generated_Source\PSoC4/I2C_1_EZI2C.c ****     *
 679:Generated_Source\PSoC4/I2C_1_EZI2C.c ****     *******************************************************************************/
 680:Generated_Source\PSoC4/I2C_1_EZI2C.c ****     void I2C_1_EzI2CSaveConfig(void)
 681:Generated_Source\PSoC4/I2C_1_EZI2C.c ****     {
 1055              		.loc 1 681 0
 1056              		.cfi_startproc
 1057              		@ args = 0, pretend = 0, frame = 8
 1058              		@ frame_needed = 1, uses_anonymous_args = 0
 1059 0000 90B5     		push	{r4, r7, lr}
 1060              		.cfi_def_cfa_offset 12
 1061              		.cfi_offset 4, -12
 1062              		.cfi_offset 7, -8
 1063              		.cfi_offset 14, -4
 1064 0002 83B0     		sub	sp, sp, #12
 1065              		.cfi_def_cfa_offset 24
 1066 0004 00AF     		add	r7, sp, #0
 1067              		.cfi_def_cfa_register 7
 682:Generated_Source\PSoC4/I2C_1_EZI2C.c ****     #if(I2C_1_CY_SCBIP_V0)
 683:Generated_Source\PSoC4/I2C_1_EZI2C.c **** 
 684:Generated_Source\PSoC4/I2C_1_EZI2C.c ****         if(I2C_1_EZI2C_SCL_STRETCH_ENABLE)
 685:Generated_Source\PSoC4/I2C_1_EZI2C.c ****         {
 686:Generated_Source\PSoC4/I2C_1_EZI2C.c ****             /* Enable wakeup interrupt source on address match */
 687:Generated_Source\PSoC4/I2C_1_EZI2C.c ****             I2C_1_SetI2CExtClkInterruptMode(I2C_1_INTR_I2C_EC_WAKE_UP);
 688:Generated_Source\PSoC4/I2C_1_EZI2C.c ****         }
 689:Generated_Source\PSoC4/I2C_1_EZI2C.c ****         
 690:Generated_Source\PSoC4/I2C_1_EZI2C.c **** 
ARM GAS  C:\Users\sergio\AppData\Local\Temp\cchSrVJR.s 			page 33


 691:Generated_Source\PSoC4/I2C_1_EZI2C.c ****     #else
 692:Generated_Source\PSoC4/I2C_1_EZI2C.c ****         uint8 enableInt;
 693:Generated_Source\PSoC4/I2C_1_EZI2C.c **** 
 694:Generated_Source\PSoC4/I2C_1_EZI2C.c ****         enableInt = (uint8) I2C_1_INTR_I2C_EC_WAKE_UP;
 1068              		.loc 1 694 0
 1069 0006 FB1D     		adds	r3, r7, #7
 1070 0008 0122     		movs	r2, #1
 1071 000a 1A70     		strb	r2, [r3]
 695:Generated_Source\PSoC4/I2C_1_EZI2C.c **** 
 696:Generated_Source\PSoC4/I2C_1_EZI2C.c ****         if(I2C_1_EZI2C_SCL_STRETCH_ENABLE)
 1072              		.loc 1 696 0
 1073 000c 2F4B     		ldr	r3, .L82
 1074 000e 1B68     		ldr	r3, [r3]
 1075 0010 4022     		movs	r2, #64
 1076 0012 1340     		ands	r3, r2
 1077 0014 04D0     		beq	.L76
 697:Generated_Source\PSoC4/I2C_1_EZI2C.c ****         {
 698:Generated_Source\PSoC4/I2C_1_EZI2C.c ****         #if (I2C_1_SCB_CLK_INTERNAL)
 699:Generated_Source\PSoC4/I2C_1_EZI2C.c ****             /* Disable clock to internal address match logic. Ticket ID #187931 */
 700:Generated_Source\PSoC4/I2C_1_EZI2C.c ****             I2C_1_SCBCLK_Stop();
 701:Generated_Source\PSoC4/I2C_1_EZI2C.c ****         #endif /* (I2C_1_SCB_CLK_INTERNAL) */
 702:Generated_Source\PSoC4/I2C_1_EZI2C.c **** 
 703:Generated_Source\PSoC4/I2C_1_EZI2C.c ****             /* Enable interrupt source to wakeup device */
 704:Generated_Source\PSoC4/I2C_1_EZI2C.c ****             I2C_1_SetI2CExtClkInterruptMode(enableInt);
 1078              		.loc 1 704 0
 1079 0016 2E4B     		ldr	r3, .L82+4
 1080 0018 FA1D     		adds	r2, r7, #7
 1081 001a 1278     		ldrb	r2, [r2]
 1082 001c 1A60     		str	r2, [r3]
 705:Generated_Source\PSoC4/I2C_1_EZI2C.c ****         }
 706:Generated_Source\PSoC4/I2C_1_EZI2C.c ****         else
 707:Generated_Source\PSoC4/I2C_1_EZI2C.c ****         {
 708:Generated_Source\PSoC4/I2C_1_EZI2C.c ****             for(;;) /* Wait for end of transaction intended to slave */
 709:Generated_Source\PSoC4/I2C_1_EZI2C.c ****             {
 710:Generated_Source\PSoC4/I2C_1_EZI2C.c ****                 if(0u == (I2C_1_GetI2CExtClkInterruptSource() & I2C_1_INTR_I2C_EC_WAKE_UP))
 711:Generated_Source\PSoC4/I2C_1_EZI2C.c ****                 {
 712:Generated_Source\PSoC4/I2C_1_EZI2C.c ****                     enableInt = CyEnterCriticalSection();
 713:Generated_Source\PSoC4/I2C_1_EZI2C.c **** 
 714:Generated_Source\PSoC4/I2C_1_EZI2C.c ****                     if(0u == (I2C_1_GetI2CExtClkInterruptSource() & I2C_1_INTR_I2C_EC_WAKE_UP))
 715:Generated_Source\PSoC4/I2C_1_EZI2C.c ****                     {
 716:Generated_Source\PSoC4/I2C_1_EZI2C.c ****                         /* Attempts to set NACK command before disable block */
 717:Generated_Source\PSoC4/I2C_1_EZI2C.c ****                         I2C_1_I2C_SLAVE_GENERATE_NACK;
 718:Generated_Source\PSoC4/I2C_1_EZI2C.c **** 
 719:Generated_Source\PSoC4/I2C_1_EZI2C.c ****                         if(0u == (I2C_1_GetI2CExtClkInterruptSource() & I2C_1_INTR_I2C_EC_WAKE_UP))
 720:Generated_Source\PSoC4/I2C_1_EZI2C.c ****                         {
 721:Generated_Source\PSoC4/I2C_1_EZI2C.c ****                             /* NACK command was set before. It is safe to disable block */
 722:Generated_Source\PSoC4/I2C_1_EZI2C.c ****                             I2C_1_CTRL_REG &= (uint32) ~I2C_1_CTRL_ENABLED;
 723:Generated_Source\PSoC4/I2C_1_EZI2C.c ****                             I2C_1_DisableInt();
 724:Generated_Source\PSoC4/I2C_1_EZI2C.c **** 
 725:Generated_Source\PSoC4/I2C_1_EZI2C.c ****                             CyExitCriticalSection(enableInt);
 726:Generated_Source\PSoC4/I2C_1_EZI2C.c ****                             break;
 727:Generated_Source\PSoC4/I2C_1_EZI2C.c ****                         }
 728:Generated_Source\PSoC4/I2C_1_EZI2C.c ****                         else
 729:Generated_Source\PSoC4/I2C_1_EZI2C.c ****                         {
 730:Generated_Source\PSoC4/I2C_1_EZI2C.c ****                             /* Clear NACK command to prevent data NACK */
 731:Generated_Source\PSoC4/I2C_1_EZI2C.c ****                             I2C_1_I2C_SLAVE_CLEAR_NACK;
 732:Generated_Source\PSoC4/I2C_1_EZI2C.c ****                         }
ARM GAS  C:\Users\sergio\AppData\Local\Temp\cchSrVJR.s 			page 34


 733:Generated_Source\PSoC4/I2C_1_EZI2C.c ****                     }
 734:Generated_Source\PSoC4/I2C_1_EZI2C.c **** 
 735:Generated_Source\PSoC4/I2C_1_EZI2C.c ****                     CyExitCriticalSection(enableInt);
 736:Generated_Source\PSoC4/I2C_1_EZI2C.c ****                 }
 737:Generated_Source\PSoC4/I2C_1_EZI2C.c ****             }
 738:Generated_Source\PSoC4/I2C_1_EZI2C.c **** 
 739:Generated_Source\PSoC4/I2C_1_EZI2C.c ****             /* Disable all active mode interrupt sources */
 740:Generated_Source\PSoC4/I2C_1_EZI2C.c ****             I2C_1_SetTxInterruptMode(I2C_1_NO_INTR_SOURCES);
 741:Generated_Source\PSoC4/I2C_1_EZI2C.c ****             I2C_1_SetSlaveInterruptMode(I2C_1_NO_INTR_SOURCES);
 742:Generated_Source\PSoC4/I2C_1_EZI2C.c ****             I2C_1_ClearPendingInt();
 743:Generated_Source\PSoC4/I2C_1_EZI2C.c ****             I2C_1_EnableInt();
 744:Generated_Source\PSoC4/I2C_1_EZI2C.c **** 
 745:Generated_Source\PSoC4/I2C_1_EZI2C.c ****             /* Enable wakeup interrupt on address match */
 746:Generated_Source\PSoC4/I2C_1_EZI2C.c ****             I2C_1_SetI2CExtClkInterruptMode(I2C_1_INTR_I2C_EC_WAKE_UP);
 747:Generated_Source\PSoC4/I2C_1_EZI2C.c **** 
 748:Generated_Source\PSoC4/I2C_1_EZI2C.c ****             enableInt = CyEnterCriticalSection();
 749:Generated_Source\PSoC4/I2C_1_EZI2C.c **** 
 750:Generated_Source\PSoC4/I2C_1_EZI2C.c ****             I2C_1_CTRL_REG |= (uint32) I2C_1_CTRL_ENABLED;
 751:Generated_Source\PSoC4/I2C_1_EZI2C.c ****             I2C_1_I2C_SLAVE_GENERATE_NACK;
 752:Generated_Source\PSoC4/I2C_1_EZI2C.c **** 
 753:Generated_Source\PSoC4/I2C_1_EZI2C.c ****             CyExitCriticalSection(enableInt);
 754:Generated_Source\PSoC4/I2C_1_EZI2C.c ****         }
 755:Generated_Source\PSoC4/I2C_1_EZI2C.c ****         
 756:Generated_Source\PSoC4/I2C_1_EZI2C.c ****     #endif /* (I2C_1_CY_SCBIP_V0) */
 757:Generated_Source\PSoC4/I2C_1_EZI2C.c ****     }
 1083              		.loc 1 757 0
 1084 001e 52E0     		b	.L75
 1085              	.L76:
 710:Generated_Source\PSoC4/I2C_1_EZI2C.c ****                 {
 1086              		.loc 1 710 0
 1087 0020 2C4B     		ldr	r3, .L82+8
 1088 0022 1B68     		ldr	r3, [r3]
 1089 0024 0122     		movs	r2, #1
 1090 0026 1340     		ands	r3, r2
 1091 0028 FAD1     		bne	.L76
 712:Generated_Source\PSoC4/I2C_1_EZI2C.c **** 
 1092              		.loc 1 712 0
 1093 002a FC1D     		adds	r4, r7, #7
 1094 002c FFF7FEFF 		bl	CyEnterCriticalSection
 1095 0030 0300     		movs	r3, r0
 1096 0032 2370     		strb	r3, [r4]
 714:Generated_Source\PSoC4/I2C_1_EZI2C.c ****                     {
 1097              		.loc 1 714 0
 1098 0034 274B     		ldr	r3, .L82+8
 1099 0036 1B68     		ldr	r3, [r3]
 1100 0038 0122     		movs	r2, #1
 1101 003a 1340     		ands	r3, r2
 1102 003c 3DD1     		bne	.L79
 717:Generated_Source\PSoC4/I2C_1_EZI2C.c **** 
 1103              		.loc 1 717 0
 1104 003e 264B     		ldr	r3, .L82+12
 1105 0040 0222     		movs	r2, #2
 1106 0042 1A60     		str	r2, [r3]
 719:Generated_Source\PSoC4/I2C_1_EZI2C.c ****                         {
 1107              		.loc 1 719 0
 1108 0044 234B     		ldr	r3, .L82+8
 1109 0046 1B68     		ldr	r3, [r3]
ARM GAS  C:\Users\sergio\AppData\Local\Temp\cchSrVJR.s 			page 35


 1110 0048 0122     		movs	r2, #1
 1111 004a 1340     		ands	r3, r2
 1112 004c 32D1     		bne	.L80
 722:Generated_Source\PSoC4/I2C_1_EZI2C.c ****                             I2C_1_DisableInt();
 1113              		.loc 1 722 0
 1114 004e 234B     		ldr	r3, .L82+16
 1115 0050 224A     		ldr	r2, .L82+16
 1116 0052 1268     		ldr	r2, [r2]
 1117 0054 5200     		lsls	r2, r2, #1
 1118 0056 5208     		lsrs	r2, r2, #1
 1119 0058 1A60     		str	r2, [r3]
 723:Generated_Source\PSoC4/I2C_1_EZI2C.c **** 
 1120              		.loc 1 723 0
 1121 005a 0920     		movs	r0, #9
 1122 005c FFF7FEFF 		bl	CyIntDisable
 725:Generated_Source\PSoC4/I2C_1_EZI2C.c ****                             break;
 1123              		.loc 1 725 0
 1124 0060 FB1D     		adds	r3, r7, #7
 1125 0062 1B78     		ldrb	r3, [r3]
 1126 0064 1800     		movs	r0, r3
 1127 0066 FFF7FEFF 		bl	CyExitCriticalSection
 726:Generated_Source\PSoC4/I2C_1_EZI2C.c ****                         }
 1128              		.loc 1 726 0
 1129 006a C046     		nop
 740:Generated_Source\PSoC4/I2C_1_EZI2C.c ****             I2C_1_SetSlaveInterruptMode(I2C_1_NO_INTR_SOURCES);
 1130              		.loc 1 740 0
 1131 006c 1C4B     		ldr	r3, .L82+20
 1132 006e 0022     		movs	r2, #0
 1133 0070 1A60     		str	r2, [r3]
 741:Generated_Source\PSoC4/I2C_1_EZI2C.c ****             I2C_1_ClearPendingInt();
 1134              		.loc 1 741 0
 1135 0072 164B     		ldr	r3, .L82
 1136 0074 0022     		movs	r2, #0
 1137 0076 1A60     		str	r2, [r3]
 742:Generated_Source\PSoC4/I2C_1_EZI2C.c ****             I2C_1_EnableInt();
 1138              		.loc 1 742 0
 1139 0078 0920     		movs	r0, #9
 1140 007a FFF7FEFF 		bl	CyIntClearPending
 743:Generated_Source\PSoC4/I2C_1_EZI2C.c **** 
 1141              		.loc 1 743 0
 1142 007e 0920     		movs	r0, #9
 1143 0080 FFF7FEFF 		bl	CyIntEnable
 746:Generated_Source\PSoC4/I2C_1_EZI2C.c **** 
 1144              		.loc 1 746 0
 1145 0084 124B     		ldr	r3, .L82+4
 1146 0086 0122     		movs	r2, #1
 1147 0088 1A60     		str	r2, [r3]
 748:Generated_Source\PSoC4/I2C_1_EZI2C.c **** 
 1148              		.loc 1 748 0
 1149 008a FC1D     		adds	r4, r7, #7
 1150 008c FFF7FEFF 		bl	CyEnterCriticalSection
 1151 0090 0300     		movs	r3, r0
 1152 0092 2370     		strb	r3, [r4]
 750:Generated_Source\PSoC4/I2C_1_EZI2C.c ****             I2C_1_I2C_SLAVE_GENERATE_NACK;
 1153              		.loc 1 750 0
 1154 0094 114B     		ldr	r3, .L82+16
 1155 0096 114A     		ldr	r2, .L82+16
ARM GAS  C:\Users\sergio\AppData\Local\Temp\cchSrVJR.s 			page 36


 1156 0098 1268     		ldr	r2, [r2]
 1157 009a 8021     		movs	r1, #128
 1158 009c 0906     		lsls	r1, r1, #24
 1159 009e 0A43     		orrs	r2, r1
 1160 00a0 1A60     		str	r2, [r3]
 751:Generated_Source\PSoC4/I2C_1_EZI2C.c **** 
 1161              		.loc 1 751 0
 1162 00a2 0D4B     		ldr	r3, .L82+12
 1163 00a4 0222     		movs	r2, #2
 1164 00a6 1A60     		str	r2, [r3]
 753:Generated_Source\PSoC4/I2C_1_EZI2C.c ****         }
 1165              		.loc 1 753 0
 1166 00a8 FB1D     		adds	r3, r7, #7
 1167 00aa 1B78     		ldrb	r3, [r3]
 1168 00ac 1800     		movs	r0, r3
 1169 00ae FFF7FEFF 		bl	CyExitCriticalSection
 1170              		.loc 1 757 0
 1171 00b2 08E0     		b	.L75
 1172              	.L80:
 731:Generated_Source\PSoC4/I2C_1_EZI2C.c ****                         }
 1173              		.loc 1 731 0
 1174 00b4 084B     		ldr	r3, .L82+12
 1175 00b6 0022     		movs	r2, #0
 1176 00b8 1A60     		str	r2, [r3]
 1177              	.L79:
 735:Generated_Source\PSoC4/I2C_1_EZI2C.c ****                 }
 1178              		.loc 1 735 0
 1179 00ba FB1D     		adds	r3, r7, #7
 1180 00bc 1B78     		ldrb	r3, [r3]
 1181 00be 1800     		movs	r0, r3
 1182 00c0 FFF7FEFF 		bl	CyExitCriticalSection
 737:Generated_Source\PSoC4/I2C_1_EZI2C.c **** 
 1183              		.loc 1 737 0
 1184 00c4 ACE7     		b	.L76
 1185              	.L75:
 1186              		.loc 1 757 0
 1187 00c6 BD46     		mov	sp, r7
 1188 00c8 03B0     		add	sp, sp, #12
 1189              		@ sp needed
 1190 00ca 90BD     		pop	{r4, r7, pc}
 1191              	.L83:
 1192              		.align	2
 1193              	.L82:
 1194 00cc 480F2440 		.word	1076105032
 1195 00d0 880E2440 		.word	1076104840
 1196 00d4 800E2440 		.word	1076104832
 1197 00d8 6C002440 		.word	1076101228
 1198 00dc 00002440 		.word	1076101120
 1199 00e0 880F2440 		.word	1076105096
 1200              		.cfi_endproc
 1201              	.LFE14:
 1202              		.size	I2C_1_EzI2CSaveConfig, .-I2C_1_EzI2CSaveConfig
 1203              		.section	.text.I2C_1_EzI2CRestoreConfig,"ax",%progbits
 1204              		.align	2
 1205              		.global	I2C_1_EzI2CRestoreConfig
 1206              		.code	16
 1207              		.thumb_func
ARM GAS  C:\Users\sergio\AppData\Local\Temp\cchSrVJR.s 			page 37


 1208              		.type	I2C_1_EzI2CRestoreConfig, %function
 1209              	I2C_1_EzI2CRestoreConfig:
 1210              	.LFB15:
 758:Generated_Source\PSoC4/I2C_1_EZI2C.c **** 
 759:Generated_Source\PSoC4/I2C_1_EZI2C.c **** 
 760:Generated_Source\PSoC4/I2C_1_EZI2C.c ****     /*******************************************************************************
 761:Generated_Source\PSoC4/I2C_1_EZI2C.c ****     * Function Name: I2C_1_EzI2CRestoreConfig
 762:Generated_Source\PSoC4/I2C_1_EZI2C.c ****     ****************************************************************************//**
 763:Generated_Source\PSoC4/I2C_1_EZI2C.c ****     *
 764:Generated_Source\PSoC4/I2C_1_EZI2C.c ****     *  Clock stretching is  enabled: Disables the INTR_I2C_EC.WAKE_UP interrupt
 765:Generated_Source\PSoC4/I2C_1_EZI2C.c ****     *  source.
 766:Generated_Source\PSoC4/I2C_1_EZI2C.c ****     *  Clock stretching is disabled: Reconfigures the EZI2C component from
 767:Generated_Source\PSoC4/I2C_1_EZI2C.c ****     *  Deep Sleep (wake up on the address match) to active operation: disables
 768:Generated_Source\PSoC4/I2C_1_EZI2C.c ****     *  the INTR_I2C_EC.WAKE_UP interrupt source and restores the INTR_S
 769:Generated_Source\PSoC4/I2C_1_EZI2C.c ****     *  interrupt sources to operate in the active mode.
 770:Generated_Source\PSoC4/I2C_1_EZI2C.c ****     *  The block is disabled before reconfiguration and enabled when
 771:Generated_Source\PSoC4/I2C_1_EZI2C.c ****     *  it is completed.
 772:Generated_Source\PSoC4/I2C_1_EZI2C.c ****     *
 773:Generated_Source\PSoC4/I2C_1_EZI2C.c ****     *******************************************************************************/
 774:Generated_Source\PSoC4/I2C_1_EZI2C.c ****     void I2C_1_EzI2CRestoreConfig(void)
 775:Generated_Source\PSoC4/I2C_1_EZI2C.c ****     {
 1211              		.loc 1 775 0
 1212              		.cfi_startproc
 1213              		@ args = 0, pretend = 0, frame = 0
 1214              		@ frame_needed = 1, uses_anonymous_args = 0
 1215 0000 80B5     		push	{r7, lr}
 1216              		.cfi_def_cfa_offset 8
 1217              		.cfi_offset 7, -8
 1218              		.cfi_offset 14, -4
 1219 0002 00AF     		add	r7, sp, #0
 1220              		.cfi_def_cfa_register 7
 776:Generated_Source\PSoC4/I2C_1_EZI2C.c ****     #if(I2C_1_CY_SCBIP_V0)
 777:Generated_Source\PSoC4/I2C_1_EZI2C.c **** 
 778:Generated_Source\PSoC4/I2C_1_EZI2C.c ****         if(I2C_1_EZI2C_SCL_STRETCH_ENABLE)
 779:Generated_Source\PSoC4/I2C_1_EZI2C.c ****         {
 780:Generated_Source\PSoC4/I2C_1_EZI2C.c ****             /* Disable wakeup interrupt on address match */
 781:Generated_Source\PSoC4/I2C_1_EZI2C.c ****             I2C_1_SetI2CExtClkInterruptMode(I2C_1_NO_INTR_SOURCES);
 782:Generated_Source\PSoC4/I2C_1_EZI2C.c ****         }
 783:Generated_Source\PSoC4/I2C_1_EZI2C.c ****         
 784:Generated_Source\PSoC4/I2C_1_EZI2C.c **** 
 785:Generated_Source\PSoC4/I2C_1_EZI2C.c ****     #else
 786:Generated_Source\PSoC4/I2C_1_EZI2C.c **** 
 787:Generated_Source\PSoC4/I2C_1_EZI2C.c ****         if(I2C_1_EZI2C_SCL_STRETCH_ENABLE)
 1221              		.loc 1 787 0
 1222 0004 114B     		ldr	r3, .L88
 1223 0006 1B68     		ldr	r3, [r3]
 1224 0008 4022     		movs	r2, #64
 1225 000a 1340     		ands	r3, r2
 1226 000c 03D0     		beq	.L85
 788:Generated_Source\PSoC4/I2C_1_EZI2C.c ****         {
 789:Generated_Source\PSoC4/I2C_1_EZI2C.c ****             /* Disable wakeup interrupt source on address match */
 790:Generated_Source\PSoC4/I2C_1_EZI2C.c ****             I2C_1_SetI2CExtClkInterruptMode(I2C_1_NO_INTR_SOURCES);
 1227              		.loc 1 790 0
 1228 000e 104B     		ldr	r3, .L88+4
 1229 0010 0022     		movs	r2, #0
 1230 0012 1A60     		str	r2, [r3]
 791:Generated_Source\PSoC4/I2C_1_EZI2C.c **** 
ARM GAS  C:\Users\sergio\AppData\Local\Temp\cchSrVJR.s 			page 38


 792:Generated_Source\PSoC4/I2C_1_EZI2C.c ****         #if (I2C_1_SCB_CLK_INTERNAL)
 793:Generated_Source\PSoC4/I2C_1_EZI2C.c ****             /* Enable clock to internal address match logic. Ticket ID #187931 */
 794:Generated_Source\PSoC4/I2C_1_EZI2C.c ****             I2C_1_SCBCLK_Start();
 795:Generated_Source\PSoC4/I2C_1_EZI2C.c ****         #endif /* (I2C_1_SCB_CLK_INTERNAL) */
 796:Generated_Source\PSoC4/I2C_1_EZI2C.c ****         }
 797:Generated_Source\PSoC4/I2C_1_EZI2C.c ****         else
 798:Generated_Source\PSoC4/I2C_1_EZI2C.c ****         {
 799:Generated_Source\PSoC4/I2C_1_EZI2C.c ****             /* NACK will be driven on the bus by wakeup or NACK command.
 800:Generated_Source\PSoC4/I2C_1_EZI2C.c ****             * It is safe to disable block to restore active mode configuration.
 801:Generated_Source\PSoC4/I2C_1_EZI2C.c ****             */
 802:Generated_Source\PSoC4/I2C_1_EZI2C.c ****             I2C_1_CTRL_REG &= (uint32) ~I2C_1_CTRL_ENABLED;
 803:Generated_Source\PSoC4/I2C_1_EZI2C.c **** 
 804:Generated_Source\PSoC4/I2C_1_EZI2C.c ****             /* Restore active mode interrupt sources */
 805:Generated_Source\PSoC4/I2C_1_EZI2C.c ****             I2C_1_SetI2CExtClkInterruptMode(I2C_1_NO_INTR_SOURCES);
 806:Generated_Source\PSoC4/I2C_1_EZI2C.c ****             I2C_1_SetSlaveInterruptMode(I2C_1_EZI2C_INTR_SLAVE_MASK |
 807:Generated_Source\PSoC4/I2C_1_EZI2C.c ****                                                    I2C_1_INTR_SLAVE_I2C_START);
 808:Generated_Source\PSoC4/I2C_1_EZI2C.c ****             I2C_1_ClearPendingInt();
 809:Generated_Source\PSoC4/I2C_1_EZI2C.c **** 
 810:Generated_Source\PSoC4/I2C_1_EZI2C.c ****             I2C_1_CTRL_REG |= (uint32) I2C_1_CTRL_ENABLED;
 811:Generated_Source\PSoC4/I2C_1_EZI2C.c ****         }
 812:Generated_Source\PSoC4/I2C_1_EZI2C.c ****         
 813:Generated_Source\PSoC4/I2C_1_EZI2C.c **** 
 814:Generated_Source\PSoC4/I2C_1_EZI2C.c ****     #endif /* (I2C_1_CY_SCBIP_V0) */
 815:Generated_Source\PSoC4/I2C_1_EZI2C.c ****     }
 1231              		.loc 1 815 0
 1232 0014 16E0     		b	.L87
 1233              	.L85:
 802:Generated_Source\PSoC4/I2C_1_EZI2C.c **** 
 1234              		.loc 1 802 0
 1235 0016 0F4B     		ldr	r3, .L88+8
 1236 0018 0E4A     		ldr	r2, .L88+8
 1237 001a 1268     		ldr	r2, [r2]
 1238 001c 5200     		lsls	r2, r2, #1
 1239 001e 5208     		lsrs	r2, r2, #1
 1240 0020 1A60     		str	r2, [r3]
 805:Generated_Source\PSoC4/I2C_1_EZI2C.c ****             I2C_1_SetSlaveInterruptMode(I2C_1_EZI2C_INTR_SLAVE_MASK |
 1241              		.loc 1 805 0
 1242 0022 0B4B     		ldr	r3, .L88+4
 1243 0024 0022     		movs	r2, #0
 1244 0026 1A60     		str	r2, [r3]
 806:Generated_Source\PSoC4/I2C_1_EZI2C.c ****                                                    I2C_1_INTR_SLAVE_I2C_START);
 1245              		.loc 1 806 0
 1246 0028 084B     		ldr	r3, .L88
 1247 002a 3222     		movs	r2, #50
 1248 002c FF32     		adds	r2, r2, #255
 1249 002e 1A60     		str	r2, [r3]
 808:Generated_Source\PSoC4/I2C_1_EZI2C.c **** 
 1250              		.loc 1 808 0
 1251 0030 0920     		movs	r0, #9
 1252 0032 FFF7FEFF 		bl	CyIntClearPending
 810:Generated_Source\PSoC4/I2C_1_EZI2C.c ****         }
 1253              		.loc 1 810 0
 1254 0036 074B     		ldr	r3, .L88+8
 1255 0038 064A     		ldr	r2, .L88+8
 1256 003a 1268     		ldr	r2, [r2]
 1257 003c 8021     		movs	r1, #128
 1258 003e 0906     		lsls	r1, r1, #24
ARM GAS  C:\Users\sergio\AppData\Local\Temp\cchSrVJR.s 			page 39


 1259 0040 0A43     		orrs	r2, r1
 1260 0042 1A60     		str	r2, [r3]
 1261              	.L87:
 1262              		.loc 1 815 0
 1263 0044 C046     		nop
 1264 0046 BD46     		mov	sp, r7
 1265              		@ sp needed
 1266 0048 80BD     		pop	{r7, pc}
 1267              	.L89:
 1268 004a C046     		.align	2
 1269              	.L88:
 1270 004c 480F2440 		.word	1076105032
 1271 0050 880E2440 		.word	1076104840
 1272 0054 00002440 		.word	1076101120
 1273              		.cfi_endproc
 1274              	.LFE15:
 1275              		.size	I2C_1_EzI2CRestoreConfig, .-I2C_1_EzI2CRestoreConfig
 1276              		.text
 1277              	.Letext0:
 1278              		.file 2 "Generated_Source\\PSoC4/cytypes.h"
 1279              		.file 3 "Generated_Source\\PSoC4\\I2C_1_EZI2C.h"
 1280              		.file 4 "Generated_Source\\PSoC4\\I2C_1_PVT.h"