ARM GAS  C:\Users\sergio\AppData\Local\Temp\ccV5Q6Sf.s 			page 1


   1              		.syntax unified
   2              		.cpu cortex-m0
   3              		.fpu softvfp
   4              		.eabi_attribute 20, 1
   5              		.eabi_attribute 21, 1
   6              		.eabi_attribute 23, 3
   7              		.eabi_attribute 24, 1
   8              		.eabi_attribute 25, 1
   9              		.eabi_attribute 26, 1
  10              		.eabi_attribute 30, 6
  11              		.eabi_attribute 34, 0
  12              		.eabi_attribute 18, 4
  13              		.thumb
  14              		.syntax unified
  15              		.file	"main.c"
  16              		.text
  17              	.Ltext0:
  18              		.cfi_sections	.debug_frame
  19              		.comm	thermoHandle,12,4
  20              		.global	interruptFlag
  21              		.bss
  22              		.align	2
  23              		.type	interruptFlag, %object
  24              		.size	interruptFlag, 4
  25              	interruptFlag:
  26 0000 00000000 		.space	4
  27              		.global	isNotify
  28              		.type	isNotify, %object
  29              		.size	isNotify, 1
  30              	isNotify:
  31 0004 00       		.space	1
  32              		.global	updateIsNotifyCCCDAttr
  33              		.type	updateIsNotifyCCCDAttr, %object
  34              		.size	updateIsNotifyCCCDAttr, 1
  35              	updateIsNotifyCCCDAttr:
  36 0005 00       		.space	1
  37              		.global	bleConnected
  38              		.type	bleConnected, %object
  39              		.size	bleConnected, 1
  40              	bleConnected:
  41 0006 00       		.space	1
  42              		.comm	uartStr,50,4
  43              		.comm	sensorData,36,4
  44              		.comm	thermo,5,4
  45              		.global	setTemperature
  46              		.type	setTemperature, %object
  47              		.size	setTemperature, 1
  48              	setTemperature:
  49 0007 00       		.space	1
  50              		.section	.text.updateThermostatData,"ax",%progbits
  51              		.align	2
  52              		.global	updateThermostatData
  53              		.code	16
  54              		.thumb_func
  55              		.type	updateThermostatData, %function
  56              	updateThermostatData:
  57              	.LFB36:
ARM GAS  C:\Users\sergio\AppData\Local\Temp\ccV5Q6Sf.s 			page 2


  58              		.file 1 "main.c"
   1:main.c        **** /* ========================================
   2:main.c        ****  *
   3:main.c        ****  * Copyright YOUR COMPANY, THE YEAR
   4:main.c        ****  * All Rights Reserved
   5:main.c        ****  * UNPUBLISHED, LICENSED SOFTWARE.
   6:main.c        ****  *
   7:main.c        ****  * CONFIDENTIAL AND PROPRIETARY INFORMATION
   8:main.c        ****  * WHICH IS THE PROPERTY OF your company.
   9:main.c        ****  *
  10:main.c        ****  * ========================================
  11:main.c        **** */
  12:main.c        **** #include <project.h>
  13:main.c        **** 
  14:main.c        **** #include <stdio.h>
  15:main.c        **** #include <stdlib.h>
  16:main.c        **** 
  17:main.c        **** CYBLE_GATT_HANDLE_VALUE_PAIR_T thermoHandle;
  18:main.c        **** 
  19:main.c        **** // These are for the gpio exp.
  20:main.c        **** #define ADDR (0x70)
  21:main.c        **** #define REG_READ (0x00)
  22:main.c        **** #define REG_WRITE (0x01)
  23:main.c        **** #define REG_CONFIG (0x03)
  24:main.c        **** 
  25:main.c        **** #define ADDR_POWER1 (0x74)
  26:main.c        **** #define ADDR_POWER2 (0x75)
  27:main.c        **** #define ADDR_POWER3 (0x76)
  28:main.c        **** #define REG_POWER_VERSION (0x04)
  29:main.c        **** 
  30:main.c        **** int interruptFlag= 0;
  31:main.c        **** uint8 isNotify = 0;
  32:main.c        **** uint8 updateIsNotifyCCCDAttr = 0;
  33:main.c        **** uint8 bleConnected = 0;
  34:main.c        **** char uartStr[50];
  35:main.c        **** 
  36:main.c        **** typedef struct{
  37:main.c        ****     
  38:main.c        ****     uint8 localTemp;
  39:main.c        ****     uint8 remoteTemp1;
  40:main.c        ****     uint8 remoteTemp2; 
  41:main.c        ****     uint8 remoteTemp3;
  42:main.c        ****     uint8 remoteTemp4;
  43:main.c        ****     uint8 humidity;
  44:main.c        ****     uint16 voltCompressor;
  45:main.c        ****     uint16 voltFan;
  46:main.c        ****     uint16 volt;
  47:main.c        ****     uint32 currentCompressor;
  48:main.c        ****     uint32 currentFan; 
  49:main.c        ****     uint32 current;
  50:main.c        ****     uint16 lineFreqComp;
  51:main.c        ****     uint16 lineFreqFan;
  52:main.c        ****     uint16 lineFreq;
  53:main.c        ****     uint16 airFlow;
  54:main.c        ****     uint8 accX;
  55:main.c        ****     uint8 accY;
  56:main.c        ****     uint8 accZ;
ARM GAS  C:\Users\sergio\AppData\Local\Temp\ccV5Q6Sf.s 			page 3


  57:main.c        ****     
  58:main.c        **** }dataCollected;
  59:main.c        **** 
  60:main.c        ****  dataCollected sensorData;
  61:main.c        **** // 5 bytes
  62:main.c        **** typedef struct{
  63:main.c        ****     uint8 compressor;
  64:main.c        ****     uint8 fanLow;
  65:main.c        ****     uint8 fanHigh;
  66:main.c        ****     uint8 setTemperature;
  67:main.c        ****     uint8 ambientTemp;
  68:main.c        **** } thermostatData ;
  69:main.c        **** 
  70:main.c        ****  thermostatData thermo;
  71:main.c        **** 
  72:main.c        **** uint8 setTemperature = 0;
  73:main.c        **** 
  74:main.c        **** 
  75:main.c        **** // the address fro the temp sensor are 0x4C and 0x4D
  76:main.c        **** 
  77:main.c        **** void updateThermostatData(void){
  59              		.loc 1 77 0
  60              		.cfi_startproc
  61              		@ args = 0, pretend = 0, frame = 8
  62              		@ frame_needed = 1, uses_anonymous_args = 0
  63 0000 80B5     		push	{r7, lr}
  64              		.cfi_def_cfa_offset 8
  65              		.cfi_offset 7, -8
  66              		.cfi_offset 14, -4
  67 0002 82B0     		sub	sp, sp, #8
  68              		.cfi_def_cfa_offset 16
  69 0004 00AF     		add	r7, sp, #0
  70              		.cfi_def_cfa_register 7
  78:main.c        ****     
  79:main.c        ****     
  80:main.c        ****     uint8 thermoTemp[] = {thermo.compressor, thermo.fanLow, thermo.fanHigh,
  71              		.loc 1 80 0
  72 0006 154B     		ldr	r3, .L2
  73 0008 1A78     		ldrb	r2, [r3]
  74 000a 3B00     		movs	r3, r7
  75 000c 1A70     		strb	r2, [r3]
  76 000e 134B     		ldr	r3, .L2
  77 0010 5A78     		ldrb	r2, [r3, #1]
  78 0012 3B00     		movs	r3, r7
  79 0014 5A70     		strb	r2, [r3, #1]
  80 0016 114B     		ldr	r3, .L2
  81 0018 9A78     		ldrb	r2, [r3, #2]
  82 001a 3B00     		movs	r3, r7
  83 001c 9A70     		strb	r2, [r3, #2]
  81:main.c        ****     thermo.setTemperature, thermo.ambientTemp};
  84              		.loc 1 81 0
  85 001e 0F4B     		ldr	r3, .L2
  86 0020 DA78     		ldrb	r2, [r3, #3]
  80:main.c        ****     thermo.setTemperature, thermo.ambientTemp};
  87              		.loc 1 80 0
  88 0022 3B00     		movs	r3, r7
  89 0024 DA70     		strb	r2, [r3, #3]
ARM GAS  C:\Users\sergio\AppData\Local\Temp\ccV5Q6Sf.s 			page 4


  90              		.loc 1 81 0
  91 0026 0D4B     		ldr	r3, .L2
  92 0028 1A79     		ldrb	r2, [r3, #4]
  80:main.c        ****     thermo.setTemperature, thermo.ambientTemp};
  93              		.loc 1 80 0
  94 002a 3B00     		movs	r3, r7
  95 002c 1A71     		strb	r2, [r3, #4]
  82:main.c        ****     thermoHandle.attrHandle = CYBLE_RVAC_THERMOSTAT_THERMOCCCD_DESC_HANDLE;
  96              		.loc 1 82 0
  97 002e 0C4B     		ldr	r3, .L2+4
  98 0030 1722     		movs	r2, #23
  99 0032 1A81     		strh	r2, [r3, #8]
  83:main.c        ****     thermoHandle.value.val = (uint8 *) thermoTemp;
 100              		.loc 1 83 0
 101 0034 0A4B     		ldr	r3, .L2+4
 102 0036 3A00     		movs	r2, r7
 103 0038 1A60     		str	r2, [r3]
  84:main.c        ****     thermoHandle.value.len = 5; 
 104              		.loc 1 84 0
 105 003a 094B     		ldr	r3, .L2+4
 106 003c 0522     		movs	r2, #5
 107 003e 9A80     		strh	r2, [r3, #4]
  85:main.c        ****     thermoHandle.value.actualLen = 5; 
 108              		.loc 1 85 0
 109 0040 074B     		ldr	r3, .L2+4
 110 0042 0522     		movs	r2, #5
 111 0044 DA80     		strh	r2, [r3, #6]
  86:main.c        ****     
  87:main.c        ****     CyBle_GattsWriteAttributeValue(&thermoHandle, 0, &cyBle_connHandle, 0);
 112              		.loc 1 87 0
 113 0046 074A     		ldr	r2, .L2+8
 114 0048 0548     		ldr	r0, .L2+4
 115 004a 0023     		movs	r3, #0
 116 004c 0021     		movs	r1, #0
 117 004e FFF7FEFF 		bl	CyBle_GattsWriteAttributeValue
  88:main.c        **** }
 118              		.loc 1 88 0
 119 0052 C046     		nop
 120 0054 BD46     		mov	sp, r7
 121 0056 02B0     		add	sp, sp, #8
 122              		@ sp needed
 123 0058 80BD     		pop	{r7, pc}
 124              	.L3:
 125 005a C046     		.align	2
 126              	.L2:
 127 005c 00000000 		.word	thermo
 128 0060 00000000 		.word	thermoHandle
 129 0064 00000000 		.word	cyBle_connHandle
 130              		.cfi_endproc
 131              	.LFE36:
 132              		.size	updateThermostatData, .-updateThermostatData
 133              		.section	.rodata
 134              		.align	2
 135              	.LC8:
 136 0000 2D2D2D2D 		.ascii	"-----------------    comp %d   flow %d   dhigh %d\012"
 136      2D2D2D2D 
 136      2D2D2D2D 
ARM GAS  C:\Users\sergio\AppData\Local\Temp\ccV5Q6Sf.s 			page 5


 136      2D2D2D2D 
 136      2D202020 
 137 0032 00       		.ascii	"\000"
 138              		.section	.text.bleStack,"ax",%progbits
 139              		.align	2
 140              		.global	bleStack
 141              		.code	16
 142              		.thumb_func
 143              		.type	bleStack, %function
 144              	bleStack:
 145              	.LFB37:
  89:main.c        **** 
  90:main.c        **** void bleStack(uint32 event, void *eventParam){
 146              		.loc 1 90 0
 147              		.cfi_startproc
 148              		@ args = 0, pretend = 0, frame = 32
 149              		@ frame_needed = 1, uses_anonymous_args = 0
 150 0000 90B5     		push	{r4, r7, lr}
 151              		.cfi_def_cfa_offset 12
 152              		.cfi_offset 4, -12
 153              		.cfi_offset 7, -8
 154              		.cfi_offset 14, -4
 155 0002 8BB0     		sub	sp, sp, #44
 156              		.cfi_def_cfa_offset 56
 157 0004 02AF     		add	r7, sp, #8
 158              		.cfi_def_cfa 7, 48
 159 0006 7860     		str	r0, [r7, #4]
 160 0008 3960     		str	r1, [r7]
  91:main.c        ****     
  92:main.c        ****     CYBLE_GATTS_WRITE_REQ_PARAM_T wrReq;
  93:main.c        ****     CYBLE_API_RESULT_T apiResult;
  94:main.c        ****     CYBLE_GAP_BD_ADDR_T localAddr;
  95:main.c        ****     
  96:main.c        ****     switch(event){
 161              		.loc 1 96 0
 162 000a 7B68     		ldr	r3, [r7, #4]
 163 000c 282B     		cmp	r3, #40
 164 000e 14D0     		beq	.L6
 165 0010 05D8     		bhi	.L7
 166 0012 262B     		cmp	r3, #38
 167 0014 18D0     		beq	.L8
 168 0016 0DD8     		bhi	.L9
 169 0018 012B     		cmp	r3, #1
 170 001a 07D0     		beq	.L10
  97:main.c        ****     
  98:main.c        ****      
  99:main.c        ****         case CYBLE_EVT_STACK_ON:
 100:main.c        ****           CyBle_GappStartAdvertisement(CYBLE_ADVERTISING_FAST);
 101:main.c        **** //            if(apiResult != CYBLE_ERROR_OK){
 102:main.c        **** //            // DBG_PRINTF("Start Advertisement API Error: %d \r\n",apiResult);   
 103:main.c        **** //            }
 104:main.c        ****             //DBG_PRINTF("Bluetooth On, StartAdvertisement with addr: ");
 105:main.c        **** //            localAddr.type = 0u;
 106:main.c        **** //            CyBle_GetDeviceAddress(&localAddr);
 107:main.c        **** //            for(uint i = CYBLE_GAP_BD_ADDR_SIZE; i > 0u; i--)
 108:main.c        **** //            {
 109:main.c        **** //                DBG_PRINTF("%2.2x", localAddr.bdAddr[i-1]);
ARM GAS  C:\Users\sergio\AppData\Local\Temp\ccV5Q6Sf.s 			page 6


 110:main.c        **** //            }
 111:main.c        **** //            DBG_PRINTF("\r\n");
 112:main.c        ****             break; //(Claudio Modified) Is there a reason why we didn't have a break expression in 
 113:main.c        ****         case CYBLE_EVT_GAP_DEVICE_CONNECTED:
 114:main.c        ****             CyBle_GappStopAdvertisement(); 
 115:main.c        ****             break;
 116:main.c        ****         case CYBLE_EVT_GAP_DEVICE_DISCONNECTED:
 117:main.c        ****             CyBle_GappStartAdvertisement(CYBLE_ADVERTISING_FAST);
 118:main.c        ****             isNotify = 0;
 119:main.c        ****             break;
 120:main.c        ****         case CYBLE_EVT_GAPP_ADVERTISEMENT_START_STOP:
 121:main.c        ****              if(CyBle_GetState() == CYBLE_STATE_DISCONNECTED){
 122:main.c        ****                  CyBle_GappStartAdvertisement(CYBLE_SCANNING_FAST);
 123:main.c        ****             }
 124:main.c        ****             break;
 125:main.c        ****         case CYBLE_EVT_GATT_CONNECT_IND:
 126:main.c        ****             bleConnected = 1;
 127:main.c        ****             CyBle_GappStopAdvertisement();
 128:main.c        ****             break;
 129:main.c        ****         case CYBLE_EVT_GATT_DISCONNECT_IND:
 130:main.c        ****             isNotify = 0;
 131:main.c        ****             bleConnected = 0;
 132:main.c        ****             // Update the notifications CCCD
 133:main.c        ****             updateIsNotifyCCCDAttr = 1;
 134:main.c        ****             
 135:main.c        ****             // update the thermostat array with the thermosstat info.
 136:main.c        ****             // ex. themostat[0] = readSensor();
 137:main.c        ****             // update the data in the thermostat attibute
 138:main.c        ****             updateThermostatData();
 139:main.c        ****             
 140:main.c        ****            break;
 141:main.c        ****         case CYBLE_EVT_GATTS_WRITE_REQ:
 142:main.c        ****             wrReq = *(CYBLE_GATTS_WRITE_REQ_PARAM_T *)eventParam; //CYBLE_DAC_SERVICE_VOLT_VOLTCCCD
 143:main.c        ****            
 144:main.c        ****             // This handle the notofications
 145:main.c        ****             if(wrReq.handleValPair.attrHandle == CYBLE_RVAC_SENSORS_SENSORCCCD_DESC_HANDLE){
 146:main.c        ****                 
 147:main.c        ****                // CyBle_GattsWriteAttributeValue( &wrReq->handleValPair, 0, &connHandle, CYBLE_GATT
 148:main.c        ****                 isNotify = wrReq.handleValPair.value.val[0];//CYBLE_RVAC_SENSOR_SENSORCCCD_DESC_IND
 149:main.c        ****                 
 150:main.c        ****                 updateIsNotifyCCCDAttr = 1;
 151:main.c        ****             }
 152:main.c        ****             
 153:main.c        ****             // This handle data incoming
 154:main.c        ****             if(wrReq.handleValPair.attrHandle == CYBLE_RVAC_THERMOSTAT_CHAR_HANDLE){
 155:main.c        ****             
 156:main.c        ****                 thermo.compressor = wrReq.handleValPair.value.val[0];
 157:main.c        ****                 thermo.fanLow= wrReq.handleValPair.value.val[1];
 158:main.c        ****                 thermo.fanHigh = wrReq.handleValPair.value.val[2];
 159:main.c        ****                 thermo.setTemperature = wrReq.handleValPair.value.val[3];
 160:main.c        ****                 
 161:main.c        ****                 sprintf(uartStr, "-----------------    comp %d   flow %d   dhigh %d\n", thermo.comp
 162:main.c        ****                 MyUART_PutString(uartStr);
 163:main.c        ****                // thermostat[0] = thermo.compressor;
 164:main.c        ****                
 165:main.c        ****                 updateThermostatData();
 166:main.c        ****                 
ARM GAS  C:\Users\sergio\AppData\Local\Temp\ccV5Q6Sf.s 			page 7


 167:main.c        ****             }
 168:main.c        **** 
 169:main.c        ****             CyBle_GattsWriteRsp(cyBle_connHandle);
 170:main.c        ****             
 171:main.c        ****             break; 
 172:main.c        ****         
 173:main.c        ****      default:
 174:main.c        ****         break;
 171              		.loc 1 174 0
 172 001c 84E0     		b	.L14
 173              	.L7:
  96:main.c        ****     
 174              		.loc 1 96 0
 175 001e 422B     		cmp	r3, #66
 176 0020 20D0     		beq	.L11
 177 0022 4C2B     		cmp	r3, #76
 178 0024 2AD0     		beq	.L12
 179 0026 412B     		cmp	r3, #65
 180 0028 16D0     		beq	.L13
 181              		.loc 1 174 0
 182 002a 7DE0     		b	.L14
 183              	.L10:
 100:main.c        **** //            if(apiResult != CYBLE_ERROR_OK){
 184              		.loc 1 100 0
 185 002c 0020     		movs	r0, #0
 186 002e FFF7FEFF 		bl	CyBle_GappStartAdvertisement
 112:main.c        ****         case CYBLE_EVT_GAP_DEVICE_CONNECTED:
 187              		.loc 1 112 0
 188 0032 79E0     		b	.L14
 189              	.L9:
 114:main.c        ****             break;
 190              		.loc 1 114 0
 191 0034 FFF7FEFF 		bl	CyBle_GappStopAdvertisement
 115:main.c        ****         case CYBLE_EVT_GAP_DEVICE_DISCONNECTED:
 192              		.loc 1 115 0
 193 0038 76E0     		b	.L14
 194              	.L6:
 117:main.c        ****             isNotify = 0;
 195              		.loc 1 117 0
 196 003a 0020     		movs	r0, #0
 197 003c FFF7FEFF 		bl	CyBle_GappStartAdvertisement
 118:main.c        ****             break;
 198              		.loc 1 118 0
 199 0040 3B4B     		ldr	r3, .L19
 200 0042 0022     		movs	r2, #0
 201 0044 1A70     		strb	r2, [r3]
 119:main.c        ****         case CYBLE_EVT_GAPP_ADVERTISEMENT_START_STOP:
 202              		.loc 1 119 0
 203 0046 6FE0     		b	.L14
 204              	.L8:
 121:main.c        ****                  CyBle_GappStartAdvertisement(CYBLE_SCANNING_FAST);
 205              		.loc 1 121 0
 206 0048 3A4B     		ldr	r3, .L19+4
 207 004a 1B78     		ldrb	r3, [r3]
 208 004c 042B     		cmp	r3, #4
 209 004e 6AD1     		bne	.L18
 122:main.c        ****             }
ARM GAS  C:\Users\sergio\AppData\Local\Temp\ccV5Q6Sf.s 			page 8


 210              		.loc 1 122 0
 211 0050 0020     		movs	r0, #0
 212 0052 FFF7FEFF 		bl	CyBle_GappStartAdvertisement
 124:main.c        ****         case CYBLE_EVT_GATT_CONNECT_IND:
 213              		.loc 1 124 0
 214 0056 66E0     		b	.L18
 215              	.L13:
 126:main.c        ****             CyBle_GappStopAdvertisement();
 216              		.loc 1 126 0
 217 0058 374B     		ldr	r3, .L19+8
 218 005a 0122     		movs	r2, #1
 219 005c 1A70     		strb	r2, [r3]
 127:main.c        ****             break;
 220              		.loc 1 127 0
 221 005e FFF7FEFF 		bl	CyBle_GappStopAdvertisement
 128:main.c        ****         case CYBLE_EVT_GATT_DISCONNECT_IND:
 222              		.loc 1 128 0
 223 0062 61E0     		b	.L14
 224              	.L11:
 130:main.c        ****             bleConnected = 0;
 225              		.loc 1 130 0
 226 0064 324B     		ldr	r3, .L19
 227 0066 0022     		movs	r2, #0
 228 0068 1A70     		strb	r2, [r3]
 131:main.c        ****             // Update the notifications CCCD
 229              		.loc 1 131 0
 230 006a 334B     		ldr	r3, .L19+8
 231 006c 0022     		movs	r2, #0
 232 006e 1A70     		strb	r2, [r3]
 133:main.c        ****             
 233              		.loc 1 133 0
 234 0070 324B     		ldr	r3, .L19+12
 235 0072 0122     		movs	r2, #1
 236 0074 1A70     		strb	r2, [r3]
 138:main.c        ****             
 237              		.loc 1 138 0
 238 0076 FFF7FEFF 		bl	updateThermostatData
 140:main.c        ****         case CYBLE_EVT_GATTS_WRITE_REQ:
 239              		.loc 1 140 0
 240 007a 55E0     		b	.L14
 241              	.L12:
 142:main.c        ****            
 242              		.loc 1 142 0
 243 007c 1023     		movs	r3, #16
 244 007e FB18     		adds	r3, r7, r3
 245 0080 3A68     		ldr	r2, [r7]
 246 0082 13CA     		ldmia	r2!, {r0, r1, r4}
 247 0084 13C3     		stmia	r3!, {r0, r1, r4}
 248 0086 1268     		ldr	r2, [r2]
 249 0088 1A60     		str	r2, [r3]
 145:main.c        ****                 
 250              		.loc 1 145 0
 251 008a 1023     		movs	r3, #16
 252 008c FB18     		adds	r3, r7, r3
 253 008e 9B89     		ldrh	r3, [r3, #12]
 254 0090 142B     		cmp	r3, #20
 255 0092 08D1     		bne	.L16
ARM GAS  C:\Users\sergio\AppData\Local\Temp\ccV5Q6Sf.s 			page 9


 148:main.c        ****                 
 256              		.loc 1 148 0
 257 0094 1023     		movs	r3, #16
 258 0096 FB18     		adds	r3, r7, r3
 259 0098 5B68     		ldr	r3, [r3, #4]
 260 009a 1A78     		ldrb	r2, [r3]
 261 009c 244B     		ldr	r3, .L19
 262 009e 1A70     		strb	r2, [r3]
 150:main.c        ****             }
 263              		.loc 1 150 0
 264 00a0 264B     		ldr	r3, .L19+12
 265 00a2 0122     		movs	r2, #1
 266 00a4 1A70     		strb	r2, [r3]
 267              	.L16:
 154:main.c        ****             
 268              		.loc 1 154 0
 269 00a6 1023     		movs	r3, #16
 270 00a8 FB18     		adds	r3, r7, r3
 271 00aa 9B89     		ldrh	r3, [r3, #12]
 272 00ac 162B     		cmp	r3, #22
 273 00ae 2BD1     		bne	.L17
 156:main.c        ****                 thermo.fanLow= wrReq.handleValPair.value.val[1];
 274              		.loc 1 156 0
 275 00b0 1023     		movs	r3, #16
 276 00b2 FB18     		adds	r3, r7, r3
 277 00b4 5B68     		ldr	r3, [r3, #4]
 278 00b6 1A78     		ldrb	r2, [r3]
 279 00b8 214B     		ldr	r3, .L19+16
 280 00ba 1A70     		strb	r2, [r3]
 157:main.c        ****                 thermo.fanHigh = wrReq.handleValPair.value.val[2];
 281              		.loc 1 157 0
 282 00bc 1023     		movs	r3, #16
 283 00be FB18     		adds	r3, r7, r3
 284 00c0 5B68     		ldr	r3, [r3, #4]
 285 00c2 5A78     		ldrb	r2, [r3, #1]
 286 00c4 1E4B     		ldr	r3, .L19+16
 287 00c6 5A70     		strb	r2, [r3, #1]
 158:main.c        ****                 thermo.setTemperature = wrReq.handleValPair.value.val[3];
 288              		.loc 1 158 0
 289 00c8 1023     		movs	r3, #16
 290 00ca FB18     		adds	r3, r7, r3
 291 00cc 5B68     		ldr	r3, [r3, #4]
 292 00ce 9A78     		ldrb	r2, [r3, #2]
 293 00d0 1B4B     		ldr	r3, .L19+16
 294 00d2 9A70     		strb	r2, [r3, #2]
 159:main.c        ****                 
 295              		.loc 1 159 0
 296 00d4 1023     		movs	r3, #16
 297 00d6 FB18     		adds	r3, r7, r3
 298 00d8 5B68     		ldr	r3, [r3, #4]
 299 00da DA78     		ldrb	r2, [r3, #3]
 300 00dc 184B     		ldr	r3, .L19+16
 301 00de DA70     		strb	r2, [r3, #3]
 161:main.c        ****                 MyUART_PutString(uartStr);
 302              		.loc 1 161 0
 303 00e0 174B     		ldr	r3, .L19+16
 304 00e2 1B78     		ldrb	r3, [r3]
ARM GAS  C:\Users\sergio\AppData\Local\Temp\ccV5Q6Sf.s 			page 10


 305 00e4 1A00     		movs	r2, r3
 306 00e6 164B     		ldr	r3, .L19+16
 307 00e8 5B78     		ldrb	r3, [r3, #1]
 308 00ea 1C00     		movs	r4, r3
 309 00ec 144B     		ldr	r3, .L19+16
 310 00ee 9B78     		ldrb	r3, [r3, #2]
 311 00f0 1449     		ldr	r1, .L19+20
 312 00f2 1548     		ldr	r0, .L19+24
 313 00f4 0093     		str	r3, [sp]
 314 00f6 2300     		movs	r3, r4
 315 00f8 FFF7FEFF 		bl	sprintf
 162:main.c        ****                // thermostat[0] = thermo.compressor;
 316              		.loc 1 162 0
 317 00fc 124B     		ldr	r3, .L19+24
 318 00fe 1800     		movs	r0, r3
 319 0100 FFF7FEFF 		bl	MyUART_PutString
 165:main.c        ****                 
 320              		.loc 1 165 0
 321 0104 FFF7FEFF 		bl	updateThermostatData
 322              	.L17:
 169:main.c        ****             
 323              		.loc 1 169 0
 324 0108 104B     		ldr	r3, .L19+28
 325 010a 1A78     		ldrb	r2, [r3]
 326 010c 5B78     		ldrb	r3, [r3, #1]
 327 010e 1B02     		lsls	r3, r3, #8
 328 0110 1A43     		orrs	r2, r3
 329 0112 0023     		movs	r3, #0
 330 0114 1204     		lsls	r2, r2, #16
 331 0116 120C     		lsrs	r2, r2, #16
 332 0118 1B0C     		lsrs	r3, r3, #16
 333 011a 1B04     		lsls	r3, r3, #16
 334 011c 1343     		orrs	r3, r2
 335 011e 1800     		movs	r0, r3
 336 0120 FFF7FEFF 		bl	CyBle_GattsWriteRsp
 171:main.c        ****         
 337              		.loc 1 171 0
 338 0124 00E0     		b	.L14
 339              	.L18:
 124:main.c        ****         case CYBLE_EVT_GATT_CONNECT_IND:
 340              		.loc 1 124 0
 341 0126 C046     		nop
 342              	.L14:
 175:main.c        ****     }
 176:main.c        ****     
 177:main.c        **** }
 343              		.loc 1 177 0 discriminator 1
 344 0128 C046     		nop
 345 012a BD46     		mov	sp, r7
 346 012c 09B0     		add	sp, sp, #36
 347              		@ sp needed
 348 012e 90BD     		pop	{r4, r7, pc}
 349              	.L20:
 350              		.align	2
 351              	.L19:
 352 0130 00000000 		.word	isNotify
 353 0134 00000000 		.word	cyBle_state
ARM GAS  C:\Users\sergio\AppData\Local\Temp\ccV5Q6Sf.s 			page 11


 354 0138 00000000 		.word	bleConnected
 355 013c 00000000 		.word	updateIsNotifyCCCDAttr
 356 0140 00000000 		.word	thermo
 357 0144 00000000 		.word	.LC8
 358 0148 00000000 		.word	uartStr
 359 014c 00000000 		.word	cyBle_connHandle
 360              		.cfi_endproc
 361              	.LFE37:
 362              		.size	bleStack, .-bleStack
 363              		.section	.text.send_Thermo_to_phone,"ax",%progbits
 364              		.align	2
 365              		.global	send_Thermo_to_phone
 366              		.code	16
 367              		.thumb_func
 368              		.type	send_Thermo_to_phone, %function
 369              	send_Thermo_to_phone:
 370              	.LFB38:
 178:main.c        **** 
 179:main.c        **** // function to read thermostat data on the phone
 180:main.c        **** void send_Thermo_to_phone(){
 371              		.loc 1 180 0
 372              		.cfi_startproc
 373              		@ args = 0, pretend = 0, frame = 24
 374              		@ frame_needed = 1, uses_anonymous_args = 0
 375 0000 80B5     		push	{r7, lr}
 376              		.cfi_def_cfa_offset 8
 377              		.cfi_offset 7, -8
 378              		.cfi_offset 14, -4
 379 0002 86B0     		sub	sp, sp, #24
 380              		.cfi_def_cfa_offset 32
 381 0004 00AF     		add	r7, sp, #0
 382              		.cfi_def_cfa_register 7
 181:main.c        ****     uint8 t[] = {thermo.compressor, thermo.fanLow, thermo.fanHigh, thermo.setTemperature, thermo.am
 383              		.loc 1 181 0
 384 0006 164B     		ldr	r3, .L22
 385 0008 1A78     		ldrb	r2, [r3]
 386 000a 1023     		movs	r3, #16
 387 000c FB18     		adds	r3, r7, r3
 388 000e 1A70     		strb	r2, [r3]
 389 0010 134B     		ldr	r3, .L22
 390 0012 5A78     		ldrb	r2, [r3, #1]
 391 0014 1023     		movs	r3, #16
 392 0016 FB18     		adds	r3, r7, r3
 393 0018 5A70     		strb	r2, [r3, #1]
 394 001a 114B     		ldr	r3, .L22
 395 001c 9A78     		ldrb	r2, [r3, #2]
 396 001e 1023     		movs	r3, #16
 397 0020 FB18     		adds	r3, r7, r3
 398 0022 9A70     		strb	r2, [r3, #2]
 399 0024 0E4B     		ldr	r3, .L22
 400 0026 DA78     		ldrb	r2, [r3, #3]
 401 0028 1023     		movs	r3, #16
 402 002a FB18     		adds	r3, r7, r3
 403 002c DA70     		strb	r2, [r3, #3]
 404 002e 0C4B     		ldr	r3, .L22
 405 0030 1A79     		ldrb	r2, [r3, #4]
 406 0032 1023     		movs	r3, #16
ARM GAS  C:\Users\sergio\AppData\Local\Temp\ccV5Q6Sf.s 			page 12


 407 0034 FB18     		adds	r3, r7, r3
 408 0036 1A71     		strb	r2, [r3, #4]
 182:main.c        ****     CYBLE_GATT_HANDLE_VALUE_PAIR_T thermoRead;
 183:main.c        ****     
 184:main.c        ****      thermoRead.attrHandle = CYBLE_RVAC_THERMOSTAT_CHAR_HANDLE;
 409              		.loc 1 184 0
 410 0038 3B1D     		adds	r3, r7, #4
 411 003a 1622     		movs	r2, #22
 412 003c 1A81     		strh	r2, [r3, #8]
 185:main.c        ****         thermoRead.value.val =  t;
 413              		.loc 1 185 0
 414 003e 3B1D     		adds	r3, r7, #4
 415 0040 1022     		movs	r2, #16
 416 0042 BA18     		adds	r2, r7, r2
 417 0044 1A60     		str	r2, [r3]
 186:main.c        ****         thermoRead.value.len = 5;
 418              		.loc 1 186 0
 419 0046 3B1D     		adds	r3, r7, #4
 420 0048 0522     		movs	r2, #5
 421 004a 9A80     		strh	r2, [r3, #4]
 187:main.c        ****     
 188:main.c        ****    CyBle_GattsWriteAttributeValue(&thermoRead, 0, &cyBle_connHandle, CYBLE_GATT_DB_PEER_INITIATED);
 422              		.loc 1 188 0
 423 004c 054A     		ldr	r2, .L22+4
 424 004e 381D     		adds	r0, r7, #4
 425 0050 4023     		movs	r3, #64
 426 0052 0021     		movs	r1, #0
 427 0054 FFF7FEFF 		bl	CyBle_GattsWriteAttributeValue
 189:main.c        **** }
 428              		.loc 1 189 0
 429 0058 C046     		nop
 430 005a BD46     		mov	sp, r7
 431 005c 06B0     		add	sp, sp, #24
 432              		@ sp needed
 433 005e 80BD     		pop	{r7, pc}
 434              	.L23:
 435              		.align	2
 436              	.L22:
 437 0060 00000000 		.word	thermo
 438 0064 00000000 		.word	cyBle_connHandle
 439              		.cfi_endproc
 440              	.LFE38:
 441              		.size	send_Thermo_to_phone, .-send_Thermo_to_phone
 442              		.section	.text.SendDataNotify,"ax",%progbits
 443              		.align	2
 444              		.global	SendDataNotify
 445              		.code	16
 446              		.thumb_func
 447              		.type	SendDataNotify, %function
 448              	SendDataNotify:
 449              	.LFB39:
 190:main.c        **** 
 191:main.c        **** void SendDataNotify( uint8 len){
 450              		.loc 1 191 0
 451              		.cfi_startproc
 452              		@ args = 0, pretend = 0, frame = 32
 453              		@ frame_needed = 1, uses_anonymous_args = 0
ARM GAS  C:\Users\sergio\AppData\Local\Temp\ccV5Q6Sf.s 			page 13


 454 0000 80B5     		push	{r7, lr}
 455              		.cfi_def_cfa_offset 8
 456              		.cfi_offset 7, -8
 457              		.cfi_offset 14, -4
 458 0002 88B0     		sub	sp, sp, #32
 459              		.cfi_def_cfa_offset 40
 460 0004 00AF     		add	r7, sp, #0
 461              		.cfi_def_cfa_register 7
 462 0006 0200     		movs	r2, r0
 463 0008 FB1D     		adds	r3, r7, #7
 464 000a 1A70     		strb	r2, [r3]
 192:main.c        ****     CYBLE_GATTS_HANDLE_VALUE_NTF_T notiHandle;
 193:main.c        ****     
 194:main.c        ****       uint8 dataForBLE[] = {sensorData.localTemp, sensorData.remoteTemp1, sensorData.remoteTemp2, s
 465              		.loc 1 194 0
 466 000c 284B     		ldr	r3, .L25
 467 000e 1A78     		ldrb	r2, [r3]
 468 0010 0823     		movs	r3, #8
 469 0012 FB18     		adds	r3, r7, r3
 470 0014 1A70     		strb	r2, [r3]
 471 0016 264B     		ldr	r3, .L25
 472 0018 5A78     		ldrb	r2, [r3, #1]
 473 001a 0823     		movs	r3, #8
 474 001c FB18     		adds	r3, r7, r3
 475 001e 5A70     		strb	r2, [r3, #1]
 476 0020 234B     		ldr	r3, .L25
 477 0022 9A78     		ldrb	r2, [r3, #2]
 478 0024 0823     		movs	r3, #8
 479 0026 FB18     		adds	r3, r7, r3
 480 0028 9A70     		strb	r2, [r3, #2]
 481 002a 214B     		ldr	r3, .L25
 482 002c DA78     		ldrb	r2, [r3, #3]
 483 002e 0823     		movs	r3, #8
 484 0030 FB18     		adds	r3, r7, r3
 485 0032 DA70     		strb	r2, [r3, #3]
 486 0034 1E4B     		ldr	r3, .L25
 487 0036 1A79     		ldrb	r2, [r3, #4]
 488 0038 0823     		movs	r3, #8
 489 003a FB18     		adds	r3, r7, r3
 490 003c 1A71     		strb	r2, [r3, #4]
 491 003e 1C4B     		ldr	r3, .L25
 492 0040 2022     		movs	r2, #32
 493 0042 9A5C     		ldrb	r2, [r3, r2]
 494 0044 0823     		movs	r3, #8
 495 0046 FB18     		adds	r3, r7, r3
 496 0048 5A71     		strb	r2, [r3, #5]
 497 004a 194B     		ldr	r3, .L25
 498 004c 2122     		movs	r2, #33
 499 004e 9A5C     		ldrb	r2, [r3, r2]
 500 0050 0823     		movs	r3, #8
 501 0052 FB18     		adds	r3, r7, r3
 502 0054 9A71     		strb	r2, [r3, #6]
 503 0056 164B     		ldr	r3, .L25
 504 0058 2222     		movs	r2, #34
 505 005a 9A5C     		ldrb	r2, [r3, r2]
 506 005c 0823     		movs	r3, #8
 507 005e FB18     		adds	r3, r7, r3
ARM GAS  C:\Users\sergio\AppData\Local\Temp\ccV5Q6Sf.s 			page 14


 508 0060 DA71     		strb	r2, [r3, #7]
 509 0062 134B     		ldr	r3, .L25
 510 0064 5A79     		ldrb	r2, [r3, #5]
 511 0066 0823     		movs	r3, #8
 512 0068 FB18     		adds	r3, r7, r3
 513 006a 1A72     		strb	r2, [r3, #8]
 195:main.c        ****     /*{sensorData.localTemp/10,sensorData.localTemp%10,sensorData.remoteTemp1/10, sensorData.remote
 196:main.c        ****         sensorData.remoteTemp3/10, sensorData.remoteTemp3%10, sensorData.humidity/10, sensorData.hu
 197:main.c        ****         sensorData.voltFan%10, sensorData.volt/10, sensorData.volt%10, sensorData.currentCompressor
 198:main.c        ****         sensorData.current%10, sensorData.lineFreqComp/10, sensorData.lineFreqComp%10, sensorData.l
 199:main.c        ****         sensorData.accX/10, sensorData.accX%10, sensorData.accY/10, sensorData.accY%10, sensorData.
 200:main.c        ****     
 201:main.c        **** 
 202:main.c        ****      notiHandle.attrHandle = CYBLE_RVAC_SENSORS_CHAR_HANDLE;
 514              		.loc 1 202 0
 515 006c 1423     		movs	r3, #20
 516 006e FB18     		adds	r3, r7, r3
 517 0070 1222     		movs	r2, #18
 518 0072 1A81     		strh	r2, [r3, #8]
 203:main.c        ****      notiHandle.value.val = (uint8 *) &dataForBLE;     //(uint8 *) dataForBLE; // collectedData; //
 519              		.loc 1 203 0
 520 0074 1423     		movs	r3, #20
 521 0076 FB18     		adds	r3, r7, r3
 522 0078 0822     		movs	r2, #8
 523 007a BA18     		adds	r2, r7, r2
 524 007c 1A60     		str	r2, [r3]
 204:main.c        ****      notiHandle.value.len = 9; //36;
 525              		.loc 1 204 0
 526 007e 1423     		movs	r3, #20
 527 0080 FB18     		adds	r3, r7, r3
 528 0082 0922     		movs	r2, #9
 529 0084 9A80     		strh	r2, [r3, #4]
 205:main.c        ****         
 206:main.c        ****         CyBle_GattsNotification(cyBle_connHandle, &notiHandle);
 530              		.loc 1 206 0
 531 0086 1423     		movs	r3, #20
 532 0088 F918     		adds	r1, r7, r3
 533 008a 0A4B     		ldr	r3, .L25+4
 534 008c 1A78     		ldrb	r2, [r3]
 535 008e 5B78     		ldrb	r3, [r3, #1]
 536 0090 1B02     		lsls	r3, r3, #8
 537 0092 1A43     		orrs	r2, r3
 538 0094 0023     		movs	r3, #0
 539 0096 1204     		lsls	r2, r2, #16
 540 0098 120C     		lsrs	r2, r2, #16
 541 009a 1B0C     		lsrs	r3, r3, #16
 542 009c 1B04     		lsls	r3, r3, #16
 543 009e 1343     		orrs	r3, r2
 544 00a0 1800     		movs	r0, r3
 545 00a2 FFF7FEFF 		bl	CyBle_GattsNotification
 207:main.c        **** 
 208:main.c        **** }
 546              		.loc 1 208 0
 547 00a6 C046     		nop
 548 00a8 BD46     		mov	sp, r7
 549 00aa 08B0     		add	sp, sp, #32
 550              		@ sp needed
ARM GAS  C:\Users\sergio\AppData\Local\Temp\ccV5Q6Sf.s 			page 15


 551 00ac 80BD     		pop	{r7, pc}
 552              	.L26:
 553 00ae C046     		.align	2
 554              	.L25:
 555 00b0 00000000 		.word	sensorData
 556 00b4 00000000 		.word	cyBle_connHandle
 557              		.cfi_endproc
 558              	.LFE39:
 559              		.size	SendDataNotify, .-SendDataNotify
 560              		.section	.text.updateNotificationCCCD,"ax",%progbits
 561              		.align	2
 562              		.global	updateNotificationCCCD
 563              		.code	16
 564              		.thumb_func
 565              		.type	updateNotificationCCCD, %function
 566              	updateNotificationCCCD:
 567              	.LFB40:
 209:main.c        **** 
 210:main.c        **** void updateNotificationCCCD(void){
 568              		.loc 1 210 0
 569              		.cfi_startproc
 570              		@ args = 0, pretend = 0, frame = 16
 571              		@ frame_needed = 1, uses_anonymous_args = 0
 572 0000 80B5     		push	{r7, lr}
 573              		.cfi_def_cfa_offset 8
 574              		.cfi_offset 7, -8
 575              		.cfi_offset 14, -4
 576 0002 84B0     		sub	sp, sp, #16
 577              		.cfi_def_cfa_offset 24
 578 0004 00AF     		add	r7, sp, #0
 579              		.cfi_def_cfa_register 7
 211:main.c        ****     CYBLE_GATT_HANDLE_VALUE_PAIR_T sensorNotCCCDHandle;
 212:main.c        ****     
 213:main.c        ****     uint8 sensorCCCDVal[2];
 214:main.c        ****     
 215:main.c        ****     if(updateIsNotifyCCCDAttr == 1){
 580              		.loc 1 215 0
 581 0006 114B     		ldr	r3, .L30
 582 0008 1B78     		ldrb	r3, [r3]
 583 000a 012B     		cmp	r3, #1
 584 000c 1AD1     		bne	.L29
 216:main.c        ****         
 217:main.c        ****      updateIsNotifyCCCDAttr = 0;
 585              		.loc 1 217 0
 586 000e 0F4B     		ldr	r3, .L30
 587 0010 0022     		movs	r2, #0
 588 0012 1A70     		strb	r2, [r3]
 218:main.c        ****         sensorCCCDVal[0] = isNotify;
 589              		.loc 1 218 0
 590 0014 0E4B     		ldr	r3, .L30+4
 591 0016 1A78     		ldrb	r2, [r3]
 592 0018 3B00     		movs	r3, r7
 593 001a 1A70     		strb	r2, [r3]
 219:main.c        ****         sensorCCCDVal[1] = 0x00;
 594              		.loc 1 219 0
 595 001c 3B00     		movs	r3, r7
 596 001e 0022     		movs	r2, #0
ARM GAS  C:\Users\sergio\AppData\Local\Temp\ccV5Q6Sf.s 			page 16


 597 0020 5A70     		strb	r2, [r3, #1]
 220:main.c        ****         
 221:main.c        ****         sensorNotCCCDHandle.attrHandle = CYBLE_RVAC_SENSORS_SENSORCCCD_DESC_HANDLE;
 598              		.loc 1 221 0
 599 0022 3B1D     		adds	r3, r7, #4
 600 0024 1422     		movs	r2, #20
 601 0026 1A81     		strh	r2, [r3, #8]
 222:main.c        ****         sensorNotCCCDHandle.value.val = sensorCCCDVal;
 602              		.loc 1 222 0
 603 0028 3B1D     		adds	r3, r7, #4
 604 002a 3A00     		movs	r2, r7
 605 002c 1A60     		str	r2, [r3]
 223:main.c        ****         sensorNotCCCDHandle.value.len = 2;
 606              		.loc 1 223 0
 607 002e 3B1D     		adds	r3, r7, #4
 608 0030 0222     		movs	r2, #2
 609 0032 9A80     		strh	r2, [r3, #4]
 224:main.c        ****         
 225:main.c        ****         CyBle_GattsWriteAttributeValue(&sensorNotCCCDHandle, 0, &cyBle_connHandle, CYBLE_GATT_DB_PE
 610              		.loc 1 225 0
 611 0034 074A     		ldr	r2, .L30+8
 612 0036 381D     		adds	r0, r7, #4
 613 0038 4023     		movs	r3, #64
 614 003a 0021     		movs	r1, #0
 615 003c FFF7FEFF 		bl	CyBle_GattsWriteAttributeValue
 226:main.c        ****         CyBle_ProcessEvents();
 616              		.loc 1 226 0
 617 0040 FFF7FEFF 		bl	CyBle_ProcessEvents
 618              	.L29:
 227:main.c        ****     }
 228:main.c        **** }
 619              		.loc 1 228 0
 620 0044 C046     		nop
 621 0046 BD46     		mov	sp, r7
 622 0048 04B0     		add	sp, sp, #16
 623              		@ sp needed
 624 004a 80BD     		pop	{r7, pc}
 625              	.L31:
 626              		.align	2
 627              	.L30:
 628 004c 00000000 		.word	updateIsNotifyCCCDAttr
 629 0050 00000000 		.word	isNotify
 630 0054 00000000 		.word	cyBle_connHandle
 631              		.cfi_endproc
 632              	.LFE40:
 633              		.size	updateNotificationCCCD, .-updateNotificationCCCD
 634              		.section	.text.initialized_input_gpioExp,"ax",%progbits
 635              		.align	2
 636              		.global	initialized_input_gpioExp
 637              		.code	16
 638              		.thumb_func
 639              		.type	initialized_input_gpioExp, %function
 640              	initialized_input_gpioExp:
 641              	.LFB41:
 229:main.c        **** 
 230:main.c        **** 
 231:main.c        **** void initialized_input_gpioExp(){
ARM GAS  C:\Users\sergio\AppData\Local\Temp\ccV5Q6Sf.s 			page 17


 642              		.loc 1 231 0
 643              		.cfi_startproc
 644              		@ args = 0, pretend = 0, frame = 0
 645              		@ frame_needed = 1, uses_anonymous_args = 0
 646 0000 80B5     		push	{r7, lr}
 647              		.cfi_def_cfa_offset 8
 648              		.cfi_offset 7, -8
 649              		.cfi_offset 14, -4
 650 0002 00AF     		add	r7, sp, #0
 651              		.cfi_def_cfa_register 7
 232:main.c        ****    I2C_1_I2CMasterSendStart(ADDR,I2C_1_I2C_WRITE_XFER_MODE, 100u);
 652              		.loc 1 232 0
 653 0004 6422     		movs	r2, #100
 654 0006 0021     		movs	r1, #0
 655 0008 7020     		movs	r0, #112
 656 000a FFF7FEFF 		bl	I2C_1_I2CMasterSendStart
 233:main.c        ****    I2C_1_I2CMasterWriteByte(REG_CONFIG, 100u);
 657              		.loc 1 233 0
 658 000e 6421     		movs	r1, #100
 659 0010 0320     		movs	r0, #3
 660 0012 FFF7FEFF 		bl	I2C_1_I2CMasterWriteByte
 234:main.c        ****    I2C_1_I2CMasterWriteByte(0xFF, 100u);
 661              		.loc 1 234 0
 662 0016 6421     		movs	r1, #100
 663 0018 FF20     		movs	r0, #255
 664 001a FFF7FEFF 		bl	I2C_1_I2CMasterWriteByte
 235:main.c        ****    I2C_1_I2CMasterSendStop(100u);
 665              		.loc 1 235 0
 666 001e 6420     		movs	r0, #100
 667 0020 FFF7FEFF 		bl	I2C_1_I2CMasterSendStop
 236:main.c        **** }
 668              		.loc 1 236 0
 669 0024 C046     		nop
 670 0026 BD46     		mov	sp, r7
 671              		@ sp needed
 672 0028 80BD     		pop	{r7, pc}
 673              		.cfi_endproc
 674              	.LFE41:
 675              		.size	initialized_input_gpioExp, .-initialized_input_gpioExp
 676 002a C046     		.section	.text.read_thermostat_pins,"ax",%progbits
 677              		.align	2
 678              		.global	read_thermostat_pins
 679              		.code	16
 680              		.thumb_func
 681              		.type	read_thermostat_pins, %function
 682              	read_thermostat_pins:
 683              	.LFB42:
 237:main.c        **** 
 238:main.c        **** uint8 read_thermostat_pins(){
 684              		.loc 1 238 0
 685              		.cfi_startproc
 686              		@ args = 0, pretend = 0, frame = 8
 687              		@ frame_needed = 1, uses_anonymous_args = 0
 688 0000 80B5     		push	{r7, lr}
 689              		.cfi_def_cfa_offset 8
 690              		.cfi_offset 7, -8
 691              		.cfi_offset 14, -4
ARM GAS  C:\Users\sergio\AppData\Local\Temp\ccV5Q6Sf.s 			page 18


 692 0002 82B0     		sub	sp, sp, #8
 693              		.cfi_def_cfa_offset 16
 694 0004 00AF     		add	r7, sp, #0
 695              		.cfi_def_cfa_register 7
 239:main.c        ****    
 240:main.c        ****     uint8 pins = 0u;
 696              		.loc 1 240 0
 697 0006 FB1D     		adds	r3, r7, #7
 698 0008 0022     		movs	r2, #0
 699 000a 1A70     		strb	r2, [r3]
 241:main.c        **** 
 242:main.c        ****    I2C_1_I2CMasterSendStart(ADDR, I2C_1_I2C_WRITE_XFER_MODE, 100u);
 700              		.loc 1 242 0
 701 000c 6422     		movs	r2, #100
 702 000e 0021     		movs	r1, #0
 703 0010 7020     		movs	r0, #112
 704 0012 FFF7FEFF 		bl	I2C_1_I2CMasterSendStart
 243:main.c        ****    I2C_1_I2CMasterWriteByte(REG_READ, 100u);
 705              		.loc 1 243 0
 706 0016 6421     		movs	r1, #100
 707 0018 0020     		movs	r0, #0
 708 001a FFF7FEFF 		bl	I2C_1_I2CMasterWriteByte
 244:main.c        ****    I2C_1_I2CMasterSendRestart(ADDR,I2C_1_I2C_READ_XFER_MODE, 100u);
 709              		.loc 1 244 0
 710 001e 6422     		movs	r2, #100
 711 0020 0121     		movs	r1, #1
 712 0022 7020     		movs	r0, #112
 713 0024 FFF7FEFF 		bl	I2C_1_I2CMasterSendRestart
 245:main.c        ****    I2C_1_I2CMasterReadByte(I2C_1_I2C_NAK_DATA,(uint8 *) &pins,100u);
 714              		.loc 1 245 0
 715 0028 FB1D     		adds	r3, r7, #7
 716 002a 6422     		movs	r2, #100
 717 002c 1900     		movs	r1, r3
 718 002e 0120     		movs	r0, #1
 719 0030 FFF7FEFF 		bl	I2C_1_I2CMasterReadByte
 246:main.c        ****    I2C_1_I2CMasterSendStop(100u);
 720              		.loc 1 246 0
 721 0034 6420     		movs	r0, #100
 722 0036 FFF7FEFF 		bl	I2C_1_I2CMasterSendStop
 247:main.c        ****     
 248:main.c        ****     return pins;
 723              		.loc 1 248 0
 724 003a FB1D     		adds	r3, r7, #7
 725 003c 1B78     		ldrb	r3, [r3]
 249:main.c        **** }
 726              		.loc 1 249 0
 727 003e 1800     		movs	r0, r3
 728 0040 BD46     		mov	sp, r7
 729 0042 02B0     		add	sp, sp, #8
 730              		@ sp needed
 731 0044 80BD     		pop	{r7, pc}
 732              		.cfi_endproc
 733              	.LFE42:
 734              		.size	read_thermostat_pins, .-read_thermostat_pins
 735 0046 C046     		.section	.text.configure_temperature_sensor2,"ax",%progbits
 736              		.align	2
 737              		.global	configure_temperature_sensor2
ARM GAS  C:\Users\sergio\AppData\Local\Temp\ccV5Q6Sf.s 			page 19


 738              		.code	16
 739              		.thumb_func
 740              		.type	configure_temperature_sensor2, %function
 741              	configure_temperature_sensor2:
 742              	.LFB43:
 250:main.c        **** 
 251:main.c        **** void configure_temperature_sensor2(){
 743              		.loc 1 251 0
 744              		.cfi_startproc
 745              		@ args = 0, pretend = 0, frame = 0
 746              		@ frame_needed = 1, uses_anonymous_args = 0
 747 0000 80B5     		push	{r7, lr}
 748              		.cfi_def_cfa_offset 8
 749              		.cfi_offset 7, -8
 750              		.cfi_offset 14, -4
 751 0002 00AF     		add	r7, sp, #0
 752              		.cfi_def_cfa_register 7
 252:main.c        ****         // Config register 1
 253:main.c        ****    I2C_1_I2CMasterSendStart(0x4C, I2C_1_I2C_WRITE_XFER_MODE, 100u);
 753              		.loc 1 253 0
 754 0004 6422     		movs	r2, #100
 755 0006 0021     		movs	r1, #0
 756 0008 4C20     		movs	r0, #76
 757 000a FFF7FEFF 		bl	I2C_1_I2CMasterSendStart
 254:main.c        ****    I2C_1_I2CMasterWriteByte(0x09, 100u);
 758              		.loc 1 254 0
 759 000e 6421     		movs	r1, #100
 760 0010 0920     		movs	r0, #9
 761 0012 FFF7FEFF 		bl	I2C_1_I2CMasterWriteByte
 255:main.c        ****    I2C_1_I2CMasterWriteByte(0x84, 100u);
 762              		.loc 1 255 0
 763 0016 6421     		movs	r1, #100
 764 0018 8420     		movs	r0, #132
 765 001a FFF7FEFF 		bl	I2C_1_I2CMasterWriteByte
 256:main.c        ****    I2C_1_I2CMasterSendStop(100u);
 766              		.loc 1 256 0
 767 001e 6420     		movs	r0, #100
 768 0020 FFF7FEFF 		bl	I2C_1_I2CMasterSendStop
 257:main.c        ****    //Config register 2
 258:main.c        ****    I2C_1_I2CMasterSendStart(0x4C, I2C_1_I2C_WRITE_XFER_MODE, 100u);
 769              		.loc 1 258 0
 770 0024 6422     		movs	r2, #100
 771 0026 0021     		movs	r1, #0
 772 0028 4C20     		movs	r0, #76
 773 002a FFF7FEFF 		bl	I2C_1_I2CMasterSendStart
 259:main.c        ****    I2C_1_I2CMasterWriteByte(0x3F, 100u);
 774              		.loc 1 259 0
 775 002e 6421     		movs	r1, #100
 776 0030 3F20     		movs	r0, #63
 777 0032 FFF7FEFF 		bl	I2C_1_I2CMasterWriteByte
 260:main.c        ****    I2C_1_I2CMasterWriteByte(0x3C, 100u);
 778              		.loc 1 260 0
 779 0036 6421     		movs	r1, #100
 780 0038 3C20     		movs	r0, #60
 781 003a FFF7FEFF 		bl	I2C_1_I2CMasterWriteByte
 261:main.c        ****    I2C_1_I2CMasterSendStop(100u);   
 782              		.loc 1 261 0
ARM GAS  C:\Users\sergio\AppData\Local\Temp\ccV5Q6Sf.s 			page 20


 783 003e 6420     		movs	r0, #100
 784 0040 FFF7FEFF 		bl	I2C_1_I2CMasterSendStop
 262:main.c        **** }
 785              		.loc 1 262 0
 786 0044 C046     		nop
 787 0046 BD46     		mov	sp, r7
 788              		@ sp needed
 789 0048 80BD     		pop	{r7, pc}
 790              		.cfi_endproc
 791              	.LFE43:
 792              		.size	configure_temperature_sensor2, .-configure_temperature_sensor2
 793 004a C046     		.section	.text.configure_temperature_sensor1,"ax",%progbits
 794              		.align	2
 795              		.global	configure_temperature_sensor1
 796              		.code	16
 797              		.thumb_func
 798              		.type	configure_temperature_sensor1, %function
 799              	configure_temperature_sensor1:
 800              	.LFB44:
 263:main.c        **** 
 264:main.c        **** void configure_temperature_sensor1(){
 801              		.loc 1 264 0
 802              		.cfi_startproc
 803              		@ args = 0, pretend = 0, frame = 0
 804              		@ frame_needed = 1, uses_anonymous_args = 0
 805 0000 80B5     		push	{r7, lr}
 806              		.cfi_def_cfa_offset 8
 807              		.cfi_offset 7, -8
 808              		.cfi_offset 14, -4
 809 0002 00AF     		add	r7, sp, #0
 810              		.cfi_def_cfa_register 7
 265:main.c        ****         // Config register 1
 266:main.c        ****    I2C_1_I2CMasterSendStart(0x4D, I2C_1_I2C_WRITE_XFER_MODE, 100u);
 811              		.loc 1 266 0
 812 0004 6422     		movs	r2, #100
 813 0006 0021     		movs	r1, #0
 814 0008 4D20     		movs	r0, #77
 815 000a FFF7FEFF 		bl	I2C_1_I2CMasterSendStart
 267:main.c        ****    I2C_1_I2CMasterWriteByte(0x09, 100u);
 816              		.loc 1 267 0
 817 000e 6421     		movs	r1, #100
 818 0010 0920     		movs	r0, #9
 819 0012 FFF7FEFF 		bl	I2C_1_I2CMasterWriteByte
 268:main.c        ****    I2C_1_I2CMasterWriteByte(0x84, 100u);
 820              		.loc 1 268 0
 821 0016 6421     		movs	r1, #100
 822 0018 8420     		movs	r0, #132
 823 001a FFF7FEFF 		bl	I2C_1_I2CMasterWriteByte
 269:main.c        ****    I2C_1_I2CMasterSendStop(100u);
 824              		.loc 1 269 0
 825 001e 6420     		movs	r0, #100
 826 0020 FFF7FEFF 		bl	I2C_1_I2CMasterSendStop
 270:main.c        ****    //Config register 2
 271:main.c        ****    I2C_1_I2CMasterSendStart(0x4D, I2C_1_I2C_WRITE_XFER_MODE, 100u);
 827              		.loc 1 271 0
 828 0024 6422     		movs	r2, #100
 829 0026 0021     		movs	r1, #0
ARM GAS  C:\Users\sergio\AppData\Local\Temp\ccV5Q6Sf.s 			page 21


 830 0028 4D20     		movs	r0, #77
 831 002a FFF7FEFF 		bl	I2C_1_I2CMasterSendStart
 272:main.c        ****    I2C_1_I2CMasterWriteByte(0x3F, 100u);
 832              		.loc 1 272 0
 833 002e 6421     		movs	r1, #100
 834 0030 3F20     		movs	r0, #63
 835 0032 FFF7FEFF 		bl	I2C_1_I2CMasterWriteByte
 273:main.c        ****    I2C_1_I2CMasterWriteByte(0x3C, 100u);
 836              		.loc 1 273 0
 837 0036 6421     		movs	r1, #100
 838 0038 3C20     		movs	r0, #60
 839 003a FFF7FEFF 		bl	I2C_1_I2CMasterWriteByte
 274:main.c        ****    I2C_1_I2CMasterSendStop(100u);   
 840              		.loc 1 274 0
 841 003e 6420     		movs	r0, #100
 842 0040 FFF7FEFF 		bl	I2C_1_I2CMasterSendStop
 275:main.c        **** }
 843              		.loc 1 275 0
 844 0044 C046     		nop
 845 0046 BD46     		mov	sp, r7
 846              		@ sp needed
 847 0048 80BD     		pop	{r7, pc}
 848              		.cfi_endproc
 849              	.LFE44:
 850              		.size	configure_temperature_sensor1, .-configure_temperature_sensor1
 851 004a C046     		.section	.text.my_interrupt,"ax",%progbits
 852              		.align	2
 853              		.global	my_interrupt
 854              		.code	16
 855              		.thumb_func
 856              		.type	my_interrupt, %function
 857              	my_interrupt:
 858              	.LFB45:
 276:main.c        **** 
 277:main.c        **** void my_interrupt(){
 859              		.loc 1 277 0
 860              		.cfi_startproc
 861              		@ args = 0, pretend = 0, frame = 0
 862              		@ frame_needed = 1, uses_anonymous_args = 0
 863 0000 80B5     		push	{r7, lr}
 864              		.cfi_def_cfa_offset 8
 865              		.cfi_offset 7, -8
 866              		.cfi_offset 14, -4
 867 0002 00AF     		add	r7, sp, #0
 868              		.cfi_def_cfa_register 7
 278:main.c        ****     
 279:main.c        ****     interruptFlag = 1;
 869              		.loc 1 279 0
 870 0004 054B     		ldr	r3, .L38
 871 0006 0122     		movs	r2, #1
 872 0008 1A60     		str	r2, [r3]
 280:main.c        ****    
 281:main.c        ****      CySysWdtClearInterrupt(CY_SYS_WDT_COUNTER2_INT);
 873              		.loc 1 281 0
 874 000a 8023     		movs	r3, #128
 875 000c DB02     		lsls	r3, r3, #11
 876 000e 1800     		movs	r0, r3
ARM GAS  C:\Users\sergio\AppData\Local\Temp\ccV5Q6Sf.s 			page 22


 877 0010 FFF7FEFF 		bl	CySysWdtClearInterrupt
 282:main.c        **** }
 878              		.loc 1 282 0
 879 0014 C046     		nop
 880 0016 BD46     		mov	sp, r7
 881              		@ sp needed
 882 0018 80BD     		pop	{r7, pc}
 883              	.L39:
 884 001a C046     		.align	2
 885              	.L38:
 886 001c 00000000 		.word	interruptFlag
 887              		.cfi_endproc
 888              	.LFE45:
 889              		.size	my_interrupt, .-my_interrupt
 890              		.section	.rodata
 891 0033 00       		.align	2
 892              	.LC25:
 893 0034 72656164 		.ascii	"reading error\012\000"
 893      696E6720 
 893      6572726F 
 893      720A00
 894 0043 00       		.align	2
 895              	.LC27:
 896 0044 636F756E 		.ascii	"counter: %d            ID: %x\012\000"
 896      7465723A 
 896      20256420 
 896      20202020 
 896      20202020 
 897 0063 00       		.align	2
 898              	.LC32:
 899 0064 53656E73 		.ascii	"Sensor 1 temperature is %d\012\000"
 899      6F722031 
 899      2074656D 
 899      70657261 
 899      74757265 
 900              		.align	2
 901              	.LC34:
 902 0080 53656E73 		.ascii	"Sensor 1 Remote temperature 1 is %d \012\000"
 902      6F722031 
 902      2052656D 
 902      6F746520 
 902      74656D70 
 903 00a6 0000     		.align	2
 904              	.LC36:
 905 00a8 53656E73 		.ascii	"Sensor 1 Remote temperature 2 is %d \012\000"
 905      6F722031 
 905      2052656D 
 905      6F746520 
 905      74656D70 
 906 00ce 0000     		.align	2
 907              	.LC40:
 908 00d0 0A0A5365 		.ascii	"\012\012Sensor 2 temperature is %d\012\000"
 908      6E736F72 
 908      20322074 
 908      656D7065 
 908      72617475 
 909 00ee 0000     		.align	2
ARM GAS  C:\Users\sergio\AppData\Local\Temp\ccV5Q6Sf.s 			page 23


 910              	.LC42:
 911 00f0 53656E73 		.ascii	"Sensor 2 Remote temperature 1 is %d \012\000"
 911      6F722032 
 911      2052656D 
 911      6F746520 
 911      74656D70 
 912 0116 0000     		.align	2
 913              	.LC44:
 914 0118 53656E73 		.ascii	"Sensor 2 Remote temperature 2 is %d \012\012\012\012"
 914      6F722032 
 914      2052656D 
 914      6F746520 
 914      74656D70 
 915 0140 00       		.ascii	"\000"
 916 0141 000000   		.align	2
 917              	.LC46:
 918 0144 0A583A20 		.ascii	"\012X: %d %d    12 bit x: %d\012\000"
 918      25642025 
 918      64202020 
 918      20313220 
 918      62697420 
 919 015f 00       		.align	2
 920              	.LC48:
 921 0160 793A2025 		.ascii	"y: %d %d      12 bit y: %d\012\000"
 921      64202564 
 921      20202020 
 921      20203132 
 921      20626974 
 922              		.align	2
 923              	.LC50:
 924 017c 5A3A2025 		.ascii	"Z: %d %d      12 bit z: %d\012\012\012\000"
 924      64202564 
 924      20202020 
 924      20203132 
 924      20626974 
 925 019a 0000     		.align	2
 926              	.LC52:
 927 019c 0A546865 		.ascii	"\012The humidity is %d\012\000"
 927      2068756D 
 927      69646974 
 927      79206973 
 927      2025640A 
 928 01b1 000000   		.align	2
 929              	.LC54:
 930 01b4 0A546865 		.ascii	"\012Thermostast pins are 0x%x\012\000"
 930      726D6F73 
 930      74617374 
 930      2070696E 
 930      73206172 
 931              		.align	2
 932              	.LC56:
 933 01d0 706F7765 		.ascii	"power 1 ver: %d %d\012\000"
 933      72203120 
 933      7665723A 
 933      20256420 
 933      25640A00 
 934              		.align	2
ARM GAS  C:\Users\sergio\AppData\Local\Temp\ccV5Q6Sf.s 			page 24


 935              	.LC58:
 936 01e4 706F7765 		.ascii	"power 2 ver: %d %d\012\000"
 936      72203220 
 936      7665723A 
 936      20256420 
 936      25640A00 
 937              		.align	2
 938              	.LC60:
 939 01f8 706F7765 		.ascii	"power 3 ver: %d %d\012\000"
 939      72203320 
 939      7665723A 
 939      20256420 
 939      25640A00 
 940              		.section	.text.main,"ax",%progbits
 941              		.align	2
 942              		.global	main
 943              		.code	16
 944              		.thumb_func
 945              		.type	main, %function
 946              	main:
 947              	.LFB46:
 283:main.c        **** 
 284:main.c        **** int main (void)
 285:main.c        **** {
 948              		.loc 1 285 0
 949              		.cfi_startproc
 950              		@ args = 0, pretend = 0, frame = 88
 951              		@ frame_needed = 1, uses_anonymous_args = 0
 952 0000 B0B5     		push	{r4, r5, r7, lr}
 953              		.cfi_def_cfa_offset 16
 954              		.cfi_offset 4, -16
 955              		.cfi_offset 5, -12
 956              		.cfi_offset 7, -8
 957              		.cfi_offset 14, -4
 958 0002 98B0     		sub	sp, sp, #96
 959              		.cfi_def_cfa_offset 112
 960 0004 02AF     		add	r7, sp, #8
 961              		.cfi_def_cfa 7, 104
 286:main.c        ****     /* Place your initialization/startup code here (e.g. MyInst_Start()) */
 287:main.c        **** 
 288:main.c        ****      CyGlobalIntEnable;  /* Uncomment this line to enable global interrupts. */
 962              		.loc 1 288 0
 963              		.syntax divided
 964              	@ 288 "main.c" 1
 965 0006 62B6     		CPSIE   i
 966              	@ 0 "" 2
 289:main.c        ****             
 290:main.c        ****     CEPIN_Write(1);
 967              		.loc 1 290 0
 968              		.thumb
 969              		.syntax unified
 970 0008 0120     		movs	r0, #1
 971 000a FFF7FEFF 		bl	CEPIN_Write
 291:main.c        ****     
 292:main.c        ****     
 293:main.c        ****     RED_Write(0);
 972              		.loc 1 293 0
ARM GAS  C:\Users\sergio\AppData\Local\Temp\ccV5Q6Sf.s 			page 25


 973 000e 0020     		movs	r0, #0
 974 0010 FFF7FEFF 		bl	RED_Write
 294:main.c        ****     GREEN_Write(0);
 975              		.loc 1 294 0
 976 0014 0020     		movs	r0, #0
 977 0016 FFF7FEFF 		bl	GREEN_Write
 295:main.c        ****     BLUE_Write(0);
 978              		.loc 1 295 0
 979 001a 0020     		movs	r0, #0
 980 001c FFF7FEFF 		bl	BLUE_Write
 296:main.c        ****     CyDelay(500);
 981              		.loc 1 296 0
 982 0020 FA23     		movs	r3, #250
 983 0022 5B00     		lsls	r3, r3, #1
 984 0024 1800     		movs	r0, r3
 985 0026 FFF7FEFF 		bl	CyDelay
 297:main.c        ****     RED_Write(1);
 986              		.loc 1 297 0
 987 002a 0120     		movs	r0, #1
 988 002c FFF7FEFF 		bl	RED_Write
 298:main.c        ****     GREEN_Write(1);
 989              		.loc 1 298 0
 990 0030 0120     		movs	r0, #1
 991 0032 FFF7FEFF 		bl	GREEN_Write
 299:main.c        ****     BLUE_Write(1);
 992              		.loc 1 299 0
 993 0036 0120     		movs	r0, #1
 994 0038 FFF7FEFF 		bl	BLUE_Write
 300:main.c        ****     
 301:main.c        ****     //I2C_1_I2CInit();
 302:main.c        **** //    I2C_1_Init();
 303:main.c        **** //    I2C_1_Enable();
 304:main.c        ****     I2C_1_Start();
 995              		.loc 1 304 0
 996 003c FFF7FEFF 		bl	I2C_1_Start
 305:main.c        ****     
 306:main.c        ****      MyUART_Start();
 997              		.loc 1 306 0
 998 0040 FFF7FEFF 		bl	MyUART_Start
 307:main.c        ****     
 308:main.c        ****      // call after I2C have been initiated
 309:main.c        ****     configure_temperature_sensor2();
 999              		.loc 1 309 0
 1000 0044 FFF7FEFF 		bl	configure_temperature_sensor2
 310:main.c        ****     configure_temperature_sensor1();
 1001              		.loc 1 310 0
 1002 0048 FFF7FEFF 		bl	configure_temperature_sensor1
 311:main.c        ****     initialized_input_gpioExp();
 1003              		.loc 1 311 0
 1004 004c FFF7FEFF 		bl	initialized_input_gpioExp
 312:main.c        ****     
 313:main.c        ****     CyBle_Start(bleStack);
 1005              		.loc 1 313 0
 1006 0050 FB4B     		ldr	r3, .L56
 1007 0052 1800     		movs	r0, r3
 1008 0054 FFF7FEFF 		bl	CyBle_Start
 314:main.c        ****     
ARM GAS  C:\Users\sergio\AppData\Local\Temp\ccV5Q6Sf.s 			page 26


 315:main.c        ****     CySysWdtEnable(CY_SYS_WDT_COUNTER2);
 1009              		.loc 1 315 0
 1010 0058 0220     		movs	r0, #2
 1011 005a FFF7FEFF 		bl	CySysWdtEnable
 316:main.c        ****     int_1_StartEx(my_interrupt);
 1012              		.loc 1 316 0
 1013 005e F94B     		ldr	r3, .L56+4
 1014 0060 1800     		movs	r0, r3
 1015 0062 FFF7FEFF 		bl	int_1_StartEx
 317:main.c        **** 
 318:main.c        ****     
 319:main.c        **** uint8 temp1 = 0;
 1016              		.loc 1 319 0
 1017 0066 5323     		movs	r3, #83
 1018 0068 FB18     		adds	r3, r7, r3
 1019 006a 0022     		movs	r2, #0
 1020 006c 1A70     		strb	r2, [r3]
 320:main.c        **** uint8 tempR1 = 0;
 1021              		.loc 1 320 0
 1022 006e 5223     		movs	r3, #82
 1023 0070 FB18     		adds	r3, r7, r3
 1024 0072 0022     		movs	r2, #0
 1025 0074 1A70     		strb	r2, [r3]
 321:main.c        **** uint8 tempR2 = 0;
 1026              		.loc 1 321 0
 1027 0076 5123     		movs	r3, #81
 1028 0078 FB18     		adds	r3, r7, r3
 1029 007a 0022     		movs	r2, #0
 1030 007c 1A70     		strb	r2, [r3]
 322:main.c        **** uint8_t temp2 = 0;
 1031              		.loc 1 322 0
 1032 007e 4A23     		movs	r3, #74
 1033 0080 FB18     		adds	r3, r7, r3
 1034 0082 0022     		movs	r2, #0
 1035 0084 1A70     		strb	r2, [r3]
 323:main.c        **** uint8_t tempR12 = 0;    
 1036              		.loc 1 323 0
 1037 0086 5023     		movs	r3, #80
 1038 0088 FB18     		adds	r3, r7, r3
 1039 008a 0022     		movs	r2, #0
 1040 008c 1A70     		strb	r2, [r3]
 324:main.c        **** uint8_t tempR22 = 0;
 1041              		.loc 1 324 0
 1042 008e 4F23     		movs	r3, #79
 1043 0090 FB18     		adds	r3, r7, r3
 1044 0092 0022     		movs	r2, #0
 1045 0094 1A70     		strb	r2, [r3]
 325:main.c        ****    // volatile thermostatData thermo;
 326:main.c        ****    // volatile dataCollected sensorData;
 327:main.c        ****     thermo.setTemperature = 24;
 1046              		.loc 1 327 0
 1047 0096 EC4B     		ldr	r3, .L56+8
 1048 0098 1822     		movs	r2, #24
 1049 009a DA70     		strb	r2, [r3, #3]
 328:main.c        ****     thermo.ambientTemp = 0;
 1050              		.loc 1 328 0
 1051 009c EA4B     		ldr	r3, .L56+8
ARM GAS  C:\Users\sergio\AppData\Local\Temp\ccV5Q6Sf.s 			page 27


 1052 009e 0022     		movs	r2, #0
 1053 00a0 1A71     		strb	r2, [r3, #4]
 329:main.c        ****     
 330:main.c        ****     int counter =0;
 1054              		.loc 1 330 0
 1055 00a2 0023     		movs	r3, #0
 1056 00a4 7B65     		str	r3, [r7, #84]
 1057              	.L55:
 331:main.c        ****     
 332:main.c        ****     for(;;)
 333:main.c        ****     {
 334:main.c        **** 
 335:main.c        **** if(interruptFlag == 1){
 1058              		.loc 1 335 0
 1059 00a6 E94B     		ldr	r3, .L56+12
 1060 00a8 1B68     		ldr	r3, [r3]
 1061 00aa 012B     		cmp	r3, #1
 1062 00ac 00D0     		beq	.LCB785
 1063 00ae 5BE3     		b	.L41	@long jump
 1064              	.LCB785:
 1065              	.LBB2:
 336:main.c        ****        RED_Write(!RED_Read());
 1066              		.loc 1 336 0
 1067 00b0 FFF7FEFF 		bl	RED_Read
 1068 00b4 0300     		movs	r3, r0
 1069 00b6 5A42     		rsbs	r2, r3, #0
 1070 00b8 5341     		adcs	r3, r3, r2
 1071 00ba DBB2     		uxtb	r3, r3
 1072 00bc 1800     		movs	r0, r3
 1073 00be FFF7FEFF 		bl	RED_Write
 337:main.c        ****     volatile uint8 read_buff[2] = {0,0};
 1074              		.loc 1 337 0
 1075 00c2 4823     		movs	r3, #72
 1076 00c4 FB18     		adds	r3, r7, r3
 1077 00c6 0022     		movs	r2, #0
 1078 00c8 1A70     		strb	r2, [r3]
 1079 00ca 4823     		movs	r3, #72
 1080 00cc FB18     		adds	r3, r7, r3
 1081 00ce 0022     		movs	r2, #0
 1082 00d0 5A70     		strb	r2, [r3, #1]
 338:main.c        **** 
 339:main.c        **** //uint8 pins = 0u;
 340:main.c        **** 
 341:main.c        ****   
 342:main.c        ****     
 343:main.c        **** 
 344:main.c        ****         
 345:main.c        ****     // -----------------------read temperatures--------------------------------------
 346:main.c        ****     char str[50];
 347:main.c        ****     uint8 wBuff[2] = {0x00, 0u};
 1083              		.loc 1 347 0
 1084 00d2 4423     		movs	r3, #68
 1085 00d4 FB18     		adds	r3, r7, r3
 1086 00d6 0022     		movs	r2, #0
 1087 00d8 1A70     		strb	r2, [r3]
 1088 00da 4423     		movs	r3, #68
 1089 00dc FB18     		adds	r3, r7, r3
ARM GAS  C:\Users\sergio\AppData\Local\Temp\ccV5Q6Sf.s 			page 28


 1090 00de 0022     		movs	r2, #0
 1091 00e0 5A70     		strb	r2, [r3, #1]
 348:main.c        ****     volatile uint8 rBuff[2] = {0u, 0u};
 1092              		.loc 1 348 0
 1093 00e2 4023     		movs	r3, #64
 1094 00e4 FB18     		adds	r3, r7, r3
 1095 00e6 0022     		movs	r2, #0
 1096 00e8 1A70     		strb	r2, [r3]
 1097 00ea 4023     		movs	r3, #64
 1098 00ec FB18     		adds	r3, r7, r3
 1099 00ee 0022     		movs	r2, #0
 1100 00f0 5A70     		strb	r2, [r3, #1]
 349:main.c        ****     
 350:main.c        ****   
 351:main.c        ****     
 352:main.c        **** ////  READ local sensor    
 353:main.c        ****    I2C_1_I2CMasterSendStart(0x4C, I2C_1_I2C_WRITE_XFER_MODE, 0);
 1101              		.loc 1 353 0
 1102 00f2 0022     		movs	r2, #0
 1103 00f4 0021     		movs	r1, #0
 1104 00f6 4C20     		movs	r0, #76
 1105 00f8 FFF7FEFF 		bl	I2C_1_I2CMasterSendStart
 354:main.c        **** if ((I2C_1_I2CMasterStatus() & I2C_1_I2C_MSTAT_ERR_ADDR_NAK)==1){ MyUART_PutString("slave NACK addr
 1106              		.loc 1 354 0
 1107 00fc FFF7FEFF 		bl	I2C_1_I2CMasterStatus
 355:main.c        ****    I2C_1_I2CMasterWriteByte(0xFD, 0); // check ID 
 1108              		.loc 1 355 0
 1109 0100 0021     		movs	r1, #0
 1110 0102 FD20     		movs	r0, #253
 1111 0104 FFF7FEFF 		bl	I2C_1_I2CMasterWriteByte
 356:main.c        **** if ((I2C_1_I2CMasterStatus() & I2C_1_I2C_MSTAT_WR_CMPLT)==1){ MyUART_PutString("writing error\n");}
 1112              		.loc 1 356 0
 1113 0108 FFF7FEFF 		bl	I2C_1_I2CMasterStatus
 357:main.c        ****    I2C_1_I2CMasterSendRestart(0x4C,I2C_1_I2C_READ_XFER_MODE, 0);
 1114              		.loc 1 357 0
 1115 010c 0022     		movs	r2, #0
 1116 010e 0121     		movs	r1, #1
 1117 0110 4C20     		movs	r0, #76
 1118 0112 FFF7FEFF 		bl	I2C_1_I2CMasterSendRestart
 358:main.c        **** 
 359:main.c        ****    I2C_1_I2CMasterReadByte(I2C_1_I2C_NAK_DATA,(uint8 *) &thermo.ambientTemp, 0);
 1119              		.loc 1 359 0
 1120 0116 CE4B     		ldr	r3, .L56+16
 1121 0118 0022     		movs	r2, #0
 1122 011a 1900     		movs	r1, r3
 1123 011c 0120     		movs	r0, #1
 1124 011e FFF7FEFF 		bl	I2C_1_I2CMasterReadByte
 360:main.c        **** if ((I2C_1_I2CMasterStatus() & I2C_1_I2C_MSTAT_RD_CMPLT)==1){ MyUART_PutString("reading error\n");}
 1125              		.loc 1 360 0
 1126 0122 FFF7FEFF 		bl	I2C_1_I2CMasterStatus
 1127 0126 0200     		movs	r2, r0
 1128 0128 0123     		movs	r3, #1
 1129 012a 1340     		ands	r3, r2
 1130 012c 03D0     		beq	.L42
 1131              		.loc 1 360 0 is_stmt 0 discriminator 1
 1132 012e C94B     		ldr	r3, .L56+20
 1133 0130 1800     		movs	r0, r3
ARM GAS  C:\Users\sergio\AppData\Local\Temp\ccV5Q6Sf.s 			page 29


 1134 0132 FFF7FEFF 		bl	MyUART_PutString
 1135              	.L42:
 361:main.c        ****    I2C_1_I2CMasterSendStop(0);
 1136              		.loc 1 361 0 is_stmt 1
 1137 0136 0020     		movs	r0, #0
 1138 0138 FFF7FEFF 		bl	I2C_1_I2CMasterSendStop
 362:main.c        **** 
 363:main.c        **** 
 364:main.c        ****   sprintf(str, "counter: %d            ID: %x\n", counter, thermo.ambientTemp);
 1139              		.loc 1 364 0
 1140 013c C24B     		ldr	r3, .L56+8
 1141 013e 1B79     		ldrb	r3, [r3, #4]
 1142 0140 7A6D     		ldr	r2, [r7, #84]
 1143 0142 C549     		ldr	r1, .L56+24
 1144 0144 381D     		adds	r0, r7, #4
 1145 0146 FFF7FEFF 		bl	sprintf
 365:main.c        ****     MyUART_PutString(str);
 1146              		.loc 1 365 0
 1147 014a 3B1D     		adds	r3, r7, #4
 1148 014c 1800     		movs	r0, r3
 1149 014e FFF7FEFF 		bl	MyUART_PutString
 366:main.c        ****     counter +=1;
 1150              		.loc 1 366 0
 1151 0152 7B6D     		ldr	r3, [r7, #84]
 1152 0154 0133     		adds	r3, r3, #1
 1153 0156 7B65     		str	r3, [r7, #84]
 367:main.c        **** //
 368:main.c        **** ///I2C_1_I2CMasterWriteBuf(0x4D,(uint8 *) wBuff, 1, I2C_1_I2C_MODE_NO_STOP);
 369:main.c        **** ////while((I2C_1_I2CMasterStatus() & I2C_1_I2C_MSTAT_WR_CMPLT) == 0u) {}
 370:main.c        **** //
 371:main.c        **** ////I2C_1_I2CMasterReadBuf(0x4D,(uint8 *) rBuff, 1, I2C_1_I2C_MODE_COMPLETE_XFER);
 372:main.c        **** ////while((I2C_1_I2CMasterStatus() & I2C_1_I2C_MSTAT_RD_CMPLT) == 0u) {}
 373:main.c        **** //
 374:main.c        **** //
 375:main.c        ****     I2C_1_I2CMasterSendStart(0x4C, I2C_1_I2C_WRITE_XFER_MODE, 0u);
 1154              		.loc 1 375 0
 1155 0158 0022     		movs	r2, #0
 1156 015a 0021     		movs	r1, #0
 1157 015c 4C20     		movs	r0, #76
 1158 015e FFF7FEFF 		bl	I2C_1_I2CMasterSendStart
 376:main.c        ****    I2C_1_I2CMasterWriteByte(0x00, 0u);
 1159              		.loc 1 376 0
 1160 0162 0021     		movs	r1, #0
 1161 0164 0020     		movs	r0, #0
 1162 0166 FFF7FEFF 		bl	I2C_1_I2CMasterWriteByte
 377:main.c        ****    I2C_1_I2CMasterSendRestart(0x4C,I2C_1_I2C_READ_XFER_MODE, 0u);
 1163              		.loc 1 377 0
 1164 016a 0022     		movs	r2, #0
 1165 016c 0121     		movs	r1, #1
 1166 016e 4C20     		movs	r0, #76
 1167 0170 FFF7FEFF 		bl	I2C_1_I2CMasterSendRestart
 378:main.c        ****    //I2C_1_I2CMasterReadByte(I2C_1_I2C_ACK_DATA,(uint8 *) &read_buff[0],100u);
 379:main.c        ****    I2C_1_I2CMasterReadByte(I2C_1_I2C_NAK_DATA,(uint8 *) &sensorData.localTemp,0u);
 1168              		.loc 1 379 0
 1169 0174 B94B     		ldr	r3, .L56+28
 1170 0176 0022     		movs	r2, #0
 1171 0178 1900     		movs	r1, r3
ARM GAS  C:\Users\sergio\AppData\Local\Temp\ccV5Q6Sf.s 			page 30


 1172 017a 0120     		movs	r0, #1
 1173 017c FFF7FEFF 		bl	I2C_1_I2CMasterReadByte
 380:main.c        ****    I2C_1_I2CMasterSendStop(0u);
 1174              		.loc 1 380 0
 1175 0180 0020     		movs	r0, #0
 1176 0182 FFF7FEFF 		bl	I2C_1_I2CMasterSendStop
 381:main.c        ****     
 382:main.c        **** ////  READ remote sensor 1
 383:main.c        ****   I2C_1_I2CMasterSendStart(0x4C, I2C_1_I2C_WRITE_XFER_MODE, 0u);
 1177              		.loc 1 383 0
 1178 0186 0022     		movs	r2, #0
 1179 0188 0021     		movs	r1, #0
 1180 018a 4C20     		movs	r0, #76
 1181 018c FFF7FEFF 		bl	I2C_1_I2CMasterSendStart
 384:main.c        ****    I2C_1_I2CMasterWriteByte(0x01, 0u);
 1182              		.loc 1 384 0
 1183 0190 0021     		movs	r1, #0
 1184 0192 0120     		movs	r0, #1
 1185 0194 FFF7FEFF 		bl	I2C_1_I2CMasterWriteByte
 385:main.c        ****    I2C_1_I2CMasterSendRestart(0x4C,I2C_1_I2C_READ_XFER_MODE, 0u);
 1186              		.loc 1 385 0
 1187 0198 0022     		movs	r2, #0
 1188 019a 0121     		movs	r1, #1
 1189 019c 4C20     		movs	r0, #76
 1190 019e FFF7FEFF 		bl	I2C_1_I2CMasterSendRestart
 386:main.c        ****    //I2C_1_I2CMasterReadByte(I2C_1_I2C_ACK_DATA,(uint8 *) &read_buff[0],100u);
 387:main.c        ****    I2C_1_I2CMasterReadByte(I2C_1_I2C_NAK_DATA,(uint8 *) &sensorData.remoteTemp1,0u);
 1191              		.loc 1 387 0
 1192 01a2 AF4B     		ldr	r3, .L56+32
 1193 01a4 0022     		movs	r2, #0
 1194 01a6 1900     		movs	r1, r3
 1195 01a8 0120     		movs	r0, #1
 1196 01aa FFF7FEFF 		bl	I2C_1_I2CMasterReadByte
 388:main.c        ****    I2C_1_I2CMasterSendStop(0u);
 1197              		.loc 1 388 0
 1198 01ae 0020     		movs	r0, #0
 1199 01b0 FFF7FEFF 		bl	I2C_1_I2CMasterSendStop
 389:main.c        **** //
 390:main.c        **** //
 391:main.c        **** ////  READ remote sensor 2
 392:main.c        ****   I2C_1_I2CMasterSendStart(0x4C, I2C_1_I2C_WRITE_XFER_MODE, 100u);
 1200              		.loc 1 392 0
 1201 01b4 6422     		movs	r2, #100
 1202 01b6 0021     		movs	r1, #0
 1203 01b8 4C20     		movs	r0, #76
 1204 01ba FFF7FEFF 		bl	I2C_1_I2CMasterSendStart
 393:main.c        ****    I2C_1_I2CMasterWriteByte(0x23, 100u);
 1205              		.loc 1 393 0
 1206 01be 6421     		movs	r1, #100
 1207 01c0 2320     		movs	r0, #35
 1208 01c2 FFF7FEFF 		bl	I2C_1_I2CMasterWriteByte
 394:main.c        ****    I2C_1_I2CMasterSendRestart(0x4C,I2C_1_I2C_READ_XFER_MODE, 100u);
 1209              		.loc 1 394 0
 1210 01c6 6422     		movs	r2, #100
 1211 01c8 0121     		movs	r1, #1
 1212 01ca 4C20     		movs	r0, #76
 1213 01cc FFF7FEFF 		bl	I2C_1_I2CMasterSendRestart
ARM GAS  C:\Users\sergio\AppData\Local\Temp\ccV5Q6Sf.s 			page 31


 395:main.c        ****    //I2C_1_I2CMasterReadByte(I2C_1_I2C_ACK_DATA,(uint8 *) &read_buff[0],100u);
 396:main.c        ****    I2C_1_I2CMasterReadByte(I2C_1_I2C_NAK_DATA,(uint8 *) &sensorData.remoteTemp2,100u);
 1214              		.loc 1 396 0
 1215 01d0 A44B     		ldr	r3, .L56+36
 1216 01d2 6422     		movs	r2, #100
 1217 01d4 1900     		movs	r1, r3
 1218 01d6 0120     		movs	r0, #1
 1219 01d8 FFF7FEFF 		bl	I2C_1_I2CMasterReadByte
 397:main.c        ****    I2C_1_I2CMasterSendStop(100u);
 1220              		.loc 1 397 0
 1221 01dc 6420     		movs	r0, #100
 1222 01de FFF7FEFF 		bl	I2C_1_I2CMasterSendStop
 398:main.c        **** //
 399:main.c        **** //
 400:main.c        **** //
 401:main.c        **** //
 402:main.c        **** sprintf(str, "Sensor 1 temperature is %d\n", sensorData.localTemp-64);
 1223              		.loc 1 402 0
 1224 01e2 9E4B     		ldr	r3, .L56+28
 1225 01e4 1B78     		ldrb	r3, [r3]
 1226 01e6 403B     		subs	r3, r3, #64
 1227 01e8 1A00     		movs	r2, r3
 1228 01ea 9F49     		ldr	r1, .L56+40
 1229 01ec 3B1D     		adds	r3, r7, #4
 1230 01ee 1800     		movs	r0, r3
 1231 01f0 FFF7FEFF 		bl	sprintf
 403:main.c        **** MyUART_PutString(str);
 1232              		.loc 1 403 0
 1233 01f4 3B1D     		adds	r3, r7, #4
 1234 01f6 1800     		movs	r0, r3
 1235 01f8 FFF7FEFF 		bl	MyUART_PutString
 404:main.c        **** //
 405:main.c        **** //CyDelay(500);
 406:main.c        **** //
 407:main.c        **** sprintf(str, "Sensor 1 Remote temperature 1 is %d \n", (sensorData.remoteTemp1-64));
 1236              		.loc 1 407 0
 1237 01fc 974B     		ldr	r3, .L56+28
 1238 01fe 5B78     		ldrb	r3, [r3, #1]
 1239 0200 403B     		subs	r3, r3, #64
 1240 0202 1A00     		movs	r2, r3
 1241 0204 9949     		ldr	r1, .L56+44
 1242 0206 3B1D     		adds	r3, r7, #4
 1243 0208 1800     		movs	r0, r3
 1244 020a FFF7FEFF 		bl	sprintf
 408:main.c        **** MyUART_PutString(str);
 1245              		.loc 1 408 0
 1246 020e 3B1D     		adds	r3, r7, #4
 1247 0210 1800     		movs	r0, r3
 1248 0212 FFF7FEFF 		bl	MyUART_PutString
 409:main.c        **** 
 410:main.c        **** 
 411:main.c        **** sprintf(str, "Sensor 1 Remote temperature 2 is %d \n", (sensorData.remoteTemp2-64));
 1249              		.loc 1 411 0
 1250 0216 914B     		ldr	r3, .L56+28
 1251 0218 9B78     		ldrb	r3, [r3, #2]
 1252 021a 403B     		subs	r3, r3, #64
 1253 021c 1A00     		movs	r2, r3
ARM GAS  C:\Users\sergio\AppData\Local\Temp\ccV5Q6Sf.s 			page 32


 1254 021e 9449     		ldr	r1, .L56+48
 1255 0220 3B1D     		adds	r3, r7, #4
 1256 0222 1800     		movs	r0, r3
 1257 0224 FFF7FEFF 		bl	sprintf
 412:main.c        **** MyUART_PutString(str);
 1258              		.loc 1 412 0
 1259 0228 3B1D     		adds	r3, r7, #4
 1260 022a 1800     		movs	r0, r3
 1261 022c FFF7FEFF 		bl	MyUART_PutString
 413:main.c        **** //
 414:main.c        **** //temp = tempR1 = tempR2 = 0;
 415:main.c        ****   //READ local sensor  2  
 416:main.c        ****    I2C_1_I2CMasterSendStart(0x4D, I2C_1_I2C_WRITE_XFER_MODE, 100u);
 1262              		.loc 1 416 0
 1263 0230 6422     		movs	r2, #100
 1264 0232 0021     		movs	r1, #0
 1265 0234 4D20     		movs	r0, #77
 1266 0236 FFF7FEFF 		bl	I2C_1_I2CMasterSendStart
 417:main.c        ****    I2C_1_I2CMasterWriteByte(0x00, 100u);
 1267              		.loc 1 417 0
 1268 023a 6421     		movs	r1, #100
 1269 023c 0020     		movs	r0, #0
 1270 023e FFF7FEFF 		bl	I2C_1_I2CMasterWriteByte
 418:main.c        ****    I2C_1_I2CMasterSendRestart(0x4D,I2C_1_I2C_READ_XFER_MODE, 100u);
 1271              		.loc 1 418 0
 1272 0242 6422     		movs	r2, #100
 1273 0244 0121     		movs	r1, #1
 1274 0246 4D20     		movs	r0, #77
 1275 0248 FFF7FEFF 		bl	I2C_1_I2CMasterSendRestart
 419:main.c        ****    //I2C_1_I2CMasterReadByte(I2C_1_I2C_ACK_DATA,(uint8 *) &read_buff[0],100u);
 420:main.c        ****    I2C_1_I2CMasterReadByte(I2C_1_I2C_NAK_DATA,(uint8 *) &temp2,100u);
 1276              		.loc 1 420 0
 1277 024c 4A23     		movs	r3, #74
 1278 024e FB18     		adds	r3, r7, r3
 1279 0250 6422     		movs	r2, #100
 1280 0252 1900     		movs	r1, r3
 1281 0254 0120     		movs	r0, #1
 1282 0256 FFF7FEFF 		bl	I2C_1_I2CMasterReadByte
 421:main.c        ****    I2C_1_I2CMasterSendStop(100u);
 1283              		.loc 1 421 0
 1284 025a 6420     		movs	r0, #100
 1285 025c FFF7FEFF 		bl	I2C_1_I2CMasterSendStop
 422:main.c        **** 
 423:main.c        **** //  READ remote 2 sensor 1
 424:main.c        ****   I2C_1_I2CMasterSendStart(0x4D, I2C_1_I2C_WRITE_XFER_MODE, 100u);
 1286              		.loc 1 424 0
 1287 0260 6422     		movs	r2, #100
 1288 0262 0021     		movs	r1, #0
 1289 0264 4D20     		movs	r0, #77
 1290 0266 FFF7FEFF 		bl	I2C_1_I2CMasterSendStart
 425:main.c        ****    I2C_1_I2CMasterWriteByte(0x01, 100u);
 1291              		.loc 1 425 0
 1292 026a 6421     		movs	r1, #100
 1293 026c 0120     		movs	r0, #1
 1294 026e FFF7FEFF 		bl	I2C_1_I2CMasterWriteByte
 426:main.c        ****    I2C_1_I2CMasterSendRestart(0x4D,I2C_1_I2C_READ_XFER_MODE, 100u);
 1295              		.loc 1 426 0
ARM GAS  C:\Users\sergio\AppData\Local\Temp\ccV5Q6Sf.s 			page 33


 1296 0272 6422     		movs	r2, #100
 1297 0274 0121     		movs	r1, #1
 1298 0276 4D20     		movs	r0, #77
 1299 0278 FFF7FEFF 		bl	I2C_1_I2CMasterSendRestart
 427:main.c        ****    //I2C_1_I2CMasterReadByte(I2C_1_I2C_ACK_DATA,(uint8 *) &read_buff[0],100u);
 428:main.c        ****    I2C_1_I2CMasterReadByte(I2C_1_I2C_NAK_DATA,(uint8 *) &sensorData.remoteTemp3,100u);
 1300              		.loc 1 428 0
 1301 027c 7D4B     		ldr	r3, .L56+52
 1302 027e 6422     		movs	r2, #100
 1303 0280 1900     		movs	r1, r3
 1304 0282 0120     		movs	r0, #1
 1305 0284 FFF7FEFF 		bl	I2C_1_I2CMasterReadByte
 429:main.c        ****    I2C_1_I2CMasterSendStop(100u);
 1306              		.loc 1 429 0
 1307 0288 6420     		movs	r0, #100
 1308 028a FFF7FEFF 		bl	I2C_1_I2CMasterSendStop
 430:main.c        **** 
 431:main.c        **** 
 432:main.c        **** //  READ remote 2 sensor 2
 433:main.c        ****   I2C_1_I2CMasterSendStart(0x4D, I2C_1_I2C_WRITE_XFER_MODE, 100u);
 1309              		.loc 1 433 0
 1310 028e 6422     		movs	r2, #100
 1311 0290 0021     		movs	r1, #0
 1312 0292 4D20     		movs	r0, #77
 1313 0294 FFF7FEFF 		bl	I2C_1_I2CMasterSendStart
 434:main.c        ****    I2C_1_I2CMasterWriteByte(0x23, 100u);
 1314              		.loc 1 434 0
 1315 0298 6421     		movs	r1, #100
 1316 029a 2320     		movs	r0, #35
 1317 029c FFF7FEFF 		bl	I2C_1_I2CMasterWriteByte
 435:main.c        ****    I2C_1_I2CMasterSendRestart(0x4D,I2C_1_I2C_READ_XFER_MODE, 100u);
 1318              		.loc 1 435 0
 1319 02a0 6422     		movs	r2, #100
 1320 02a2 0121     		movs	r1, #1
 1321 02a4 4D20     		movs	r0, #77
 1322 02a6 FFF7FEFF 		bl	I2C_1_I2CMasterSendRestart
 436:main.c        ****    //I2C_1_I2CMasterReadByte(I2C_1_I2C_ACK_DATA,(uint8 *) &read_buff[0],100u);
 437:main.c        ****    I2C_1_I2CMasterReadByte(I2C_1_I2C_NAK_DATA,(uint8 *) &sensorData.remoteTemp4,100u);
 1323              		.loc 1 437 0
 1324 02aa 734B     		ldr	r3, .L56+56
 1325 02ac 6422     		movs	r2, #100
 1326 02ae 1900     		movs	r1, r3
 1327 02b0 0120     		movs	r0, #1
 1328 02b2 FFF7FEFF 		bl	I2C_1_I2CMasterReadByte
 438:main.c        ****    I2C_1_I2CMasterSendStop(100u);
 1329              		.loc 1 438 0
 1330 02b6 6420     		movs	r0, #100
 1331 02b8 FFF7FEFF 		bl	I2C_1_I2CMasterSendStop
 439:main.c        **** 
 440:main.c        **** 
 441:main.c        **** 
 442:main.c        **** 
 443:main.c        **** sprintf(str, "\n\nSensor 2 temperature is %d\n", (temp2-64));
 1332              		.loc 1 443 0
 1333 02bc 4A23     		movs	r3, #74
 1334 02be FB18     		adds	r3, r7, r3
 1335 02c0 1B78     		ldrb	r3, [r3]
ARM GAS  C:\Users\sergio\AppData\Local\Temp\ccV5Q6Sf.s 			page 34


 1336 02c2 403B     		subs	r3, r3, #64
 1337 02c4 1A00     		movs	r2, r3
 1338 02c6 6D49     		ldr	r1, .L56+60
 1339 02c8 3B1D     		adds	r3, r7, #4
 1340 02ca 1800     		movs	r0, r3
 1341 02cc FFF7FEFF 		bl	sprintf
 444:main.c        **** MyUART_PutString(str);
 1342              		.loc 1 444 0
 1343 02d0 3B1D     		adds	r3, r7, #4
 1344 02d2 1800     		movs	r0, r3
 1345 02d4 FFF7FEFF 		bl	MyUART_PutString
 445:main.c        **** 
 446:main.c        **** sprintf(str, "Sensor 2 Remote temperature 1 is %d \n", (sensorData.remoteTemp3-64));
 1346              		.loc 1 446 0
 1347 02d8 604B     		ldr	r3, .L56+28
 1348 02da DB78     		ldrb	r3, [r3, #3]
 1349 02dc 403B     		subs	r3, r3, #64
 1350 02de 1A00     		movs	r2, r3
 1351 02e0 6749     		ldr	r1, .L56+64
 1352 02e2 3B1D     		adds	r3, r7, #4
 1353 02e4 1800     		movs	r0, r3
 1354 02e6 FFF7FEFF 		bl	sprintf
 447:main.c        **** MyUART_PutString(str);
 1355              		.loc 1 447 0
 1356 02ea 3B1D     		adds	r3, r7, #4
 1357 02ec 1800     		movs	r0, r3
 1358 02ee FFF7FEFF 		bl	MyUART_PutString
 448:main.c        **** 
 449:main.c        **** 
 450:main.c        **** sprintf(str, "Sensor 2 Remote temperature 2 is %d \n\n\n\n", (sensorData.remoteTemp4-64));
 1359              		.loc 1 450 0
 1360 02f2 5A4B     		ldr	r3, .L56+28
 1361 02f4 1B79     		ldrb	r3, [r3, #4]
 1362 02f6 403B     		subs	r3, r3, #64
 1363 02f8 1A00     		movs	r2, r3
 1364 02fa 6249     		ldr	r1, .L56+68
 1365 02fc 3B1D     		adds	r3, r7, #4
 1366 02fe 1800     		movs	r0, r3
 1367 0300 FFF7FEFF 		bl	sprintf
 451:main.c        **** MyUART_PutString(str);
 1368              		.loc 1 451 0
 1369 0304 3B1D     		adds	r3, r7, #4
 1370 0306 1800     		movs	r0, r3
 1371 0308 FFF7FEFF 		bl	MyUART_PutString
 452:main.c        **** 
 453:main.c        **** 
 454:main.c        **** 
 455:main.c        **** /*  ---------------------------- ACCELEROMETER -----------------------------------   */
 456:main.c        **** 
 457:main.c        **** uint8 xLSB;
 458:main.c        **** uint8 xMSB;
 459:main.c        **** uint8 yLSB;
 460:main.c        **** uint8 yMSB;
 461:main.c        **** uint8 zLSB;
 462:main.c        **** uint8 zMSB;
 463:main.c        **** 
 464:main.c        **** I2C_1_I2CMasterSendStart(0x18,I2C_1_I2C_WRITE_XFER_MODE, 100u);
ARM GAS  C:\Users\sergio\AppData\Local\Temp\ccV5Q6Sf.s 			page 35


 1372              		.loc 1 464 0
 1373 030c 6422     		movs	r2, #100
 1374 030e 0021     		movs	r1, #0
 1375 0310 1820     		movs	r0, #24
 1376 0312 FFF7FEFF 		bl	I2C_1_I2CMasterSendStart
 465:main.c        **** I2C_1_I2CMasterWriteByte(0x02, 100u);
 1377              		.loc 1 465 0
 1378 0316 6421     		movs	r1, #100
 1379 0318 0220     		movs	r0, #2
 1380 031a FFF7FEFF 		bl	I2C_1_I2CMasterWriteByte
 466:main.c        **** I2C_1_I2CMasterSendRestart(0x18, I2C_1_I2C_READ_XFER_MODE, 100u);
 1381              		.loc 1 466 0
 1382 031e 6422     		movs	r2, #100
 1383 0320 0121     		movs	r1, #1
 1384 0322 1820     		movs	r0, #24
 1385 0324 FFF7FEFF 		bl	I2C_1_I2CMasterSendRestart
 467:main.c        **** I2C_1_I2CMasterReadByte(I2C_1_I2C_NAK_DATA,(uint8 *) &xLSB ,100u);
 1386              		.loc 1 467 0
 1387 0328 3F23     		movs	r3, #63
 1388 032a FB18     		adds	r3, r7, r3
 1389 032c 6422     		movs	r2, #100
 1390 032e 1900     		movs	r1, r3
 1391 0330 0120     		movs	r0, #1
 1392 0332 FFF7FEFF 		bl	I2C_1_I2CMasterReadByte
 468:main.c        **** I2C_1_I2CMasterSendStop(100u);
 1393              		.loc 1 468 0
 1394 0336 6420     		movs	r0, #100
 1395 0338 FFF7FEFF 		bl	I2C_1_I2CMasterSendStop
 469:main.c        **** 
 470:main.c        **** I2C_1_I2CMasterSendStart(0x18,I2C_1_I2C_WRITE_XFER_MODE, 100u);
 1396              		.loc 1 470 0
 1397 033c 6422     		movs	r2, #100
 1398 033e 0021     		movs	r1, #0
 1399 0340 1820     		movs	r0, #24
 1400 0342 FFF7FEFF 		bl	I2C_1_I2CMasterSendStart
 471:main.c        **** I2C_1_I2CMasterWriteByte(0x03, 100u);
 1401              		.loc 1 471 0
 1402 0346 6421     		movs	r1, #100
 1403 0348 0320     		movs	r0, #3
 1404 034a FFF7FEFF 		bl	I2C_1_I2CMasterWriteByte
 472:main.c        **** I2C_1_I2CMasterSendRestart(0x18, I2C_1_I2C_READ_XFER_MODE, 100u);
 1405              		.loc 1 472 0
 1406 034e 6422     		movs	r2, #100
 1407 0350 0121     		movs	r1, #1
 1408 0352 1820     		movs	r0, #24
 1409 0354 FFF7FEFF 		bl	I2C_1_I2CMasterSendRestart
 473:main.c        **** I2C_1_I2CMasterReadByte(I2C_1_I2C_NAK_DATA,(uint8 *) &xMSB ,100u);
 1410              		.loc 1 473 0
 1411 0358 3E23     		movs	r3, #62
 1412 035a FB18     		adds	r3, r7, r3
 1413 035c 6422     		movs	r2, #100
 1414 035e 1900     		movs	r1, r3
 1415 0360 0120     		movs	r0, #1
 1416 0362 FFF7FEFF 		bl	I2C_1_I2CMasterReadByte
 474:main.c        **** I2C_1_I2CMasterSendStop(100u);
 1417              		.loc 1 474 0
 1418 0366 6420     		movs	r0, #100
ARM GAS  C:\Users\sergio\AppData\Local\Temp\ccV5Q6Sf.s 			page 36


 1419 0368 FFF7FEFF 		bl	I2C_1_I2CMasterSendStop
 475:main.c        **** 
 476:main.c        **** I2C_1_I2CMasterSendStart(0x18,I2C_1_I2C_WRITE_XFER_MODE, 100u);
 1420              		.loc 1 476 0
 1421 036c 6422     		movs	r2, #100
 1422 036e 0021     		movs	r1, #0
 1423 0370 1820     		movs	r0, #24
 1424 0372 FFF7FEFF 		bl	I2C_1_I2CMasterSendStart
 477:main.c        **** I2C_1_I2CMasterWriteByte(0x04, 100u);
 1425              		.loc 1 477 0
 1426 0376 6421     		movs	r1, #100
 1427 0378 0420     		movs	r0, #4
 1428 037a FFF7FEFF 		bl	I2C_1_I2CMasterWriteByte
 478:main.c        **** I2C_1_I2CMasterSendRestart(0x18, I2C_1_I2C_READ_XFER_MODE, 100u);
 1429              		.loc 1 478 0
 1430 037e 6422     		movs	r2, #100
 1431 0380 0121     		movs	r1, #1
 1432 0382 1820     		movs	r0, #24
 1433 0384 FFF7FEFF 		bl	I2C_1_I2CMasterSendRestart
 479:main.c        **** I2C_1_I2CMasterReadByte(I2C_1_I2C_NAK_DATA,(uint8 *) &yLSB ,100u);
 1434              		.loc 1 479 0
 1435 0388 3D23     		movs	r3, #61
 1436 038a FB18     		adds	r3, r7, r3
 1437 038c 6422     		movs	r2, #100
 1438 038e 1900     		movs	r1, r3
 1439 0390 0120     		movs	r0, #1
 1440 0392 FFF7FEFF 		bl	I2C_1_I2CMasterReadByte
 480:main.c        **** I2C_1_I2CMasterSendStop(100u);
 1441              		.loc 1 480 0
 1442 0396 6420     		movs	r0, #100
 1443 0398 FFF7FEFF 		bl	I2C_1_I2CMasterSendStop
 481:main.c        **** 
 482:main.c        **** I2C_1_I2CMasterSendStart(0x18,I2C_1_I2C_WRITE_XFER_MODE, 100u);
 1444              		.loc 1 482 0
 1445 039c 6422     		movs	r2, #100
 1446 039e 0021     		movs	r1, #0
 1447 03a0 1820     		movs	r0, #24
 1448 03a2 FFF7FEFF 		bl	I2C_1_I2CMasterSendStart
 483:main.c        **** I2C_1_I2CMasterWriteByte(0x05, 100u);
 1449              		.loc 1 483 0
 1450 03a6 6421     		movs	r1, #100
 1451 03a8 0520     		movs	r0, #5
 1452 03aa FFF7FEFF 		bl	I2C_1_I2CMasterWriteByte
 484:main.c        **** I2C_1_I2CMasterSendRestart(0x18, I2C_1_I2C_READ_XFER_MODE, 100u);
 1453              		.loc 1 484 0
 1454 03ae 6422     		movs	r2, #100
 1455 03b0 0121     		movs	r1, #1
 1456 03b2 1820     		movs	r0, #24
 1457 03b4 FFF7FEFF 		bl	I2C_1_I2CMasterSendRestart
 485:main.c        **** I2C_1_I2CMasterReadByte(I2C_1_I2C_NAK_DATA,(uint8 *) &yMSB ,100u);
 1458              		.loc 1 485 0
 1459 03b8 3C23     		movs	r3, #60
 1460 03ba FB18     		adds	r3, r7, r3
 1461 03bc 6422     		movs	r2, #100
 1462 03be 1900     		movs	r1, r3
 1463 03c0 0120     		movs	r0, #1
 1464 03c2 FFF7FEFF 		bl	I2C_1_I2CMasterReadByte
ARM GAS  C:\Users\sergio\AppData\Local\Temp\ccV5Q6Sf.s 			page 37


 486:main.c        **** I2C_1_I2CMasterSendStop(100u);
 1465              		.loc 1 486 0
 1466 03c6 6420     		movs	r0, #100
 1467 03c8 FFF7FEFF 		bl	I2C_1_I2CMasterSendStop
 487:main.c        **** 
 488:main.c        **** I2C_1_I2CMasterSendStart(0x18,I2C_1_I2C_WRITE_XFER_MODE, 100u);
 1468              		.loc 1 488 0
 1469 03cc 6422     		movs	r2, #100
 1470 03ce 0021     		movs	r1, #0
 1471 03d0 1820     		movs	r0, #24
 1472 03d2 FFF7FEFF 		bl	I2C_1_I2CMasterSendStart
 489:main.c        **** I2C_1_I2CMasterWriteByte(0x06, 100u);
 1473              		.loc 1 489 0
 1474 03d6 6421     		movs	r1, #100
 1475 03d8 0620     		movs	r0, #6
 1476 03da FFF7FEFF 		bl	I2C_1_I2CMasterWriteByte
 490:main.c        **** I2C_1_I2CMasterSendRestart(0x18, I2C_1_I2C_READ_XFER_MODE, 100u);
 1477              		.loc 1 490 0
 1478 03de 6422     		movs	r2, #100
 1479 03e0 0121     		movs	r1, #1
 1480 03e2 1820     		movs	r0, #24
 1481 03e4 FFF7FEFF 		bl	I2C_1_I2CMasterSendRestart
 491:main.c        **** I2C_1_I2CMasterReadByte(I2C_1_I2C_NAK_DATA,(uint8 *) &zLSB ,100u);
 1482              		.loc 1 491 0
 1483 03e8 3B23     		movs	r3, #59
 1484 03ea FB18     		adds	r3, r7, r3
 1485 03ec 6422     		movs	r2, #100
 1486 03ee 1900     		movs	r1, r3
 1487 03f0 0120     		movs	r0, #1
 1488 03f2 FFF7FEFF 		bl	I2C_1_I2CMasterReadByte
 492:main.c        **** I2C_1_I2CMasterSendStop(100u);
 1489              		.loc 1 492 0
 1490 03f6 6420     		movs	r0, #100
 1491 03f8 FFF7FEFF 		bl	I2C_1_I2CMasterSendStop
 493:main.c        **** 
 494:main.c        **** I2C_1_I2CMasterSendStart(0x18,I2C_1_I2C_WRITE_XFER_MODE, 100u);
 1492              		.loc 1 494 0
 1493 03fc 6422     		movs	r2, #100
 1494 03fe 0021     		movs	r1, #0
 1495 0400 1820     		movs	r0, #24
 1496 0402 FFF7FEFF 		bl	I2C_1_I2CMasterSendStart
 495:main.c        **** I2C_1_I2CMasterWriteByte(0x07, 100u);
 1497              		.loc 1 495 0
 1498 0406 6421     		movs	r1, #100
 1499 0408 0720     		movs	r0, #7
 1500 040a FFF7FEFF 		bl	I2C_1_I2CMasterWriteByte
 496:main.c        **** I2C_1_I2CMasterSendRestart(0x18, I2C_1_I2C_READ_XFER_MODE, 100u);
 1501              		.loc 1 496 0
 1502 040e 6422     		movs	r2, #100
 1503 0410 0121     		movs	r1, #1
 1504 0412 1820     		movs	r0, #24
 1505 0414 FFF7FEFF 		bl	I2C_1_I2CMasterSendRestart
 497:main.c        **** I2C_1_I2CMasterReadByte(I2C_1_I2C_NAK_DATA,(uint8 *) &zMSB ,100u);
 1506              		.loc 1 497 0
 1507 0418 3A23     		movs	r3, #58
 1508 041a FB18     		adds	r3, r7, r3
 1509 041c 6422     		movs	r2, #100
ARM GAS  C:\Users\sergio\AppData\Local\Temp\ccV5Q6Sf.s 			page 38


 1510 041e 1900     		movs	r1, r3
 1511 0420 0120     		movs	r0, #1
 1512 0422 FFF7FEFF 		bl	I2C_1_I2CMasterReadByte
 498:main.c        **** I2C_1_I2CMasterSendStop(100u);
 1513              		.loc 1 498 0
 1514 0426 6420     		movs	r0, #100
 1515 0428 FFF7FEFF 		bl	I2C_1_I2CMasterSendStop
 499:main.c        **** 
 500:main.c        **** sensorData.accX = (xMSB );
 1516              		.loc 1 500 0
 1517 042c 3E23     		movs	r3, #62
 1518 042e FB18     		adds	r3, r7, r3
 1519 0430 1978     		ldrb	r1, [r3]
 1520 0432 0A4B     		ldr	r3, .L56+28
 1521 0434 2022     		movs	r2, #32
 1522 0436 9954     		strb	r1, [r3, r2]
 501:main.c        **** sensorData.accY = (yMSB );
 1523              		.loc 1 501 0
 1524 0438 3C23     		movs	r3, #60
 1525 043a FB18     		adds	r3, r7, r3
 1526 043c 1978     		ldrb	r1, [r3]
 1527 043e 23E0     		b	.L57
 1528              	.L58:
 1529              		.align	2
 1530              	.L56:
 1531 0440 00000000 		.word	bleStack
 1532 0444 00000000 		.word	my_interrupt
 1533 0448 00000000 		.word	thermo
 1534 044c 00000000 		.word	interruptFlag
 1535 0450 04000000 		.word	thermo+4
 1536 0454 34000000 		.word	.LC25
 1537 0458 44000000 		.word	.LC27
 1538 045c 00000000 		.word	sensorData
 1539 0460 01000000 		.word	sensorData+1
 1540 0464 02000000 		.word	sensorData+2
 1541 0468 64000000 		.word	.LC32
 1542 046c 80000000 		.word	.LC34
 1543 0470 A8000000 		.word	.LC36
 1544 0474 03000000 		.word	sensorData+3
 1545 0478 04000000 		.word	sensorData+4
 1546 047c D0000000 		.word	.LC40
 1547 0480 F0000000 		.word	.LC42
 1548 0484 18010000 		.word	.LC44
 1549              	.L57:
 1550 0488 EA4B     		ldr	r3, .L59
 1551 048a 2122     		movs	r2, #33
 1552 048c 9954     		strb	r1, [r3, r2]
 502:main.c        **** sensorData.accZ = (zMSB );
 1553              		.loc 1 502 0
 1554 048e 3A23     		movs	r3, #58
 1555 0490 FB18     		adds	r3, r7, r3
 1556 0492 1978     		ldrb	r1, [r3]
 1557 0494 E74B     		ldr	r3, .L59
 1558 0496 2222     		movs	r2, #34
 1559 0498 9954     		strb	r1, [r3, r2]
 503:main.c        **** 
 504:main.c        **** 
ARM GAS  C:\Users\sergio\AppData\Local\Temp\ccV5Q6Sf.s 			page 39


 505:main.c        **** 
 506:main.c        **** sprintf(str,"\nX: %d %d    12 bit x: %d\n", xMSB, xLSB, sensorData.accX);
 1560              		.loc 1 506 0
 1561 049a 3E23     		movs	r3, #62
 1562 049c FB18     		adds	r3, r7, r3
 1563 049e 1B78     		ldrb	r3, [r3]
 1564 04a0 1C00     		movs	r4, r3
 1565 04a2 3F23     		movs	r3, #63
 1566 04a4 FB18     		adds	r3, r7, r3
 1567 04a6 1B78     		ldrb	r3, [r3]
 1568 04a8 1D00     		movs	r5, r3
 1569 04aa E24B     		ldr	r3, .L59
 1570 04ac 2022     		movs	r2, #32
 1571 04ae 9B5C     		ldrb	r3, [r3, r2]
 1572 04b0 E149     		ldr	r1, .L59+4
 1573 04b2 381D     		adds	r0, r7, #4
 1574 04b4 0093     		str	r3, [sp]
 1575 04b6 2B00     		movs	r3, r5
 1576 04b8 2200     		movs	r2, r4
 1577 04ba FFF7FEFF 		bl	sprintf
 507:main.c        **** MyUART_PutString(str);
 1578              		.loc 1 507 0
 1579 04be 3B1D     		adds	r3, r7, #4
 1580 04c0 1800     		movs	r0, r3
 1581 04c2 FFF7FEFF 		bl	MyUART_PutString
 508:main.c        **** sprintf(str,"y: %d %d      12 bit y: %d\n", yMSB, yLSB, sensorData.accY);
 1582              		.loc 1 508 0
 1583 04c6 3C23     		movs	r3, #60
 1584 04c8 FB18     		adds	r3, r7, r3
 1585 04ca 1B78     		ldrb	r3, [r3]
 1586 04cc 1C00     		movs	r4, r3
 1587 04ce 3D23     		movs	r3, #61
 1588 04d0 FB18     		adds	r3, r7, r3
 1589 04d2 1B78     		ldrb	r3, [r3]
 1590 04d4 1D00     		movs	r5, r3
 1591 04d6 D74B     		ldr	r3, .L59
 1592 04d8 2122     		movs	r2, #33
 1593 04da 9B5C     		ldrb	r3, [r3, r2]
 1594 04dc D749     		ldr	r1, .L59+8
 1595 04de 381D     		adds	r0, r7, #4
 1596 04e0 0093     		str	r3, [sp]
 1597 04e2 2B00     		movs	r3, r5
 1598 04e4 2200     		movs	r2, r4
 1599 04e6 FFF7FEFF 		bl	sprintf
 509:main.c        **** MyUART_PutString(str);
 1600              		.loc 1 509 0
 1601 04ea 3B1D     		adds	r3, r7, #4
 1602 04ec 1800     		movs	r0, r3
 1603 04ee FFF7FEFF 		bl	MyUART_PutString
 510:main.c        **** sprintf(str,"Z: %d %d      12 bit z: %d\n\n\n", zMSB, zLSB, sensorData.accZ);
 1604              		.loc 1 510 0
 1605 04f2 3A23     		movs	r3, #58
 1606 04f4 FB18     		adds	r3, r7, r3
 1607 04f6 1B78     		ldrb	r3, [r3]
 1608 04f8 1C00     		movs	r4, r3
 1609 04fa 3B23     		movs	r3, #59
 1610 04fc FB18     		adds	r3, r7, r3
ARM GAS  C:\Users\sergio\AppData\Local\Temp\ccV5Q6Sf.s 			page 40


 1611 04fe 1B78     		ldrb	r3, [r3]
 1612 0500 1D00     		movs	r5, r3
 1613 0502 CC4B     		ldr	r3, .L59
 1614 0504 2222     		movs	r2, #34
 1615 0506 9B5C     		ldrb	r3, [r3, r2]
 1616 0508 CD49     		ldr	r1, .L59+12
 1617 050a 381D     		adds	r0, r7, #4
 1618 050c 0093     		str	r3, [sp]
 1619 050e 2B00     		movs	r3, r5
 1620 0510 2200     		movs	r2, r4
 1621 0512 FFF7FEFF 		bl	sprintf
 511:main.c        **** MyUART_PutString(str);
 1622              		.loc 1 511 0
 1623 0516 3B1D     		adds	r3, r7, #4
 1624 0518 1800     		movs	r0, r3
 1625 051a FFF7FEFF 		bl	MyUART_PutString
 512:main.c        **** 
 513:main.c        **** // ---------------  Read humidity ---------------
 514:main.c        **** 
 515:main.c        **** I2C_1_I2CMasterSendStart(0x18,I2C_1_I2C_WRITE_XFER_MODE, 100u);
 1626              		.loc 1 515 0
 1627 051e 6422     		movs	r2, #100
 1628 0520 0021     		movs	r1, #0
 1629 0522 1820     		movs	r0, #24
 1630 0524 FFF7FEFF 		bl	I2C_1_I2CMasterSendStart
 516:main.c        **** I2C_1_I2CMasterWriteByte(0x07, 100u);
 1631              		.loc 1 516 0
 1632 0528 6421     		movs	r1, #100
 1633 052a 0720     		movs	r0, #7
 1634 052c FFF7FEFF 		bl	I2C_1_I2CMasterWriteByte
 517:main.c        **** I2C_1_I2CMasterSendRestart(0x18, I2C_1_I2C_READ_XFER_MODE, 100u);
 1635              		.loc 1 517 0
 1636 0530 6422     		movs	r2, #100
 1637 0532 0121     		movs	r1, #1
 1638 0534 1820     		movs	r0, #24
 1639 0536 FFF7FEFF 		bl	I2C_1_I2CMasterSendRestart
 518:main.c        **** I2C_1_I2CMasterReadByte(I2C_1_I2C_ACK_DATA,(uint8 *) &read_buff[0] ,100u);
 1640              		.loc 1 518 0
 1641 053a 4823     		movs	r3, #72
 1642 053c FB18     		adds	r3, r7, r3
 1643 053e 6422     		movs	r2, #100
 1644 0540 1900     		movs	r1, r3
 1645 0542 0020     		movs	r0, #0
 1646 0544 FFF7FEFF 		bl	I2C_1_I2CMasterReadByte
 519:main.c        **** I2C_1_I2CMasterReadByte(I2C_1_I2C_NAK_DATA,(uint8 *) &read_buff[1] ,100u);
 1647              		.loc 1 519 0
 1648 0548 4823     		movs	r3, #72
 1649 054a FB18     		adds	r3, r7, r3
 1650 054c 0133     		adds	r3, r3, #1
 1651 054e 6422     		movs	r2, #100
 1652 0550 1900     		movs	r1, r3
 1653 0552 0120     		movs	r0, #1
 1654 0554 FFF7FEFF 		bl	I2C_1_I2CMasterReadByte
 520:main.c        **** I2C_1_I2CMasterSendStop(100u);
 1655              		.loc 1 520 0
 1656 0558 6420     		movs	r0, #100
 1657 055a FFF7FEFF 		bl	I2C_1_I2CMasterSendStop
ARM GAS  C:\Users\sergio\AppData\Local\Temp\ccV5Q6Sf.s 			page 41


 521:main.c        **** 
 522:main.c        **** uint16 rh = ((read_buff[0] << 8) | read_buff[1]);
 1658              		.loc 1 522 0
 1659 055e 4823     		movs	r3, #72
 1660 0560 FB18     		adds	r3, r7, r3
 1661 0562 1B78     		ldrb	r3, [r3]
 1662 0564 DBB2     		uxtb	r3, r3
 1663 0566 1B02     		lsls	r3, r3, #8
 1664 0568 1AB2     		sxth	r2, r3
 1665 056a 4823     		movs	r3, #72
 1666 056c FB18     		adds	r3, r7, r3
 1667 056e 5B78     		ldrb	r3, [r3, #1]
 1668 0570 DBB2     		uxtb	r3, r3
 1669 0572 1BB2     		sxth	r3, r3
 1670 0574 1343     		orrs	r3, r2
 1671 0576 1AB2     		sxth	r2, r3
 1672 0578 4C23     		movs	r3, #76
 1673 057a FB18     		adds	r3, r7, r3
 1674 057c 1A80     		strh	r2, [r3]
 523:main.c        **** 
 524:main.c        **** sensorData.humidity = ((125 * rh)/65536)-6; 
 1675              		.loc 1 524 0
 1676 057e 4C23     		movs	r3, #76
 1677 0580 FB18     		adds	r3, r7, r3
 1678 0582 1A88     		ldrh	r2, [r3]
 1679 0584 1300     		movs	r3, r2
 1680 0586 5B01     		lsls	r3, r3, #5
 1681 0588 9B1A     		subs	r3, r3, r2
 1682 058a 9B00     		lsls	r3, r3, #2
 1683 058c 9B18     		adds	r3, r3, r2
 1684 058e 002B     		cmp	r3, #0
 1685 0590 02DA     		bge	.L43
 1686 0592 AC4A     		ldr	r2, .L59+16
 1687 0594 9446     		mov	ip, r2
 1688 0596 6344     		add	r3, r3, ip
 1689              	.L43:
 1690 0598 1B14     		asrs	r3, r3, #16
 1691 059a DBB2     		uxtb	r3, r3
 1692 059c 063B     		subs	r3, r3, #6
 1693 059e DAB2     		uxtb	r2, r3
 1694 05a0 A44B     		ldr	r3, .L59
 1695 05a2 5A71     		strb	r2, [r3, #5]
 525:main.c        **** 
 526:main.c        **** sprintf(str, "\nThe humidity is %d\n", sensorData.humidity);
 1696              		.loc 1 526 0
 1697 05a4 A34B     		ldr	r3, .L59
 1698 05a6 5B79     		ldrb	r3, [r3, #5]
 1699 05a8 1A00     		movs	r2, r3
 1700 05aa A749     		ldr	r1, .L59+20
 1701 05ac 3B1D     		adds	r3, r7, #4
 1702 05ae 1800     		movs	r0, r3
 1703 05b0 FFF7FEFF 		bl	sprintf
 527:main.c        **** MyUART_PutString(str);
 1704              		.loc 1 527 0
 1705 05b4 3B1D     		adds	r3, r7, #4
 1706 05b6 1800     		movs	r0, r3
 1707 05b8 FFF7FEFF 		bl	MyUART_PutString
ARM GAS  C:\Users\sergio\AppData\Local\Temp\ccV5Q6Sf.s 			page 42


 528:main.c        **** 
 529:main.c        **** // ---------------------  Read thermostat---------------------
 530:main.c        **** 
 531:main.c        **** uint8 pins = read_thermostat_pins();
 1708              		.loc 1 531 0
 1709 05bc 4B23     		movs	r3, #75
 1710 05be FC18     		adds	r4, r7, r3
 1711 05c0 FFF7FEFF 		bl	read_thermostat_pins
 1712 05c4 0300     		movs	r3, r0
 1713 05c6 2370     		strb	r3, [r4]
 532:main.c        **** 
 533:main.c        **** 
 534:main.c        **** sprintf(str, "\nThermostast pins are 0x%x\n", pins);
 1714              		.loc 1 534 0
 1715 05c8 4B23     		movs	r3, #75
 1716 05ca FB18     		adds	r3, r7, r3
 1717 05cc 1A78     		ldrb	r2, [r3]
 1718 05ce 9F49     		ldr	r1, .L59+24
 1719 05d0 3B1D     		adds	r3, r7, #4
 1720 05d2 1800     		movs	r0, r3
 1721 05d4 FFF7FEFF 		bl	sprintf
 535:main.c        **** MyUART_PutString(str);
 1722              		.loc 1 535 0
 1723 05d8 3B1D     		adds	r3, r7, #4
 1724 05da 1800     		movs	r0, r3
 1725 05dc FFF7FEFF 		bl	MyUART_PutString
 536:main.c        **** 
 537:main.c        **** 
 538:main.c        **** // ------------------------------- power sensors-----------------------
 539:main.c        **** uint8 ver[2] = {0,0};
 1726              		.loc 1 539 0
 1727 05e0 3823     		movs	r3, #56
 1728 05e2 FB18     		adds	r3, r7, r3
 1729 05e4 0022     		movs	r2, #0
 1730 05e6 1A70     		strb	r2, [r3]
 1731 05e8 3823     		movs	r3, #56
 1732 05ea FB18     		adds	r3, r7, r3
 1733 05ec 0022     		movs	r2, #0
 1734 05ee 5A70     		strb	r2, [r3, #1]
 540:main.c        **** 
 541:main.c        **** I2C_1_I2CMasterSendStart(ADDR_POWER1,I2C_1_I2C_WRITE_XFER_MODE, 100u);
 1735              		.loc 1 541 0
 1736 05f0 6422     		movs	r2, #100
 1737 05f2 0021     		movs	r1, #0
 1738 05f4 7420     		movs	r0, #116
 1739 05f6 FFF7FEFF 		bl	I2C_1_I2CMasterSendStart
 542:main.c        **** I2C_1_I2CMasterWriteByte(REG_POWER_VERSION, 100u);
 1740              		.loc 1 542 0
 1741 05fa 6421     		movs	r1, #100
 1742 05fc 0420     		movs	r0, #4
 1743 05fe FFF7FEFF 		bl	I2C_1_I2CMasterWriteByte
 543:main.c        **** I2C_1_I2CMasterSendRestart(ADDR_POWER1, I2C_1_I2C_READ_XFER_MODE, 100u);
 1744              		.loc 1 543 0
 1745 0602 6422     		movs	r2, #100
 1746 0604 0121     		movs	r1, #1
 1747 0606 7420     		movs	r0, #116
 1748 0608 FFF7FEFF 		bl	I2C_1_I2CMasterSendRestart
ARM GAS  C:\Users\sergio\AppData\Local\Temp\ccV5Q6Sf.s 			page 43


 544:main.c        **** I2C_1_I2CMasterReadByte(I2C_1_I2C_ACK_DATA,(uint8 *) &ver[0] ,100u);
 1749              		.loc 1 544 0
 1750 060c 3823     		movs	r3, #56
 1751 060e FB18     		adds	r3, r7, r3
 1752 0610 6422     		movs	r2, #100
 1753 0612 1900     		movs	r1, r3
 1754 0614 0020     		movs	r0, #0
 1755 0616 FFF7FEFF 		bl	I2C_1_I2CMasterReadByte
 545:main.c        **** I2C_1_I2CMasterReadByte(I2C_1_I2C_NAK_DATA,(uint8 *) &ver[1] ,100u);
 1756              		.loc 1 545 0
 1757 061a 3823     		movs	r3, #56
 1758 061c FB18     		adds	r3, r7, r3
 1759 061e 0133     		adds	r3, r3, #1
 1760 0620 6422     		movs	r2, #100
 1761 0622 1900     		movs	r1, r3
 1762 0624 0120     		movs	r0, #1
 1763 0626 FFF7FEFF 		bl	I2C_1_I2CMasterReadByte
 546:main.c        **** I2C_1_I2CMasterSendStop(100u);
 1764              		.loc 1 546 0
 1765 062a 6420     		movs	r0, #100
 1766 062c FFF7FEFF 		bl	I2C_1_I2CMasterSendStop
 547:main.c        **** 
 548:main.c        **** sprintf(str, "power 1 ver: %d %d\n", ver[0], ver[1]);
 1767              		.loc 1 548 0
 1768 0630 3823     		movs	r3, #56
 1769 0632 FB18     		adds	r3, r7, r3
 1770 0634 1B78     		ldrb	r3, [r3]
 1771 0636 1A00     		movs	r2, r3
 1772 0638 3823     		movs	r3, #56
 1773 063a FB18     		adds	r3, r7, r3
 1774 063c 5B78     		ldrb	r3, [r3, #1]
 1775 063e 8449     		ldr	r1, .L59+28
 1776 0640 381D     		adds	r0, r7, #4
 1777 0642 FFF7FEFF 		bl	sprintf
 549:main.c        **** MyUART_PutString(str);
 1778              		.loc 1 549 0
 1779 0646 3B1D     		adds	r3, r7, #4
 1780 0648 1800     		movs	r0, r3
 1781 064a FFF7FEFF 		bl	MyUART_PutString
 550:main.c        **** 
 551:main.c        **** I2C_1_I2CMasterSendStart(ADDR_POWER2,I2C_1_I2C_WRITE_XFER_MODE, 100u);
 1782              		.loc 1 551 0
 1783 064e 6422     		movs	r2, #100
 1784 0650 0021     		movs	r1, #0
 1785 0652 7520     		movs	r0, #117
 1786 0654 FFF7FEFF 		bl	I2C_1_I2CMasterSendStart
 552:main.c        **** I2C_1_I2CMasterWriteByte(REG_POWER_VERSION, 100u);
 1787              		.loc 1 552 0
 1788 0658 6421     		movs	r1, #100
 1789 065a 0420     		movs	r0, #4
 1790 065c FFF7FEFF 		bl	I2C_1_I2CMasterWriteByte
 553:main.c        **** I2C_1_I2CMasterSendRestart(ADDR_POWER2, I2C_1_I2C_READ_XFER_MODE, 100u);
 1791              		.loc 1 553 0
 1792 0660 6422     		movs	r2, #100
 1793 0662 0121     		movs	r1, #1
 1794 0664 7520     		movs	r0, #117
 1795 0666 FFF7FEFF 		bl	I2C_1_I2CMasterSendRestart
ARM GAS  C:\Users\sergio\AppData\Local\Temp\ccV5Q6Sf.s 			page 44


 554:main.c        **** I2C_1_I2CMasterReadByte(I2C_1_I2C_ACK_DATA,(uint8 *) &ver[0] ,100u);
 1796              		.loc 1 554 0
 1797 066a 3823     		movs	r3, #56
 1798 066c FB18     		adds	r3, r7, r3
 1799 066e 6422     		movs	r2, #100
 1800 0670 1900     		movs	r1, r3
 1801 0672 0020     		movs	r0, #0
 1802 0674 FFF7FEFF 		bl	I2C_1_I2CMasterReadByte
 555:main.c        **** I2C_1_I2CMasterReadByte(I2C_1_I2C_NAK_DATA,(uint8 *) &ver[1] ,100u);
 1803              		.loc 1 555 0
 1804 0678 3823     		movs	r3, #56
 1805 067a FB18     		adds	r3, r7, r3
 1806 067c 0133     		adds	r3, r3, #1
 1807 067e 6422     		movs	r2, #100
 1808 0680 1900     		movs	r1, r3
 1809 0682 0120     		movs	r0, #1
 1810 0684 FFF7FEFF 		bl	I2C_1_I2CMasterReadByte
 556:main.c        **** I2C_1_I2CMasterSendStop(100u);
 1811              		.loc 1 556 0
 1812 0688 6420     		movs	r0, #100
 1813 068a FFF7FEFF 		bl	I2C_1_I2CMasterSendStop
 557:main.c        **** 
 558:main.c        **** sprintf(str, "power 2 ver: %d %d\n", ver[0], ver[1]);
 1814              		.loc 1 558 0
 1815 068e 3823     		movs	r3, #56
 1816 0690 FB18     		adds	r3, r7, r3
 1817 0692 1B78     		ldrb	r3, [r3]
 1818 0694 1A00     		movs	r2, r3
 1819 0696 3823     		movs	r3, #56
 1820 0698 FB18     		adds	r3, r7, r3
 1821 069a 5B78     		ldrb	r3, [r3, #1]
 1822 069c 6D49     		ldr	r1, .L59+32
 1823 069e 381D     		adds	r0, r7, #4
 1824 06a0 FFF7FEFF 		bl	sprintf
 559:main.c        **** MyUART_PutString(str);
 1825              		.loc 1 559 0
 1826 06a4 3B1D     		adds	r3, r7, #4
 1827 06a6 1800     		movs	r0, r3
 1828 06a8 FFF7FEFF 		bl	MyUART_PutString
 560:main.c        **** 
 561:main.c        **** I2C_1_I2CMasterSendStart(ADDR_POWER3,I2C_1_I2C_WRITE_XFER_MODE, 100u);
 1829              		.loc 1 561 0
 1830 06ac 6422     		movs	r2, #100
 1831 06ae 0021     		movs	r1, #0
 1832 06b0 7620     		movs	r0, #118
 1833 06b2 FFF7FEFF 		bl	I2C_1_I2CMasterSendStart
 562:main.c        **** I2C_1_I2CMasterWriteByte(REG_POWER_VERSION, 100u);
 1834              		.loc 1 562 0
 1835 06b6 6421     		movs	r1, #100
 1836 06b8 0420     		movs	r0, #4
 1837 06ba FFF7FEFF 		bl	I2C_1_I2CMasterWriteByte
 563:main.c        **** I2C_1_I2CMasterSendRestart(ADDR_POWER3, I2C_1_I2C_READ_XFER_MODE, 100u);
 1838              		.loc 1 563 0
 1839 06be 6422     		movs	r2, #100
 1840 06c0 0121     		movs	r1, #1
 1841 06c2 7620     		movs	r0, #118
 1842 06c4 FFF7FEFF 		bl	I2C_1_I2CMasterSendRestart
ARM GAS  C:\Users\sergio\AppData\Local\Temp\ccV5Q6Sf.s 			page 45


 564:main.c        **** I2C_1_I2CMasterReadByte(I2C_1_I2C_ACK_DATA,(uint8 *) &ver[0] ,100u);
 1843              		.loc 1 564 0
 1844 06c8 3823     		movs	r3, #56
 1845 06ca FB18     		adds	r3, r7, r3
 1846 06cc 6422     		movs	r2, #100
 1847 06ce 1900     		movs	r1, r3
 1848 06d0 0020     		movs	r0, #0
 1849 06d2 FFF7FEFF 		bl	I2C_1_I2CMasterReadByte
 565:main.c        **** I2C_1_I2CMasterReadByte(I2C_1_I2C_NAK_DATA,(uint8 *) &ver[1] ,100u);
 1850              		.loc 1 565 0
 1851 06d6 3823     		movs	r3, #56
 1852 06d8 FB18     		adds	r3, r7, r3
 1853 06da 0133     		adds	r3, r3, #1
 1854 06dc 6422     		movs	r2, #100
 1855 06de 1900     		movs	r1, r3
 1856 06e0 0120     		movs	r0, #1
 1857 06e2 FFF7FEFF 		bl	I2C_1_I2CMasterReadByte
 566:main.c        **** I2C_1_I2CMasterSendStop(100u);
 1858              		.loc 1 566 0
 1859 06e6 6420     		movs	r0, #100
 1860 06e8 FFF7FEFF 		bl	I2C_1_I2CMasterSendStop
 567:main.c        **** 
 568:main.c        **** sprintf(str, "power 3 ver: %d %d\n", ver[0], ver[1]);
 1861              		.loc 1 568 0
 1862 06ec 3823     		movs	r3, #56
 1863 06ee FB18     		adds	r3, r7, r3
 1864 06f0 1B78     		ldrb	r3, [r3]
 1865 06f2 1A00     		movs	r2, r3
 1866 06f4 3823     		movs	r3, #56
 1867 06f6 FB18     		adds	r3, r7, r3
 1868 06f8 5B78     		ldrb	r3, [r3, #1]
 1869 06fa 5749     		ldr	r1, .L59+36
 1870 06fc 381D     		adds	r0, r7, #4
 1871 06fe FFF7FEFF 		bl	sprintf
 569:main.c        **** MyUART_PutString(str);
 1872              		.loc 1 569 0
 1873 0702 3B1D     		adds	r3, r7, #4
 1874 0704 1800     		movs	r0, r3
 1875 0706 FFF7FEFF 		bl	MyUART_PutString
 570:main.c        **** 
 571:main.c        **** read_buff[0] =0u;
 1876              		.loc 1 571 0
 1877 070a 4823     		movs	r3, #72
 1878 070c FB18     		adds	r3, r7, r3
 1879 070e 0022     		movs	r2, #0
 1880 0710 1A70     		strb	r2, [r3]
 572:main.c        **** 
 573:main.c        **** interruptFlag = 0;
 1881              		.loc 1 573 0
 1882 0712 524B     		ldr	r3, .L59+40
 1883 0714 0022     		movs	r2, #0
 1884 0716 1A60     		str	r2, [r3]
 574:main.c        **** 
 575:main.c        **** // ----- BLE CODE ----------
 576:main.c        **** 
 577:main.c        **** 
 578:main.c        ****  if(bleConnected == 1){
ARM GAS  C:\Users\sergio\AppData\Local\Temp\ccV5Q6Sf.s 			page 46


 1885              		.loc 1 578 0
 1886 0718 514B     		ldr	r3, .L59+44
 1887 071a 1B78     		ldrb	r3, [r3]
 1888 071c 012B     		cmp	r3, #1
 1889 071e 1DD1     		bne	.L44
 579:main.c        ****             RED_Write(1);
 1890              		.loc 1 579 0
 1891 0720 0120     		movs	r0, #1
 1892 0722 FFF7FEFF 		bl	RED_Write
 580:main.c        ****             
 581:main.c        ****         updateNotificationCCCD();
 1893              		.loc 1 581 0
 1894 0726 FFF7FEFF 		bl	updateNotificationCCCD
 582:main.c        ****         
 583:main.c        ****         if(isNotify == 1){
 1895              		.loc 1 583 0
 1896 072a 4E4B     		ldr	r3, .L59+48
 1897 072c 1B78     		ldrb	r3, [r3]
 1898 072e 012B     		cmp	r3, #1
 1899 0730 11D1     		bne	.L45
 584:main.c        ****             GREEN_Write(1);
 1900              		.loc 1 584 0
 1901 0732 0120     		movs	r0, #1
 1902 0734 FFF7FEFF 		bl	GREEN_Write
 585:main.c        ****             if(CyBle_GattGetBusStatus() == CYBLE_STACK_STATE_FREE){
 1903              		.loc 1 585 0
 1904 0738 4B4B     		ldr	r3, .L59+52
 1905 073a 1B78     		ldrb	r3, [r3]
 1906 073c DBB2     		uxtb	r3, r3
 1907 073e 002B     		cmp	r3, #0
 1908 0740 12D1     		bne	.L41
 586:main.c        ****              BLUE_Write(0);
 1909              		.loc 1 586 0
 1910 0742 0020     		movs	r0, #0
 1911 0744 FFF7FEFF 		bl	BLUE_Write
 587:main.c        ****                 SendDataNotify(4);
 1912              		.loc 1 587 0
 1913 0748 0420     		movs	r0, #4
 1914 074a FFF7FEFF 		bl	SendDataNotify
 588:main.c        ****              BLUE_Write(1);
 1915              		.loc 1 588 0
 1916 074e 0120     		movs	r0, #1
 1917 0750 FFF7FEFF 		bl	BLUE_Write
 1918 0754 08E0     		b	.L41
 1919              	.L45:
 589:main.c        ****            }
 590:main.c        ****         }
 591:main.c        ****         else{
 592:main.c        ****             //Green_Write(thermostat[0]);
 593:main.c        **** 
 594:main.c        ****             send_Thermo_to_phone();
 1920              		.loc 1 594 0
 1921 0756 FFF7FEFF 		bl	send_Thermo_to_phone
 1922 075a 05E0     		b	.L41
 1923              	.L44:
 595:main.c        ****         }
 596:main.c        ****     }
ARM GAS  C:\Users\sergio\AppData\Local\Temp\ccV5Q6Sf.s 			page 47


 597:main.c        ****         else{ 
 598:main.c        ****         BLUE_Write(1);
 1924              		.loc 1 598 0
 1925 075c 0120     		movs	r0, #1
 1926 075e FFF7FEFF 		bl	BLUE_Write
 599:main.c        ****         GREEN_Write(1);
 1927              		.loc 1 599 0
 1928 0762 0120     		movs	r0, #1
 1929 0764 FFF7FEFF 		bl	GREEN_Write
 1930              	.L41:
 1931              	.LBE2:
 600:main.c        ****         
 601:main.c        ****     }
 602:main.c        ****        
 603:main.c        ****       
 604:main.c        ****     
 605:main.c        **** 
 606:main.c        **** 
 607:main.c        **** 
 608:main.c        **** // --- runs relays ---------
 609:main.c        **** 
 610:main.c        **** 
 611:main.c        **** //     if(pins == 0){
 612:main.c        **** //        
 613:main.c        **** //        if(temp1 > setTemperature){
 614:main.c        **** //            RED_Write(0); 
 615:main.c        **** //            GREEN_Write(1);
 616:main.c        **** //            BLUE_Write(1);
 617:main.c        **** //            RelayC_3_Write(1);
 618:main.c        **** //            Comp_out_Write(1);
 619:main.c        **** //            thermo.compressor = 1;
 620:main.c        **** //        }
 621:main.c        **** //        else if(temp1 <= setTemperature){
 622:main.c        **** //            RelayC_3_Write(0);
 623:main.c        **** //            Comp_out_Write(0);
 624:main.c        **** //            thermo.compressor = 0;
 625:main.c        **** //        }
 626:main.c        **** //    }
 627:main.c        **** //     
 628:main.c        **** //       if ((pins & 0x01)){
 629:main.c        **** //        BLUE_Write(0);  
 630:main.c        **** //        RED_Write(1); 
 631:main.c        **** //        GREEN_Write(1);
 632:main.c        **** //       } //Blue   PIN 0
 633:main.c        **** //      else{BLUE_Write(1);}
 634:main.c        **** //    
 635:main.c        **** //      if((pins & 0x02)){
 636:main.c        **** //        GREEN_Write(0); 
 637:main.c        **** //        RED_Write(1);
 638:main.c        **** //        BLUE_Write(1);
 639:main.c        **** //      } //Green    PIN 1
 640:main.c        **** //    else{
 641:main.c        **** //        GREEN_Write(1);
 642:main.c        **** //        }
 643:main.c        **** //    
 644:main.c        **** //       if((pins&0x04)){ //Comp pin
 645:main.c        **** //        GREEN_Write(0); 
ARM GAS  C:\Users\sergio\AppData\Local\Temp\ccV5Q6Sf.s 			page 48


 646:main.c        **** //        BLUE_Write(0);
 647:main.c        **** //        RED_Write(1);
 648:main.c        **** //        RelayC_3_Write(1); 
 649:main.c        **** //        Comp_out_Write(1);
 650:main.c        **** //        CyDelay(500);
 651:main.c        **** //       } //Cyan    PIN 2
 652:main.c        **** //    else{
 653:main.c        **** //        RelayC_3_Write(0);
 654:main.c        **** //        Comp_out_Write(0);
 655:main.c        **** //        GREEN_Write(1); 
 656:main.c        **** //        BLUE_Write(1);
 657:main.c        **** //    }
 658:main.c        **** //    
 659:main.c        **** //      if((pins & 0x08)){  // High Fan 
 660:main.c        **** //        GREEN_Write(0); 
 661:main.c        **** //        RED_Write(0); 
 662:main.c        **** //        BLUE_Write(1); 
 663:main.c        **** //        RelayHF_2_Write(1);  
 664:main.c        **** //        HighF_out_Write(1);
 665:main.c        **** //    } //yellow   PIN 3
 666:main.c        **** //    else{
 667:main.c        **** //        RelayHF_2_Write(0);  
 668:main.c        **** //        HighF_out_Write(0);
 669:main.c        **** //        GREEN_Write(1); 
 670:main.c        **** //        RED_Write(1);
 671:main.c        **** //    }
 672:main.c        **** //    
 673:main.c        **** //     if((pins & 0x10)){  // Low Fan
 674:main.c        **** //        BLUE_Write(0); 
 675:main.c        **** //        RED_Write(0); 
 676:main.c        **** //        GREEN_Write(1);
 677:main.c        **** //        LowF_out_Write(1);
 678:main.c        **** //        RelayLF_1_Write(1);
 679:main.c        **** //     }
 680:main.c        **** //    else{
 681:main.c        **** //        RelayLF_1_Write(0); 
 682:main.c        **** //        LowF_out_Write(0);
 683:main.c        **** //        BLUE_Write(1); 
 684:main.c        **** //        RED_Write(1);
 685:main.c        **** //    }//purple   PIN 4
 686:main.c        ****     
 687:main.c        ****     }// end if 
 688:main.c        **** 
 689:main.c        ****       //read_buff[0] = 0u;
 690:main.c        ****     //pins = 0u;
 691:main.c        **** 
 692:main.c        **** //CyDelay(500);
 693:main.c        **** 
 694:main.c        ****              if(thermo.compressor == 1){
 1932              		.loc 1 694 0
 1933 0768 404B     		ldr	r3, .L59+56
 1934 076a 1B78     		ldrb	r3, [r3]
 1935 076c 012B     		cmp	r3, #1
 1936 076e 0CD1     		bne	.L49
 695:main.c        ****                 RelayC_3_Write(1);
 1937              		.loc 1 695 0
 1938 0770 0120     		movs	r0, #1
ARM GAS  C:\Users\sergio\AppData\Local\Temp\ccV5Q6Sf.s 			page 49


 1939 0772 FFF7FEFF 		bl	RelayC_3_Write
 696:main.c        ****                 Comp_out_Write(1);
 1940              		.loc 1 696 0
 1941 0776 0120     		movs	r0, #1
 1942 0778 FFF7FEFF 		bl	Comp_out_Write
 697:main.c        ****                 RED_Write(0);
 1943              		.loc 1 697 0
 1944 077c 0020     		movs	r0, #0
 1945 077e FFF7FEFF 		bl	RED_Write
 698:main.c        ****                 GREEN_Write(0);
 1946              		.loc 1 698 0
 1947 0782 0020     		movs	r0, #0
 1948 0784 FFF7FEFF 		bl	GREEN_Write
 1949 0788 0FE0     		b	.L50
 1950              	.L49:
 699:main.c        ****             }
 700:main.c        ****            else if(thermo.compressor == 0){
 1951              		.loc 1 700 0
 1952 078a 384B     		ldr	r3, .L59+56
 1953 078c 1B78     		ldrb	r3, [r3]
 1954 078e 002B     		cmp	r3, #0
 1955 0790 0BD1     		bne	.L50
 701:main.c        ****                 RelayC_3_Write(0);
 1956              		.loc 1 701 0
 1957 0792 0020     		movs	r0, #0
 1958 0794 FFF7FEFF 		bl	RelayC_3_Write
 702:main.c        ****                 Comp_out_Write(0);
 1959              		.loc 1 702 0
 1960 0798 0020     		movs	r0, #0
 1961 079a FFF7FEFF 		bl	Comp_out_Write
 703:main.c        ****                 RED_Write(1);
 1962              		.loc 1 703 0
 1963 079e 0120     		movs	r0, #1
 1964 07a0 FFF7FEFF 		bl	RED_Write
 704:main.c        ****                 GREEN_Write(1);
 1965              		.loc 1 704 0
 1966 07a4 0120     		movs	r0, #1
 1967 07a6 FFF7FEFF 		bl	GREEN_Write
 1968              	.L50:
 705:main.c        ****             }
 706:main.c        ****             
 707:main.c        ****             if(thermo.fanHigh == 1){
 1969              		.loc 1 707 0
 1970 07aa 304B     		ldr	r3, .L59+56
 1971 07ac 9B78     		ldrb	r3, [r3, #2]
 1972 07ae 012B     		cmp	r3, #1
 1973 07b0 0CD1     		bne	.L51
 708:main.c        ****                 RelayHF_2_Write(1);
 1974              		.loc 1 708 0
 1975 07b2 0120     		movs	r0, #1
 1976 07b4 FFF7FEFF 		bl	RelayHF_2_Write
 709:main.c        ****                 HighF_out_Write(1);
 1977              		.loc 1 709 0
 1978 07b8 0120     		movs	r0, #1
 1979 07ba FFF7FEFF 		bl	HighF_out_Write
 710:main.c        ****                 BLUE_Write(0);
 1980              		.loc 1 710 0
ARM GAS  C:\Users\sergio\AppData\Local\Temp\ccV5Q6Sf.s 			page 50


 1981 07be 0020     		movs	r0, #0
 1982 07c0 FFF7FEFF 		bl	BLUE_Write
 711:main.c        ****                 GREEN_Write(0);
 1983              		.loc 1 711 0
 1984 07c4 0020     		movs	r0, #0
 1985 07c6 FFF7FEFF 		bl	GREEN_Write
 1986 07ca 0FE0     		b	.L52
 1987              	.L51:
 712:main.c        ****             }
 713:main.c        ****             else if(thermo.fanHigh == 0){
 1988              		.loc 1 713 0
 1989 07cc 274B     		ldr	r3, .L59+56
 1990 07ce 9B78     		ldrb	r3, [r3, #2]
 1991 07d0 002B     		cmp	r3, #0
 1992 07d2 0BD1     		bne	.L52
 714:main.c        ****                 RelayHF_2_Write(0);
 1993              		.loc 1 714 0
 1994 07d4 0020     		movs	r0, #0
 1995 07d6 FFF7FEFF 		bl	RelayHF_2_Write
 715:main.c        ****                 HighF_out_Write(0);
 1996              		.loc 1 715 0
 1997 07da 0020     		movs	r0, #0
 1998 07dc FFF7FEFF 		bl	HighF_out_Write
 716:main.c        ****                 BLUE_Write(1);
 1999              		.loc 1 716 0
 2000 07e0 0120     		movs	r0, #1
 2001 07e2 FFF7FEFF 		bl	BLUE_Write
 717:main.c        ****                 GREEN_Write(1);
 2002              		.loc 1 717 0
 2003 07e6 0120     		movs	r0, #1
 2004 07e8 FFF7FEFF 		bl	GREEN_Write
 2005              	.L52:
 718:main.c        ****             }
 719:main.c        ****             
 720:main.c        ****             if(thermo.fanLow == 1){
 2006              		.loc 1 720 0
 2007 07ec 1F4B     		ldr	r3, .L59+56
 2008 07ee 5B78     		ldrb	r3, [r3, #1]
 2009 07f0 012B     		cmp	r3, #1
 2010 07f2 0CD1     		bne	.L53
 721:main.c        ****                 RelayLF_1_Write(1);
 2011              		.loc 1 721 0
 2012 07f4 0120     		movs	r0, #1
 2013 07f6 FFF7FEFF 		bl	RelayLF_1_Write
 722:main.c        ****                 LowF_out_Write(1);
 2014              		.loc 1 722 0
 2015 07fa 0120     		movs	r0, #1
 2016 07fc FFF7FEFF 		bl	LowF_out_Write
 723:main.c        ****                 BLUE_Write(0);
 2017              		.loc 1 723 0
 2018 0800 0020     		movs	r0, #0
 2019 0802 FFF7FEFF 		bl	BLUE_Write
 724:main.c        ****                 RED_Write(0);
 2020              		.loc 1 724 0
 2021 0806 0020     		movs	r0, #0
 2022 0808 FFF7FEFF 		bl	RED_Write
 2023 080c 0FE0     		b	.L54
ARM GAS  C:\Users\sergio\AppData\Local\Temp\ccV5Q6Sf.s 			page 51


 2024              	.L53:
 725:main.c        ****             }
 726:main.c        ****             else if(thermo.fanLow == 0){
 2025              		.loc 1 726 0
 2026 080e 174B     		ldr	r3, .L59+56
 2027 0810 5B78     		ldrb	r3, [r3, #1]
 2028 0812 002B     		cmp	r3, #0
 2029 0814 0BD1     		bne	.L54
 727:main.c        ****                 RelayLF_1_Write(0);
 2030              		.loc 1 727 0
 2031 0816 0020     		movs	r0, #0
 2032 0818 FFF7FEFF 		bl	RelayLF_1_Write
 728:main.c        ****                 LowF_out_Write(0);
 2033              		.loc 1 728 0
 2034 081c 0020     		movs	r0, #0
 2035 081e FFF7FEFF 		bl	LowF_out_Write
 729:main.c        ****                 BLUE_Write(1);
 2036              		.loc 1 729 0
 2037 0822 0120     		movs	r0, #1
 2038 0824 FFF7FEFF 		bl	BLUE_Write
 730:main.c        ****                 RED_Write(1);
 2039              		.loc 1 730 0
 2040 0828 0120     		movs	r0, #1
 2041 082a FFF7FEFF 		bl	RED_Write
 2042              	.L54:
 731:main.c        ****             }
 732:main.c        **** 
 733:main.c        **** CyBle_ProcessEvents();
 2043              		.loc 1 733 0
 2044 082e FFF7FEFF 		bl	CyBle_ProcessEvents
 734:main.c        ****    
 735:main.c        ****     }
 2045              		.loc 1 735 0
 2046 0832 38E4     		b	.L55
 2047              	.L60:
 2048              		.align	2
 2049              	.L59:
 2050 0834 00000000 		.word	sensorData
 2051 0838 44010000 		.word	.LC46
 2052 083c 60010000 		.word	.LC48
 2053 0840 7C010000 		.word	.LC50
 2054 0844 FFFF0000 		.word	65535
 2055 0848 9C010000 		.word	.LC52
 2056 084c B4010000 		.word	.LC54
 2057 0850 D0010000 		.word	.LC56
 2058 0854 E4010000 		.word	.LC58
 2059 0858 F8010000 		.word	.LC60
 2060 085c 00000000 		.word	interruptFlag
 2061 0860 00000000 		.word	bleConnected
 2062 0864 00000000 		.word	isNotify
 2063 0868 00000000 		.word	cyBle_busyStatus
 2064 086c 00000000 		.word	thermo
 2065              		.cfi_endproc
 2066              	.LFE46:
 2067              		.size	main, .-main
 2068              		.text
 2069              	.Letext0:
ARM GAS  C:\Users\sergio\AppData\Local\Temp\ccV5Q6Sf.s 			page 52


 2070              		.file 2 "c:\\program files (x86)\\cypress\\psoc creator\\4.2\\psoc creator\\import\\gnu\\arm\\5.4.
 2071              		.file 3 "c:\\program files (x86)\\cypress\\psoc creator\\4.2\\psoc creator\\import\\gnu\\arm\\5.4.
 2072              		.file 4 "Generated_Source\\PSoC4/cytypes.h"
 2073              		.file 5 "Generated_Source\\PSoC4/BLE_1_Stack.h"
 2074              		.file 6 "Generated_Source\\PSoC4/BLE_1_StackGatt.h"
 2075              		.file 7 "Generated_Source\\PSoC4/BLE_1_StackGattServer.h"
 2076              		.file 8 "Generated_Source\\PSoC4/BLE_1_eventHandler.h"
 2077              		.section	.debug_info,"",%progbits
 2078              	.Ldebug_info0:
 2079 0000 100A0000 		.4byte	0xa10
 2080 0004 0400     		.2byte	0x4
 2081 0006 00000000 		.4byte	.Ldebug_abbrev0
 2082 000a 04       		.byte	0x4
 2083 000b 01       		.uleb128 0x1
 2084 000c D0080000 		.4byte	.LASF221
 2085 0010 0C       		.byte	0xc
 2086 0011 9C080000 		.4byte	.LASF222
 2087 0015 E9040000 		.4byte	.LASF223
 2088 0019 00000000 		.4byte	.Ldebug_ranges0+0
 2089 001d 00000000 		.4byte	0
 2090 0021 00000000 		.4byte	.Ldebug_line0
 2091 0025 02       		.uleb128 0x2
 2092 0026 01       		.byte	0x1
 2093 0027 06       		.byte	0x6
 2094 0028 2F030000 		.4byte	.LASF0
 2095 002c 03       		.uleb128 0x3
 2096 002d 89010000 		.4byte	.LASF9
 2097 0031 02       		.byte	0x2
 2098 0032 1D       		.byte	0x1d
 2099 0033 37000000 		.4byte	0x37
 2100 0037 02       		.uleb128 0x2
 2101 0038 01       		.byte	0x1
 2102 0039 08       		.byte	0x8
 2103 003a 190D0000 		.4byte	.LASF1
 2104 003e 02       		.uleb128 0x2
 2105 003f 02       		.byte	0x2
 2106 0040 05       		.byte	0x5
 2107 0041 7C0D0000 		.4byte	.LASF2
 2108 0045 02       		.uleb128 0x2
 2109 0046 02       		.byte	0x2
 2110 0047 07       		.byte	0x7
 2111 0048 DC0D0000 		.4byte	.LASF3
 2112 004c 02       		.uleb128 0x2
 2113 004d 04       		.byte	0x4
 2114 004e 05       		.byte	0x5
 2115 004f D5010000 		.4byte	.LASF4
 2116 0053 02       		.uleb128 0x2
 2117 0054 04       		.byte	0x4
 2118 0055 07       		.byte	0x7
 2119 0056 BB060000 		.4byte	.LASF5
 2120 005a 02       		.uleb128 0x2
 2121 005b 08       		.byte	0x8
 2122 005c 05       		.byte	0x5
 2123 005d 99040000 		.4byte	.LASF6
 2124 0061 02       		.uleb128 0x2
 2125 0062 08       		.byte	0x8
 2126 0063 07       		.byte	0x7
ARM GAS  C:\Users\sergio\AppData\Local\Temp\ccV5Q6Sf.s 			page 53


 2127 0064 ED050000 		.4byte	.LASF7
 2128 0068 04       		.uleb128 0x4
 2129 0069 04       		.byte	0x4
 2130 006a 05       		.byte	0x5
 2131 006b 696E7400 		.ascii	"int\000"
 2132 006f 02       		.uleb128 0x2
 2133 0070 04       		.byte	0x4
 2134 0071 07       		.byte	0x7
 2135 0072 310F0000 		.4byte	.LASF8
 2136 0076 03       		.uleb128 0x3
 2137 0077 72110000 		.4byte	.LASF10
 2138 007b 03       		.byte	0x3
 2139 007c 18       		.byte	0x18
 2140 007d 2C000000 		.4byte	0x2c
 2141 0081 05       		.uleb128 0x5
 2142 0082 93040000 		.4byte	.LASF11
 2143 0086 04       		.byte	0x4
 2144 0087 E401     		.2byte	0x1e4
 2145 0089 37000000 		.4byte	0x37
 2146 008d 05       		.uleb128 0x5
 2147 008e 270D0000 		.4byte	.LASF12
 2148 0092 04       		.byte	0x4
 2149 0093 E501     		.2byte	0x1e5
 2150 0095 45000000 		.4byte	0x45
 2151 0099 05       		.uleb128 0x5
 2152 009a 20050000 		.4byte	.LASF13
 2153 009e 04       		.byte	0x4
 2154 009f E601     		.2byte	0x1e6
 2155 00a1 53000000 		.4byte	0x53
 2156 00a5 02       		.uleb128 0x2
 2157 00a6 04       		.byte	0x4
 2158 00a7 04       		.byte	0x4
 2159 00a8 910C0000 		.4byte	.LASF14
 2160 00ac 02       		.uleb128 0x2
 2161 00ad 08       		.byte	0x8
 2162 00ae 04       		.byte	0x4
 2163 00af 760E0000 		.4byte	.LASF15
 2164 00b3 02       		.uleb128 0x2
 2165 00b4 01       		.byte	0x1
 2166 00b5 08       		.byte	0x8
 2167 00b6 E50E0000 		.4byte	.LASF16
 2168 00ba 06       		.uleb128 0x6
 2169 00bb 81000000 		.4byte	0x81
 2170 00bf 02       		.uleb128 0x2
 2171 00c0 08       		.byte	0x8
 2172 00c1 04       		.byte	0x4
 2173 00c2 D90E0000 		.4byte	.LASF17
 2174 00c6 02       		.uleb128 0x2
 2175 00c7 04       		.byte	0x4
 2176 00c8 07       		.byte	0x7
 2177 00c9 560A0000 		.4byte	.LASF18
 2178 00cd 07       		.uleb128 0x7
 2179 00ce 04       		.byte	0x4
 2180 00cf 08       		.uleb128 0x8
 2181 00d0 01       		.byte	0x1
 2182 00d1 37000000 		.4byte	0x37
 2183 00d5 05       		.byte	0x5
ARM GAS  C:\Users\sergio\AppData\Local\Temp\ccV5Q6Sf.s 			page 54


 2184 00d6 3501     		.2byte	0x135
 2185 00d8 8D020000 		.4byte	0x28d
 2186 00dc 09       		.uleb128 0x9
 2187 00dd B4070000 		.4byte	.LASF19
 2188 00e1 00       		.byte	0
 2189 00e2 09       		.uleb128 0x9
 2190 00e3 3B030000 		.4byte	.LASF20
 2191 00e7 01       		.byte	0x1
 2192 00e8 09       		.uleb128 0x9
 2193 00e9 A40E0000 		.4byte	.LASF21
 2194 00ed 02       		.byte	0x2
 2195 00ee 09       		.uleb128 0x9
 2196 00ef 62100000 		.4byte	.LASF22
 2197 00f3 03       		.byte	0x3
 2198 00f4 09       		.uleb128 0x9
 2199 00f5 640B0000 		.4byte	.LASF23
 2200 00f9 04       		.byte	0x4
 2201 00fa 09       		.uleb128 0x9
 2202 00fb 23000000 		.4byte	.LASF24
 2203 00ff 05       		.byte	0x5
 2204 0100 09       		.uleb128 0x9
 2205 0101 E9070000 		.4byte	.LASF25
 2206 0105 06       		.byte	0x6
 2207 0106 09       		.uleb128 0x9
 2208 0107 A9090000 		.4byte	.LASF26
 2209 010b 20       		.byte	0x20
 2210 010c 09       		.uleb128 0x9
 2211 010d A3030000 		.4byte	.LASF27
 2212 0111 21       		.byte	0x21
 2213 0112 09       		.uleb128 0x9
 2214 0113 59080000 		.4byte	.LASF28
 2215 0117 22       		.byte	0x22
 2216 0118 09       		.uleb128 0x9
 2217 0119 3C100000 		.4byte	.LASF29
 2218 011d 23       		.byte	0x23
 2219 011e 09       		.uleb128 0x9
 2220 011f 790B0000 		.4byte	.LASF30
 2221 0123 24       		.byte	0x24
 2222 0124 09       		.uleb128 0x9
 2223 0125 C20A0000 		.4byte	.LASF31
 2224 0129 25       		.byte	0x25
 2225 012a 09       		.uleb128 0x9
 2226 012b 40040000 		.4byte	.LASF32
 2227 012f 26       		.byte	0x26
 2228 0130 09       		.uleb128 0x9
 2229 0131 7D080000 		.4byte	.LASF33
 2230 0135 27       		.byte	0x27
 2231 0136 09       		.uleb128 0x9
 2232 0137 0A0F0000 		.4byte	.LASF34
 2233 013b 28       		.byte	0x28
 2234 013c 09       		.uleb128 0x9
 2235 013d 9E020000 		.4byte	.LASF35
 2236 0141 29       		.byte	0x29
 2237 0142 09       		.uleb128 0x9
 2238 0143 A5000000 		.4byte	.LASF36
 2239 0147 2A       		.byte	0x2a
 2240 0148 09       		.uleb128 0x9
ARM GAS  C:\Users\sergio\AppData\Local\Temp\ccV5Q6Sf.s 			page 55


 2241 0149 22010000 		.4byte	.LASF37
 2242 014d 2B       		.byte	0x2b
 2243 014e 09       		.uleb128 0x9
 2244 014f 55120000 		.4byte	.LASF38
 2245 0153 2C       		.byte	0x2c
 2246 0154 09       		.uleb128 0x9
 2247 0155 BB020000 		.4byte	.LASF39
 2248 0159 2D       		.byte	0x2d
 2249 015a 09       		.uleb128 0x9
 2250 015b 2E0D0000 		.4byte	.LASF40
 2251 015f 2E       		.byte	0x2e
 2252 0160 09       		.uleb128 0x9
 2253 0161 41010000 		.4byte	.LASF41
 2254 0165 2F       		.byte	0x2f
 2255 0166 09       		.uleb128 0x9
 2256 0167 260B0000 		.4byte	.LASF42
 2257 016b 30       		.byte	0x30
 2258 016c 09       		.uleb128 0x9
 2259 016d C7120000 		.4byte	.LASF43
 2260 0171 31       		.byte	0x31
 2261 0172 09       		.uleb128 0x9
 2262 0173 050B0000 		.4byte	.LASF44
 2263 0177 32       		.byte	0x32
 2264 0178 09       		.uleb128 0x9
 2265 0179 7D0E0000 		.4byte	.LASF45
 2266 017d 33       		.byte	0x33
 2267 017e 09       		.uleb128 0x9
 2268 017f CD060000 		.4byte	.LASF46
 2269 0183 34       		.byte	0x34
 2270 0184 09       		.uleb128 0x9
 2271 0185 470B0000 		.4byte	.LASF47
 2272 0189 35       		.byte	0x35
 2273 018a 09       		.uleb128 0x9
 2274 018b A3080000 		.4byte	.LASF48
 2275 018f 36       		.byte	0x36
 2276 0190 09       		.uleb128 0x9
 2277 0191 D8090000 		.4byte	.LASF49
 2278 0195 37       		.byte	0x37
 2279 0196 09       		.uleb128 0x9
 2280 0197 4E050000 		.4byte	.LASF50
 2281 019b 40       		.byte	0x40
 2282 019c 09       		.uleb128 0x9
 2283 019d 64090000 		.4byte	.LASF51
 2284 01a1 41       		.byte	0x41
 2285 01a2 09       		.uleb128 0x9
 2286 01a3 A0050000 		.4byte	.LASF52
 2287 01a7 42       		.byte	0x42
 2288 01a8 09       		.uleb128 0x9
 2289 01a9 08110000 		.4byte	.LASF53
 2290 01ad 43       		.byte	0x43
 2291 01ae 09       		.uleb128 0x9
 2292 01af 0C070000 		.4byte	.LASF54
 2293 01b3 44       		.byte	0x44
 2294 01b4 09       		.uleb128 0x9
 2295 01b5 620C0000 		.4byte	.LASF55
 2296 01b9 45       		.byte	0x45
 2297 01ba 09       		.uleb128 0x9
ARM GAS  C:\Users\sergio\AppData\Local\Temp\ccV5Q6Sf.s 			page 56


 2298 01bb 350A0000 		.4byte	.LASF56
 2299 01bf 46       		.byte	0x46
 2300 01c0 09       		.uleb128 0x9
 2301 01c1 CB070000 		.4byte	.LASF57
 2302 01c5 47       		.byte	0x47
 2303 01c6 09       		.uleb128 0x9
 2304 01c7 19120000 		.4byte	.LASF58
 2305 01cb 48       		.byte	0x48
 2306 01cc 09       		.uleb128 0x9
 2307 01cd BA030000 		.4byte	.LASF59
 2308 01d1 49       		.byte	0x49
 2309 01d2 09       		.uleb128 0x9
 2310 01d3 CB0F0000 		.4byte	.LASF60
 2311 01d7 4A       		.byte	0x4a
 2312 01d8 09       		.uleb128 0x9
 2313 01d9 6A010000 		.4byte	.LASF61
 2314 01dd 4B       		.byte	0x4b
 2315 01de 09       		.uleb128 0x9
 2316 01df F2060000 		.4byte	.LASF62
 2317 01e3 4C       		.byte	0x4c
 2318 01e4 09       		.uleb128 0x9
 2319 01e5 670F0000 		.4byte	.LASF63
 2320 01e9 4D       		.byte	0x4d
 2321 01ea 09       		.uleb128 0x9
 2322 01eb FC030000 		.4byte	.LASF64
 2323 01ef 4E       		.byte	0x4e
 2324 01f0 09       		.uleb128 0x9
 2325 01f1 FE0D0000 		.4byte	.LASF65
 2326 01f5 4F       		.byte	0x4f
 2327 01f6 09       		.uleb128 0x9
 2328 01f7 0B080000 		.4byte	.LASF66
 2329 01fb 50       		.byte	0x50
 2330 01fc 09       		.uleb128 0x9
 2331 01fd B6010000 		.4byte	.LASF67
 2332 0201 51       		.byte	0x51
 2333 0202 09       		.uleb128 0x9
 2334 0203 BD0B0000 		.4byte	.LASF68
 2335 0207 52       		.byte	0x52
 2336 0208 09       		.uleb128 0x9
 2337 0209 F8110000 		.4byte	.LASF69
 2338 020d 53       		.byte	0x53
 2339 020e 09       		.uleb128 0x9
 2340 020f 550E0000 		.4byte	.LASF70
 2341 0213 54       		.byte	0x54
 2342 0214 09       		.uleb128 0x9
 2343 0215 2A070000 		.4byte	.LASF71
 2344 0219 55       		.byte	0x55
 2345 021a 09       		.uleb128 0x9
 2346 021b 13060000 		.4byte	.LASF72
 2347 021f 56       		.byte	0x56
 2348 0220 09       		.uleb128 0x9
 2349 0221 3E0F0000 		.4byte	.LASF73
 2350 0225 57       		.byte	0x57
 2351 0226 09       		.uleb128 0x9
 2352 0227 4E070000 		.4byte	.LASF74
 2353 022b 58       		.byte	0x58
 2354 022c 09       		.uleb128 0x9
ARM GAS  C:\Users\sergio\AppData\Local\Temp\ccV5Q6Sf.s 			page 57


 2355 022d 68050000 		.4byte	.LASF75
 2356 0231 70       		.byte	0x70
 2357 0232 09       		.uleb128 0x9
 2358 0233 9C120000 		.4byte	.LASF76
 2359 0237 71       		.byte	0x71
 2360 0238 09       		.uleb128 0x9
 2361 0239 8D090000 		.4byte	.LASF77
 2362 023d 72       		.byte	0x72
 2363 023e 09       		.uleb128 0x9
 2364 023f 93010000 		.4byte	.LASF78
 2365 0243 73       		.byte	0x73
 2366 0244 09       		.uleb128 0x9
 2367 0245 370C0000 		.4byte	.LASF79
 2368 0249 74       		.byte	0x74
 2369 024a 09       		.uleb128 0x9
 2370 024b E40A0000 		.4byte	.LASF80
 2371 024f 75       		.byte	0x75
 2372 0250 09       		.uleb128 0x9
 2373 0251 CE000000 		.4byte	.LASF81
 2374 0255 76       		.byte	0x76
 2375 0256 09       		.uleb128 0x9
 2376 0257 31080000 		.4byte	.LASF82
 2377 025b 77       		.byte	0x77
 2378 025c 09       		.uleb128 0x9
 2379 025d 00000000 		.4byte	.LASF83
 2380 0261 78       		.byte	0x78
 2381 0262 09       		.uleb128 0x9
 2382 0263 A80F0000 		.4byte	.LASF84
 2383 0267 79       		.byte	0x79
 2384 0268 09       		.uleb128 0x9
 2385 0269 BE050000 		.4byte	.LASF85
 2386 026d 7A       		.byte	0x7a
 2387 026e 09       		.uleb128 0x9
 2388 026f 4A020000 		.4byte	.LASF86
 2389 0273 FA       		.byte	0xfa
 2390 0274 09       		.uleb128 0x9
 2391 0275 62060000 		.4byte	.LASF87
 2392 0279 FB       		.byte	0xfb
 2393 027a 09       		.uleb128 0x9
 2394 027b AB0D0000 		.4byte	.LASF88
 2395 027f FC       		.byte	0xfc
 2396 0280 09       		.uleb128 0x9
 2397 0281 43130000 		.4byte	.LASF89
 2398 0285 FD       		.byte	0xfd
 2399 0286 09       		.uleb128 0x9
 2400 0287 31050000 		.4byte	.LASF90
 2401 028b FF       		.byte	0xff
 2402 028c 00       		.byte	0
 2403 028d 08       		.uleb128 0x8
 2404 028e 02       		.byte	0x2
 2405 028f 45000000 		.4byte	0x45
 2406 0293 05       		.byte	0x5
 2407 0294 EA03     		.2byte	0x3ea
 2408 0296 6C030000 		.4byte	0x36c
 2409 029a 09       		.uleb128 0x9
 2410 029b 3F050000 		.4byte	.LASF91
 2411 029f 00       		.byte	0
ARM GAS  C:\Users\sergio\AppData\Local\Temp\ccV5Q6Sf.s 			page 58


 2412 02a0 09       		.uleb128 0x9
 2413 02a1 BE040000 		.4byte	.LASF92
 2414 02a5 01       		.byte	0x1
 2415 02a6 09       		.uleb128 0x9
 2416 02a7 EA100000 		.4byte	.LASF93
 2417 02ab 02       		.byte	0x2
 2418 02ac 09       		.uleb128 0x9
 2419 02ad 80000000 		.4byte	.LASF94
 2420 02b1 03       		.byte	0x3
 2421 02b2 09       		.uleb128 0x9
 2422 02b3 41110000 		.4byte	.LASF95
 2423 02b7 04       		.byte	0x4
 2424 02b8 09       		.uleb128 0x9
 2425 02b9 35060000 		.4byte	.LASF96
 2426 02bd 05       		.byte	0x5
 2427 02be 09       		.uleb128 0x9
 2428 02bf BD0D0000 		.4byte	.LASF97
 2429 02c3 06       		.byte	0x6
 2430 02c4 09       		.uleb128 0x9
 2431 02c5 7C030000 		.4byte	.LASF98
 2432 02c9 07       		.byte	0x7
 2433 02ca 09       		.uleb128 0x9
 2434 02cb 66130000 		.4byte	.LASF99
 2435 02cf 08       		.byte	0x8
 2436 02d0 09       		.uleb128 0x9
 2437 02d1 40120000 		.4byte	.LASF100
 2438 02d5 09       		.byte	0x9
 2439 02d6 09       		.uleb128 0x9
 2440 02d7 DC0C0000 		.4byte	.LASF101
 2441 02db 0A       		.byte	0xa
 2442 02dc 09       		.uleb128 0x9
 2443 02dd EA0E0000 		.4byte	.LASF102
 2444 02e1 0B       		.byte	0xb
 2445 02e2 09       		.uleb128 0x9
 2446 02e3 87020000 		.4byte	.LASF103
 2447 02e7 0C       		.byte	0xc
 2448 02e8 09       		.uleb128 0x9
 2449 02e9 03020000 		.4byte	.LASF104
 2450 02ed 0D       		.byte	0xd
 2451 02ee 09       		.uleb128 0x9
 2452 02ef 92060000 		.4byte	.LASF105
 2453 02f3 0E       		.byte	0xe
 2454 02f4 09       		.uleb128 0x9
 2455 02f5 BD110000 		.4byte	.LASF106
 2456 02f9 0F       		.byte	0xf
 2457 02fa 09       		.uleb128 0x9
 2458 02fb 0E100000 		.4byte	.LASF107
 2459 02ff 10       		.byte	0x10
 2460 0300 09       		.uleb128 0x9
 2461 0301 71070000 		.4byte	.LASF108
 2462 0305 11       		.byte	0x11
 2463 0306 09       		.uleb128 0x9
 2464 0307 70040000 		.4byte	.LASF109
 2465 030b 12       		.byte	0x12
 2466 030c 09       		.uleb128 0x9
 2467 030d 1B130000 		.4byte	.LASF110
 2468 0311 13       		.byte	0x13
ARM GAS  C:\Users\sergio\AppData\Local\Temp\ccV5Q6Sf.s 			page 59


 2469 0312 09       		.uleb128 0x9
 2470 0313 5A030000 		.4byte	.LASF111
 2471 0317 27       		.byte	0x27
 2472 0318 09       		.uleb128 0x9
 2473 0319 E90F0000 		.4byte	.LASF112
 2474 031d 28       		.byte	0x28
 2475 031e 09       		.uleb128 0x9
 2476 031f A1110000 		.4byte	.LASF113
 2477 0323 29       		.byte	0x29
 2478 0324 09       		.uleb128 0x9
 2479 0325 BF0C0000 		.4byte	.LASF114
 2480 0329 2A       		.byte	0x2a
 2481 032a 09       		.uleb128 0x9
 2482 032b EF000000 		.4byte	.LASF115
 2483 032f 2B       		.byte	0x2b
 2484 0330 09       		.uleb128 0x9
 2485 0331 1D0A0000 		.4byte	.LASF116
 2486 0335 2C       		.byte	0x2c
 2487 0336 09       		.uleb128 0x9
 2488 0337 2B0E0000 		.4byte	.LASF117
 2489 033b 2D       		.byte	0x2d
 2490 033c 09       		.uleb128 0x9
 2491 033d 7A110000 		.4byte	.LASF118
 2492 0341 FE       		.byte	0xfe
 2493 0342 09       		.uleb128 0x9
 2494 0343 0D0A0000 		.4byte	.LASF119
 2495 0347 FF       		.byte	0xff
 2496 0348 0A       		.uleb128 0xa
 2497 0349 9B070000 		.4byte	.LASF120
 2498 034d 0001     		.2byte	0x100
 2499 034f 0A       		.uleb128 0xa
 2500 0350 DE0B0000 		.4byte	.LASF121
 2501 0354 0101     		.2byte	0x101
 2502 0356 0A       		.uleb128 0xa
 2503 0357 F60C0000 		.4byte	.LASF122
 2504 035b 0201     		.2byte	0x102
 2505 035d 0A       		.uleb128 0xa
 2506 035e D3030000 		.4byte	.LASF123
 2507 0362 0301     		.2byte	0x103
 2508 0364 0A       		.uleb128 0xa
 2509 0365 B60E0000 		.4byte	.LASF124
 2510 0369 0401     		.2byte	0x104
 2511 036b 00       		.byte	0
 2512 036c 05       		.uleb128 0x5
 2513 036d 810F0000 		.4byte	.LASF125
 2514 0371 05       		.byte	0x5
 2515 0372 5C04     		.2byte	0x45c
 2516 0374 8D020000 		.4byte	0x28d
 2517 0378 0B       		.uleb128 0xb
 2518 0379 07       		.byte	0x7
 2519 037a 05       		.byte	0x5
 2520 037b 2A05     		.2byte	0x52a
 2521 037d 9C030000 		.4byte	0x39c
 2522 0381 0C       		.uleb128 0xc
 2523 0382 2A080000 		.4byte	.LASF126
 2524 0386 05       		.byte	0x5
 2525 0387 2D05     		.2byte	0x52d
ARM GAS  C:\Users\sergio\AppData\Local\Temp\ccV5Q6Sf.s 			page 60


 2526 0389 9C030000 		.4byte	0x39c
 2527 038d 00       		.byte	0
 2528 038e 0C       		.uleb128 0xc
 2529 038f B1010000 		.4byte	.LASF127
 2530 0393 05       		.byte	0x5
 2531 0394 2F05     		.2byte	0x52f
 2532 0396 81000000 		.4byte	0x81
 2533 039a 06       		.byte	0x6
 2534 039b 00       		.byte	0
 2535 039c 0D       		.uleb128 0xd
 2536 039d 81000000 		.4byte	0x81
 2537 03a1 AC030000 		.4byte	0x3ac
 2538 03a5 0E       		.uleb128 0xe
 2539 03a6 C6000000 		.4byte	0xc6
 2540 03aa 05       		.byte	0x5
 2541 03ab 00       		.byte	0
 2542 03ac 05       		.uleb128 0x5
 2543 03ad 73020000 		.4byte	.LASF128
 2544 03b1 05       		.byte	0x5
 2545 03b2 3005     		.2byte	0x530
 2546 03b4 78030000 		.4byte	0x378
 2547 03b8 0F       		.uleb128 0xf
 2548 03b9 04       		.byte	0x4
 2549 03ba 81000000 		.4byte	0x81
 2550 03be 05       		.uleb128 0x5
 2551 03bf EB120000 		.4byte	.LASF129
 2552 03c3 06       		.byte	0x6
 2553 03c4 8901     		.2byte	0x189
 2554 03c6 8D000000 		.4byte	0x8d
 2555 03ca 0B       		.uleb128 0xb
 2556 03cb 02       		.byte	0x2
 2557 03cc 06       		.byte	0x6
 2558 03cd 9301     		.2byte	0x193
 2559 03cf EE030000 		.4byte	0x3ee
 2560 03d3 0C       		.uleb128 0xc
 2561 03d4 79120000 		.4byte	.LASF130
 2562 03d8 06       		.byte	0x6
 2563 03d9 9A01     		.2byte	0x19a
 2564 03db 81000000 		.4byte	0x81
 2565 03df 00       		.byte	0
 2566 03e0 0C       		.uleb128 0xc
 2567 03e1 5E090000 		.4byte	.LASF131
 2568 03e5 06       		.byte	0x6
 2569 03e6 A001     		.2byte	0x1a0
 2570 03e8 81000000 		.4byte	0x81
 2571 03ec 01       		.byte	0x1
 2572 03ed 00       		.byte	0
 2573 03ee 05       		.uleb128 0x5
 2574 03ef 61000000 		.4byte	.LASF132
 2575 03f3 06       		.byte	0x6
 2576 03f4 A201     		.2byte	0x1a2
 2577 03f6 CA030000 		.4byte	0x3ca
 2578 03fa 0B       		.uleb128 0xb
 2579 03fb 08       		.byte	0x8
 2580 03fc 06       		.byte	0x6
 2581 03fd BE01     		.2byte	0x1be
 2582 03ff 2B040000 		.4byte	0x42b
ARM GAS  C:\Users\sergio\AppData\Local\Temp\ccV5Q6Sf.s 			page 61


 2583 0403 10       		.uleb128 0x10
 2584 0404 76616C00 		.ascii	"val\000"
 2585 0408 06       		.byte	0x6
 2586 0409 C101     		.2byte	0x1c1
 2587 040b B8030000 		.4byte	0x3b8
 2588 040f 00       		.byte	0
 2589 0410 10       		.uleb128 0x10
 2590 0411 6C656E00 		.ascii	"len\000"
 2591 0415 06       		.byte	0x6
 2592 0416 C401     		.2byte	0x1c4
 2593 0418 8D000000 		.4byte	0x8d
 2594 041c 04       		.byte	0x4
 2595 041d 0C       		.uleb128 0xc
 2596 041e 99030000 		.4byte	.LASF133
 2597 0422 06       		.byte	0x6
 2598 0423 CB01     		.2byte	0x1cb
 2599 0425 8D000000 		.4byte	0x8d
 2600 0429 06       		.byte	0x6
 2601 042a 00       		.byte	0
 2602 042b 05       		.uleb128 0x5
 2603 042c 28020000 		.4byte	.LASF134
 2604 0430 06       		.byte	0x6
 2605 0431 CD01     		.2byte	0x1cd
 2606 0433 FA030000 		.4byte	0x3fa
 2607 0437 0B       		.uleb128 0xb
 2608 0438 0C       		.byte	0xc
 2609 0439 06       		.byte	0x6
 2610 043a D001     		.2byte	0x1d0
 2611 043c 5B040000 		.4byte	0x45b
 2612 0440 0C       		.uleb128 0xc
 2613 0441 250E0000 		.4byte	.LASF135
 2614 0445 06       		.byte	0x6
 2615 0446 D301     		.2byte	0x1d3
 2616 0448 2B040000 		.4byte	0x42b
 2617 044c 00       		.byte	0
 2618 044d 0C       		.uleb128 0xc
 2619 044e E2050000 		.4byte	.LASF136
 2620 0452 06       		.byte	0x6
 2621 0453 D601     		.2byte	0x1d6
 2622 0455 BE030000 		.4byte	0x3be
 2623 0459 08       		.byte	0x8
 2624 045a 00       		.byte	0
 2625 045b 05       		.uleb128 0x5
 2626 045c F70B0000 		.4byte	.LASF137
 2627 0460 06       		.byte	0x6
 2628 0461 D801     		.2byte	0x1d8
 2629 0463 37040000 		.4byte	0x437
 2630 0467 03       		.uleb128 0x3
 2631 0468 8A0A0000 		.4byte	.LASF138
 2632 046c 07       		.byte	0x7
 2633 046d 34       		.byte	0x34
 2634 046e 5B040000 		.4byte	0x45b
 2635 0472 11       		.uleb128 0x11
 2636 0473 10       		.byte	0x10
 2637 0474 07       		.byte	0x7
 2638 0475 8A       		.byte	0x8a
 2639 0476 93040000 		.4byte	0x493
ARM GAS  C:\Users\sergio\AppData\Local\Temp\ccV5Q6Sf.s 			page 62


 2640 047a 12       		.uleb128 0x12
 2641 047b 75000000 		.4byte	.LASF139
 2642 047f 07       		.byte	0x7
 2643 0480 8D       		.byte	0x8d
 2644 0481 EE030000 		.4byte	0x3ee
 2645 0485 00       		.byte	0
 2646 0486 12       		.uleb128 0x12
 2647 0487 CE100000 		.4byte	.LASF140
 2648 048b 07       		.byte	0x7
 2649 048c 90       		.byte	0x90
 2650 048d 5B040000 		.4byte	0x45b
 2651 0491 04       		.byte	0x4
 2652 0492 00       		.byte	0
 2653 0493 03       		.uleb128 0x3
 2654 0494 6C0A0000 		.4byte	.LASF141
 2655 0498 07       		.byte	0x7
 2656 0499 92       		.byte	0x92
 2657 049a 72040000 		.4byte	0x472
 2658 049e 08       		.uleb128 0x8
 2659 049f 01       		.byte	0x1
 2660 04a0 37000000 		.4byte	0x37
 2661 04a4 08       		.byte	0x8
 2662 04a5 A808     		.2byte	0x8a8
 2663 04a7 CA040000 		.4byte	0x4ca
 2664 04ab 09       		.uleb128 0x9
 2665 04ac 3F000000 		.4byte	.LASF142
 2666 04b0 00       		.byte	0
 2667 04b1 09       		.uleb128 0x9
 2668 04b2 A90A0000 		.4byte	.LASF143
 2669 04b6 01       		.byte	0x1
 2670 04b7 09       		.uleb128 0x9
 2671 04b8 E2110000 		.4byte	.LASF144
 2672 04bc 02       		.byte	0x2
 2673 04bd 09       		.uleb128 0x9
 2674 04be FF020000 		.4byte	.LASF145
 2675 04c2 03       		.byte	0x3
 2676 04c3 09       		.uleb128 0x9
 2677 04c4 1A040000 		.4byte	.LASF146
 2678 04c8 04       		.byte	0x4
 2679 04c9 00       		.byte	0
 2680 04ca 05       		.uleb128 0x5
 2681 04cb 64110000 		.4byte	.LASF147
 2682 04cf 08       		.byte	0x8
 2683 04d0 B608     		.2byte	0x8b6
 2684 04d2 9E040000 		.4byte	0x49e
 2685 04d6 11       		.uleb128 0x11
 2686 04d7 24       		.byte	0x24
 2687 04d8 01       		.byte	0x1
 2688 04d9 24       		.byte	0x24
 2689 04da C3050000 		.4byte	0x5c3
 2690 04de 12       		.uleb128 0x12
 2691 04df 27050000 		.4byte	.LASF148
 2692 04e3 01       		.byte	0x1
 2693 04e4 26       		.byte	0x26
 2694 04e5 81000000 		.4byte	0x81
 2695 04e9 00       		.byte	0
 2696 04ea 12       		.uleb128 0x12
ARM GAS  C:\Users\sergio\AppData\Local\Temp\ccV5Q6Sf.s 			page 63


 2697 04eb F3020000 		.4byte	.LASF149
 2698 04ef 01       		.byte	0x1
 2699 04f0 27       		.byte	0x27
 2700 04f1 81000000 		.4byte	0x81
 2701 04f5 01       		.byte	0x1
 2702 04f6 12       		.uleb128 0x12
 2703 04f7 700D0000 		.4byte	.LASF150
 2704 04fb 01       		.byte	0x1
 2705 04fc 28       		.byte	0x28
 2706 04fd 81000000 		.4byte	0x81
 2707 0501 02       		.byte	0x2
 2708 0502 12       		.uleb128 0x12
 2709 0503 17030000 		.4byte	.LASF151
 2710 0507 01       		.byte	0x1
 2711 0508 29       		.byte	0x29
 2712 0509 81000000 		.4byte	0x81
 2713 050d 03       		.byte	0x3
 2714 050e 12       		.uleb128 0x12
 2715 050f 23030000 		.4byte	.LASF152
 2716 0513 01       		.byte	0x1
 2717 0514 2A       		.byte	0x2a
 2718 0515 81000000 		.4byte	0x81
 2719 0519 04       		.byte	0x4
 2720 051a 12       		.uleb128 0x12
 2721 051b 02080000 		.4byte	.LASF153
 2722 051f 01       		.byte	0x1
 2723 0520 2B       		.byte	0x2b
 2724 0521 81000000 		.4byte	0x81
 2725 0525 05       		.byte	0x5
 2726 0526 12       		.uleb128 0x12
 2727 0527 EF0D0000 		.4byte	.LASF154
 2728 052b 01       		.byte	0x1
 2729 052c 2C       		.byte	0x2c
 2730 052d 8D000000 		.4byte	0x8d
 2731 0531 06       		.byte	0x6
 2732 0532 12       		.uleb128 0x12
 2733 0533 68040000 		.4byte	.LASF155
 2734 0537 01       		.byte	0x1
 2735 0538 2D       		.byte	0x2d
 2736 0539 8D000000 		.4byte	0x8d
 2737 053d 08       		.byte	0x8
 2738 053e 12       		.uleb128 0x12
 2739 053f 55030000 		.4byte	.LASF156
 2740 0543 01       		.byte	0x1
 2741 0544 2E       		.byte	0x2e
 2742 0545 8D000000 		.4byte	0x8d
 2743 0549 0A       		.byte	0xa
 2744 054a 12       		.uleb128 0x12
 2745 054b 8E050000 		.4byte	.LASF157
 2746 054f 01       		.byte	0x1
 2747 0550 2F       		.byte	0x2f
 2748 0551 99000000 		.4byte	0x99
 2749 0555 0C       		.byte	0xc
 2750 0556 12       		.uleb128 0x12
 2751 0557 96110000 		.4byte	.LASF158
 2752 055b 01       		.byte	0x1
 2753 055c 30       		.byte	0x30
ARM GAS  C:\Users\sergio\AppData\Local\Temp\ccV5Q6Sf.s 			page 64


 2754 055d 99000000 		.4byte	0x99
 2755 0561 10       		.byte	0x10
 2756 0562 12       		.uleb128 0x12
 2757 0563 550C0000 		.4byte	.LASF159
 2758 0567 01       		.byte	0x1
 2759 0568 31       		.byte	0x31
 2760 0569 99000000 		.4byte	0x99
 2761 056d 14       		.byte	0x14
 2762 056e 12       		.uleb128 0x12
 2763 056f E5060000 		.4byte	.LASF160
 2764 0573 01       		.byte	0x1
 2765 0574 32       		.byte	0x32
 2766 0575 8D000000 		.4byte	0x8d
 2767 0579 18       		.byte	0x18
 2768 057a 12       		.uleb128 0x12
 2769 057b 2B0C0000 		.4byte	.LASF161
 2770 057f 01       		.byte	0x1
 2771 0580 33       		.byte	0x33
 2772 0581 8D000000 		.4byte	0x8d
 2773 0585 1A       		.byte	0x1a
 2774 0586 12       		.uleb128 0x12
 2775 0587 950B0000 		.4byte	.LASF162
 2776 058b 01       		.byte	0x1
 2777 058c 34       		.byte	0x34
 2778 058d 8D000000 		.4byte	0x8d
 2779 0591 1C       		.byte	0x1c
 2780 0592 12       		.uleb128 0x12
 2781 0593 890C0000 		.4byte	.LASF163
 2782 0597 01       		.byte	0x1
 2783 0598 35       		.byte	0x35
 2784 0599 8D000000 		.4byte	0x8d
 2785 059d 1E       		.byte	0x1e
 2786 059e 12       		.uleb128 0x12
 2787 059f 3B020000 		.4byte	.LASF164
 2788 05a3 01       		.byte	0x1
 2789 05a4 36       		.byte	0x36
 2790 05a5 81000000 		.4byte	0x81
 2791 05a9 20       		.byte	0x20
 2792 05aa 12       		.uleb128 0x12
 2793 05ab 40020000 		.4byte	.LASF165
 2794 05af 01       		.byte	0x1
 2795 05b0 37       		.byte	0x37
 2796 05b1 81000000 		.4byte	0x81
 2797 05b5 21       		.byte	0x21
 2798 05b6 12       		.uleb128 0x12
 2799 05b7 45020000 		.4byte	.LASF166
 2800 05bb 01       		.byte	0x1
 2801 05bc 38       		.byte	0x38
 2802 05bd 81000000 		.4byte	0x81
 2803 05c1 22       		.byte	0x22
 2804 05c2 00       		.byte	0
 2805 05c3 03       		.uleb128 0x3
 2806 05c4 53000000 		.4byte	.LASF167
 2807 05c8 01       		.byte	0x1
 2808 05c9 3A       		.byte	0x3a
 2809 05ca D6040000 		.4byte	0x4d6
 2810 05ce 11       		.uleb128 0x11
ARM GAS  C:\Users\sergio\AppData\Local\Temp\ccV5Q6Sf.s 			page 65


 2811 05cf 05       		.byte	0x5
 2812 05d0 01       		.byte	0x1
 2813 05d1 3E       		.byte	0x3e
 2814 05d2 13060000 		.4byte	0x613
 2815 05d6 12       		.uleb128 0x12
 2816 05d7 DE010000 		.4byte	.LASF168
 2817 05db 01       		.byte	0x1
 2818 05dc 3F       		.byte	0x3f
 2819 05dd 81000000 		.4byte	0x81
 2820 05e1 00       		.byte	0
 2821 05e2 12       		.uleb128 0x12
 2822 05e3 4E030000 		.4byte	.LASF169
 2823 05e7 01       		.byte	0x1
 2824 05e8 40       		.byte	0x40
 2825 05e9 81000000 		.4byte	0x81
 2826 05ed 01       		.byte	0x1
 2827 05ee 12       		.uleb128 0x12
 2828 05ef 04060000 		.4byte	.LASF170
 2829 05f3 01       		.byte	0x1
 2830 05f4 41       		.byte	0x41
 2831 05f5 81000000 		.4byte	0x81
 2832 05f9 02       		.byte	0x2
 2833 05fa 12       		.uleb128 0x12
 2834 05fb ED030000 		.4byte	.LASF171
 2835 05ff 01       		.byte	0x1
 2836 0600 42       		.byte	0x42
 2837 0601 81000000 		.4byte	0x81
 2838 0605 03       		.byte	0x3
 2839 0606 12       		.uleb128 0x12
 2840 0607 CD0E0000 		.4byte	.LASF172
 2841 060b 01       		.byte	0x1
 2842 060c 43       		.byte	0x43
 2843 060d 81000000 		.4byte	0x81
 2844 0611 04       		.byte	0x4
 2845 0612 00       		.byte	0
 2846 0613 03       		.uleb128 0x3
 2847 0614 53060000 		.4byte	.LASF173
 2848 0618 01       		.byte	0x1
 2849 0619 44       		.byte	0x44
 2850 061a CE050000 		.4byte	0x5ce
 2851 061e 13       		.uleb128 0x13
 2852 061f EE010000 		.4byte	.LASF174
 2853 0623 01       		.byte	0x1
 2854 0624 4D       		.byte	0x4d
 2855 0625 00000000 		.4byte	.LFB36
 2856 0629 68000000 		.4byte	.LFE36-.LFB36
 2857 062d 01       		.uleb128 0x1
 2858 062e 9C       		.byte	0x9c
 2859 062f 42060000 		.4byte	0x642
 2860 0633 14       		.uleb128 0x14
 2861 0634 5B130000 		.4byte	.LASF178
 2862 0638 01       		.byte	0x1
 2863 0639 50       		.byte	0x50
 2864 063a 42060000 		.4byte	0x642
 2865 063e 02       		.uleb128 0x2
 2866 063f 91       		.byte	0x91
 2867 0640 70       		.sleb128 -16
ARM GAS  C:\Users\sergio\AppData\Local\Temp\ccV5Q6Sf.s 			page 66


 2868 0641 00       		.byte	0
 2869 0642 0D       		.uleb128 0xd
 2870 0643 81000000 		.4byte	0x81
 2871 0647 52060000 		.4byte	0x652
 2872 064b 0E       		.uleb128 0xe
 2873 064c C6000000 		.4byte	0xc6
 2874 0650 04       		.byte	0x4
 2875 0651 00       		.byte	0
 2876 0652 13       		.uleb128 0x13
 2877 0653 A7040000 		.4byte	.LASF175
 2878 0657 01       		.byte	0x1
 2879 0658 5A       		.byte	0x5a
 2880 0659 00000000 		.4byte	.LFB37
 2881 065d 50010000 		.4byte	.LFE37-.LFB37
 2882 0661 01       		.uleb128 0x1
 2883 0662 9C       		.byte	0x9c
 2884 0663 AB060000 		.4byte	0x6ab
 2885 0667 15       		.uleb128 0x15
 2886 0668 95070000 		.4byte	.LASF176
 2887 066c 01       		.byte	0x1
 2888 066d 5A       		.byte	0x5a
 2889 066e 99000000 		.4byte	0x99
 2890 0672 02       		.uleb128 0x2
 2891 0673 91       		.byte	0x91
 2892 0674 54       		.sleb128 -44
 2893 0675 15       		.uleb128 0x15
 2894 0676 31110000 		.4byte	.LASF177
 2895 067a 01       		.byte	0x1
 2896 067b 5A       		.byte	0x5a
 2897 067c CD000000 		.4byte	0xcd
 2898 0680 02       		.uleb128 0x2
 2899 0681 91       		.byte	0x91
 2900 0682 50       		.sleb128 -48
 2901 0683 14       		.uleb128 0x14
 2902 0684 A50D0000 		.4byte	.LASF179
 2903 0688 01       		.byte	0x1
 2904 0689 5C       		.byte	0x5c
 2905 068a 93040000 		.4byte	0x493
 2906 068e 02       		.uleb128 0x2
 2907 068f 91       		.byte	0x91
 2908 0690 60       		.sleb128 -32
 2909 0691 16       		.uleb128 0x16
 2910 0692 9E0B0000 		.4byte	.LASF224
 2911 0696 01       		.byte	0x1
 2912 0697 5D       		.byte	0x5d
 2913 0698 6C030000 		.4byte	0x36c
 2914 069c 14       		.uleb128 0x14
 2915 069d 07130000 		.4byte	.LASF180
 2916 06a1 01       		.byte	0x1
 2917 06a2 5E       		.byte	0x5e
 2918 06a3 AC030000 		.4byte	0x3ac
 2919 06a7 02       		.uleb128 0x2
 2920 06a8 91       		.byte	0x91
 2921 06a9 58       		.sleb128 -40
 2922 06aa 00       		.byte	0
 2923 06ab 17       		.uleb128 0x17
 2924 06ac A80B0000 		.4byte	.LASF225
ARM GAS  C:\Users\sergio\AppData\Local\Temp\ccV5Q6Sf.s 			page 67


 2925 06b0 01       		.byte	0x1
 2926 06b1 B4       		.byte	0xb4
 2927 06b2 00000000 		.4byte	.LFB38
 2928 06b6 68000000 		.4byte	.LFE38-.LFB38
 2929 06ba 01       		.uleb128 0x1
 2930 06bb 9C       		.byte	0x9c
 2931 06bc DB060000 		.4byte	0x6db
 2932 06c0 18       		.uleb128 0x18
 2933 06c1 7400     		.ascii	"t\000"
 2934 06c3 01       		.byte	0x1
 2935 06c4 B5       		.byte	0xb5
 2936 06c5 42060000 		.4byte	0x642
 2937 06c9 02       		.uleb128 0x2
 2938 06ca 91       		.byte	0x91
 2939 06cb 70       		.sleb128 -16
 2940 06cc 14       		.uleb128 0x14
 2941 06cd 9D0C0000 		.4byte	.LASF181
 2942 06d1 01       		.byte	0x1
 2943 06d2 B6       		.byte	0xb6
 2944 06d3 5B040000 		.4byte	0x45b
 2945 06d7 02       		.uleb128 0x2
 2946 06d8 91       		.byte	0x91
 2947 06d9 64       		.sleb128 -28
 2948 06da 00       		.byte	0
 2949 06db 13       		.uleb128 0x13
 2950 06dc E4020000 		.4byte	.LASF182
 2951 06e0 01       		.byte	0x1
 2952 06e1 BF       		.byte	0xbf
 2953 06e2 00000000 		.4byte	.LFB39
 2954 06e6 B8000000 		.4byte	.LFE39-.LFB39
 2955 06ea 01       		.uleb128 0x1
 2956 06eb 9C       		.byte	0x9c
 2957 06ec 1B070000 		.4byte	0x71b
 2958 06f0 19       		.uleb128 0x19
 2959 06f1 6C656E00 		.ascii	"len\000"
 2960 06f5 01       		.byte	0x1
 2961 06f6 BF       		.byte	0xbf
 2962 06f7 81000000 		.4byte	0x81
 2963 06fb 02       		.uleb128 0x2
 2964 06fc 91       		.byte	0x91
 2965 06fd 5F       		.sleb128 -33
 2966 06fe 14       		.uleb128 0x14
 2967 06ff 9A0D0000 		.4byte	.LASF183
 2968 0703 01       		.byte	0x1
 2969 0704 C0       		.byte	0xc0
 2970 0705 67040000 		.4byte	0x467
 2971 0709 02       		.uleb128 0x2
 2972 070a 91       		.byte	0x91
 2973 070b 6C       		.sleb128 -20
 2974 070c 14       		.uleb128 0x14
 2975 070d 68020000 		.4byte	.LASF184
 2976 0711 01       		.byte	0x1
 2977 0712 C2       		.byte	0xc2
 2978 0713 1B070000 		.4byte	0x71b
 2979 0717 02       		.uleb128 0x2
 2980 0718 91       		.byte	0x91
 2981 0719 60       		.sleb128 -32
ARM GAS  C:\Users\sergio\AppData\Local\Temp\ccV5Q6Sf.s 			page 68


 2982 071a 00       		.byte	0
 2983 071b 0D       		.uleb128 0xd
 2984 071c 81000000 		.4byte	0x81
 2985 0720 2B070000 		.4byte	0x72b
 2986 0724 0E       		.uleb128 0xe
 2987 0725 C6000000 		.4byte	0xc6
 2988 0729 08       		.byte	0x8
 2989 072a 00       		.byte	0
 2990 072b 13       		.uleb128 0x13
 2991 072c A80C0000 		.4byte	.LASF185
 2992 0730 01       		.byte	0x1
 2993 0731 D2       		.byte	0xd2
 2994 0732 00000000 		.4byte	.LFB40
 2995 0736 58000000 		.4byte	.LFE40-.LFB40
 2996 073a 01       		.uleb128 0x1
 2997 073b 9C       		.byte	0x9c
 2998 073c 5D070000 		.4byte	0x75d
 2999 0740 14       		.uleb128 0x14
 3000 0741 940F0000 		.4byte	.LASF186
 3001 0745 01       		.byte	0x1
 3002 0746 D3       		.byte	0xd3
 3003 0747 5B040000 		.4byte	0x45b
 3004 074b 02       		.uleb128 0x2
 3005 074c 91       		.byte	0x91
 3006 074d 6C       		.sleb128 -20
 3007 074e 14       		.uleb128 0x14
 3008 074f DC100000 		.4byte	.LASF187
 3009 0753 01       		.byte	0x1
 3010 0754 D5       		.byte	0xd5
 3011 0755 5D070000 		.4byte	0x75d
 3012 0759 02       		.uleb128 0x2
 3013 075a 91       		.byte	0x91
 3014 075b 68       		.sleb128 -24
 3015 075c 00       		.byte	0
 3016 075d 0D       		.uleb128 0xd
 3017 075e 81000000 		.4byte	0x81
 3018 0762 6D070000 		.4byte	0x76d
 3019 0766 0E       		.uleb128 0xe
 3020 0767 C6000000 		.4byte	0xc6
 3021 076b 01       		.byte	0x1
 3022 076c 00       		.byte	0
 3023 076d 1A       		.uleb128 0x1a
 3024 076e 82120000 		.4byte	.LASF190
 3025 0772 01       		.byte	0x1
 3026 0773 E7       		.byte	0xe7
 3027 0774 00000000 		.4byte	.LFB41
 3028 0778 2A000000 		.4byte	.LFE41-.LFB41
 3029 077c 01       		.uleb128 0x1
 3030 077d 9C       		.byte	0x9c
 3031 077e 1B       		.uleb128 0x1b
 3032 077f 160C0000 		.4byte	.LASF188
 3033 0783 01       		.byte	0x1
 3034 0784 EE       		.byte	0xee
 3035 0785 81000000 		.4byte	0x81
 3036 0789 00000000 		.4byte	.LFB42
 3037 078d 46000000 		.4byte	.LFE42-.LFB42
 3038 0791 01       		.uleb128 0x1
ARM GAS  C:\Users\sergio\AppData\Local\Temp\ccV5Q6Sf.s 			page 69


 3039 0792 9C       		.byte	0x9c
 3040 0793 A6070000 		.4byte	0x7a6
 3041 0797 14       		.uleb128 0x14
 3042 0798 E9010000 		.4byte	.LASF189
 3043 079c 01       		.byte	0x1
 3044 079d F0       		.byte	0xf0
 3045 079e 81000000 		.4byte	0x81
 3046 07a2 02       		.uleb128 0x2
 3047 07a3 91       		.byte	0x91
 3048 07a4 77       		.sleb128 -9
 3049 07a5 00       		.byte	0
 3050 07a6 1A       		.uleb128 0x1a
 3051 07a7 B0100000 		.4byte	.LASF191
 3052 07ab 01       		.byte	0x1
 3053 07ac FB       		.byte	0xfb
 3054 07ad 00000000 		.4byte	.LFB43
 3055 07b1 4A000000 		.4byte	.LFE43-.LFB43
 3056 07b5 01       		.uleb128 0x1
 3057 07b6 9C       		.byte	0x9c
 3058 07b7 1C       		.uleb128 0x1c
 3059 07b8 92100000 		.4byte	.LASF192
 3060 07bc 01       		.byte	0x1
 3061 07bd 0801     		.2byte	0x108
 3062 07bf 00000000 		.4byte	.LFB44
 3063 07c3 4A000000 		.4byte	.LFE44-.LFB44
 3064 07c7 01       		.uleb128 0x1
 3065 07c8 9C       		.byte	0x9c
 3066 07c9 1C       		.uleb128 0x1c
 3067 07ca 5F0A0000 		.4byte	.LASF193
 3068 07ce 01       		.byte	0x1
 3069 07cf 1501     		.2byte	0x115
 3070 07d1 00000000 		.4byte	.LFB45
 3071 07d5 20000000 		.4byte	.LFE45-.LFB45
 3072 07d9 01       		.uleb128 0x1
 3073 07da 9C       		.byte	0x9c
 3074 07db 1D       		.uleb128 0x1d
 3075 07dc C2120000 		.4byte	.LASF226
 3076 07e0 01       		.byte	0x1
 3077 07e1 1C01     		.2byte	0x11c
 3078 07e3 68000000 		.4byte	0x68
 3079 07e7 00000000 		.4byte	.LFB46
 3080 07eb 70080000 		.4byte	.LFE46-.LFB46
 3081 07ef 01       		.uleb128 0x1
 3082 07f0 9C       		.byte	0x9c
 3083 07f1 2C090000 		.4byte	0x92c
 3084 07f5 1E       		.uleb128 0x1e
 3085 07f6 8E0D0000 		.4byte	.LASF194
 3086 07fa 01       		.byte	0x1
 3087 07fb 3F01     		.2byte	0x13f
 3088 07fd 81000000 		.4byte	0x81
 3089 0801 02       		.uleb128 0x2
 3090 0802 91       		.byte	0x91
 3091 0803 6B       		.sleb128 -21
 3092 0804 1E       		.uleb128 0x1e
 3093 0805 B0040000 		.4byte	.LASF195
 3094 0809 01       		.byte	0x1
 3095 080a 4001     		.2byte	0x140
ARM GAS  C:\Users\sergio\AppData\Local\Temp\ccV5Q6Sf.s 			page 70


 3096 080c 81000000 		.4byte	0x81
 3097 0810 02       		.uleb128 0x2
 3098 0811 91       		.byte	0x91
 3099 0812 6A       		.sleb128 -22
 3100 0813 1E       		.uleb128 0x1e
 3101 0814 B7040000 		.4byte	.LASF196
 3102 0818 01       		.byte	0x1
 3103 0819 4101     		.2byte	0x141
 3104 081b 81000000 		.4byte	0x81
 3105 081f 02       		.uleb128 0x2
 3106 0820 91       		.byte	0x91
 3107 0821 69       		.sleb128 -23
 3108 0822 1E       		.uleb128 0x1e
 3109 0823 940D0000 		.4byte	.LASF197
 3110 0827 01       		.byte	0x1
 3111 0828 4201     		.2byte	0x142
 3112 082a 76000000 		.4byte	0x76
 3113 082e 02       		.uleb128 0x2
 3114 082f 91       		.byte	0x91
 3115 0830 62       		.sleb128 -30
 3116 0831 1E       		.uleb128 0x1e
 3117 0832 DC0A0000 		.4byte	.LASF198
 3118 0836 01       		.byte	0x1
 3119 0837 4301     		.2byte	0x143
 3120 0839 76000000 		.4byte	0x76
 3121 083d 02       		.uleb128 0x2
 3122 083e 91       		.byte	0x91
 3123 083f 68       		.sleb128 -24
 3124 0840 1E       		.uleb128 0x1e
 3125 0841 520D0000 		.4byte	.LASF199
 3126 0845 01       		.byte	0x1
 3127 0846 4401     		.2byte	0x144
 3128 0848 76000000 		.4byte	0x76
 3129 084c 02       		.uleb128 0x2
 3130 084d 91       		.byte	0x91
 3131 084e 67       		.sleb128 -25
 3132 084f 1E       		.uleb128 0x1e
 3133 0850 860D0000 		.4byte	.LASF200
 3134 0854 01       		.byte	0x1
 3135 0855 4A01     		.2byte	0x14a
 3136 0857 68000000 		.4byte	0x68
 3137 085b 02       		.uleb128 0x2
 3138 085c 91       		.byte	0x91
 3139 085d 6C       		.sleb128 -20
 3140 085e 1F       		.uleb128 0x1f
 3141 085f B0000000 		.4byte	.LBB2
 3142 0863 B8060000 		.4byte	.LBE2-.LBB2
 3143 0867 1E       		.uleb128 0x1e
 3144 0868 11130000 		.4byte	.LASF201
 3145 086c 01       		.byte	0x1
 3146 086d 5101     		.2byte	0x151
 3147 086f 3C090000 		.4byte	0x93c
 3148 0873 02       		.uleb128 0x2
 3149 0874 91       		.byte	0x91
 3150 0875 60       		.sleb128 -32
 3151 0876 20       		.uleb128 0x20
 3152 0877 73747200 		.ascii	"str\000"
ARM GAS  C:\Users\sergio\AppData\Local\Temp\ccV5Q6Sf.s 			page 71


 3153 087b 01       		.byte	0x1
 3154 087c 5A01     		.2byte	0x15a
 3155 087e 41090000 		.4byte	0x941
 3156 0882 03       		.uleb128 0x3
 3157 0883 91       		.byte	0x91
 3158 0884 9C7F     		.sleb128 -100
 3159 0886 1E       		.uleb128 0x1e
 3160 0887 D2090000 		.4byte	.LASF202
 3161 088b 01       		.byte	0x1
 3162 088c 5B01     		.2byte	0x15b
 3163 088e 5D070000 		.4byte	0x75d
 3164 0892 02       		.uleb128 0x2
 3165 0893 91       		.byte	0x91
 3166 0894 5C       		.sleb128 -36
 3167 0895 1E       		.uleb128 0x1e
 3168 0896 970C0000 		.4byte	.LASF203
 3169 089a 01       		.byte	0x1
 3170 089b 5C01     		.2byte	0x15c
 3171 089d 51090000 		.4byte	0x951
 3172 08a1 02       		.uleb128 0x2
 3173 08a2 91       		.byte	0x91
 3174 08a3 58       		.sleb128 -40
 3175 08a4 1E       		.uleb128 0x1e
 3176 08a5 3C110000 		.4byte	.LASF204
 3177 08a9 01       		.byte	0x1
 3178 08aa C901     		.2byte	0x1c9
 3179 08ac 81000000 		.4byte	0x81
 3180 08b0 02       		.uleb128 0x2
 3181 08b1 91       		.byte	0x91
 3182 08b2 57       		.sleb128 -41
 3183 08b3 1E       		.uleb128 0x1e
 3184 08b4 D70D0000 		.4byte	.LASF205
 3185 08b8 01       		.byte	0x1
 3186 08b9 CA01     		.2byte	0x1ca
 3187 08bb 81000000 		.4byte	0x81
 3188 08bf 02       		.uleb128 0x2
 3189 08c0 91       		.byte	0x91
 3190 08c1 56       		.sleb128 -42
 3191 08c2 1E       		.uleb128 0x1e
 3192 08c3 2C0F0000 		.4byte	.LASF206
 3193 08c7 01       		.byte	0x1
 3194 08c8 CB01     		.2byte	0x1cb
 3195 08ca 81000000 		.4byte	0x81
 3196 08ce 02       		.uleb128 0x2
 3197 08cf 91       		.byte	0x91
 3198 08d0 55       		.sleb128 -43
 3199 08d1 1E       		.uleb128 0x1e
 3200 08d2 5D0C0000 		.4byte	.LASF207
 3201 08d6 01       		.byte	0x1
 3202 08d7 CC01     		.2byte	0x1cc
 3203 08d9 81000000 		.4byte	0x81
 3204 08dd 02       		.uleb128 0x2
 3205 08de 91       		.byte	0x91
 3206 08df 54       		.sleb128 -44
 3207 08e0 1E       		.uleb128 0x1e
 3208 08e1 5A0D0000 		.4byte	.LASF208
 3209 08e5 01       		.byte	0x1
ARM GAS  C:\Users\sergio\AppData\Local\Temp\ccV5Q6Sf.s 			page 72


 3210 08e6 CD01     		.2byte	0x1cd
 3211 08e8 81000000 		.4byte	0x81
 3212 08ec 02       		.uleb128 0x2
 3213 08ed 91       		.byte	0x91
 3214 08ee 53       		.sleb128 -45
 3215 08ef 1E       		.uleb128 0x1e
 3216 08f0 CD090000 		.4byte	.LASF209
 3217 08f4 01       		.byte	0x1
 3218 08f5 CE01     		.2byte	0x1ce
 3219 08f7 81000000 		.4byte	0x81
 3220 08fb 02       		.uleb128 0x2
 3221 08fc 91       		.byte	0x91
 3222 08fd 52       		.sleb128 -46
 3223 08fe 20       		.uleb128 0x20
 3224 08ff 726800   		.ascii	"rh\000"
 3225 0902 01       		.byte	0x1
 3226 0903 0A02     		.2byte	0x20a
 3227 0905 8D000000 		.4byte	0x8d
 3228 0909 02       		.uleb128 0x2
 3229 090a 91       		.byte	0x91
 3230 090b 64       		.sleb128 -28
 3231 090c 1E       		.uleb128 0x1e
 3232 090d E9010000 		.4byte	.LASF189
 3233 0911 01       		.byte	0x1
 3234 0912 1302     		.2byte	0x213
 3235 0914 81000000 		.4byte	0x81
 3236 0918 02       		.uleb128 0x2
 3237 0919 91       		.byte	0x91
 3238 091a 63       		.sleb128 -29
 3239 091b 20       		.uleb128 0x20
 3240 091c 76657200 		.ascii	"ver\000"
 3241 0920 01       		.byte	0x1
 3242 0921 1B02     		.2byte	0x21b
 3243 0923 5D070000 		.4byte	0x75d
 3244 0927 02       		.uleb128 0x2
 3245 0928 91       		.byte	0x91
 3246 0929 50       		.sleb128 -48
 3247 092a 00       		.byte	0
 3248 092b 00       		.byte	0
 3249 092c 0D       		.uleb128 0xd
 3250 092d BA000000 		.4byte	0xba
 3251 0931 3C090000 		.4byte	0x93c
 3252 0935 0E       		.uleb128 0xe
 3253 0936 C6000000 		.4byte	0xc6
 3254 093a 01       		.byte	0x1
 3255 093b 00       		.byte	0
 3256 093c 06       		.uleb128 0x6
 3257 093d 2C090000 		.4byte	0x92c
 3258 0941 0D       		.uleb128 0xd
 3259 0942 B3000000 		.4byte	0xb3
 3260 0946 51090000 		.4byte	0x951
 3261 094a 0E       		.uleb128 0xe
 3262 094b C6000000 		.4byte	0xc6
 3263 094f 31       		.byte	0x31
 3264 0950 00       		.byte	0
 3265 0951 06       		.uleb128 0x6
 3266 0952 2C090000 		.4byte	0x92c
ARM GAS  C:\Users\sergio\AppData\Local\Temp\ccV5Q6Sf.s 			page 73


 3267 0956 21       		.uleb128 0x21
 3268 0957 C4080000 		.4byte	.LASF210
 3269 095b 08       		.byte	0x8
 3270 095c 160B     		.2byte	0xb16
 3271 095e CA040000 		.4byte	0x4ca
 3272 0962 21       		.uleb128 0x21
 3273 0963 81060000 		.4byte	.LASF211
 3274 0967 08       		.byte	0x8
 3275 0968 170B     		.2byte	0xb17
 3276 096a EE030000 		.4byte	0x3ee
 3277 096e 21       		.uleb128 0x21
 3278 096f 5F0D0000 		.4byte	.LASF212
 3279 0973 08       		.byte	0x8
 3280 0974 180B     		.2byte	0xb18
 3281 0976 BA000000 		.4byte	0xba
 3282 097a 22       		.uleb128 0x22
 3283 097b DC040000 		.4byte	.LASF213
 3284 097f 01       		.byte	0x1
 3285 0980 11       		.byte	0x11
 3286 0981 5B040000 		.4byte	0x45b
 3287 0985 05       		.uleb128 0x5
 3288 0986 03       		.byte	0x3
 3289 0987 00000000 		.4byte	thermoHandle
 3290 098b 22       		.uleb128 0x22
 3291 098c 7F090000 		.4byte	.LASF214
 3292 0990 01       		.byte	0x1
 3293 0991 1E       		.byte	0x1e
 3294 0992 68000000 		.4byte	0x68
 3295 0996 05       		.uleb128 0x5
 3296 0997 03       		.byte	0x3
 3297 0998 00000000 		.4byte	interruptFlag
 3298 099c 22       		.uleb128 0x22
 3299 099d 50080000 		.4byte	.LASF215
 3300 09a1 01       		.byte	0x1
 3301 09a2 1F       		.byte	0x1f
 3302 09a3 81000000 		.4byte	0x81
 3303 09a7 05       		.uleb128 0x5
 3304 09a8 03       		.byte	0x3
 3305 09a9 00000000 		.4byte	isNotify
 3306 09ad 22       		.uleb128 0x22
 3307 09ae 7B100000 		.4byte	.LASF216
 3308 09b2 01       		.byte	0x1
 3309 09b3 20       		.byte	0x20
 3310 09b4 81000000 		.4byte	0x81
 3311 09b8 05       		.uleb128 0x5
 3312 09b9 03       		.byte	0x3
 3313 09ba 00000000 		.4byte	updateIsNotifyCCCDAttr
 3314 09be 22       		.uleb128 0x22
 3315 09bf 33040000 		.4byte	.LASF217
 3316 09c3 01       		.byte	0x1
 3317 09c4 21       		.byte	0x21
 3318 09c5 81000000 		.4byte	0x81
 3319 09c9 05       		.uleb128 0x5
 3320 09ca 03       		.byte	0x3
 3321 09cb 00000000 		.4byte	bleConnected
 3322 09cf 22       		.uleb128 0x22
 3323 09d0 1D0E0000 		.4byte	.LASF218
ARM GAS  C:\Users\sergio\AppData\Local\Temp\ccV5Q6Sf.s 			page 74


 3324 09d4 01       		.byte	0x1
 3325 09d5 22       		.byte	0x22
 3326 09d6 41090000 		.4byte	0x941
 3327 09da 05       		.uleb128 0x5
 3328 09db 03       		.byte	0x3
 3329 09dc 00000000 		.4byte	uartStr
 3330 09e0 22       		.uleb128 0x22
 3331 09e1 26110000 		.4byte	.LASF219
 3332 09e5 01       		.byte	0x1
 3333 09e6 3C       		.byte	0x3c
 3334 09e7 C3050000 		.4byte	0x5c3
 3335 09eb 05       		.uleb128 0x5
 3336 09ec 03       		.byte	0x3
 3337 09ed 00000000 		.4byte	sensorData
 3338 09f1 22       		.uleb128 0x22
 3339 09f2 0C060000 		.4byte	.LASF220
 3340 09f6 01       		.byte	0x1
 3341 09f7 46       		.byte	0x46
 3342 09f8 13060000 		.4byte	0x613
 3343 09fc 05       		.uleb128 0x5
 3344 09fd 03       		.byte	0x3
 3345 09fe 00000000 		.4byte	thermo
 3346 0a02 22       		.uleb128 0x22
 3347 0a03 ED030000 		.4byte	.LASF171
 3348 0a07 01       		.byte	0x1
 3349 0a08 48       		.byte	0x48
 3350 0a09 81000000 		.4byte	0x81
 3351 0a0d 05       		.uleb128 0x5
 3352 0a0e 03       		.byte	0x3
 3353 0a0f 00000000 		.4byte	setTemperature
 3354 0a13 00       		.byte	0
 3355              		.section	.debug_abbrev,"",%progbits
 3356              	.Ldebug_abbrev0:
 3357 0000 01       		.uleb128 0x1
 3358 0001 11       		.uleb128 0x11
 3359 0002 01       		.byte	0x1
 3360 0003 25       		.uleb128 0x25
 3361 0004 0E       		.uleb128 0xe
 3362 0005 13       		.uleb128 0x13
 3363 0006 0B       		.uleb128 0xb
 3364 0007 03       		.uleb128 0x3
 3365 0008 0E       		.uleb128 0xe
 3366 0009 1B       		.uleb128 0x1b
 3367 000a 0E       		.uleb128 0xe
 3368 000b 55       		.uleb128 0x55
 3369 000c 17       		.uleb128 0x17
 3370 000d 11       		.uleb128 0x11
 3371 000e 01       		.uleb128 0x1
 3372 000f 10       		.uleb128 0x10
 3373 0010 17       		.uleb128 0x17
 3374 0011 00       		.byte	0
 3375 0012 00       		.byte	0
 3376 0013 02       		.uleb128 0x2
 3377 0014 24       		.uleb128 0x24
 3378 0015 00       		.byte	0
 3379 0016 0B       		.uleb128 0xb
 3380 0017 0B       		.uleb128 0xb
ARM GAS  C:\Users\sergio\AppData\Local\Temp\ccV5Q6Sf.s 			page 75


 3381 0018 3E       		.uleb128 0x3e
 3382 0019 0B       		.uleb128 0xb
 3383 001a 03       		.uleb128 0x3
 3384 001b 0E       		.uleb128 0xe
 3385 001c 00       		.byte	0
 3386 001d 00       		.byte	0
 3387 001e 03       		.uleb128 0x3
 3388 001f 16       		.uleb128 0x16
 3389 0020 00       		.byte	0
 3390 0021 03       		.uleb128 0x3
 3391 0022 0E       		.uleb128 0xe
 3392 0023 3A       		.uleb128 0x3a
 3393 0024 0B       		.uleb128 0xb
 3394 0025 3B       		.uleb128 0x3b
 3395 0026 0B       		.uleb128 0xb
 3396 0027 49       		.uleb128 0x49
 3397 0028 13       		.uleb128 0x13
 3398 0029 00       		.byte	0
 3399 002a 00       		.byte	0
 3400 002b 04       		.uleb128 0x4
 3401 002c 24       		.uleb128 0x24
 3402 002d 00       		.byte	0
 3403 002e 0B       		.uleb128 0xb
 3404 002f 0B       		.uleb128 0xb
 3405 0030 3E       		.uleb128 0x3e
 3406 0031 0B       		.uleb128 0xb
 3407 0032 03       		.uleb128 0x3
 3408 0033 08       		.uleb128 0x8
 3409 0034 00       		.byte	0
 3410 0035 00       		.byte	0
 3411 0036 05       		.uleb128 0x5
 3412 0037 16       		.uleb128 0x16
 3413 0038 00       		.byte	0
 3414 0039 03       		.uleb128 0x3
 3415 003a 0E       		.uleb128 0xe
 3416 003b 3A       		.uleb128 0x3a
 3417 003c 0B       		.uleb128 0xb
 3418 003d 3B       		.uleb128 0x3b
 3419 003e 05       		.uleb128 0x5
 3420 003f 49       		.uleb128 0x49
 3421 0040 13       		.uleb128 0x13
 3422 0041 00       		.byte	0
 3423 0042 00       		.byte	0
 3424 0043 06       		.uleb128 0x6
 3425 0044 35       		.uleb128 0x35
 3426 0045 00       		.byte	0
 3427 0046 49       		.uleb128 0x49
 3428 0047 13       		.uleb128 0x13
 3429 0048 00       		.byte	0
 3430 0049 00       		.byte	0
 3431 004a 07       		.uleb128 0x7
 3432 004b 0F       		.uleb128 0xf
 3433 004c 00       		.byte	0
 3434 004d 0B       		.uleb128 0xb
 3435 004e 0B       		.uleb128 0xb
 3436 004f 00       		.byte	0
 3437 0050 00       		.byte	0
ARM GAS  C:\Users\sergio\AppData\Local\Temp\ccV5Q6Sf.s 			page 76


 3438 0051 08       		.uleb128 0x8
 3439 0052 04       		.uleb128 0x4
 3440 0053 01       		.byte	0x1
 3441 0054 0B       		.uleb128 0xb
 3442 0055 0B       		.uleb128 0xb
 3443 0056 49       		.uleb128 0x49
 3444 0057 13       		.uleb128 0x13
 3445 0058 3A       		.uleb128 0x3a
 3446 0059 0B       		.uleb128 0xb
 3447 005a 3B       		.uleb128 0x3b
 3448 005b 05       		.uleb128 0x5
 3449 005c 01       		.uleb128 0x1
 3450 005d 13       		.uleb128 0x13
 3451 005e 00       		.byte	0
 3452 005f 00       		.byte	0
 3453 0060 09       		.uleb128 0x9
 3454 0061 28       		.uleb128 0x28
 3455 0062 00       		.byte	0
 3456 0063 03       		.uleb128 0x3
 3457 0064 0E       		.uleb128 0xe
 3458 0065 1C       		.uleb128 0x1c
 3459 0066 0B       		.uleb128 0xb
 3460 0067 00       		.byte	0
 3461 0068 00       		.byte	0
 3462 0069 0A       		.uleb128 0xa
 3463 006a 28       		.uleb128 0x28
 3464 006b 00       		.byte	0
 3465 006c 03       		.uleb128 0x3
 3466 006d 0E       		.uleb128 0xe
 3467 006e 1C       		.uleb128 0x1c
 3468 006f 05       		.uleb128 0x5
 3469 0070 00       		.byte	0
 3470 0071 00       		.byte	0
 3471 0072 0B       		.uleb128 0xb
 3472 0073 13       		.uleb128 0x13
 3473 0074 01       		.byte	0x1
 3474 0075 0B       		.uleb128 0xb
 3475 0076 0B       		.uleb128 0xb
 3476 0077 3A       		.uleb128 0x3a
 3477 0078 0B       		.uleb128 0xb
 3478 0079 3B       		.uleb128 0x3b
 3479 007a 05       		.uleb128 0x5
 3480 007b 01       		.uleb128 0x1
 3481 007c 13       		.uleb128 0x13
 3482 007d 00       		.byte	0
 3483 007e 00       		.byte	0
 3484 007f 0C       		.uleb128 0xc
 3485 0080 0D       		.uleb128 0xd
 3486 0081 00       		.byte	0
 3487 0082 03       		.uleb128 0x3
 3488 0083 0E       		.uleb128 0xe
 3489 0084 3A       		.uleb128 0x3a
 3490 0085 0B       		.uleb128 0xb
 3491 0086 3B       		.uleb128 0x3b
 3492 0087 05       		.uleb128 0x5
 3493 0088 49       		.uleb128 0x49
 3494 0089 13       		.uleb128 0x13
ARM GAS  C:\Users\sergio\AppData\Local\Temp\ccV5Q6Sf.s 			page 77


 3495 008a 38       		.uleb128 0x38
 3496 008b 0B       		.uleb128 0xb
 3497 008c 00       		.byte	0
 3498 008d 00       		.byte	0
 3499 008e 0D       		.uleb128 0xd
 3500 008f 01       		.uleb128 0x1
 3501 0090 01       		.byte	0x1
 3502 0091 49       		.uleb128 0x49
 3503 0092 13       		.uleb128 0x13
 3504 0093 01       		.uleb128 0x1
 3505 0094 13       		.uleb128 0x13
 3506 0095 00       		.byte	0
 3507 0096 00       		.byte	0
 3508 0097 0E       		.uleb128 0xe
 3509 0098 21       		.uleb128 0x21
 3510 0099 00       		.byte	0
 3511 009a 49       		.uleb128 0x49
 3512 009b 13       		.uleb128 0x13
 3513 009c 2F       		.uleb128 0x2f
 3514 009d 0B       		.uleb128 0xb
 3515 009e 00       		.byte	0
 3516 009f 00       		.byte	0
 3517 00a0 0F       		.uleb128 0xf
 3518 00a1 0F       		.uleb128 0xf
 3519 00a2 00       		.byte	0
 3520 00a3 0B       		.uleb128 0xb
 3521 00a4 0B       		.uleb128 0xb
 3522 00a5 49       		.uleb128 0x49
 3523 00a6 13       		.uleb128 0x13
 3524 00a7 00       		.byte	0
 3525 00a8 00       		.byte	0
 3526 00a9 10       		.uleb128 0x10
 3527 00aa 0D       		.uleb128 0xd
 3528 00ab 00       		.byte	0
 3529 00ac 03       		.uleb128 0x3
 3530 00ad 08       		.uleb128 0x8
 3531 00ae 3A       		.uleb128 0x3a
 3532 00af 0B       		.uleb128 0xb
 3533 00b0 3B       		.uleb128 0x3b
 3534 00b1 05       		.uleb128 0x5
 3535 00b2 49       		.uleb128 0x49
 3536 00b3 13       		.uleb128 0x13
 3537 00b4 38       		.uleb128 0x38
 3538 00b5 0B       		.uleb128 0xb
 3539 00b6 00       		.byte	0
 3540 00b7 00       		.byte	0
 3541 00b8 11       		.uleb128 0x11
 3542 00b9 13       		.uleb128 0x13
 3543 00ba 01       		.byte	0x1
 3544 00bb 0B       		.uleb128 0xb
 3545 00bc 0B       		.uleb128 0xb
 3546 00bd 3A       		.uleb128 0x3a
 3547 00be 0B       		.uleb128 0xb
 3548 00bf 3B       		.uleb128 0x3b
 3549 00c0 0B       		.uleb128 0xb
 3550 00c1 01       		.uleb128 0x1
 3551 00c2 13       		.uleb128 0x13
ARM GAS  C:\Users\sergio\AppData\Local\Temp\ccV5Q6Sf.s 			page 78


 3552 00c3 00       		.byte	0
 3553 00c4 00       		.byte	0
 3554 00c5 12       		.uleb128 0x12
 3555 00c6 0D       		.uleb128 0xd
 3556 00c7 00       		.byte	0
 3557 00c8 03       		.uleb128 0x3
 3558 00c9 0E       		.uleb128 0xe
 3559 00ca 3A       		.uleb128 0x3a
 3560 00cb 0B       		.uleb128 0xb
 3561 00cc 3B       		.uleb128 0x3b
 3562 00cd 0B       		.uleb128 0xb
 3563 00ce 49       		.uleb128 0x49
 3564 00cf 13       		.uleb128 0x13
 3565 00d0 38       		.uleb128 0x38
 3566 00d1 0B       		.uleb128 0xb
 3567 00d2 00       		.byte	0
 3568 00d3 00       		.byte	0
 3569 00d4 13       		.uleb128 0x13
 3570 00d5 2E       		.uleb128 0x2e
 3571 00d6 01       		.byte	0x1
 3572 00d7 3F       		.uleb128 0x3f
 3573 00d8 19       		.uleb128 0x19
 3574 00d9 03       		.uleb128 0x3
 3575 00da 0E       		.uleb128 0xe
 3576 00db 3A       		.uleb128 0x3a
 3577 00dc 0B       		.uleb128 0xb
 3578 00dd 3B       		.uleb128 0x3b
 3579 00de 0B       		.uleb128 0xb
 3580 00df 27       		.uleb128 0x27
 3581 00e0 19       		.uleb128 0x19
 3582 00e1 11       		.uleb128 0x11
 3583 00e2 01       		.uleb128 0x1
 3584 00e3 12       		.uleb128 0x12
 3585 00e4 06       		.uleb128 0x6
 3586 00e5 40       		.uleb128 0x40
 3587 00e6 18       		.uleb128 0x18
 3588 00e7 9642     		.uleb128 0x2116
 3589 00e9 19       		.uleb128 0x19
 3590 00ea 01       		.uleb128 0x1
 3591 00eb 13       		.uleb128 0x13
 3592 00ec 00       		.byte	0
 3593 00ed 00       		.byte	0
 3594 00ee 14       		.uleb128 0x14
 3595 00ef 34       		.uleb128 0x34
 3596 00f0 00       		.byte	0
 3597 00f1 03       		.uleb128 0x3
 3598 00f2 0E       		.uleb128 0xe
 3599 00f3 3A       		.uleb128 0x3a
 3600 00f4 0B       		.uleb128 0xb
 3601 00f5 3B       		.uleb128 0x3b
 3602 00f6 0B       		.uleb128 0xb
 3603 00f7 49       		.uleb128 0x49
 3604 00f8 13       		.uleb128 0x13
 3605 00f9 02       		.uleb128 0x2
 3606 00fa 18       		.uleb128 0x18
 3607 00fb 00       		.byte	0
 3608 00fc 00       		.byte	0
ARM GAS  C:\Users\sergio\AppData\Local\Temp\ccV5Q6Sf.s 			page 79


 3609 00fd 15       		.uleb128 0x15
 3610 00fe 05       		.uleb128 0x5
 3611 00ff 00       		.byte	0
 3612 0100 03       		.uleb128 0x3
 3613 0101 0E       		.uleb128 0xe
 3614 0102 3A       		.uleb128 0x3a
 3615 0103 0B       		.uleb128 0xb
 3616 0104 3B       		.uleb128 0x3b
 3617 0105 0B       		.uleb128 0xb
 3618 0106 49       		.uleb128 0x49
 3619 0107 13       		.uleb128 0x13
 3620 0108 02       		.uleb128 0x2
 3621 0109 18       		.uleb128 0x18
 3622 010a 00       		.byte	0
 3623 010b 00       		.byte	0
 3624 010c 16       		.uleb128 0x16
 3625 010d 34       		.uleb128 0x34
 3626 010e 00       		.byte	0
 3627 010f 03       		.uleb128 0x3
 3628 0110 0E       		.uleb128 0xe
 3629 0111 3A       		.uleb128 0x3a
 3630 0112 0B       		.uleb128 0xb
 3631 0113 3B       		.uleb128 0x3b
 3632 0114 0B       		.uleb128 0xb
 3633 0115 49       		.uleb128 0x49
 3634 0116 13       		.uleb128 0x13
 3635 0117 00       		.byte	0
 3636 0118 00       		.byte	0
 3637 0119 17       		.uleb128 0x17
 3638 011a 2E       		.uleb128 0x2e
 3639 011b 01       		.byte	0x1
 3640 011c 3F       		.uleb128 0x3f
 3641 011d 19       		.uleb128 0x19
 3642 011e 03       		.uleb128 0x3
 3643 011f 0E       		.uleb128 0xe
 3644 0120 3A       		.uleb128 0x3a
 3645 0121 0B       		.uleb128 0xb
 3646 0122 3B       		.uleb128 0x3b
 3647 0123 0B       		.uleb128 0xb
 3648 0124 11       		.uleb128 0x11
 3649 0125 01       		.uleb128 0x1
 3650 0126 12       		.uleb128 0x12
 3651 0127 06       		.uleb128 0x6
 3652 0128 40       		.uleb128 0x40
 3653 0129 18       		.uleb128 0x18
 3654 012a 9642     		.uleb128 0x2116
 3655 012c 19       		.uleb128 0x19
 3656 012d 01       		.uleb128 0x1
 3657 012e 13       		.uleb128 0x13
 3658 012f 00       		.byte	0
 3659 0130 00       		.byte	0
 3660 0131 18       		.uleb128 0x18
 3661 0132 34       		.uleb128 0x34
 3662 0133 00       		.byte	0
 3663 0134 03       		.uleb128 0x3
 3664 0135 08       		.uleb128 0x8
 3665 0136 3A       		.uleb128 0x3a
ARM GAS  C:\Users\sergio\AppData\Local\Temp\ccV5Q6Sf.s 			page 80


 3666 0137 0B       		.uleb128 0xb
 3667 0138 3B       		.uleb128 0x3b
 3668 0139 0B       		.uleb128 0xb
 3669 013a 49       		.uleb128 0x49
 3670 013b 13       		.uleb128 0x13
 3671 013c 02       		.uleb128 0x2
 3672 013d 18       		.uleb128 0x18
 3673 013e 00       		.byte	0
 3674 013f 00       		.byte	0
 3675 0140 19       		.uleb128 0x19
 3676 0141 05       		.uleb128 0x5
 3677 0142 00       		.byte	0
 3678 0143 03       		.uleb128 0x3
 3679 0144 08       		.uleb128 0x8
 3680 0145 3A       		.uleb128 0x3a
 3681 0146 0B       		.uleb128 0xb
 3682 0147 3B       		.uleb128 0x3b
 3683 0148 0B       		.uleb128 0xb
 3684 0149 49       		.uleb128 0x49
 3685 014a 13       		.uleb128 0x13
 3686 014b 02       		.uleb128 0x2
 3687 014c 18       		.uleb128 0x18
 3688 014d 00       		.byte	0
 3689 014e 00       		.byte	0
 3690 014f 1A       		.uleb128 0x1a
 3691 0150 2E       		.uleb128 0x2e
 3692 0151 00       		.byte	0
 3693 0152 3F       		.uleb128 0x3f
 3694 0153 19       		.uleb128 0x19
 3695 0154 03       		.uleb128 0x3
 3696 0155 0E       		.uleb128 0xe
 3697 0156 3A       		.uleb128 0x3a
 3698 0157 0B       		.uleb128 0xb
 3699 0158 3B       		.uleb128 0x3b
 3700 0159 0B       		.uleb128 0xb
 3701 015a 11       		.uleb128 0x11
 3702 015b 01       		.uleb128 0x1
 3703 015c 12       		.uleb128 0x12
 3704 015d 06       		.uleb128 0x6
 3705 015e 40       		.uleb128 0x40
 3706 015f 18       		.uleb128 0x18
 3707 0160 9642     		.uleb128 0x2116
 3708 0162 19       		.uleb128 0x19
 3709 0163 00       		.byte	0
 3710 0164 00       		.byte	0
 3711 0165 1B       		.uleb128 0x1b
 3712 0166 2E       		.uleb128 0x2e
 3713 0167 01       		.byte	0x1
 3714 0168 3F       		.uleb128 0x3f
 3715 0169 19       		.uleb128 0x19
 3716 016a 03       		.uleb128 0x3
 3717 016b 0E       		.uleb128 0xe
 3718 016c 3A       		.uleb128 0x3a
 3719 016d 0B       		.uleb128 0xb
 3720 016e 3B       		.uleb128 0x3b
 3721 016f 0B       		.uleb128 0xb
 3722 0170 49       		.uleb128 0x49
ARM GAS  C:\Users\sergio\AppData\Local\Temp\ccV5Q6Sf.s 			page 81


 3723 0171 13       		.uleb128 0x13
 3724 0172 11       		.uleb128 0x11
 3725 0173 01       		.uleb128 0x1
 3726 0174 12       		.uleb128 0x12
 3727 0175 06       		.uleb128 0x6
 3728 0176 40       		.uleb128 0x40
 3729 0177 18       		.uleb128 0x18
 3730 0178 9642     		.uleb128 0x2116
 3731 017a 19       		.uleb128 0x19
 3732 017b 01       		.uleb128 0x1
 3733 017c 13       		.uleb128 0x13
 3734 017d 00       		.byte	0
 3735 017e 00       		.byte	0
 3736 017f 1C       		.uleb128 0x1c
 3737 0180 2E       		.uleb128 0x2e
 3738 0181 00       		.byte	0
 3739 0182 3F       		.uleb128 0x3f
 3740 0183 19       		.uleb128 0x19
 3741 0184 03       		.uleb128 0x3
 3742 0185 0E       		.uleb128 0xe
 3743 0186 3A       		.uleb128 0x3a
 3744 0187 0B       		.uleb128 0xb
 3745 0188 3B       		.uleb128 0x3b
 3746 0189 05       		.uleb128 0x5
 3747 018a 11       		.uleb128 0x11
 3748 018b 01       		.uleb128 0x1
 3749 018c 12       		.uleb128 0x12
 3750 018d 06       		.uleb128 0x6
 3751 018e 40       		.uleb128 0x40
 3752 018f 18       		.uleb128 0x18
 3753 0190 9642     		.uleb128 0x2116
 3754 0192 19       		.uleb128 0x19
 3755 0193 00       		.byte	0
 3756 0194 00       		.byte	0
 3757 0195 1D       		.uleb128 0x1d
 3758 0196 2E       		.uleb128 0x2e
 3759 0197 01       		.byte	0x1
 3760 0198 3F       		.uleb128 0x3f
 3761 0199 19       		.uleb128 0x19
 3762 019a 03       		.uleb128 0x3
 3763 019b 0E       		.uleb128 0xe
 3764 019c 3A       		.uleb128 0x3a
 3765 019d 0B       		.uleb128 0xb
 3766 019e 3B       		.uleb128 0x3b
 3767 019f 05       		.uleb128 0x5
 3768 01a0 27       		.uleb128 0x27
 3769 01a1 19       		.uleb128 0x19
 3770 01a2 49       		.uleb128 0x49
 3771 01a3 13       		.uleb128 0x13
 3772 01a4 11       		.uleb128 0x11
 3773 01a5 01       		.uleb128 0x1
 3774 01a6 12       		.uleb128 0x12
 3775 01a7 06       		.uleb128 0x6
 3776 01a8 40       		.uleb128 0x40
 3777 01a9 18       		.uleb128 0x18
 3778 01aa 9642     		.uleb128 0x2116
 3779 01ac 19       		.uleb128 0x19
ARM GAS  C:\Users\sergio\AppData\Local\Temp\ccV5Q6Sf.s 			page 82


 3780 01ad 01       		.uleb128 0x1
 3781 01ae 13       		.uleb128 0x13
 3782 01af 00       		.byte	0
 3783 01b0 00       		.byte	0
 3784 01b1 1E       		.uleb128 0x1e
 3785 01b2 34       		.uleb128 0x34
 3786 01b3 00       		.byte	0
 3787 01b4 03       		.uleb128 0x3
 3788 01b5 0E       		.uleb128 0xe
 3789 01b6 3A       		.uleb128 0x3a
 3790 01b7 0B       		.uleb128 0xb
 3791 01b8 3B       		.uleb128 0x3b
 3792 01b9 05       		.uleb128 0x5
 3793 01ba 49       		.uleb128 0x49
 3794 01bb 13       		.uleb128 0x13
 3795 01bc 02       		.uleb128 0x2
 3796 01bd 18       		.uleb128 0x18
 3797 01be 00       		.byte	0
 3798 01bf 00       		.byte	0
 3799 01c0 1F       		.uleb128 0x1f
 3800 01c1 0B       		.uleb128 0xb
 3801 01c2 01       		.byte	0x1
 3802 01c3 11       		.uleb128 0x11
 3803 01c4 01       		.uleb128 0x1
 3804 01c5 12       		.uleb128 0x12
 3805 01c6 06       		.uleb128 0x6
 3806 01c7 00       		.byte	0
 3807 01c8 00       		.byte	0
 3808 01c9 20       		.uleb128 0x20
 3809 01ca 34       		.uleb128 0x34
 3810 01cb 00       		.byte	0
 3811 01cc 03       		.uleb128 0x3
 3812 01cd 08       		.uleb128 0x8
 3813 01ce 3A       		.uleb128 0x3a
 3814 01cf 0B       		.uleb128 0xb
 3815 01d0 3B       		.uleb128 0x3b
 3816 01d1 05       		.uleb128 0x5
 3817 01d2 49       		.uleb128 0x49
 3818 01d3 13       		.uleb128 0x13
 3819 01d4 02       		.uleb128 0x2
 3820 01d5 18       		.uleb128 0x18
 3821 01d6 00       		.byte	0
 3822 01d7 00       		.byte	0
 3823 01d8 21       		.uleb128 0x21
 3824 01d9 34       		.uleb128 0x34
 3825 01da 00       		.byte	0
 3826 01db 03       		.uleb128 0x3
 3827 01dc 0E       		.uleb128 0xe
 3828 01dd 3A       		.uleb128 0x3a
 3829 01de 0B       		.uleb128 0xb
 3830 01df 3B       		.uleb128 0x3b
 3831 01e0 05       		.uleb128 0x5
 3832 01e1 49       		.uleb128 0x49
 3833 01e2 13       		.uleb128 0x13
 3834 01e3 3F       		.uleb128 0x3f
 3835 01e4 19       		.uleb128 0x19
 3836 01e5 3C       		.uleb128 0x3c
ARM GAS  C:\Users\sergio\AppData\Local\Temp\ccV5Q6Sf.s 			page 83


 3837 01e6 19       		.uleb128 0x19
 3838 01e7 00       		.byte	0
 3839 01e8 00       		.byte	0
 3840 01e9 22       		.uleb128 0x22
 3841 01ea 34       		.uleb128 0x34
 3842 01eb 00       		.byte	0
 3843 01ec 03       		.uleb128 0x3
 3844 01ed 0E       		.uleb128 0xe
 3845 01ee 3A       		.uleb128 0x3a
 3846 01ef 0B       		.uleb128 0xb
 3847 01f0 3B       		.uleb128 0x3b
 3848 01f1 0B       		.uleb128 0xb
 3849 01f2 49       		.uleb128 0x49
 3850 01f3 13       		.uleb128 0x13
 3851 01f4 3F       		.uleb128 0x3f
 3852 01f5 19       		.uleb128 0x19
 3853 01f6 02       		.uleb128 0x2
 3854 01f7 18       		.uleb128 0x18
 3855 01f8 00       		.byte	0
 3856 01f9 00       		.byte	0
 3857 01fa 00       		.byte	0
 3858              		.section	.debug_aranges,"",%progbits
 3859 0000 6C000000 		.4byte	0x6c
 3860 0004 0200     		.2byte	0x2
 3861 0006 00000000 		.4byte	.Ldebug_info0
 3862 000a 04       		.byte	0x4
 3863 000b 00       		.byte	0
 3864 000c 0000     		.2byte	0
 3865 000e 0000     		.2byte	0
 3866 0010 00000000 		.4byte	.LFB36
 3867 0014 68000000 		.4byte	.LFE36-.LFB36
 3868 0018 00000000 		.4byte	.LFB37
 3869 001c 50010000 		.4byte	.LFE37-.LFB37
 3870 0020 00000000 		.4byte	.LFB38
 3871 0024 68000000 		.4byte	.LFE38-.LFB38
 3872 0028 00000000 		.4byte	.LFB39
 3873 002c B8000000 		.4byte	.LFE39-.LFB39
 3874 0030 00000000 		.4byte	.LFB40
 3875 0034 58000000 		.4byte	.LFE40-.LFB40
 3876 0038 00000000 		.4byte	.LFB41
 3877 003c 2A000000 		.4byte	.LFE41-.LFB41
 3878 0040 00000000 		.4byte	.LFB42
 3879 0044 46000000 		.4byte	.LFE42-.LFB42
 3880 0048 00000000 		.4byte	.LFB43
 3881 004c 4A000000 		.4byte	.LFE43-.LFB43
 3882 0050 00000000 		.4byte	.LFB44
 3883 0054 4A000000 		.4byte	.LFE44-.LFB44
 3884 0058 00000000 		.4byte	.LFB45
 3885 005c 20000000 		.4byte	.LFE45-.LFB45
 3886 0060 00000000 		.4byte	.LFB46
 3887 0064 70080000 		.4byte	.LFE46-.LFB46
 3888 0068 00000000 		.4byte	0
 3889 006c 00000000 		.4byte	0
 3890              		.section	.debug_ranges,"",%progbits
 3891              	.Ldebug_ranges0:
 3892 0000 00000000 		.4byte	.LFB36
 3893 0004 68000000 		.4byte	.LFE36
ARM GAS  C:\Users\sergio\AppData\Local\Temp\ccV5Q6Sf.s 			page 84


 3894 0008 00000000 		.4byte	.LFB37
 3895 000c 50010000 		.4byte	.LFE37
 3896 0010 00000000 		.4byte	.LFB38
 3897 0014 68000000 		.4byte	.LFE38
 3898 0018 00000000 		.4byte	.LFB39
 3899 001c B8000000 		.4byte	.LFE39
 3900 0020 00000000 		.4byte	.LFB40
 3901 0024 58000000 		.4byte	.LFE40
 3902 0028 00000000 		.4byte	.LFB41
 3903 002c 2A000000 		.4byte	.LFE41
 3904 0030 00000000 		.4byte	.LFB42
 3905 0034 46000000 		.4byte	.LFE42
 3906 0038 00000000 		.4byte	.LFB43
 3907 003c 4A000000 		.4byte	.LFE43
 3908 0040 00000000 		.4byte	.LFB44
 3909 0044 4A000000 		.4byte	.LFE44
 3910 0048 00000000 		.4byte	.LFB45
 3911 004c 20000000 		.4byte	.LFE45
 3912 0050 00000000 		.4byte	.LFB46
 3913 0054 70080000 		.4byte	.LFE46
 3914 0058 00000000 		.4byte	0
 3915 005c 00000000 		.4byte	0
 3916              		.section	.debug_line,"",%progbits
 3917              	.Ldebug_line0:
 3918 0000 B4030000 		.section	.debug_str,"MS",%progbits,1
 3918      02009701 
 3918      00000201 
 3918      FB0E0D00 
 3918      01010101 
 3919              	.LASF83:
 3920 0000 4359424C 		.ascii	"CYBLE_EVT_L2CAP_CBFC_RX_CREDIT_IND\000"
 3920      455F4556 
 3920      545F4C32 
 3920      4341505F 
 3920      43424643 
 3921              	.LASF24:
 3922 0023 4359424C 		.ascii	"CYBLE_EVT_STACK_BUSY_STATUS\000"
 3922      455F4556 
 3922      545F5354 
 3922      41434B5F 
 3922      42555359 
 3923              	.LASF142:
 3924 003f 4359424C 		.ascii	"CYBLE_STATE_STOPPED\000"
 3924      455F5354 
 3924      4154455F 
 3924      53544F50 
 3924      50454400 
 3925              	.LASF167:
 3926 0053 64617461 		.ascii	"dataCollected\000"
 3926      436F6C6C 
 3926      65637465 
 3926      6400
 3927              	.LASF132:
 3928 0061 4359424C 		.ascii	"CYBLE_CONN_HANDLE_T\000"
 3928      455F434F 
 3928      4E4E5F48 
 3928      414E444C 
ARM GAS  C:\Users\sergio\AppData\Local\Temp\ccV5Q6Sf.s 			page 85


 3928      455F5400 
 3929              	.LASF139:
 3930 0075 636F6E6E 		.ascii	"connHandle\000"
 3930      48616E64 
 3930      6C6500
 3931              	.LASF94:
 3932 0080 4359424C 		.ascii	"CYBLE_ERROR_MEMORY_ALLOCATION_FAILED\000"
 3932      455F4552 
 3932      524F525F 
 3932      4D454D4F 
 3932      52595F41 
 3933              	.LASF36:
 3934 00a5 4359424C 		.ascii	"CYBLE_EVT_GAP_CONNECTION_UPDATE_COMPLETE\000"
 3934      455F4556 
 3934      545F4741 
 3934      505F434F 
 3934      4E4E4543 
 3935              	.LASF81:
 3936 00ce 4359424C 		.ascii	"CYBLE_EVT_L2CAP_CBFC_DISCONN_CNF\000"
 3936      455F4556 
 3936      545F4C32 
 3936      4341505F 
 3936      43424643 
 3937              	.LASF115:
 3938 00ef 4359424C 		.ascii	"CYBLE_ERROR_UNSUPPORTED_FEATURE_OR_PARAMETER_VALUE\000"
 3938      455F4552 
 3938      524F525F 
 3938      554E5355 
 3938      50504F52 
 3939              	.LASF37:
 3940 0122 4359424C 		.ascii	"CYBLE_EVT_GAPC_SCAN_START_STOP\000"
 3940      455F4556 
 3940      545F4741 
 3940      50435F53 
 3940      43414E5F 
 3941              	.LASF41:
 3942 0141 4359424C 		.ascii	"CYBLE_EVT_GAP_OOB_GENERATED_NOTIFICATION\000"
 3942      455F4556 
 3942      545F4741 
 3942      505F4F4F 
 3942      425F4745 
 3943              	.LASF61:
 3944 016a 4359424C 		.ascii	"CYBLE_EVT_GATTC_READ_MULTI_RSP\000"
 3944      455F4556 
 3944      545F4741 
 3944      5454435F 
 3944      52454144 
 3945              	.LASF9:
 3946 0189 5F5F7569 		.ascii	"__uint8_t\000"
 3946      6E74385F 
 3946      7400
 3947              	.LASF78:
 3948 0193 4359424C 		.ascii	"CYBLE_EVT_L2CAP_CBFC_CONN_IND\000"
 3948      455F4556 
 3948      545F4C32 
 3948      4341505F 
 3948      43424643 
ARM GAS  C:\Users\sergio\AppData\Local\Temp\ccV5Q6Sf.s 			page 86


 3949              	.LASF127:
 3950 01b1 74797065 		.ascii	"type\000"
 3950      00
 3951              	.LASF67:
 3952 01b6 4359424C 		.ascii	"CYBLE_EVT_GATTC_EXEC_WRITE_RSP\000"
 3952      455F4556 
 3952      545F4741 
 3952      5454435F 
 3952      45584543 
 3953              	.LASF4:
 3954 01d5 6C6F6E67 		.ascii	"long int\000"
 3954      20696E74 
 3954      00
 3955              	.LASF168:
 3956 01de 636F6D70 		.ascii	"compressor\000"
 3956      72657373 
 3956      6F7200
 3957              	.LASF189:
 3958 01e9 70696E73 		.ascii	"pins\000"
 3958      00
 3959              	.LASF174:
 3960 01ee 75706461 		.ascii	"updateThermostatData\000"
 3960      74655468 
 3960      65726D6F 
 3960      73746174 
 3960      44617461 
 3961              	.LASF104:
 3962 0203 4359424C 		.ascii	"CYBLE_ERROR_L2CAP_PSM_WRONG_ENCODING\000"
 3962      455F4552 
 3962      524F525F 
 3962      4C324341 
 3962      505F5053 
 3963              	.LASF134:
 3964 0228 4359424C 		.ascii	"CYBLE_GATT_VALUE_T\000"
 3964      455F4741 
 3964      54545F56 
 3964      414C5545 
 3964      5F5400
 3965              	.LASF164:
 3966 023b 61636358 		.ascii	"accX\000"
 3966      00
 3967              	.LASF165:
 3968 0240 61636359 		.ascii	"accY\000"
 3968      00
 3969              	.LASF166:
 3970 0245 6163635A 		.ascii	"accZ\000"
 3970      00
 3971              	.LASF86:
 3972 024a 4359424C 		.ascii	"CYBLE_EVT_PENDING_FLASH_WRITE\000"
 3972      455F4556 
 3972      545F5045 
 3972      4E44494E 
 3972      475F464C 
 3973              	.LASF184:
 3974 0268 64617461 		.ascii	"dataForBLE\000"
 3974      466F7242 
 3974      4C4500
ARM GAS  C:\Users\sergio\AppData\Local\Temp\ccV5Q6Sf.s 			page 87


 3975              	.LASF128:
 3976 0273 4359424C 		.ascii	"CYBLE_GAP_BD_ADDR_T\000"
 3976      455F4741 
 3976      505F4244 
 3976      5F414444 
 3976      525F5400 
 3977              	.LASF103:
 3978 0287 4359424C 		.ascii	"CYBLE_ERROR_SEC_FAILED\000"
 3978      455F4552 
 3978      524F525F 
 3978      5345435F 
 3978      4641494C 
 3979              	.LASF35:
 3980 029e 4359424C 		.ascii	"CYBLE_EVT_GAP_ENCRYPT_CHANGE\000"
 3980      455F4556 
 3980      545F4741 
 3980      505F454E 
 3980      43525950 
 3981              	.LASF39:
 3982 02bb 4359424C 		.ascii	"CYBLE_EVT_GAP_NUMERIC_COMPARISON_REQUEST\000"
 3982      455F4556 
 3982      545F4741 
 3982      505F4E55 
 3982      4D455249 
 3983              	.LASF182:
 3984 02e4 53656E64 		.ascii	"SendDataNotify\000"
 3984      44617461 
 3984      4E6F7469 
 3984      667900
 3985              	.LASF149:
 3986 02f3 72656D6F 		.ascii	"remoteTemp1\000"
 3986      74655465 
 3986      6D703100 
 3987              	.LASF145:
 3988 02ff 4359424C 		.ascii	"CYBLE_STATE_ADVERTISING\000"
 3988      455F5354 
 3988      4154455F 
 3988      41445645 
 3988      52544953 
 3989              	.LASF151:
 3990 0317 72656D6F 		.ascii	"remoteTemp3\000"
 3990      74655465 
 3990      6D703300 
 3991              	.LASF152:
 3992 0323 72656D6F 		.ascii	"remoteTemp4\000"
 3992      74655465 
 3992      6D703400 
 3993              	.LASF0:
 3994 032f 7369676E 		.ascii	"signed char\000"
 3994      65642063 
 3994      68617200 
 3995              	.LASF20:
 3996 033b 4359424C 		.ascii	"CYBLE_EVT_STACK_ON\000"
 3996      455F4556 
 3996      545F5354 
 3996      41434B5F 
 3996      4F4E00
ARM GAS  C:\Users\sergio\AppData\Local\Temp\ccV5Q6Sf.s 			page 88


 3997              	.LASF169:
 3998 034e 66616E4C 		.ascii	"fanLow\000"
 3998      6F7700
 3999              	.LASF156:
 4000 0355 766F6C74 		.ascii	"volt\000"
 4000      00
 4001              	.LASF111:
 4002 035a 4359424C 		.ascii	"CYBLE_ERROR_DEVICE_ALREADY_EXISTS\000"
 4002      455F4552 
 4002      524F525F 
 4002      44455649 
 4002      43455F41 
 4003              	.LASF98:
 4004 037c 4359424C 		.ascii	"CYBLE_ERROR_NO_DEVICE_ENTITY\000"
 4004      455F4552 
 4004      524F525F 
 4004      4E4F5F44 
 4004      45564943 
 4005              	.LASF133:
 4006 0399 61637475 		.ascii	"actualLen\000"
 4006      616C4C65 
 4006      6E00
 4007              	.LASF27:
 4008 03a3 4359424C 		.ascii	"CYBLE_EVT_GAP_AUTH_REQ\000"
 4008      455F4556 
 4008      545F4741 
 4008      505F4155 
 4008      54485F52 
 4009              	.LASF59:
 4010 03ba 4359424C 		.ascii	"CYBLE_EVT_GATTC_READ_RSP\000"
 4010      455F4556 
 4010      545F4741 
 4010      5454435F 
 4010      52454144 
 4011              	.LASF123:
 4012 03d3 4359424C 		.ascii	"CYBLE_ERROR_INVALID_STATE\000"
 4012      455F4552 
 4012      524F525F 
 4012      494E5641 
 4012      4C49445F 
 4013              	.LASF171:
 4014 03ed 73657454 		.ascii	"setTemperature\000"
 4014      656D7065 
 4014      72617475 
 4014      726500
 4015              	.LASF64:
 4016 03fc 4359424C 		.ascii	"CYBLE_EVT_GATTS_WRITE_CMD_REQ\000"
 4016      455F4556 
 4016      545F4741 
 4016      5454535F 
 4016      57524954 
 4017              	.LASF146:
 4018 041a 4359424C 		.ascii	"CYBLE_STATE_DISCONNECTED\000"
 4018      455F5354 
 4018      4154455F 
 4018      44495343 
 4018      4F4E4E45 
ARM GAS  C:\Users\sergio\AppData\Local\Temp\ccV5Q6Sf.s 			page 89


 4019              	.LASF217:
 4020 0433 626C6543 		.ascii	"bleConnected\000"
 4020      6F6E6E65 
 4020      63746564 
 4020      00
 4021              	.LASF32:
 4022 0440 4359424C 		.ascii	"CYBLE_EVT_GAPP_ADVERTISEMENT_START_STOP\000"
 4022      455F4556 
 4022      545F4741 
 4022      50505F41 
 4022      44564552 
 4023              	.LASF155:
 4024 0468 766F6C74 		.ascii	"voltFan\000"
 4024      46616E00 
 4025              	.LASF109:
 4026 0470 4359424C 		.ascii	"CYBLE_ERROR_L2CAP_PSM_NOT_IN_RANGE\000"
 4026      455F4552 
 4026      524F525F 
 4026      4C324341 
 4026      505F5053 
 4027              	.LASF11:
 4028 0493 75696E74 		.ascii	"uint8\000"
 4028      3800
 4029              	.LASF6:
 4030 0499 6C6F6E67 		.ascii	"long long int\000"
 4030      206C6F6E 
 4030      6720696E 
 4030      7400
 4031              	.LASF175:
 4032 04a7 626C6553 		.ascii	"bleStack\000"
 4032      7461636B 
 4032      00
 4033              	.LASF195:
 4034 04b0 74656D70 		.ascii	"tempR1\000"
 4034      523100
 4035              	.LASF196:
 4036 04b7 74656D70 		.ascii	"tempR2\000"
 4036      523200
 4037              	.LASF92:
 4038 04be 4359424C 		.ascii	"CYBLE_ERROR_INVALID_PARAMETER\000"
 4038      455F4552 
 4038      524F525F 
 4038      494E5641 
 4038      4C49445F 
 4039              	.LASF213:
 4040 04dc 74686572 		.ascii	"thermoHandle\000"
 4040      6D6F4861 
 4040      6E646C65 
 4040      00
 4041              	.LASF223:
 4042 04e9 433A5C55 		.ascii	"C:\\Users\\sergio\\Documents\\GitHub\\thermostat\\t"
 4042      73657273 
 4042      5C736572 
 4042      67696F5C 
 4042      446F6375 
 4043 0516 6573742E 		.ascii	"est.cydsn\000"
 4043      63796473 
ARM GAS  C:\Users\sergio\AppData\Local\Temp\ccV5Q6Sf.s 			page 90


 4043      6E00
 4044              	.LASF13:
 4045 0520 75696E74 		.ascii	"uint32\000"
 4045      333200
 4046              	.LASF148:
 4047 0527 6C6F6361 		.ascii	"localTemp\000"
 4047      6C54656D 
 4047      7000
 4048              	.LASF90:
 4049 0531 4359424C 		.ascii	"CYBLE_EVT_MAX\000"
 4049      455F4556 
 4049      545F4D41 
 4049      5800
 4050              	.LASF91:
 4051 053f 4359424C 		.ascii	"CYBLE_ERROR_OK\000"
 4051      455F4552 
 4051      524F525F 
 4051      4F4B00
 4052              	.LASF50:
 4053 054e 4359424C 		.ascii	"CYBLE_EVT_GATTC_ERROR_RSP\000"
 4053      455F4556 
 4053      545F4741 
 4053      5454435F 
 4053      4552524F 
 4054              	.LASF75:
 4055 0568 4359424C 		.ascii	"CYBLE_EVT_L2CAP_CONN_PARAM_UPDATE_REQ\000"
 4055      455F4556 
 4055      545F4C32 
 4055      4341505F 
 4055      434F4E4E 
 4056              	.LASF157:
 4057 058e 63757272 		.ascii	"currentCompressor\000"
 4057      656E7443 
 4057      6F6D7072 
 4057      6573736F 
 4057      7200
 4058              	.LASF52:
 4059 05a0 4359424C 		.ascii	"CYBLE_EVT_GATT_DISCONNECT_IND\000"
 4059      455F4556 
 4059      545F4741 
 4059      54545F44 
 4059      4953434F 
 4060              	.LASF85:
 4061 05be 4359424C 		.ascii	"CYBLE_EVT_L2CAP_CBFC_DATA_WRITE_IND\000"
 4061      455F4556 
 4061      545F4C32 
 4061      4341505F 
 4061      43424643 
 4062              	.LASF136:
 4063 05e2 61747472 		.ascii	"attrHandle\000"
 4063      48616E64 
 4063      6C6500
 4064              	.LASF7:
 4065 05ed 6C6F6E67 		.ascii	"long long unsigned int\000"
 4065      206C6F6E 
 4065      6720756E 
 4065      7369676E 
ARM GAS  C:\Users\sergio\AppData\Local\Temp\ccV5Q6Sf.s 			page 91


 4065      65642069 
 4066              	.LASF170:
 4067 0604 66616E48 		.ascii	"fanHigh\000"
 4067      69676800 
 4068              	.LASF220:
 4069 060c 74686572 		.ascii	"thermo\000"
 4069      6D6F00
 4070              	.LASF72:
 4071 0613 4359424C 		.ascii	"CYBLE_EVT_GATTC_STOP_CMD_COMPLETE\000"
 4071      455F4556 
 4071      545F4741 
 4071      5454435F 
 4071      53544F50 
 4072              	.LASF96:
 4073 0635 4359424C 		.ascii	"CYBLE_ERROR_OOB_NOT_AVAILABLE\000"
 4073      455F4552 
 4073      524F525F 
 4073      4F4F425F 
 4073      4E4F545F 
 4074              	.LASF173:
 4075 0653 74686572 		.ascii	"thermostatData\000"
 4075      6D6F7374 
 4075      61744461 
 4075      746100
 4076              	.LASF87:
 4077 0662 4359424C 		.ascii	"CYBLE_EVT_LE_PING_AUTH_TIMEOUT\000"
 4077      455F4556 
 4077      545F4C45 
 4077      5F50494E 
 4077      475F4155 
 4078              	.LASF211:
 4079 0681 6379426C 		.ascii	"cyBle_connHandle\000"
 4079      655F636F 
 4079      6E6E4861 
 4079      6E646C65 
 4079      00
 4080              	.LASF105:
 4081 0692 4359424C 		.ascii	"CYBLE_ERROR_L2CAP_PSM_ALREADY_REGISTERED\000"
 4081      455F4552 
 4081      524F525F 
 4081      4C324341 
 4081      505F5053 
 4082              	.LASF5:
 4083 06bb 6C6F6E67 		.ascii	"long unsigned int\000"
 4083      20756E73 
 4083      69676E65 
 4083      6420696E 
 4083      7400
 4084              	.LASF46:
 4085 06cd 4359424C 		.ascii	"CYBLE_EVT_GAP_CONN_ESTB\000"
 4085      455F4556 
 4085      545F4741 
 4085      505F434F 
 4085      4E4E5F45 
 4086              	.LASF160:
 4087 06e5 6C696E65 		.ascii	"lineFreqComp\000"
 4087      46726571 
ARM GAS  C:\Users\sergio\AppData\Local\Temp\ccV5Q6Sf.s 			page 92


 4087      436F6D70 
 4087      00
 4088              	.LASF62:
 4089 06f2 4359424C 		.ascii	"CYBLE_EVT_GATTS_WRITE_REQ\000"
 4089      455F4556 
 4089      545F4741 
 4089      5454535F 
 4089      57524954 
 4090              	.LASF54:
 4091 070c 4359424C 		.ascii	"CYBLE_EVT_GATTC_XCHNG_MTU_RSP\000"
 4091      455F4556 
 4091      545F4741 
 4091      5454435F 
 4091      5843484E 
 4092              	.LASF71:
 4093 072a 4359424C 		.ascii	"CYBLE_EVT_GATTS_DATA_SIGNED_CMD_REQ\000"
 4093      455F4556 
 4093      545F4741 
 4093      5454535F 
 4093      44415441 
 4094              	.LASF74:
 4095 074e 4359424C 		.ascii	"CYBLE_EVT_GATTC_LONG_PROCEDURE_END\000"
 4095      455F4556 
 4095      545F4741 
 4095      5454435F 
 4095      4C4F4E47 
 4096              	.LASF108:
 4097 0771 4359424C 		.ascii	"CYBLE_ERROR_L2CAP_CHANNEL_NOT_FOUND\000"
 4097      455F4552 
 4097      524F525F 
 4097      4C324341 
 4097      505F4348 
 4098              	.LASF176:
 4099 0795 6576656E 		.ascii	"event\000"
 4099      7400
 4100              	.LASF120:
 4101 079b 4359424C 		.ascii	"CYBLE_ERROR_NTF_DISABLED\000"
 4101      455F4552 
 4101      524F525F 
 4101      4E54465F 
 4101      44495341 
 4102              	.LASF19:
 4103 07b4 4359424C 		.ascii	"CYBLE_EVT_HOST_INVALID\000"
 4103      455F4556 
 4103      545F484F 
 4103      53545F49 
 4103      4E56414C 
 4104              	.LASF57:
 4105 07cb 4359424C 		.ascii	"CYBLE_EVT_GATTC_FIND_INFO_RSP\000"
 4105      455F4556 
 4105      545F4741 
 4105      5454435F 
 4105      46494E44 
 4106              	.LASF25:
 4107 07e9 4359424C 		.ascii	"CYBLE_EVT_MEMORY_REQUEST\000"
 4107      455F4556 
 4107      545F4D45 
ARM GAS  C:\Users\sergio\AppData\Local\Temp\ccV5Q6Sf.s 			page 93


 4107      4D4F5259 
 4107      5F524551 
 4108              	.LASF153:
 4109 0802 68756D69 		.ascii	"humidity\000"
 4109      64697479 
 4109      00
 4110              	.LASF66:
 4111 080b 4359424C 		.ascii	"CYBLE_EVT_GATTS_EXEC_WRITE_REQ\000"
 4111      455F4556 
 4111      545F4741 
 4111      5454535F 
 4111      45584543 
 4112              	.LASF126:
 4113 082a 62644164 		.ascii	"bdAddr\000"
 4113      647200
 4114              	.LASF82:
 4115 0831 4359424C 		.ascii	"CYBLE_EVT_L2CAP_CBFC_DATA_READ\000"
 4115      455F4556 
 4115      545F4C32 
 4115      4341505F 
 4115      43424643 
 4116              	.LASF215:
 4117 0850 69734E6F 		.ascii	"isNotify\000"
 4117      74696679 
 4117      00
 4118              	.LASF28:
 4119 0859 4359424C 		.ascii	"CYBLE_EVT_GAP_PASSKEY_ENTRY_REQUEST\000"
 4119      455F4556 
 4119      545F4741 
 4119      505F5041 
 4119      53534B45 
 4120              	.LASF33:
 4121 087d 4359424C 		.ascii	"CYBLE_EVT_GAP_DEVICE_CONNECTED\000"
 4121      455F4556 
 4121      545F4741 
 4121      505F4445 
 4121      56494345 
 4122              	.LASF222:
 4123 089c 6D61696E 		.ascii	"main.c\000"
 4123      2E6300
 4124              	.LASF48:
 4125 08a3 4359424C 		.ascii	"CYBLE_EVT_GAP_AUTH_REQ_REPLY_ERR\000"
 4125      455F4556 
 4125      545F4741 
 4125      505F4155 
 4125      54485F52 
 4126              	.LASF210:
 4127 08c4 6379426C 		.ascii	"cyBle_state\000"
 4127      655F7374 
 4127      61746500 
 4128              	.LASF221:
 4129 08d0 474E5520 		.ascii	"GNU C11 5.4.1 20160609 (release) [ARM/embedded-5-br"
 4129      43313120 
 4129      352E342E 
 4129      31203230 
 4129      31363036 
 4130 0903 616E6368 		.ascii	"anch revision 237715] -mcpu=cortex-m0 -mthumb -g -O"
ARM GAS  C:\Users\sergio\AppData\Local\Temp\ccV5Q6Sf.s 			page 94


 4130      20726576 
 4130      6973696F 
 4130      6E203233 
 4130      37373135 
 4131 0936 30202D66 		.ascii	"0 -ffunction-sections -ffat-lto-objects\000"
 4131      66756E63 
 4131      74696F6E 
 4131      2D736563 
 4131      74696F6E 
 4132              	.LASF131:
 4133 095e 61747449 		.ascii	"attId\000"
 4133      6400
 4134              	.LASF51:
 4135 0964 4359424C 		.ascii	"CYBLE_EVT_GATT_CONNECT_IND\000"
 4135      455F4556 
 4135      545F4741 
 4135      54545F43 
 4135      4F4E4E45 
 4136              	.LASF214:
 4137 097f 696E7465 		.ascii	"interruptFlag\000"
 4137      72727570 
 4137      74466C61 
 4137      6700
 4138              	.LASF77:
 4139 098d 4359424C 		.ascii	"CYBLE_EVT_L2CAP_COMMAND_REJ\000"
 4139      455F4556 
 4139      545F4C32 
 4139      4341505F 
 4139      434F4D4D 
 4140              	.LASF26:
 4141 09a9 4359424C 		.ascii	"CYBLE_EVT_GAPC_SCAN_PROGRESS_RESULT\000"
 4141      455F4556 
 4141      545F4741 
 4141      50435F53 
 4141      43414E5F 
 4142              	.LASF209:
 4143 09cd 7A4D5342 		.ascii	"zMSB\000"
 4143      00
 4144              	.LASF202:
 4145 09d2 77427566 		.ascii	"wBuff\000"
 4145      6600
 4146              	.LASF49:
 4147 09d8 4359424C 		.ascii	"CYBLE_EVT_GAP_SMP_LOC_P256_KEYS_GEN_AND_SET_COMPLET"
 4147      455F4556 
 4147      545F4741 
 4147      505F534D 
 4147      505F4C4F 
 4148 0a0b 4500     		.ascii	"E\000"
 4149              	.LASF119:
 4150 0a0d 4359424C 		.ascii	"CYBLE_ERROR_MAX\000"
 4150      455F4552 
 4150      524F525F 
 4150      4D415800 
 4151              	.LASF116:
 4152 0a1d 4359424C 		.ascii	"CYBLE_ERROR_FLASH_WRITE\000"
 4152      455F4552 
 4152      524F525F 
ARM GAS  C:\Users\sergio\AppData\Local\Temp\ccV5Q6Sf.s 			page 95


 4152      464C4153 
 4152      485F5752 
 4153              	.LASF56:
 4154 0a35 4359424C 		.ascii	"CYBLE_EVT_GATTC_READ_BY_TYPE_RSP\000"
 4154      455F4556 
 4154      545F4741 
 4154      5454435F 
 4154      52454144 
 4155              	.LASF18:
 4156 0a56 73697A65 		.ascii	"sizetype\000"
 4156      74797065 
 4156      00
 4157              	.LASF193:
 4158 0a5f 6D795F69 		.ascii	"my_interrupt\000"
 4158      6E746572 
 4158      72757074 
 4158      00
 4159              	.LASF141:
 4160 0a6c 4359424C 		.ascii	"CYBLE_GATTS_WRITE_REQ_PARAM_T\000"
 4160      455F4741 
 4160      5454535F 
 4160      57524954 
 4160      455F5245 
 4161              	.LASF138:
 4162 0a8a 4359424C 		.ascii	"CYBLE_GATTS_HANDLE_VALUE_NTF_T\000"
 4162      455F4741 
 4162      5454535F 
 4162      48414E44 
 4162      4C455F56 
 4163              	.LASF143:
 4164 0aa9 4359424C 		.ascii	"CYBLE_STATE_INITIALIZING\000"
 4164      455F5354 
 4164      4154455F 
 4164      494E4954 
 4164      49414C49 
 4165              	.LASF31:
 4166 0ac2 4359424C 		.ascii	"CYBLE_EVT_GAP_AUTH_FAILED\000"
 4166      455F4556 
 4166      545F4741 
 4166      505F4155 
 4166      54485F46 
 4167              	.LASF198:
 4168 0adc 74656D70 		.ascii	"tempR12\000"
 4168      52313200 
 4169              	.LASF80:
 4170 0ae4 4359424C 		.ascii	"CYBLE_EVT_L2CAP_CBFC_DISCONN_IND\000"
 4170      455F4556 
 4170      545F4C32 
 4170      4341505F 
 4170      43424643 
 4171              	.LASF44:
 4172 0b05 4359424C 		.ascii	"CYBLE_EVT_GAPC_DIRECT_ADV_REPORT\000"
 4172      455F4556 
 4172      545F4741 
 4172      50435F44 
 4172      49524543 
 4173              	.LASF42:
ARM GAS  C:\Users\sergio\AppData\Local\Temp\ccV5Q6Sf.s 			page 96


 4174 0b26 4359424C 		.ascii	"CYBLE_EVT_GAP_DATA_LENGTH_CHANGE\000"
 4174      455F4556 
 4174      545F4741 
 4174      505F4441 
 4174      54415F4C 
 4175              	.LASF47:
 4176 0b47 4359424C 		.ascii	"CYBLE_EVT_GAP_SCAN_REQ_RECVD\000"
 4176      455F4556 
 4176      545F4741 
 4176      505F5343 
 4176      414E5F52 
 4177              	.LASF23:
 4178 0b64 4359424C 		.ascii	"CYBLE_EVT_HCI_STATUS\000"
 4178      455F4556 
 4178      545F4843 
 4178      495F5354 
 4178      41545553 
 4179              	.LASF30:
 4180 0b79 4359424C 		.ascii	"CYBLE_EVT_GAP_AUTH_COMPLETE\000"
 4180      455F4556 
 4180      545F4741 
 4180      505F4155 
 4180      54485F43 
 4181              	.LASF162:
 4182 0b95 6C696E65 		.ascii	"lineFreq\000"
 4182      46726571 
 4182      00
 4183              	.LASF224:
 4184 0b9e 61706952 		.ascii	"apiResult\000"
 4184      6573756C 
 4184      7400
 4185              	.LASF225:
 4186 0ba8 73656E64 		.ascii	"send_Thermo_to_phone\000"
 4186      5F546865 
 4186      726D6F5F 
 4186      746F5F70 
 4186      686F6E65 
 4187              	.LASF68:
 4188 0bbd 4359424C 		.ascii	"CYBLE_EVT_GATTC_HANDLE_VALUE_NTF\000"
 4188      455F4556 
 4188      545F4741 
 4188      5454435F 
 4188      48414E44 
 4189              	.LASF121:
 4190 0bde 4359424C 		.ascii	"CYBLE_ERROR_IND_DISABLED\000"
 4190      455F4552 
 4190      524F525F 
 4190      494E445F 
 4190      44495341 
 4191              	.LASF137:
 4192 0bf7 4359424C 		.ascii	"CYBLE_GATT_HANDLE_VALUE_PAIR_T\000"
 4192      455F4741 
 4192      54545F48 
 4192      414E444C 
 4192      455F5641 
 4193              	.LASF188:
 4194 0c16 72656164 		.ascii	"read_thermostat_pins\000"
ARM GAS  C:\Users\sergio\AppData\Local\Temp\ccV5Q6Sf.s 			page 97


 4194      5F746865 
 4194      726D6F73 
 4194      7461745F 
 4194      70696E73 
 4195              	.LASF161:
 4196 0c2b 6C696E65 		.ascii	"lineFreqFan\000"
 4196      46726571 
 4196      46616E00 
 4197              	.LASF79:
 4198 0c37 4359424C 		.ascii	"CYBLE_EVT_L2CAP_CBFC_CONN_CNF\000"
 4198      455F4556 
 4198      545F4C32 
 4198      4341505F 
 4198      43424643 
 4199              	.LASF159:
 4200 0c55 63757272 		.ascii	"current\000"
 4200      656E7400 
 4201              	.LASF207:
 4202 0c5d 794D5342 		.ascii	"yMSB\000"
 4202      00
 4203              	.LASF55:
 4204 0c62 4359424C 		.ascii	"CYBLE_EVT_GATTC_READ_BY_GROUP_TYPE_RSP\000"
 4204      455F4556 
 4204      545F4741 
 4204      5454435F 
 4204      52454144 
 4205              	.LASF163:
 4206 0c89 61697246 		.ascii	"airFlow\000"
 4206      6C6F7700 
 4207              	.LASF14:
 4208 0c91 666C6F61 		.ascii	"float\000"
 4208      7400
 4209              	.LASF203:
 4210 0c97 72427566 		.ascii	"rBuff\000"
 4210      6600
 4211              	.LASF181:
 4212 0c9d 74686572 		.ascii	"thermoRead\000"
 4212      6D6F5265 
 4212      616400
 4213              	.LASF185:
 4214 0ca8 75706461 		.ascii	"updateNotificationCCCD\000"
 4214      74654E6F 
 4214      74696669 
 4214      63617469 
 4214      6F6E4343 
 4215              	.LASF114:
 4216 0cbf 4359424C 		.ascii	"CYBLE_ERROR_HARDWARE_FAILURE\000"
 4216      455F4552 
 4216      524F525F 
 4216      48415244 
 4216      57415245 
 4217              	.LASF101:
 4218 0cdc 4359424C 		.ascii	"CYBLE_ERROR_TX_POWER_READ\000"
 4218      455F4552 
 4218      524F525F 
 4218      54585F50 
 4218      4F574552 
ARM GAS  C:\Users\sergio\AppData\Local\Temp\ccV5Q6Sf.s 			page 98


 4219              	.LASF122:
 4220 0cf6 4359424C 		.ascii	"CYBLE_ERROR_CHAR_IS_NOT_DISCOVERED\000"
 4220      455F4552 
 4220      524F525F 
 4220      43484152 
 4220      5F49535F 
 4221              	.LASF1:
 4222 0d19 756E7369 		.ascii	"unsigned char\000"
 4222      676E6564 
 4222      20636861 
 4222      7200
 4223              	.LASF12:
 4224 0d27 75696E74 		.ascii	"uint16\000"
 4224      313600
 4225              	.LASF40:
 4226 0d2e 4359424C 		.ascii	"CYBLE_EVT_GAP_KEYPRESS_NOTIFICATION\000"
 4226      455F4556 
 4226      545F4741 
 4226      505F4B45 
 4226      59505245 
 4227              	.LASF199:
 4228 0d52 74656D70 		.ascii	"tempR22\000"
 4228      52323200 
 4229              	.LASF208:
 4230 0d5a 7A4C5342 		.ascii	"zLSB\000"
 4230      00
 4231              	.LASF212:
 4232 0d5f 6379426C 		.ascii	"cyBle_busyStatus\000"
 4232      655F6275 
 4232      73795374 
 4232      61747573 
 4232      00
 4233              	.LASF150:
 4234 0d70 72656D6F 		.ascii	"remoteTemp2\000"
 4234      74655465 
 4234      6D703200 
 4235              	.LASF2:
 4236 0d7c 73686F72 		.ascii	"short int\000"
 4236      7420696E 
 4236      7400
 4237              	.LASF200:
 4238 0d86 636F756E 		.ascii	"counter\000"
 4238      74657200 
 4239              	.LASF194:
 4240 0d8e 74656D70 		.ascii	"temp1\000"
 4240      3100
 4241              	.LASF197:
 4242 0d94 74656D70 		.ascii	"temp2\000"
 4242      3200
 4243              	.LASF183:
 4244 0d9a 6E6F7469 		.ascii	"notiHandle\000"
 4244      48616E64 
 4244      6C6500
 4245              	.LASF179:
 4246 0da5 77725265 		.ascii	"wrReq\000"
 4246      7100
 4247              	.LASF88:
ARM GAS  C:\Users\sergio\AppData\Local\Temp\ccV5Q6Sf.s 			page 99


 4248 0dab 4359424C 		.ascii	"CYBLE_EVT_HCI_PKT\000"
 4248      455F4556 
 4248      545F4843 
 4248      495F504B 
 4248      5400
 4249              	.LASF97:
 4250 0dbd 4359424C 		.ascii	"CYBLE_ERROR_NO_CONNECTION\000"
 4250      455F4552 
 4250      524F525F 
 4250      4E4F5F43 
 4250      4F4E4E45 
 4251              	.LASF205:
 4252 0dd7 784D5342 		.ascii	"xMSB\000"
 4252      00
 4253              	.LASF3:
 4254 0ddc 73686F72 		.ascii	"short unsigned int\000"
 4254      7420756E 
 4254      7369676E 
 4254      65642069 
 4254      6E7400
 4255              	.LASF154:
 4256 0def 766F6C74 		.ascii	"voltCompressor\000"
 4256      436F6D70 
 4256      72657373 
 4256      6F7200
 4257              	.LASF65:
 4258 0dfe 4359424C 		.ascii	"CYBLE_EVT_GATTS_PREP_WRITE_REQ\000"
 4258      455F4556 
 4258      545F4741 
 4258      5454535F 
 4258      50524550 
 4259              	.LASF218:
 4260 0e1d 75617274 		.ascii	"uartStr\000"
 4260      53747200 
 4261              	.LASF135:
 4262 0e25 76616C75 		.ascii	"value\000"
 4262      6500
 4263              	.LASF117:
 4264 0e2b 4359424C 		.ascii	"CYBLE_ERROR_LL_SAME_TRANSACTION_COLLISION\000"
 4264      455F4552 
 4264      524F525F 
 4264      4C4C5F53 
 4264      414D455F 
 4265              	.LASF70:
 4266 0e55 4359424C 		.ascii	"CYBLE_EVT_GATTS_HANDLE_VALUE_CNF\000"
 4266      455F4556 
 4266      545F4741 
 4266      5454535F 
 4266      48414E44 
 4267              	.LASF15:
 4268 0e76 646F7562 		.ascii	"double\000"
 4268      6C6500
 4269              	.LASF45:
 4270 0e7d 4359424C 		.ascii	"CYBLE_EVT_GAP_SMP_NEGOTIATED_AUTH_INFO\000"
 4270      455F4556 
 4270      545F4741 
 4270      505F534D 
ARM GAS  C:\Users\sergio\AppData\Local\Temp\ccV5Q6Sf.s 			page 100


 4270      505F4E45 
 4271              	.LASF21:
 4272 0ea4 4359424C 		.ascii	"CYBLE_EVT_TIMEOUT\000"
 4272      455F4556 
 4272      545F5449 
 4272      4D454F55 
 4272      5400
 4273              	.LASF124:
 4274 0eb6 4359424C 		.ascii	"CYBLE_ERROR_STACK_BUSY\000"
 4274      455F4552 
 4274      524F525F 
 4274      53544143 
 4274      4B5F4255 
 4275              	.LASF172:
 4276 0ecd 616D6269 		.ascii	"ambientTemp\000"
 4276      656E7454 
 4276      656D7000 
 4277              	.LASF17:
 4278 0ed9 6C6F6E67 		.ascii	"long double\000"
 4278      20646F75 
 4278      626C6500 
 4279              	.LASF16:
 4280 0ee5 63686172 		.ascii	"char\000"
 4280      00
 4281              	.LASF102:
 4282 0eea 4359424C 		.ascii	"CYBLE_ERROR_BT_ON_NOT_COMPLETED\000"
 4282      455F4552 
 4282      524F525F 
 4282      42545F4F 
 4282      4E5F4E4F 
 4283              	.LASF34:
 4284 0f0a 4359424C 		.ascii	"CYBLE_EVT_GAP_DEVICE_DISCONNECTED\000"
 4284      455F4556 
 4284      545F4741 
 4284      505F4445 
 4284      56494345 
 4285              	.LASF206:
 4286 0f2c 794C5342 		.ascii	"yLSB\000"
 4286      00
 4287              	.LASF8:
 4288 0f31 756E7369 		.ascii	"unsigned int\000"
 4288      676E6564 
 4288      20696E74 
 4288      00
 4289              	.LASF73:
 4290 0f3e 4359424C 		.ascii	"CYBLE_EVT_GATTS_READ_CHAR_VAL_ACCESS_REQ\000"
 4290      455F4556 
 4290      545F4741 
 4290      5454535F 
 4290      52454144 
 4291              	.LASF63:
 4292 0f67 4359424C 		.ascii	"CYBLE_EVT_GATTC_WRITE_RSP\000"
 4292      455F4556 
 4292      545F4741 
 4292      5454435F 
 4292      57524954 
 4293              	.LASF125:
ARM GAS  C:\Users\sergio\AppData\Local\Temp\ccV5Q6Sf.s 			page 101


 4294 0f81 4359424C 		.ascii	"CYBLE_API_RESULT_T\000"
 4294      455F4150 
 4294      495F5245 
 4294      53554C54 
 4294      5F5400
 4295              	.LASF186:
 4296 0f94 73656E73 		.ascii	"sensorNotCCCDHandle\000"
 4296      6F724E6F 
 4296      74434343 
 4296      4448616E 
 4296      646C6500 
 4297              	.LASF84:
 4298 0fa8 4359424C 		.ascii	"CYBLE_EVT_L2CAP_CBFC_TX_CREDIT_IND\000"
 4298      455F4556 
 4298      545F4C32 
 4298      4341505F 
 4298      43424643 
 4299              	.LASF60:
 4300 0fcb 4359424C 		.ascii	"CYBLE_EVT_GATTC_READ_BLOB_RSP\000"
 4300      455F4556 
 4300      545F4741 
 4300      5454435F 
 4300      52454144 
 4301              	.LASF112:
 4302 0fe9 4359424C 		.ascii	"CYBLE_ERROR_FLASH_WRITE_NOT_PERMITED\000"
 4302      455F4552 
 4302      524F525F 
 4302      464C4153 
 4302      485F5752 
 4303              	.LASF107:
 4304 100e 4359424C 		.ascii	"CYBLE_ERROR_L2CAP_CONNECTION_ENTITY_NOT_FOUND\000"
 4304      455F4552 
 4304      524F525F 
 4304      4C324341 
 4304      505F434F 
 4305              	.LASF29:
 4306 103c 4359424C 		.ascii	"CYBLE_EVT_GAP_PASSKEY_DISPLAY_REQUEST\000"
 4306      455F4556 
 4306      545F4741 
 4306      505F5041 
 4306      53534B45 
 4307              	.LASF22:
 4308 1062 4359424C 		.ascii	"CYBLE_EVT_HARDWARE_ERROR\000"
 4308      455F4556 
 4308      545F4841 
 4308      52445741 
 4308      52455F45 
 4309              	.LASF216:
 4310 107b 75706461 		.ascii	"updateIsNotifyCCCDAttr\000"
 4310      74654973 
 4310      4E6F7469 
 4310      66794343 
 4310      43444174 
 4311              	.LASF192:
 4312 1092 636F6E66 		.ascii	"configure_temperature_sensor1\000"
 4312      69677572 
 4312      655F7465 
ARM GAS  C:\Users\sergio\AppData\Local\Temp\ccV5Q6Sf.s 			page 102


 4312      6D706572 
 4312      61747572 
 4313              	.LASF191:
 4314 10b0 636F6E66 		.ascii	"configure_temperature_sensor2\000"
 4314      69677572 
 4314      655F7465 
 4314      6D706572 
 4314      61747572 
 4315              	.LASF140:
 4316 10ce 68616E64 		.ascii	"handleValPair\000"
 4316      6C655661 
 4316      6C506169 
 4316      7200
 4317              	.LASF187:
 4318 10dc 73656E73 		.ascii	"sensorCCCDVal\000"
 4318      6F724343 
 4318      43445661 
 4318      6C00
 4319              	.LASF93:
 4320 10ea 4359424C 		.ascii	"CYBLE_ERROR_INVALID_OPERATION\000"
 4320      455F4552 
 4320      524F525F 
 4320      494E5641 
 4320      4C49445F 
 4321              	.LASF53:
 4322 1108 4359424C 		.ascii	"CYBLE_EVT_GATTS_XCNHG_MTU_REQ\000"
 4322      455F4556 
 4322      545F4741 
 4322      5454535F 
 4322      58434E48 
 4323              	.LASF219:
 4324 1126 73656E73 		.ascii	"sensorData\000"
 4324      6F724461 
 4324      746100
 4325              	.LASF177:
 4326 1131 6576656E 		.ascii	"eventParam\000"
 4326      74506172 
 4326      616D00
 4327              	.LASF204:
 4328 113c 784C5342 		.ascii	"xLSB\000"
 4328      00
 4329              	.LASF95:
 4330 1141 4359424C 		.ascii	"CYBLE_ERROR_INSUFFICIENT_RESOURCES\000"
 4330      455F4552 
 4330      524F525F 
 4330      494E5355 
 4330      46464943 
 4331              	.LASF147:
 4332 1164 4359424C 		.ascii	"CYBLE_STATE_T\000"
 4332      455F5354 
 4332      4154455F 
 4332      5400
 4333              	.LASF10:
 4334 1172 75696E74 		.ascii	"uint8_t\000"
 4334      385F7400 
 4335              	.LASF118:
 4336 117a 4359424C 		.ascii	"CYBLE_ERROR_CONTROLLER_BUSY\000"
ARM GAS  C:\Users\sergio\AppData\Local\Temp\ccV5Q6Sf.s 			page 103


 4336      455F4552 
 4336      524F525F 
 4336      434F4E54 
 4336      524F4C4C 
 4337              	.LASF158:
 4338 1196 63757272 		.ascii	"currentFan\000"
 4338      656E7446 
 4338      616E00
 4339              	.LASF113:
 4340 11a1 4359424C 		.ascii	"CYBLE_ERROR_MIC_AUTH_FAILED\000"
 4340      455F4552 
 4340      524F525F 
 4340      4D49435F 
 4340      41555448 
 4341              	.LASF106:
 4342 11bd 4359424C 		.ascii	"CYBLE_ERROR_L2CAP_PSM_NOT_REGISTERED\000"
 4342      455F4552 
 4342      524F525F 
 4342      4C324341 
 4342      505F5053 
 4343              	.LASF144:
 4344 11e2 4359424C 		.ascii	"CYBLE_STATE_CONNECTED\000"
 4344      455F5354 
 4344      4154455F 
 4344      434F4E4E 
 4344      45435445 
 4345              	.LASF69:
 4346 11f8 4359424C 		.ascii	"CYBLE_EVT_GATTC_HANDLE_VALUE_IND\000"
 4346      455F4556 
 4346      545F4741 
 4346      5454435F 
 4346      48414E44 
 4347              	.LASF58:
 4348 1219 4359424C 		.ascii	"CYBLE_EVT_GATTC_FIND_BY_TYPE_VALUE_RSP\000"
 4348      455F4556 
 4348      545F4741 
 4348      5454435F 
 4348      46494E44 
 4349              	.LASF100:
 4350 1240 4359424C 		.ascii	"CYBLE_ERROR_GAP_ROLE\000"
 4350      455F4552 
 4350      524F525F 
 4350      4741505F 
 4350      524F4C45 
 4351              	.LASF38:
 4352 1255 4359424C 		.ascii	"CYBLE_EVT_GAP_KEYINFO_EXCHNGE_CMPLT\000"
 4352      455F4556 
 4352      545F4741 
 4352      505F4B45 
 4352      59494E46 
 4353              	.LASF130:
 4354 1279 62644861 		.ascii	"bdHandle\000"
 4354      6E646C65 
 4354      00
 4355              	.LASF190:
 4356 1282 696E6974 		.ascii	"initialized_input_gpioExp\000"
 4356      69616C69 
ARM GAS  C:\Users\sergio\AppData\Local\Temp\ccV5Q6Sf.s 			page 104


 4356      7A65645F 
 4356      696E7075 
 4356      745F6770 
 4357              	.LASF76:
 4358 129c 4359424C 		.ascii	"CYBLE_EVT_L2CAP_CONN_PARAM_UPDATE_RSP\000"
 4358      455F4556 
 4358      545F4C32 
 4358      4341505F 
 4358      434F4E4E 
 4359              	.LASF226:
 4360 12c2 6D61696E 		.ascii	"main\000"
 4360      00
 4361              	.LASF43:
 4362 12c7 4359424C 		.ascii	"CYBLE_EVT_GAP_ENHANCE_CONN_COMPLETE\000"
 4362      455F4556 
 4362      545F4741 
 4362      505F454E 
 4362      48414E43 
 4363              	.LASF129:
 4364 12eb 4359424C 		.ascii	"CYBLE_GATT_DB_ATTR_HANDLE_T\000"
 4364      455F4741 
 4364      54545F44 
 4364      425F4154 
 4364      54525F48 
 4365              	.LASF180:
 4366 1307 6C6F6361 		.ascii	"localAddr\000"
 4366      6C416464 
 4366      7200
 4367              	.LASF201:
 4368 1311 72656164 		.ascii	"read_buff\000"
 4368      5F627566 
 4368      6600
 4369              	.LASF110:
 4370 131b 4359424C 		.ascii	"CYBLE_ERROR_GATT_DB_INVALID_ATTR_HANDLE\000"
 4370      455F4552 
 4370      524F525F 
 4370      47415454 
 4370      5F44425F 
 4371              	.LASF89:
 4372 1343 4359424C 		.ascii	"CYBLE_EVT_FLASH_CORRUPT\000"
 4372      455F4556 
 4372      545F464C 
 4372      4153485F 
 4372      434F5252 
 4373              	.LASF178:
 4374 135b 74686572 		.ascii	"thermoTemp\000"
 4374      6D6F5465 
 4374      6D7000
 4375              	.LASF99:
 4376 1366 4359424C 		.ascii	"CYBLE_ERROR_REPEATED_ATTEMPTS\000"
 4376      455F4552 
 4376      524F525F 
 4376      52455045 
 4376      41544544 
 4377              		.ident	"GCC: (GNU Tools for ARM Embedded Processors) 5.4.1 20160609 (release) [ARM/embedded-5-bran
