ARM GAS  C:\Users\sergio\AppData\Local\Temp\ccku3oR8.s 			page 1


   1              		.syntax unified
   2              		.cpu cortex-m0
   3              		.fpu softvfp
   4              		.eabi_attribute 20, 1
   5              		.eabi_attribute 21, 1
   6              		.eabi_attribute 23, 3
   7              		.eabi_attribute 24, 1
   8              		.eabi_attribute 25, 1
   9              		.eabi_attribute 26, 1
  10              		.eabi_attribute 30, 6
  11              		.eabi_attribute 34, 0
  12              		.eabi_attribute 18, 4
  13              		.thumb
  14              		.syntax unified
  15              		.file	"main.c"
  16              		.text
  17              	.Ltext0:
  18              		.cfi_sections	.debug_frame
  19              		.comm	thermoHandle,12,4
  20              		.global	interruptFlag
  21              		.bss
  22              		.align	2
  23              		.type	interruptFlag, %object
  24              		.size	interruptFlag, 4
  25              	interruptFlag:
  26 0000 00000000 		.space	4
  27              		.global	isNotify
  28              		.type	isNotify, %object
  29              		.size	isNotify, 1
  30              	isNotify:
  31 0004 00       		.space	1
  32              		.global	updateIsNotifyCCCDAttr
  33              		.type	updateIsNotifyCCCDAttr, %object
  34              		.size	updateIsNotifyCCCDAttr, 1
  35              	updateIsNotifyCCCDAttr:
  36 0005 00       		.space	1
  37              		.global	bleConnected
  38              		.type	bleConnected, %object
  39              		.size	bleConnected, 1
  40              	bleConnected:
  41 0006 00       		.space	1
  42              		.comm	uartStr,50,4
  43              		.global	gpioPins
  44              		.type	gpioPins, %object
  45              		.size	gpioPins, 1
  46              	gpioPins:
  47 0007 00       		.space	1
  48              		.global	adcRead
  49              		.align	1
  50              		.type	adcRead, %object
  51              		.size	adcRead, 2
  52              	adcRead:
  53 0008 0000     		.space	2
  54              		.global	acStates
  55 000a 0000     		.align	2
  56              		.type	acStates, %object
  57              		.size	acStates, 4
ARM GAS  C:\Users\sergio\AppData\Local\Temp\ccku3oR8.s 			page 2


  58              	acStates:
  59 000c 00000000 		.space	4
  60              		.global	thermoState
  61              		.type	thermoState, %object
  62              		.size	thermoState, 1
  63              	thermoState:
  64 0010 00       		.space	1
  65              		.global	counter
  66 0011 000000   		.align	2
  67              		.type	counter, %object
  68              		.size	counter, 4
  69              	counter:
  70 0014 00000000 		.space	4
  71              		.comm	sensorData,36,4
  72              		.comm	thermo,7,4
  73              		.comm	errorPower,6,4
  74              		.global	setTemperature
  75              		.type	setTemperature, %object
  76              		.size	setTemperature, 1
  77              	setTemperature:
  78 0018 00       		.space	1
  79              		.global	prevComp
  80              		.type	prevComp, %object
  81              		.size	prevComp, 1
  82              	prevComp:
  83 0019 00       		.space	1
  84              		.global	prevLFan
  85              		.type	prevLFan, %object
  86              		.size	prevLFan, 1
  87              	prevLFan:
  88 001a 00       		.space	1
  89              		.global	prevHFan
  90              		.type	prevHFan, %object
  91              		.size	prevHFan, 1
  92              	prevHFan:
  93 001b 00       		.space	1
  94              		.section	.text.updateThermostatData,"ax",%progbits
  95              		.align	2
  96              		.global	updateThermostatData
  97              		.code	16
  98              		.thumb_func
  99              		.type	updateThermostatData, %function
 100              	updateThermostatData:
 101              	.LFB36:
 102              		.file 1 "main.c"
   1:main.c        **** /* ========================================
   2:main.c        ****  *
   3:main.c        ****  * Copyright YOUR COMPANY, THE YEAR
   4:main.c        ****  * All Rights Reserved
   5:main.c        ****  * UNPUBLISHED, LICENSED SOFTWARE.
   6:main.c        ****  *
   7:main.c        ****  * CONFIDENTIAL AND PROPRIETARY INFORMATION
   8:main.c        ****  * WHICH IS THE PROPERTY OF your company.
   9:main.c        ****  *
  10:main.c        ****  * ========================================
  11:main.c        **** */
  12:main.c        **** #include <project.h>
ARM GAS  C:\Users\sergio\AppData\Local\Temp\ccku3oR8.s 			page 3


  13:main.c        **** 
  14:main.c        **** #include <stdio.h>
  15:main.c        **** #include <stdlib.h>
  16:main.c        **** #include <time.h>
  17:main.c        **** 
  18:main.c        **** CYBLE_GATT_HANDLE_VALUE_PAIR_T thermoHandle;
  19:main.c        **** 
  20:main.c        **** // These are for the gpio exp.
  21:main.c        **** #define ADDR (0x70)
  22:main.c        **** #define REG_READ (0x00)
  23:main.c        **** #define REG_WRITE (0x01)
  24:main.c        **** #define REG_CONFIG (0x03)
  25:main.c        **** 
  26:main.c        **** #define ADDR_POWER1 (0x74) // compressor
  27:main.c        **** #define ADDR_POWER2 (0x75) // High Fan
  28:main.c        **** #define ADDR_POWER3 (0x76) // Low Fan
  29:main.c        **** #define REG_POWER_VERSION (0x04)
  30:main.c        **** 
  31:main.c        **** // the address fro the temp sensor are 0x4C for A model and 0x4D for B model.
  32:main.c        **** 
  33:main.c        **** int interruptFlag = 0;
  34:main.c        **** uint8 isNotify = 0;
  35:main.c        **** uint8 updateIsNotifyCCCDAttr = 0;
  36:main.c        **** uint8 bleConnected = 0;
  37:main.c        **** char uartStr[50];
  38:main.c        **** 
  39:main.c        **** uint8 gpioPins = 0u;
  40:main.c        **** uint16 adcRead = 0u;
  41:main.c        **** int acStates = 0u;
  42:main.c        **** uint8 thermoState = 0u;
  43:main.c        **** int counter = 0;
  44:main.c        **** 
  45:main.c        **** 
  46:main.c        **** typedef struct{
  47:main.c        ****     
  48:main.c        ****     uint8 localTemp;
  49:main.c        ****     uint8 humidity;
  50:main.c        ****     uint8 remoteTemp1;
  51:main.c        ****     uint8 remoteTemp2; 
  52:main.c        ****     uint8 remoteTemp3;
  53:main.c        ****     uint8 remoteTemp4;
  54:main.c        ****     
  55:main.c        ****     uint16 voltCompressor;
  56:main.c        ****     uint16 voltFan;
  57:main.c        ****     uint16 volt;
  58:main.c        ****     
  59:main.c        ****     uint32 currentCompressor;
  60:main.c        ****     uint32 currentFan; 
  61:main.c        ****     uint32 current;
  62:main.c        ****     
  63:main.c        ****     uint16 lineFreqComp;
  64:main.c        ****     uint16 lineFreqFan;
  65:main.c        ****     uint16 lineFreq;
  66:main.c        ****     
  67:main.c        ****     
  68:main.c        ****     uint8 accX;
  69:main.c        ****     uint8 accY;
ARM GAS  C:\Users\sergio\AppData\Local\Temp\ccku3oR8.s 			page 4


  70:main.c        ****     uint8 accZ;
  71:main.c        ****     
  72:main.c        ****     uint16 airFlow;
  73:main.c        ****     
  74:main.c        **** }dataCollected;
  75:main.c        **** 
  76:main.c        ****  dataCollected sensorData;
  77:main.c        **** // 5 bytes
  78:main.c        **** typedef struct{
  79:main.c        ****     uint8 compressor;
  80:main.c        ****     uint8 fanLow;
  81:main.c        ****     uint8 fanHigh;
  82:main.c        ****     uint8 setTemperature;
  83:main.c        ****     uint8 ambientTemp;
  84:main.c        ****     uint8 power;
  85:main.c        ****     uint8 test;
  86:main.c        **** } thermostatData ;
  87:main.c        **** 
  88:main.c        **** 
  89:main.c        **** 
  90:main.c        ****  thermostatData thermo;
  91:main.c        **** 
  92:main.c        **** typedef struct{
  93:main.c        ****     int8 err_Comp_volt;
  94:main.c        ****     int8 err_Comp_curr;
  95:main.c        ****     int8 err_LFan_volt;
  96:main.c        ****     int8 err_LFan_curr;
  97:main.c        ****     int8 err_HFan_volt;
  98:main.c        ****     int8 err_HFan_curr;
  99:main.c        ****     
 100:main.c        **** }errorCode;
 101:main.c        **** 
 102:main.c        **** errorCode errorPower;
 103:main.c        **** 
 104:main.c        **** uint8 setTemperature = 0;
 105:main.c        **** 
 106:main.c        **** uint8 prevComp = 0;
 107:main.c        **** uint8 prevLFan = 0;
 108:main.c        **** uint8 prevHFan = 0;
 109:main.c        **** 
 110:main.c        **** 
 111:main.c        **** 
 112:main.c        **** void updateThermostatData(void){
 103              		.loc 1 112 0
 104              		.cfi_startproc
 105              		@ args = 0, pretend = 0, frame = 8
 106              		@ frame_needed = 1, uses_anonymous_args = 0
 107 0000 80B5     		push	{r7, lr}
 108              		.cfi_def_cfa_offset 8
 109              		.cfi_offset 7, -8
 110              		.cfi_offset 14, -4
 111 0002 82B0     		sub	sp, sp, #8
 112              		.cfi_def_cfa_offset 16
 113 0004 00AF     		add	r7, sp, #0
 114              		.cfi_def_cfa_register 7
 113:main.c        ****     
 114:main.c        ****     
ARM GAS  C:\Users\sergio\AppData\Local\Temp\ccku3oR8.s 			page 5


 115:main.c        ****     uint8 thermoTemp[] = {thermo.compressor, thermo.fanLow, thermo.fanHigh,
 115              		.loc 1 115 0
 116 0006 194B     		ldr	r3, .L2
 117 0008 1A78     		ldrb	r2, [r3]
 118 000a 3B00     		movs	r3, r7
 119 000c 1A70     		strb	r2, [r3]
 120 000e 174B     		ldr	r3, .L2
 121 0010 5A78     		ldrb	r2, [r3, #1]
 122 0012 3B00     		movs	r3, r7
 123 0014 5A70     		strb	r2, [r3, #1]
 124 0016 154B     		ldr	r3, .L2
 125 0018 9A78     		ldrb	r2, [r3, #2]
 126 001a 3B00     		movs	r3, r7
 127 001c 9A70     		strb	r2, [r3, #2]
 116:main.c        ****     thermo.setTemperature, thermo.ambientTemp, thermo.power, thermo.test};
 128              		.loc 1 116 0
 129 001e 134B     		ldr	r3, .L2
 130 0020 DA78     		ldrb	r2, [r3, #3]
 115:main.c        ****     thermo.setTemperature, thermo.ambientTemp, thermo.power, thermo.test};
 131              		.loc 1 115 0
 132 0022 3B00     		movs	r3, r7
 133 0024 DA70     		strb	r2, [r3, #3]
 134              		.loc 1 116 0
 135 0026 114B     		ldr	r3, .L2
 136 0028 1A79     		ldrb	r2, [r3, #4]
 115:main.c        ****     thermo.setTemperature, thermo.ambientTemp, thermo.power, thermo.test};
 137              		.loc 1 115 0
 138 002a 3B00     		movs	r3, r7
 139 002c 1A71     		strb	r2, [r3, #4]
 140              		.loc 1 116 0
 141 002e 0F4B     		ldr	r3, .L2
 142 0030 5A79     		ldrb	r2, [r3, #5]
 115:main.c        ****     thermo.setTemperature, thermo.ambientTemp, thermo.power, thermo.test};
 143              		.loc 1 115 0
 144 0032 3B00     		movs	r3, r7
 145 0034 5A71     		strb	r2, [r3, #5]
 146              		.loc 1 116 0
 147 0036 0D4B     		ldr	r3, .L2
 148 0038 9A79     		ldrb	r2, [r3, #6]
 115:main.c        ****     thermo.setTemperature, thermo.ambientTemp, thermo.power, thermo.test};
 149              		.loc 1 115 0
 150 003a 3B00     		movs	r3, r7
 151 003c 9A71     		strb	r2, [r3, #6]
 117:main.c        ****     thermoHandle.attrHandle = CYBLE_RVAC_THERMOSTAT_THERMOCCCD_DESC_HANDLE;
 152              		.loc 1 117 0
 153 003e 0C4B     		ldr	r3, .L2+4
 154 0040 1722     		movs	r2, #23
 155 0042 1A81     		strh	r2, [r3, #8]
 118:main.c        ****     thermoHandle.value.val = (uint8 *) thermoTemp;
 156              		.loc 1 118 0
 157 0044 0A4B     		ldr	r3, .L2+4
 158 0046 3A00     		movs	r2, r7
 159 0048 1A60     		str	r2, [r3]
 119:main.c        ****     thermoHandle.value.len = 7; 
 160              		.loc 1 119 0
 161 004a 094B     		ldr	r3, .L2+4
 162 004c 0722     		movs	r2, #7
ARM GAS  C:\Users\sergio\AppData\Local\Temp\ccku3oR8.s 			page 6


 163 004e 9A80     		strh	r2, [r3, #4]
 120:main.c        ****     thermoHandle.value.actualLen = 7; 
 164              		.loc 1 120 0
 165 0050 074B     		ldr	r3, .L2+4
 166 0052 0722     		movs	r2, #7
 167 0054 DA80     		strh	r2, [r3, #6]
 121:main.c        ****     
 122:main.c        ****     CyBle_GattsWriteAttributeValue(&thermoHandle, 0, &cyBle_connHandle, 0);
 168              		.loc 1 122 0
 169 0056 074A     		ldr	r2, .L2+8
 170 0058 0548     		ldr	r0, .L2+4
 171 005a 0023     		movs	r3, #0
 172 005c 0021     		movs	r1, #0
 173 005e FFF7FEFF 		bl	CyBle_GattsWriteAttributeValue
 123:main.c        **** }
 174              		.loc 1 123 0
 175 0062 C046     		nop
 176 0064 BD46     		mov	sp, r7
 177 0066 02B0     		add	sp, sp, #8
 178              		@ sp needed
 179 0068 80BD     		pop	{r7, pc}
 180              	.L3:
 181 006a C046     		.align	2
 182              	.L2:
 183 006c 00000000 		.word	thermo
 184 0070 00000000 		.word	thermoHandle
 185 0074 00000000 		.word	cyBle_connHandle
 186              		.cfi_endproc
 187              	.LFE36:
 188              		.size	updateThermostatData, .-updateThermostatData
 189              		.section	.rodata
 190              		.align	2
 191              	.LC8:
 192 0000 2D2D2D2D 		.ascii	"-----------------    comp %d   flow %d   dhigh %d p"
 192      2D2D2D2D 
 192      2D2D2D2D 
 192      2D2D2D2D 
 192      2D202020 
 193 0033 6F776572 		.ascii	"ower %d\012\000"
 193      2025640A 
 193      00
 194              		.section	.text.bleStack,"ax",%progbits
 195              		.align	2
 196              		.global	bleStack
 197              		.code	16
 198              		.thumb_func
 199              		.type	bleStack, %function
 200              	bleStack:
 201              	.LFB37:
 124:main.c        **** 
 125:main.c        **** void bleStack(uint32 event, void *eventParam){
 202              		.loc 1 125 0
 203              		.cfi_startproc
 204              		@ args = 0, pretend = 0, frame = 24
 205              		@ frame_needed = 1, uses_anonymous_args = 0
 206 0000 B0B5     		push	{r4, r5, r7, lr}
 207              		.cfi_def_cfa_offset 16
ARM GAS  C:\Users\sergio\AppData\Local\Temp\ccku3oR8.s 			page 7


 208              		.cfi_offset 4, -16
 209              		.cfi_offset 5, -12
 210              		.cfi_offset 7, -8
 211              		.cfi_offset 14, -4
 212 0002 88B0     		sub	sp, sp, #32
 213              		.cfi_def_cfa_offset 48
 214 0004 02AF     		add	r7, sp, #8
 215              		.cfi_def_cfa 7, 40
 216 0006 7860     		str	r0, [r7, #4]
 217 0008 3960     		str	r1, [r7]
 126:main.c        ****     
 127:main.c        ****     CYBLE_GATTS_WRITE_REQ_PARAM_T wrReq;
 128:main.c        **** 
 129:main.c        ****     
 130:main.c        ****     switch(event){
 218              		.loc 1 130 0
 219 000a 7B68     		ldr	r3, [r7, #4]
 220 000c 282B     		cmp	r3, #40
 221 000e 14D0     		beq	.L6
 222 0010 05D8     		bhi	.L7
 223 0012 262B     		cmp	r3, #38
 224 0014 1BD0     		beq	.L8
 225 0016 0DD8     		bhi	.L9
 226 0018 012B     		cmp	r3, #1
 227 001a 07D0     		beq	.L10
 131:main.c        ****     
 132:main.c        ****      
 133:main.c        ****         case CYBLE_EVT_STACK_ON:
 134:main.c        ****           CyBle_GappStartAdvertisement(CYBLE_ADVERTISING_FAST);
 135:main.c        **** //            if(apiResult != CYBLE_ERROR_OK){
 136:main.c        **** //            // DBG_PRINTF("Start Advertisement API Error: %d \r\n",apiResult);   
 137:main.c        **** //            }
 138:main.c        ****             //DBG_PRINTF("Bluetooth On, StartAdvertisement with addr: ");
 139:main.c        **** //            localAddr.type = 0u;
 140:main.c        **** //            CyBle_GetDeviceAddress(&localAddr);
 141:main.c        **** //            for(uint i = CYBLE_GAP_BD_ADDR_SIZE; i > 0u; i--)
 142:main.c        **** //            {
 143:main.c        **** //                DBG_PRINTF("%2.2x", localAddr.bdAddr[i-1]);
 144:main.c        **** //            }
 145:main.c        **** //            DBG_PRINTF("\r\n");
 146:main.c        ****             break; //(Claudio Modified) Is there a reason why we didn't have a break expression in 
 147:main.c        ****         case CYBLE_EVT_GAP_DEVICE_CONNECTED:
 148:main.c        ****             CyBle_GappStopAdvertisement(); 
 149:main.c        ****             break;
 150:main.c        ****         case CYBLE_EVT_GAP_DEVICE_DISCONNECTED:
 151:main.c        ****             CyBle_GappStartAdvertisement(CYBLE_ADVERTISING_FAST);
 152:main.c        ****             isNotify = 0;
 153:main.c        ****             bleConnected = 0; // test this
 154:main.c        ****             break;
 155:main.c        ****         case CYBLE_EVT_GAPP_ADVERTISEMENT_START_STOP:
 156:main.c        ****              if(CyBle_GetState() == CYBLE_STATE_DISCONNECTED){
 157:main.c        ****                  CyBle_GappStartAdvertisement(CYBLE_SCANNING_FAST);
 158:main.c        ****             }
 159:main.c        ****             break;
 160:main.c        ****         case CYBLE_EVT_GATT_CONNECT_IND:
 161:main.c        ****             bleConnected = 1;
 162:main.c        ****             CyBle_GappStopAdvertisement();
ARM GAS  C:\Users\sergio\AppData\Local\Temp\ccku3oR8.s 			page 8


 163:main.c        ****             break;
 164:main.c        ****         case CYBLE_EVT_GATT_DISCONNECT_IND:
 165:main.c        ****             isNotify = 0;
 166:main.c        ****             bleConnected = 0;
 167:main.c        ****             // Update the notifications CCCD
 168:main.c        ****             updateIsNotifyCCCDAttr = 1;
 169:main.c        ****             
 170:main.c        ****             // update the thermostat array with the thermosstat info.
 171:main.c        ****             // ex. themostat[0] = readSensor();
 172:main.c        ****             // update the data in the thermostat attibute
 173:main.c        ****             updateThermostatData();
 174:main.c        ****             
 175:main.c        ****            break;
 176:main.c        ****         case CYBLE_EVT_GATTS_WRITE_REQ:
 177:main.c        ****             wrReq = *(CYBLE_GATTS_WRITE_REQ_PARAM_T *)eventParam; //CYBLE_DAC_SERVICE_VOLT_VOLTCCCD
 178:main.c        ****            
 179:main.c        ****             // This handle the notifications
 180:main.c        ****             if(wrReq.handleValPair.attrHandle == CYBLE_RVAC_SENSORS_SENSORCCCD_DESC_HANDLE){
 181:main.c        ****                 
 182:main.c        ****                // CyBle_GattsWriteAttributeValue( &wrReq->handleValPair, 0, &connHandle, CYBLE_GATT
 183:main.c        ****                 isNotify = wrReq.handleValPair.value.val[0];//CYBLE_RVAC_SENSOR_SENSORCCCD_DESC_IND
 184:main.c        ****                 
 185:main.c        ****                 updateIsNotifyCCCDAttr = 1;
 186:main.c        ****             }
 187:main.c        ****             
 188:main.c        ****             // This handle data incoming
 189:main.c        ****             if(wrReq.handleValPair.attrHandle == CYBLE_RVAC_THERMOSTAT_CHAR_HANDLE){
 190:main.c        ****             
 191:main.c        ****                 thermo.compressor = wrReq.handleValPair.value.val[0];
 192:main.c        ****                 thermo.fanLow= wrReq.handleValPair.value.val[1];
 193:main.c        ****                 thermo.fanHigh = wrReq.handleValPair.value.val[2];
 194:main.c        ****                 thermo.setTemperature = wrReq.handleValPair.value.val[3];
 195:main.c        ****                 thermo.power = wrReq.handleValPair.value.val[5];
 196:main.c        ****                 thermo.test = wrReq.handleValPair.value.val[6];
 197:main.c        ****                 
 198:main.c        ****                 sprintf(uartStr, "-----------------    comp %d   flow %d   dhigh %d power %d\n", th
 199:main.c        ****                 MyUART_PutString(uartStr);
 200:main.c        ****                // thermostat[0] = thermo.compressor;
 201:main.c        ****                
 202:main.c        ****                 updateThermostatData();
 203:main.c        ****                 
 204:main.c        ****             }
 205:main.c        **** 
 206:main.c        ****             CyBle_GattsWriteRsp(cyBle_connHandle);
 207:main.c        ****             
 208:main.c        ****             break; 
 209:main.c        ****         
 210:main.c        ****      default:
 211:main.c        ****         break;
 228              		.loc 1 211 0
 229 001c 99E0     		b	.L14
 230              	.L7:
 130:main.c        ****     
 231              		.loc 1 130 0
 232 001e 422B     		cmp	r3, #66
 233 0020 24D0     		beq	.L11
 234 0022 4C2B     		cmp	r3, #76
ARM GAS  C:\Users\sergio\AppData\Local\Temp\ccku3oR8.s 			page 9


 235 0024 2ED0     		beq	.L12
 236 0026 412B     		cmp	r3, #65
 237 0028 1AD0     		beq	.L13
 238              		.loc 1 211 0
 239 002a 92E0     		b	.L14
 240              	.L10:
 134:main.c        **** //            if(apiResult != CYBLE_ERROR_OK){
 241              		.loc 1 134 0
 242 002c 0020     		movs	r0, #0
 243 002e FFF7FEFF 		bl	CyBle_GappStartAdvertisement
 146:main.c        ****         case CYBLE_EVT_GAP_DEVICE_CONNECTED:
 244              		.loc 1 146 0
 245 0032 8EE0     		b	.L14
 246              	.L9:
 148:main.c        ****             break;
 247              		.loc 1 148 0
 248 0034 FFF7FEFF 		bl	CyBle_GappStopAdvertisement
 149:main.c        ****         case CYBLE_EVT_GAP_DEVICE_DISCONNECTED:
 249              		.loc 1 149 0
 250 0038 8BE0     		b	.L14
 251              	.L6:
 151:main.c        ****             isNotify = 0;
 252              		.loc 1 151 0
 253 003a 0020     		movs	r0, #0
 254 003c FFF7FEFF 		bl	CyBle_GappStartAdvertisement
 152:main.c        ****             bleConnected = 0; // test this
 255              		.loc 1 152 0
 256 0040 464B     		ldr	r3, .L19
 257 0042 0022     		movs	r2, #0
 258 0044 1A70     		strb	r2, [r3]
 153:main.c        ****             break;
 259              		.loc 1 153 0
 260 0046 464B     		ldr	r3, .L19+4
 261 0048 0022     		movs	r2, #0
 262 004a 1A70     		strb	r2, [r3]
 154:main.c        ****         case CYBLE_EVT_GAPP_ADVERTISEMENT_START_STOP:
 263              		.loc 1 154 0
 264 004c 81E0     		b	.L14
 265              	.L8:
 156:main.c        ****                  CyBle_GappStartAdvertisement(CYBLE_SCANNING_FAST);
 266              		.loc 1 156 0
 267 004e 454B     		ldr	r3, .L19+8
 268 0050 1B78     		ldrb	r3, [r3]
 269 0052 042B     		cmp	r3, #4
 270 0054 00D0     		beq	.LCB142
 271 0056 7BE0     		b	.L18	@long jump
 272              	.LCB142:
 157:main.c        ****             }
 273              		.loc 1 157 0
 274 0058 0020     		movs	r0, #0
 275 005a FFF7FEFF 		bl	CyBle_GappStartAdvertisement
 159:main.c        ****         case CYBLE_EVT_GATT_CONNECT_IND:
 276              		.loc 1 159 0
 277 005e 77E0     		b	.L18
 278              	.L13:
 161:main.c        ****             CyBle_GappStopAdvertisement();
 279              		.loc 1 161 0
ARM GAS  C:\Users\sergio\AppData\Local\Temp\ccku3oR8.s 			page 10


 280 0060 3F4B     		ldr	r3, .L19+4
 281 0062 0122     		movs	r2, #1
 282 0064 1A70     		strb	r2, [r3]
 162:main.c        ****             break;
 283              		.loc 1 162 0
 284 0066 FFF7FEFF 		bl	CyBle_GappStopAdvertisement
 163:main.c        ****         case CYBLE_EVT_GATT_DISCONNECT_IND:
 285              		.loc 1 163 0
 286 006a 72E0     		b	.L14
 287              	.L11:
 165:main.c        ****             bleConnected = 0;
 288              		.loc 1 165 0
 289 006c 3B4B     		ldr	r3, .L19
 290 006e 0022     		movs	r2, #0
 291 0070 1A70     		strb	r2, [r3]
 166:main.c        ****             // Update the notifications CCCD
 292              		.loc 1 166 0
 293 0072 3B4B     		ldr	r3, .L19+4
 294 0074 0022     		movs	r2, #0
 295 0076 1A70     		strb	r2, [r3]
 168:main.c        ****             
 296              		.loc 1 168 0
 297 0078 3B4B     		ldr	r3, .L19+12
 298 007a 0122     		movs	r2, #1
 299 007c 1A70     		strb	r2, [r3]
 173:main.c        ****             
 300              		.loc 1 173 0
 301 007e FFF7FEFF 		bl	updateThermostatData
 175:main.c        ****         case CYBLE_EVT_GATTS_WRITE_REQ:
 302              		.loc 1 175 0
 303 0082 66E0     		b	.L14
 304              	.L12:
 177:main.c        ****            
 305              		.loc 1 177 0
 306 0084 0823     		movs	r3, #8
 307 0086 FB18     		adds	r3, r7, r3
 308 0088 3A68     		ldr	r2, [r7]
 309 008a 13CA     		ldmia	r2!, {r0, r1, r4}
 310 008c 13C3     		stmia	r3!, {r0, r1, r4}
 311 008e 1268     		ldr	r2, [r2]
 312 0090 1A60     		str	r2, [r3]
 180:main.c        ****                 
 313              		.loc 1 180 0
 314 0092 0823     		movs	r3, #8
 315 0094 FB18     		adds	r3, r7, r3
 316 0096 9B89     		ldrh	r3, [r3, #12]
 317 0098 142B     		cmp	r3, #20
 318 009a 08D1     		bne	.L16
 183:main.c        ****                 
 319              		.loc 1 183 0
 320 009c 0823     		movs	r3, #8
 321 009e FB18     		adds	r3, r7, r3
 322 00a0 5B68     		ldr	r3, [r3, #4]
 323 00a2 1A78     		ldrb	r2, [r3]
 324 00a4 2D4B     		ldr	r3, .L19
 325 00a6 1A70     		strb	r2, [r3]
 185:main.c        ****             }
ARM GAS  C:\Users\sergio\AppData\Local\Temp\ccku3oR8.s 			page 11


 326              		.loc 1 185 0
 327 00a8 2F4B     		ldr	r3, .L19+12
 328 00aa 0122     		movs	r2, #1
 329 00ac 1A70     		strb	r2, [r3]
 330              	.L16:
 189:main.c        ****             
 331              		.loc 1 189 0
 332 00ae 0823     		movs	r3, #8
 333 00b0 FB18     		adds	r3, r7, r3
 334 00b2 9B89     		ldrh	r3, [r3, #12]
 335 00b4 162B     		cmp	r3, #22
 336 00b6 3CD1     		bne	.L17
 191:main.c        ****                 thermo.fanLow= wrReq.handleValPair.value.val[1];
 337              		.loc 1 191 0
 338 00b8 0823     		movs	r3, #8
 339 00ba FB18     		adds	r3, r7, r3
 340 00bc 5B68     		ldr	r3, [r3, #4]
 341 00be 1A78     		ldrb	r2, [r3]
 342 00c0 2A4B     		ldr	r3, .L19+16
 343 00c2 1A70     		strb	r2, [r3]
 192:main.c        ****                 thermo.fanHigh = wrReq.handleValPair.value.val[2];
 344              		.loc 1 192 0
 345 00c4 0823     		movs	r3, #8
 346 00c6 FB18     		adds	r3, r7, r3
 347 00c8 5B68     		ldr	r3, [r3, #4]
 348 00ca 5A78     		ldrb	r2, [r3, #1]
 349 00cc 274B     		ldr	r3, .L19+16
 350 00ce 5A70     		strb	r2, [r3, #1]
 193:main.c        ****                 thermo.setTemperature = wrReq.handleValPair.value.val[3];
 351              		.loc 1 193 0
 352 00d0 0823     		movs	r3, #8
 353 00d2 FB18     		adds	r3, r7, r3
 354 00d4 5B68     		ldr	r3, [r3, #4]
 355 00d6 9A78     		ldrb	r2, [r3, #2]
 356 00d8 244B     		ldr	r3, .L19+16
 357 00da 9A70     		strb	r2, [r3, #2]
 194:main.c        ****                 thermo.power = wrReq.handleValPair.value.val[5];
 358              		.loc 1 194 0
 359 00dc 0823     		movs	r3, #8
 360 00de FB18     		adds	r3, r7, r3
 361 00e0 5B68     		ldr	r3, [r3, #4]
 362 00e2 DA78     		ldrb	r2, [r3, #3]
 363 00e4 214B     		ldr	r3, .L19+16
 364 00e6 DA70     		strb	r2, [r3, #3]
 195:main.c        ****                 thermo.test = wrReq.handleValPair.value.val[6];
 365              		.loc 1 195 0
 366 00e8 0823     		movs	r3, #8
 367 00ea FB18     		adds	r3, r7, r3
 368 00ec 5B68     		ldr	r3, [r3, #4]
 369 00ee 5A79     		ldrb	r2, [r3, #5]
 370 00f0 1E4B     		ldr	r3, .L19+16
 371 00f2 5A71     		strb	r2, [r3, #5]
 196:main.c        ****                 
 372              		.loc 1 196 0
 373 00f4 0823     		movs	r3, #8
 374 00f6 FB18     		adds	r3, r7, r3
 375 00f8 5B68     		ldr	r3, [r3, #4]
ARM GAS  C:\Users\sergio\AppData\Local\Temp\ccku3oR8.s 			page 12


 376 00fa 9A79     		ldrb	r2, [r3, #6]
 377 00fc 1B4B     		ldr	r3, .L19+16
 378 00fe 9A71     		strb	r2, [r3, #6]
 198:main.c        ****                 MyUART_PutString(uartStr);
 379              		.loc 1 198 0
 380 0100 1A4B     		ldr	r3, .L19+16
 381 0102 1B78     		ldrb	r3, [r3]
 382 0104 1C00     		movs	r4, r3
 383 0106 194B     		ldr	r3, .L19+16
 384 0108 5B78     		ldrb	r3, [r3, #1]
 385 010a 1D00     		movs	r5, r3
 386 010c 174B     		ldr	r3, .L19+16
 387 010e 9B78     		ldrb	r3, [r3, #2]
 388 0110 1A00     		movs	r2, r3
 389 0112 164B     		ldr	r3, .L19+16
 390 0114 5B79     		ldrb	r3, [r3, #5]
 391 0116 1649     		ldr	r1, .L19+20
 392 0118 1648     		ldr	r0, .L19+24
 393 011a 0193     		str	r3, [sp, #4]
 394 011c 0092     		str	r2, [sp]
 395 011e 2B00     		movs	r3, r5
 396 0120 2200     		movs	r2, r4
 397 0122 FFF7FEFF 		bl	sprintf
 199:main.c        ****                // thermostat[0] = thermo.compressor;
 398              		.loc 1 199 0
 399 0126 134B     		ldr	r3, .L19+24
 400 0128 1800     		movs	r0, r3
 401 012a FFF7FEFF 		bl	MyUART_PutString
 202:main.c        ****                 
 402              		.loc 1 202 0
 403 012e FFF7FEFF 		bl	updateThermostatData
 404              	.L17:
 206:main.c        ****             
 405              		.loc 1 206 0
 406 0132 114B     		ldr	r3, .L19+28
 407 0134 1A78     		ldrb	r2, [r3]
 408 0136 5B78     		ldrb	r3, [r3, #1]
 409 0138 1B02     		lsls	r3, r3, #8
 410 013a 1A43     		orrs	r2, r3
 411 013c 0023     		movs	r3, #0
 412 013e 1204     		lsls	r2, r2, #16
 413 0140 120C     		lsrs	r2, r2, #16
 414 0142 1B0C     		lsrs	r3, r3, #16
 415 0144 1B04     		lsls	r3, r3, #16
 416 0146 1343     		orrs	r3, r2
 417 0148 1800     		movs	r0, r3
 418 014a FFF7FEFF 		bl	CyBle_GattsWriteRsp
 208:main.c        ****         
 419              		.loc 1 208 0
 420 014e 00E0     		b	.L14
 421              	.L18:
 159:main.c        ****         case CYBLE_EVT_GATT_CONNECT_IND:
 422              		.loc 1 159 0
 423 0150 C046     		nop
 424              	.L14:
 212:main.c        ****     }
 213:main.c        ****     
ARM GAS  C:\Users\sergio\AppData\Local\Temp\ccku3oR8.s 			page 13


 214:main.c        **** }
 425              		.loc 1 214 0 discriminator 1
 426 0152 C046     		nop
 427 0154 BD46     		mov	sp, r7
 428 0156 06B0     		add	sp, sp, #24
 429              		@ sp needed
 430 0158 B0BD     		pop	{r4, r5, r7, pc}
 431              	.L20:
 432 015a C046     		.align	2
 433              	.L19:
 434 015c 00000000 		.word	isNotify
 435 0160 00000000 		.word	bleConnected
 436 0164 00000000 		.word	cyBle_state
 437 0168 00000000 		.word	updateIsNotifyCCCDAttr
 438 016c 00000000 		.word	thermo
 439 0170 00000000 		.word	.LC8
 440 0174 00000000 		.word	uartStr
 441 0178 00000000 		.word	cyBle_connHandle
 442              		.cfi_endproc
 443              	.LFE37:
 444              		.size	bleStack, .-bleStack
 445              		.section	.text.send_Error_Power_to_Phone,"ax",%progbits
 446              		.align	2
 447              		.global	send_Error_Power_to_Phone
 448              		.code	16
 449              		.thumb_func
 450              		.type	send_Error_Power_to_Phone, %function
 451              	send_Error_Power_to_Phone:
 452              	.LFB38:
 215:main.c        **** // function to read error data on the phone
 216:main.c        **** void send_Error_Power_to_Phone(){
 453              		.loc 1 216 0
 454              		.cfi_startproc
 455              		@ args = 0, pretend = 0, frame = 24
 456              		@ frame_needed = 1, uses_anonymous_args = 0
 457 0000 80B5     		push	{r7, lr}
 458              		.cfi_def_cfa_offset 8
 459              		.cfi_offset 7, -8
 460              		.cfi_offset 14, -4
 461 0002 86B0     		sub	sp, sp, #24
 462              		.cfi_def_cfa_offset 32
 463 0004 00AF     		add	r7, sp, #0
 464              		.cfi_def_cfa_register 7
 217:main.c        ****     CYBLE_GATT_HANDLE_VALUE_PAIR_T errorRead;
 218:main.c        ****     
 219:main.c        ****     uint8 err[] = {errorPower.err_Comp_volt, errorPower.err_Comp_curr, errorPower.err_LFan_volt,
 465              		.loc 1 219 0
 466 0006 1D4B     		ldr	r3, .L22
 467 0008 1B78     		ldrb	r3, [r3]
 468 000a 5BB2     		sxtb	r3, r3
 469 000c DAB2     		uxtb	r2, r3
 470 000e 3B1D     		adds	r3, r7, #4
 471 0010 1A70     		strb	r2, [r3]
 472 0012 1A4B     		ldr	r3, .L22
 473 0014 5B78     		ldrb	r3, [r3, #1]
 474 0016 5BB2     		sxtb	r3, r3
 475 0018 DAB2     		uxtb	r2, r3
ARM GAS  C:\Users\sergio\AppData\Local\Temp\ccku3oR8.s 			page 14


 476 001a 3B1D     		adds	r3, r7, #4
 477 001c 5A70     		strb	r2, [r3, #1]
 478 001e 174B     		ldr	r3, .L22
 479 0020 9B78     		ldrb	r3, [r3, #2]
 480 0022 5BB2     		sxtb	r3, r3
 481 0024 DAB2     		uxtb	r2, r3
 482 0026 3B1D     		adds	r3, r7, #4
 483 0028 9A70     		strb	r2, [r3, #2]
 220:main.c        ****         errorPower.err_LFan_curr, errorPower.err_HFan_volt, errorPower.err_HFan_curr};
 484              		.loc 1 220 0
 485 002a 144B     		ldr	r3, .L22
 486 002c DB78     		ldrb	r3, [r3, #3]
 487 002e 5BB2     		sxtb	r3, r3
 219:main.c        ****         errorPower.err_LFan_curr, errorPower.err_HFan_volt, errorPower.err_HFan_curr};
 488              		.loc 1 219 0
 489 0030 DAB2     		uxtb	r2, r3
 490 0032 3B1D     		adds	r3, r7, #4
 491 0034 DA70     		strb	r2, [r3, #3]
 492              		.loc 1 220 0
 493 0036 114B     		ldr	r3, .L22
 494 0038 1B79     		ldrb	r3, [r3, #4]
 495 003a 5BB2     		sxtb	r3, r3
 219:main.c        ****         errorPower.err_LFan_curr, errorPower.err_HFan_volt, errorPower.err_HFan_curr};
 496              		.loc 1 219 0
 497 003c DAB2     		uxtb	r2, r3
 498 003e 3B1D     		adds	r3, r7, #4
 499 0040 1A71     		strb	r2, [r3, #4]
 500              		.loc 1 220 0
 501 0042 0E4B     		ldr	r3, .L22
 502 0044 5B79     		ldrb	r3, [r3, #5]
 503 0046 5BB2     		sxtb	r3, r3
 219:main.c        ****         errorPower.err_LFan_curr, errorPower.err_HFan_volt, errorPower.err_HFan_curr};
 504              		.loc 1 219 0
 505 0048 DAB2     		uxtb	r2, r3
 506 004a 3B1D     		adds	r3, r7, #4
 507 004c 5A71     		strb	r2, [r3, #5]
 221:main.c        ****     
 222:main.c        ****     errorRead.attrHandle = CYBLE_RVAC_ERROR_CODES_CHAR_HANDLE;
 508              		.loc 1 222 0
 509 004e 0C23     		movs	r3, #12
 510 0050 FB18     		adds	r3, r7, r3
 511 0052 1A22     		movs	r2, #26
 512 0054 1A81     		strh	r2, [r3, #8]
 223:main.c        ****     errorRead.value.val = (uint8 *) &err;
 513              		.loc 1 223 0
 514 0056 0C23     		movs	r3, #12
 515 0058 FB18     		adds	r3, r7, r3
 516 005a 3A1D     		adds	r2, r7, #4
 517 005c 1A60     		str	r2, [r3]
 224:main.c        ****     errorRead.value.len = 6;
 518              		.loc 1 224 0
 519 005e 0C23     		movs	r3, #12
 520 0060 FB18     		adds	r3, r7, r3
 521 0062 0622     		movs	r2, #6
 522 0064 9A80     		strh	r2, [r3, #4]
 225:main.c        ****     
 226:main.c        ****     CyBle_GattsWriteAttributeValue(&errorRead, 0, &cyBle_connHandle, CYBLE_GATT_DB_PEER_INITIATED);
ARM GAS  C:\Users\sergio\AppData\Local\Temp\ccku3oR8.s 			page 15


 523              		.loc 1 226 0
 524 0066 064A     		ldr	r2, .L22+4
 525 0068 0C23     		movs	r3, #12
 526 006a F818     		adds	r0, r7, r3
 527 006c 4023     		movs	r3, #64
 528 006e 0021     		movs	r1, #0
 529 0070 FFF7FEFF 		bl	CyBle_GattsWriteAttributeValue
 227:main.c        **** }
 530              		.loc 1 227 0
 531 0074 C046     		nop
 532 0076 BD46     		mov	sp, r7
 533 0078 06B0     		add	sp, sp, #24
 534              		@ sp needed
 535 007a 80BD     		pop	{r7, pc}
 536              	.L23:
 537              		.align	2
 538              	.L22:
 539 007c 00000000 		.word	errorPower
 540 0080 00000000 		.word	cyBle_connHandle
 541              		.cfi_endproc
 542              	.LFE38:
 543              		.size	send_Error_Power_to_Phone, .-send_Error_Power_to_Phone
 544              		.section	.text.send_Thermo_to_phone,"ax",%progbits
 545              		.align	2
 546              		.global	send_Thermo_to_phone
 547              		.code	16
 548              		.thumb_func
 549              		.type	send_Thermo_to_phone, %function
 550              	send_Thermo_to_phone:
 551              	.LFB39:
 228:main.c        **** 
 229:main.c        **** // function to read thermostat data on the phone
 230:main.c        **** void send_Thermo_to_phone(){
 552              		.loc 1 230 0
 553              		.cfi_startproc
 554              		@ args = 0, pretend = 0, frame = 24
 555              		@ frame_needed = 1, uses_anonymous_args = 0
 556 0000 80B5     		push	{r7, lr}
 557              		.cfi_def_cfa_offset 8
 558              		.cfi_offset 7, -8
 559              		.cfi_offset 14, -4
 560 0002 86B0     		sub	sp, sp, #24
 561              		.cfi_def_cfa_offset 32
 562 0004 00AF     		add	r7, sp, #0
 563              		.cfi_def_cfa_register 7
 231:main.c        ****     CYBLE_GATT_HANDLE_VALUE_PAIR_T thermoRead;
 232:main.c        ****     
 233:main.c        ****     uint8 readThermo[7]; 
 234:main.c        ****     readThermo[0] = thermo.compressor;
 564              		.loc 1 234 0
 565 0006 194B     		ldr	r3, .L25
 566 0008 1A78     		ldrb	r2, [r3]
 567 000a 3B1D     		adds	r3, r7, #4
 568 000c 1A70     		strb	r2, [r3]
 235:main.c        ****     readThermo[1] = thermo.fanLow;
 569              		.loc 1 235 0
 570 000e 174B     		ldr	r3, .L25
ARM GAS  C:\Users\sergio\AppData\Local\Temp\ccku3oR8.s 			page 16


 571 0010 5A78     		ldrb	r2, [r3, #1]
 572 0012 3B1D     		adds	r3, r7, #4
 573 0014 5A70     		strb	r2, [r3, #1]
 236:main.c        ****     readThermo[2] = thermo.fanHigh;
 574              		.loc 1 236 0
 575 0016 154B     		ldr	r3, .L25
 576 0018 9A78     		ldrb	r2, [r3, #2]
 577 001a 3B1D     		adds	r3, r7, #4
 578 001c 9A70     		strb	r2, [r3, #2]
 237:main.c        ****     readThermo[3] = thermo.setTemperature;
 579              		.loc 1 237 0
 580 001e 134B     		ldr	r3, .L25
 581 0020 DA78     		ldrb	r2, [r3, #3]
 582 0022 3B1D     		adds	r3, r7, #4
 583 0024 DA70     		strb	r2, [r3, #3]
 238:main.c        ****     readThermo[4] = thermo.ambientTemp;
 584              		.loc 1 238 0
 585 0026 114B     		ldr	r3, .L25
 586 0028 1A79     		ldrb	r2, [r3, #4]
 587 002a 3B1D     		adds	r3, r7, #4
 588 002c 1A71     		strb	r2, [r3, #4]
 239:main.c        ****     readThermo[5] = thermo.power;
 589              		.loc 1 239 0
 590 002e 0F4B     		ldr	r3, .L25
 591 0030 5A79     		ldrb	r2, [r3, #5]
 592 0032 3B1D     		adds	r3, r7, #4
 593 0034 5A71     		strb	r2, [r3, #5]
 240:main.c        ****     readThermo[6] = thermo.test;
 594              		.loc 1 240 0
 595 0036 0D4B     		ldr	r3, .L25
 596 0038 9A79     		ldrb	r2, [r3, #6]
 597 003a 3B1D     		adds	r3, r7, #4
 598 003c 9A71     		strb	r2, [r3, #6]
 241:main.c        ****    
 242:main.c        ****     
 243:main.c        ****      thermoRead.attrHandle = CYBLE_RVAC_THERMOSTAT_CHAR_HANDLE;
 599              		.loc 1 243 0
 600 003e 0C23     		movs	r3, #12
 601 0040 FB18     		adds	r3, r7, r3
 602 0042 1622     		movs	r2, #22
 603 0044 1A81     		strh	r2, [r3, #8]
 244:main.c        ****         thermoRead.value.val = (uint8 *) &readThermo;
 604              		.loc 1 244 0
 605 0046 0C23     		movs	r3, #12
 606 0048 FB18     		adds	r3, r7, r3
 607 004a 3A1D     		adds	r2, r7, #4
 608 004c 1A60     		str	r2, [r3]
 245:main.c        ****         thermoRead.value.len = 7;
 609              		.loc 1 245 0
 610 004e 0C23     		movs	r3, #12
 611 0050 FB18     		adds	r3, r7, r3
 612 0052 0722     		movs	r2, #7
 613 0054 9A80     		strh	r2, [r3, #4]
 246:main.c        ****     
 247:main.c        ****    CyBle_GattsWriteAttributeValue(&thermoRead, 0, &cyBle_connHandle, CYBLE_GATT_DB_PEER_INITIATED);
 614              		.loc 1 247 0
 615 0056 064A     		ldr	r2, .L25+4
ARM GAS  C:\Users\sergio\AppData\Local\Temp\ccku3oR8.s 			page 17


 616 0058 0C23     		movs	r3, #12
 617 005a F818     		adds	r0, r7, r3
 618 005c 4023     		movs	r3, #64
 619 005e 0021     		movs	r1, #0
 620 0060 FFF7FEFF 		bl	CyBle_GattsWriteAttributeValue
 248:main.c        **** }
 621              		.loc 1 248 0
 622 0064 C046     		nop
 623 0066 BD46     		mov	sp, r7
 624 0068 06B0     		add	sp, sp, #24
 625              		@ sp needed
 626 006a 80BD     		pop	{r7, pc}
 627              	.L26:
 628              		.align	2
 629              	.L25:
 630 006c 00000000 		.word	thermo
 631 0070 00000000 		.word	cyBle_connHandle
 632              		.cfi_endproc
 633              	.LFE39:
 634              		.size	send_Thermo_to_phone, .-send_Thermo_to_phone
 635              		.section	.text.SendDataNotify,"ax",%progbits
 636              		.align	2
 637              		.global	SendDataNotify
 638              		.code	16
 639              		.thumb_func
 640              		.type	SendDataNotify, %function
 641              	SendDataNotify:
 642              	.LFB40:
 249:main.c        **** 
 250:main.c        **** void SendDataNotify( ){
 643              		.loc 1 250 0
 644              		.cfi_startproc
 645              		@ args = 0, pretend = 0, frame = 48
 646              		@ frame_needed = 1, uses_anonymous_args = 0
 647 0000 80B5     		push	{r7, lr}
 648              		.cfi_def_cfa_offset 8
 649              		.cfi_offset 7, -8
 650              		.cfi_offset 14, -4
 651 0002 8CB0     		sub	sp, sp, #48
 652              		.cfi_def_cfa_offset 56
 653 0004 00AF     		add	r7, sp, #0
 654              		.cfi_def_cfa_register 7
 251:main.c        ****     CYBLE_GATTS_HANDLE_VALUE_NTF_T notiHandle;
 252:main.c        ****     
 253:main.c        ****     uint8 dataForBLE[34];
 254:main.c        ****     dataForBLE[0] = sensorData.localTemp;  
 655              		.loc 1 254 0
 656 0006 254B     		ldr	r3, .L28
 657 0008 1A78     		ldrb	r2, [r3]
 658 000a 3B00     		movs	r3, r7
 659 000c 1A70     		strb	r2, [r3]
 255:main.c        ****     dataForBLE[1] = sensorData.humidity;  
 660              		.loc 1 255 0
 661 000e 234B     		ldr	r3, .L28
 662 0010 5A78     		ldrb	r2, [r3, #1]
 663 0012 3B00     		movs	r3, r7
 664 0014 5A70     		strb	r2, [r3, #1]
ARM GAS  C:\Users\sergio\AppData\Local\Temp\ccku3oR8.s 			page 18


 256:main.c        ****     dataForBLE[2] = sensorData.remoteTemp1;
 665              		.loc 1 256 0
 666 0016 214B     		ldr	r3, .L28
 667 0018 9A78     		ldrb	r2, [r3, #2]
 668 001a 3B00     		movs	r3, r7
 669 001c 9A70     		strb	r2, [r3, #2]
 257:main.c        ****      dataForBLE[3] = sensorData.remoteTemp2;
 670              		.loc 1 257 0
 671 001e 1F4B     		ldr	r3, .L28
 672 0020 DA78     		ldrb	r2, [r3, #3]
 673 0022 3B00     		movs	r3, r7
 674 0024 DA70     		strb	r2, [r3, #3]
 258:main.c        ****          dataForBLE[4] = sensorData.remoteTemp3;  
 675              		.loc 1 258 0
 676 0026 1D4B     		ldr	r3, .L28
 677 0028 1A79     		ldrb	r2, [r3, #4]
 678 002a 3B00     		movs	r3, r7
 679 002c 1A71     		strb	r2, [r3, #4]
 259:main.c        ****         dataForBLE[5] =  sensorData.remoteTemp4;
 680              		.loc 1 259 0
 681 002e 1B4B     		ldr	r3, .L28
 682 0030 5A79     		ldrb	r2, [r3, #5]
 683 0032 3B00     		movs	r3, r7
 684 0034 5A71     		strb	r2, [r3, #5]
 260:main.c        **** //        dataForBLE[6] =  (sensorData.voltCompressor/10); 
 261:main.c        **** //        dataForBLE[7] =  (sensorData.voltCompressor%10);
 262:main.c        **** //         dataForBLE[8] = (sensorData.voltFan/10);  
 263:main.c        **** //        dataForBLE[9] = (sensorData.voltFan%10);
 264:main.c        **** //         dataForBLE[10] = (sensorData.volt/10);
 265:main.c        **** //        dataForBLE[11] =  (sensorData.volt%10);
 266:main.c        **** //        dataForBLE[12] =  (sensorData.currentCompressor/1000);
 267:main.c        **** //         dataForBLE[13] = (sensorData.currentCompressor/100);
 268:main.c        **** //        
 269:main.c        **** //         dataForBLE[14] = (sensorData.currentCompressor/10);
 270:main.c        **** //         dataForBLE[15] = (sensorData.currentCompressor%10);
 271:main.c        **** //         dataForBLE[16] = (sensorData.currentFan/1000);
 272:main.c        **** //         dataForBLE[17] = (sensorData.currentFan/100);
 273:main.c        **** //         dataForBLE[18] = (sensorData.currentFan/10);
 274:main.c        **** //         dataForBLE[19] = (sensorData.currentFan%10);
 275:main.c        **** //         dataForBLE[0] = (sensorData.current/1000);
 276:main.c        **** //         dataForBLE[21] = (sensorData.current/100);
 277:main.c        **** //         dataForBLE[22] = (sensorData.current/10);
 278:main.c        **** //        
 279:main.c        **** //         dataForBLE[23] = (sensorData.current%10);
 280:main.c        **** //         dataForBLE[24] = (sensorData.lineFreqComp/10);
 281:main.c        **** //         dataForBLE[25] = (sensorData.lineFreqComp%10);
 282:main.c        **** //         dataForBLE[26] = (sensorData.lineFreqFan/10);
 283:main.c        **** //        
 284:main.c        **** //         dataForBLE[27] = (sensorData.lineFreqFan%10);
 285:main.c        **** //         dataForBLE[28] = (sensorData.lineFreq/10);
 286:main.c        **** //         dataForBLE[29] = (sensorData.lineFreq%10);
 287:main.c        ****          dataForBLE[6] = sensorData.accX;
 685              		.loc 1 287 0
 686 0036 194B     		ldr	r3, .L28
 687 0038 9A7F     		ldrb	r2, [r3, #30]
 688 003a 3B00     		movs	r3, r7
 689 003c 9A71     		strb	r2, [r3, #6]
ARM GAS  C:\Users\sergio\AppData\Local\Temp\ccku3oR8.s 			page 19


 288:main.c        ****          dataForBLE[7] = sensorData.accY; 
 690              		.loc 1 288 0
 691 003e 174B     		ldr	r3, .L28
 692 0040 DA7F     		ldrb	r2, [r3, #31]
 693 0042 3B00     		movs	r3, r7
 694 0044 DA71     		strb	r2, [r3, #7]
 289:main.c        ****          dataForBLE[8] = sensorData.accZ;
 695              		.loc 1 289 0
 696 0046 154B     		ldr	r3, .L28
 697 0048 2022     		movs	r2, #32
 698 004a 9A5C     		ldrb	r2, [r3, r2]
 699 004c 3B00     		movs	r3, r7
 700 004e 1A72     		strb	r2, [r3, #8]
 290:main.c        ****          dataForBLE[9] = sensorData.airFlow;
 701              		.loc 1 290 0
 702 0050 124B     		ldr	r3, .L28
 703 0052 5B8C     		ldrh	r3, [r3, #34]
 704 0054 DAB2     		uxtb	r2, r3
 705 0056 3B00     		movs	r3, r7
 706 0058 5A72     		strb	r2, [r3, #9]
 291:main.c        ****     
 292:main.c        ****     
 293:main.c        **** 
 294:main.c        ****      notiHandle.attrHandle = CYBLE_RVAC_SENSORS_CHAR_HANDLE;
 707              		.loc 1 294 0
 708 005a 2423     		movs	r3, #36
 709 005c FB18     		adds	r3, r7, r3
 710 005e 1222     		movs	r2, #18
 711 0060 1A81     		strh	r2, [r3, #8]
 295:main.c        ****      notiHandle.value.val = (uint8 *) &dataForBLE;     //(uint8 *) dataForBLE; // collectedData; //
 712              		.loc 1 295 0
 713 0062 2423     		movs	r3, #36
 714 0064 FB18     		adds	r3, r7, r3
 715 0066 3A00     		movs	r2, r7
 716 0068 1A60     		str	r2, [r3]
 296:main.c        ****      notiHandle.value.len = 10;
 717              		.loc 1 296 0
 718 006a 2423     		movs	r3, #36
 719 006c FB18     		adds	r3, r7, r3
 720 006e 0A22     		movs	r2, #10
 721 0070 9A80     		strh	r2, [r3, #4]
 297:main.c        ****         
 298:main.c        ****         CyBle_GattsNotification(cyBle_connHandle, &notiHandle);
 722              		.loc 1 298 0
 723 0072 2423     		movs	r3, #36
 724 0074 F918     		adds	r1, r7, r3
 725 0076 0A4B     		ldr	r3, .L28+4
 726 0078 1A78     		ldrb	r2, [r3]
 727 007a 5B78     		ldrb	r3, [r3, #1]
 728 007c 1B02     		lsls	r3, r3, #8
 729 007e 1A43     		orrs	r2, r3
 730 0080 0023     		movs	r3, #0
 731 0082 1204     		lsls	r2, r2, #16
 732 0084 120C     		lsrs	r2, r2, #16
 733 0086 1B0C     		lsrs	r3, r3, #16
 734 0088 1B04     		lsls	r3, r3, #16
 735 008a 1343     		orrs	r3, r2
ARM GAS  C:\Users\sergio\AppData\Local\Temp\ccku3oR8.s 			page 20


 736 008c 1800     		movs	r0, r3
 737 008e FFF7FEFF 		bl	CyBle_GattsNotification
 299:main.c        **** 
 300:main.c        **** }
 738              		.loc 1 300 0
 739 0092 C046     		nop
 740 0094 BD46     		mov	sp, r7
 741 0096 0CB0     		add	sp, sp, #48
 742              		@ sp needed
 743 0098 80BD     		pop	{r7, pc}
 744              	.L29:
 745 009a C046     		.align	2
 746              	.L28:
 747 009c 00000000 		.word	sensorData
 748 00a0 00000000 		.word	cyBle_connHandle
 749              		.cfi_endproc
 750              	.LFE40:
 751              		.size	SendDataNotify, .-SendDataNotify
 752              		.section	.text.updateNotificationCCCD,"ax",%progbits
 753              		.align	2
 754              		.global	updateNotificationCCCD
 755              		.code	16
 756              		.thumb_func
 757              		.type	updateNotificationCCCD, %function
 758              	updateNotificationCCCD:
 759              	.LFB41:
 301:main.c        **** 
 302:main.c        **** void updateNotificationCCCD(void){
 760              		.loc 1 302 0
 761              		.cfi_startproc
 762              		@ args = 0, pretend = 0, frame = 16
 763              		@ frame_needed = 1, uses_anonymous_args = 0
 764 0000 80B5     		push	{r7, lr}
 765              		.cfi_def_cfa_offset 8
 766              		.cfi_offset 7, -8
 767              		.cfi_offset 14, -4
 768 0002 84B0     		sub	sp, sp, #16
 769              		.cfi_def_cfa_offset 24
 770 0004 00AF     		add	r7, sp, #0
 771              		.cfi_def_cfa_register 7
 303:main.c        ****     CYBLE_GATT_HANDLE_VALUE_PAIR_T sensorNotCCCDHandle;
 304:main.c        ****     
 305:main.c        ****     uint8 sensorCCCDVal[2];
 306:main.c        ****     
 307:main.c        ****     if(updateIsNotifyCCCDAttr == 1){
 772              		.loc 1 307 0
 773 0006 114B     		ldr	r3, .L33
 774 0008 1B78     		ldrb	r3, [r3]
 775 000a 012B     		cmp	r3, #1
 776 000c 1AD1     		bne	.L32
 308:main.c        ****         
 309:main.c        ****      updateIsNotifyCCCDAttr = 0;
 777              		.loc 1 309 0
 778 000e 0F4B     		ldr	r3, .L33
 779 0010 0022     		movs	r2, #0
 780 0012 1A70     		strb	r2, [r3]
 310:main.c        ****         sensorCCCDVal[0] = isNotify;
ARM GAS  C:\Users\sergio\AppData\Local\Temp\ccku3oR8.s 			page 21


 781              		.loc 1 310 0
 782 0014 0E4B     		ldr	r3, .L33+4
 783 0016 1A78     		ldrb	r2, [r3]
 784 0018 3B00     		movs	r3, r7
 785 001a 1A70     		strb	r2, [r3]
 311:main.c        ****         sensorCCCDVal[1] = 0x00;
 786              		.loc 1 311 0
 787 001c 3B00     		movs	r3, r7
 788 001e 0022     		movs	r2, #0
 789 0020 5A70     		strb	r2, [r3, #1]
 312:main.c        ****         
 313:main.c        ****         sensorNotCCCDHandle.attrHandle = CYBLE_RVAC_SENSORS_SENSORCCCD_DESC_HANDLE;
 790              		.loc 1 313 0
 791 0022 3B1D     		adds	r3, r7, #4
 792 0024 1422     		movs	r2, #20
 793 0026 1A81     		strh	r2, [r3, #8]
 314:main.c        ****         sensorNotCCCDHandle.value.val = sensorCCCDVal;
 794              		.loc 1 314 0
 795 0028 3B1D     		adds	r3, r7, #4
 796 002a 3A00     		movs	r2, r7
 797 002c 1A60     		str	r2, [r3]
 315:main.c        ****         sensorNotCCCDHandle.value.len = 2;
 798              		.loc 1 315 0
 799 002e 3B1D     		adds	r3, r7, #4
 800 0030 0222     		movs	r2, #2
 801 0032 9A80     		strh	r2, [r3, #4]
 316:main.c        ****         
 317:main.c        ****         CyBle_GattsWriteAttributeValue(&sensorNotCCCDHandle, 0, &cyBle_connHandle, CYBLE_GATT_DB_PE
 802              		.loc 1 317 0
 803 0034 074A     		ldr	r2, .L33+8
 804 0036 381D     		adds	r0, r7, #4
 805 0038 4023     		movs	r3, #64
 806 003a 0021     		movs	r1, #0
 807 003c FFF7FEFF 		bl	CyBle_GattsWriteAttributeValue
 318:main.c        ****         CyBle_ProcessEvents();
 808              		.loc 1 318 0
 809 0040 FFF7FEFF 		bl	CyBle_ProcessEvents
 810              	.L32:
 319:main.c        ****     }
 320:main.c        **** }
 811              		.loc 1 320 0
 812 0044 C046     		nop
 813 0046 BD46     		mov	sp, r7
 814 0048 04B0     		add	sp, sp, #16
 815              		@ sp needed
 816 004a 80BD     		pop	{r7, pc}
 817              	.L34:
 818              		.align	2
 819              	.L33:
 820 004c 00000000 		.word	updateIsNotifyCCCDAttr
 821 0050 00000000 		.word	isNotify
 822 0054 00000000 		.word	cyBle_connHandle
 823              		.cfi_endproc
 824              	.LFE41:
 825              		.size	updateNotificationCCCD, .-updateNotificationCCCD
 826              		.section	.text.initialized_input_gpioExp,"ax",%progbits
 827              		.align	2
ARM GAS  C:\Users\sergio\AppData\Local\Temp\ccku3oR8.s 			page 22


 828              		.global	initialized_input_gpioExp
 829              		.code	16
 830              		.thumb_func
 831              		.type	initialized_input_gpioExp, %function
 832              	initialized_input_gpioExp:
 833              	.LFB42:
 321:main.c        **** 
 322:main.c        **** 
 323:main.c        **** void initialized_input_gpioExp(){
 834              		.loc 1 323 0
 835              		.cfi_startproc
 836              		@ args = 0, pretend = 0, frame = 0
 837              		@ frame_needed = 1, uses_anonymous_args = 0
 838 0000 80B5     		push	{r7, lr}
 839              		.cfi_def_cfa_offset 8
 840              		.cfi_offset 7, -8
 841              		.cfi_offset 14, -4
 842 0002 00AF     		add	r7, sp, #0
 843              		.cfi_def_cfa_register 7
 324:main.c        ****    I2C_1_I2CMasterSendStart(ADDR,I2C_1_I2C_WRITE_XFER_MODE, 100u);
 844              		.loc 1 324 0
 845 0004 6422     		movs	r2, #100
 846 0006 0021     		movs	r1, #0
 847 0008 7020     		movs	r0, #112
 848 000a FFF7FEFF 		bl	I2C_1_I2CMasterSendStart
 325:main.c        ****    I2C_1_I2CMasterWriteByte(REG_CONFIG, 100u);
 849              		.loc 1 325 0
 850 000e 6421     		movs	r1, #100
 851 0010 0320     		movs	r0, #3
 852 0012 FFF7FEFF 		bl	I2C_1_I2CMasterWriteByte
 326:main.c        ****    I2C_1_I2CMasterWriteByte(0xFF, 100u);
 853              		.loc 1 326 0
 854 0016 6421     		movs	r1, #100
 855 0018 FF20     		movs	r0, #255
 856 001a FFF7FEFF 		bl	I2C_1_I2CMasterWriteByte
 327:main.c        ****    I2C_1_I2CMasterSendStop(100u);
 857              		.loc 1 327 0
 858 001e 6420     		movs	r0, #100
 859 0020 FFF7FEFF 		bl	I2C_1_I2CMasterSendStop
 328:main.c        ****     //I2C_1_Sleep();
 329:main.c        ****     //I2C_1_Wakeup();
 330:main.c        **** 
 331:main.c        **** }
 860              		.loc 1 331 0
 861 0024 C046     		nop
 862 0026 BD46     		mov	sp, r7
 863              		@ sp needed
 864 0028 80BD     		pop	{r7, pc}
 865              		.cfi_endproc
 866              	.LFE42:
 867              		.size	initialized_input_gpioExp, .-initialized_input_gpioExp
 868 002a C046     		.section	.text.read_thermostat_pins,"ax",%progbits
 869              		.align	2
 870              		.global	read_thermostat_pins
 871              		.code	16
 872              		.thumb_func
 873              		.type	read_thermostat_pins, %function
ARM GAS  C:\Users\sergio\AppData\Local\Temp\ccku3oR8.s 			page 23


 874              	read_thermostat_pins:
 875              	.LFB43:
 332:main.c        **** 
 333:main.c        **** uint8 read_thermostat_pins(){
 876              		.loc 1 333 0
 877              		.cfi_startproc
 878              		@ args = 0, pretend = 0, frame = 8
 879              		@ frame_needed = 1, uses_anonymous_args = 0
 880 0000 80B5     		push	{r7, lr}
 881              		.cfi_def_cfa_offset 8
 882              		.cfi_offset 7, -8
 883              		.cfi_offset 14, -4
 884 0002 82B0     		sub	sp, sp, #8
 885              		.cfi_def_cfa_offset 16
 886 0004 00AF     		add	r7, sp, #0
 887              		.cfi_def_cfa_register 7
 334:main.c        ****    
 335:main.c        ****     uint8 pins = 0u;
 888              		.loc 1 335 0
 889 0006 FB1D     		adds	r3, r7, #7
 890 0008 0022     		movs	r2, #0
 891 000a 1A70     		strb	r2, [r3]
 336:main.c        **** 
 337:main.c        ****    I2C_1_I2CMasterSendStart(ADDR, I2C_1_I2C_WRITE_XFER_MODE, 0u);
 892              		.loc 1 337 0
 893 000c 0022     		movs	r2, #0
 894 000e 0021     		movs	r1, #0
 895 0010 7020     		movs	r0, #112
 896 0012 FFF7FEFF 		bl	I2C_1_I2CMasterSendStart
 338:main.c        ****    I2C_1_I2CMasterWriteByte(REG_READ, 0u);
 897              		.loc 1 338 0
 898 0016 0021     		movs	r1, #0
 899 0018 0020     		movs	r0, #0
 900 001a FFF7FEFF 		bl	I2C_1_I2CMasterWriteByte
 339:main.c        ****    I2C_1_I2CMasterSendRestart(ADDR,I2C_1_I2C_READ_XFER_MODE, 0u);
 901              		.loc 1 339 0
 902 001e 0022     		movs	r2, #0
 903 0020 0121     		movs	r1, #1
 904 0022 7020     		movs	r0, #112
 905 0024 FFF7FEFF 		bl	I2C_1_I2CMasterSendRestart
 340:main.c        ****    I2C_1_I2CMasterReadByte(I2C_1_I2C_NAK_DATA,(uint8 *) &pins,0u);
 906              		.loc 1 340 0
 907 0028 FB1D     		adds	r3, r7, #7
 908 002a 0022     		movs	r2, #0
 909 002c 1900     		movs	r1, r3
 910 002e 0120     		movs	r0, #1
 911 0030 FFF7FEFF 		bl	I2C_1_I2CMasterReadByte
 341:main.c        ****    I2C_1_I2CMasterSendStop(0u);
 912              		.loc 1 341 0
 913 0034 0020     		movs	r0, #0
 914 0036 FFF7FEFF 		bl	I2C_1_I2CMasterSendStop
 342:main.c        ****     
 343:main.c        ****     return pins;
 915              		.loc 1 343 0
 916 003a FB1D     		adds	r3, r7, #7
 917 003c 1B78     		ldrb	r3, [r3]
 344:main.c        **** }
ARM GAS  C:\Users\sergio\AppData\Local\Temp\ccku3oR8.s 			page 24


 918              		.loc 1 344 0
 919 003e 1800     		movs	r0, r3
 920 0040 BD46     		mov	sp, r7
 921 0042 02B0     		add	sp, sp, #8
 922              		@ sp needed
 923 0044 80BD     		pop	{r7, pc}
 924              		.cfi_endproc
 925              	.LFE43:
 926              		.size	read_thermostat_pins, .-read_thermostat_pins
 927 0046 C046     		.section	.text.configure_temperature_sensor2,"ax",%progbits
 928              		.align	2
 929              		.global	configure_temperature_sensor2
 930              		.code	16
 931              		.thumb_func
 932              		.type	configure_temperature_sensor2, %function
 933              	configure_temperature_sensor2:
 934              	.LFB44:
 345:main.c        **** 
 346:main.c        **** void configure_temperature_sensor2(){
 935              		.loc 1 346 0
 936              		.cfi_startproc
 937              		@ args = 0, pretend = 0, frame = 0
 938              		@ frame_needed = 1, uses_anonymous_args = 0
 939 0000 80B5     		push	{r7, lr}
 940              		.cfi_def_cfa_offset 8
 941              		.cfi_offset 7, -8
 942              		.cfi_offset 14, -4
 943 0002 00AF     		add	r7, sp, #0
 944              		.cfi_def_cfa_register 7
 347:main.c        ****         // Config register 1
 348:main.c        ****    I2C_1_I2CMasterSendStart(0x4C, I2C_1_I2C_WRITE_XFER_MODE, 100u);
 945              		.loc 1 348 0
 946 0004 6422     		movs	r2, #100
 947 0006 0021     		movs	r1, #0
 948 0008 4C20     		movs	r0, #76
 949 000a FFF7FEFF 		bl	I2C_1_I2CMasterSendStart
 349:main.c        ****    I2C_1_I2CMasterWriteByte(0x09, 100u);
 950              		.loc 1 349 0
 951 000e 6421     		movs	r1, #100
 952 0010 0920     		movs	r0, #9
 953 0012 FFF7FEFF 		bl	I2C_1_I2CMasterWriteByte
 350:main.c        ****    I2C_1_I2CMasterWriteByte(0x84, 100u);
 954              		.loc 1 350 0
 955 0016 6421     		movs	r1, #100
 956 0018 8420     		movs	r0, #132
 957 001a FFF7FEFF 		bl	I2C_1_I2CMasterWriteByte
 351:main.c        ****    I2C_1_I2CMasterSendStop(100u);
 958              		.loc 1 351 0
 959 001e 6420     		movs	r0, #100
 960 0020 FFF7FEFF 		bl	I2C_1_I2CMasterSendStop
 352:main.c        ****    //Config register 2
 353:main.c        ****    I2C_1_I2CMasterSendStart(0x4C, I2C_1_I2C_WRITE_XFER_MODE, 100u);
 961              		.loc 1 353 0
 962 0024 6422     		movs	r2, #100
 963 0026 0021     		movs	r1, #0
 964 0028 4C20     		movs	r0, #76
 965 002a FFF7FEFF 		bl	I2C_1_I2CMasterSendStart
ARM GAS  C:\Users\sergio\AppData\Local\Temp\ccku3oR8.s 			page 25


 354:main.c        ****    I2C_1_I2CMasterWriteByte(0x3F, 100u);
 966              		.loc 1 354 0
 967 002e 6421     		movs	r1, #100
 968 0030 3F20     		movs	r0, #63
 969 0032 FFF7FEFF 		bl	I2C_1_I2CMasterWriteByte
 355:main.c        ****    I2C_1_I2CMasterWriteByte(0x3C, 100u);
 970              		.loc 1 355 0
 971 0036 6421     		movs	r1, #100
 972 0038 3C20     		movs	r0, #60
 973 003a FFF7FEFF 		bl	I2C_1_I2CMasterWriteByte
 356:main.c        ****    I2C_1_I2CMasterSendStop(100u);   
 974              		.loc 1 356 0
 975 003e 6420     		movs	r0, #100
 976 0040 FFF7FEFF 		bl	I2C_1_I2CMasterSendStop
 357:main.c        **** }
 977              		.loc 1 357 0
 978 0044 C046     		nop
 979 0046 BD46     		mov	sp, r7
 980              		@ sp needed
 981 0048 80BD     		pop	{r7, pc}
 982              		.cfi_endproc
 983              	.LFE44:
 984              		.size	configure_temperature_sensor2, .-configure_temperature_sensor2
 985 004a C046     		.section	.text.configure_temperature_sensor1,"ax",%progbits
 986              		.align	2
 987              		.global	configure_temperature_sensor1
 988              		.code	16
 989              		.thumb_func
 990              		.type	configure_temperature_sensor1, %function
 991              	configure_temperature_sensor1:
 992              	.LFB45:
 358:main.c        **** 
 359:main.c        **** void configure_temperature_sensor1(){
 993              		.loc 1 359 0
 994              		.cfi_startproc
 995              		@ args = 0, pretend = 0, frame = 0
 996              		@ frame_needed = 1, uses_anonymous_args = 0
 997 0000 80B5     		push	{r7, lr}
 998              		.cfi_def_cfa_offset 8
 999              		.cfi_offset 7, -8
 1000              		.cfi_offset 14, -4
 1001 0002 00AF     		add	r7, sp, #0
 1002              		.cfi_def_cfa_register 7
 360:main.c        ****         // Config register 1
 361:main.c        ****    I2C_1_I2CMasterSendStart(0x4D, I2C_1_I2C_WRITE_XFER_MODE, 100u);
 1003              		.loc 1 361 0
 1004 0004 6422     		movs	r2, #100
 1005 0006 0021     		movs	r1, #0
 1006 0008 4D20     		movs	r0, #77
 1007 000a FFF7FEFF 		bl	I2C_1_I2CMasterSendStart
 362:main.c        ****    I2C_1_I2CMasterWriteByte(0x09, 100u);
 1008              		.loc 1 362 0
 1009 000e 6421     		movs	r1, #100
 1010 0010 0920     		movs	r0, #9
 1011 0012 FFF7FEFF 		bl	I2C_1_I2CMasterWriteByte
 363:main.c        ****    I2C_1_I2CMasterWriteByte(0x84, 100u);
 1012              		.loc 1 363 0
ARM GAS  C:\Users\sergio\AppData\Local\Temp\ccku3oR8.s 			page 26


 1013 0016 6421     		movs	r1, #100
 1014 0018 8420     		movs	r0, #132
 1015 001a FFF7FEFF 		bl	I2C_1_I2CMasterWriteByte
 364:main.c        ****    I2C_1_I2CMasterSendStop(100u);
 1016              		.loc 1 364 0
 1017 001e 6420     		movs	r0, #100
 1018 0020 FFF7FEFF 		bl	I2C_1_I2CMasterSendStop
 365:main.c        ****    //Config register 2
 366:main.c        ****    I2C_1_I2CMasterSendStart(0x4D, I2C_1_I2C_WRITE_XFER_MODE, 100u);
 1019              		.loc 1 366 0
 1020 0024 6422     		movs	r2, #100
 1021 0026 0021     		movs	r1, #0
 1022 0028 4D20     		movs	r0, #77
 1023 002a FFF7FEFF 		bl	I2C_1_I2CMasterSendStart
 367:main.c        ****    I2C_1_I2CMasterWriteByte(0x3F, 100u);
 1024              		.loc 1 367 0
 1025 002e 6421     		movs	r1, #100
 1026 0030 3F20     		movs	r0, #63
 1027 0032 FFF7FEFF 		bl	I2C_1_I2CMasterWriteByte
 368:main.c        ****    I2C_1_I2CMasterWriteByte(0x3C, 100u);
 1028              		.loc 1 368 0
 1029 0036 6421     		movs	r1, #100
 1030 0038 3C20     		movs	r0, #60
 1031 003a FFF7FEFF 		bl	I2C_1_I2CMasterWriteByte
 369:main.c        ****    I2C_1_I2CMasterSendStop(100u);   
 1032              		.loc 1 369 0
 1033 003e 6420     		movs	r0, #100
 1034 0040 FFF7FEFF 		bl	I2C_1_I2CMasterSendStop
 370:main.c        **** }
 1035              		.loc 1 370 0
 1036 0044 C046     		nop
 1037 0046 BD46     		mov	sp, r7
 1038              		@ sp needed
 1039 0048 80BD     		pop	{r7, pc}
 1040              		.cfi_endproc
 1041              	.LFE45:
 1042              		.size	configure_temperature_sensor1, .-configure_temperature_sensor1
 1043 004a C046     		.section	.text.auto_calibrate_gain,"ax",%progbits
 1044              		.align	2
 1045              		.global	auto_calibrate_gain
 1046              		.code	16
 1047              		.thumb_func
 1048              		.type	auto_calibrate_gain, %function
 1049              	auto_calibrate_gain:
 1050              	.LFB46:
 371:main.c        **** 
 372:main.c        **** // fnc to calibrate the power chips
 373:main.c        **** void auto_calibrate_gain(uint32 address){
 1051              		.loc 1 373 0
 1052              		.cfi_startproc
 1053              		@ args = 0, pretend = 0, frame = 8
 1054              		@ frame_needed = 1, uses_anonymous_args = 0
 1055 0000 80B5     		push	{r7, lr}
 1056              		.cfi_def_cfa_offset 8
 1057              		.cfi_offset 7, -8
 1058              		.cfi_offset 14, -4
 1059 0002 82B0     		sub	sp, sp, #8
ARM GAS  C:\Users\sergio\AppData\Local\Temp\ccku3oR8.s 			page 27


 1060              		.cfi_def_cfa_offset 16
 1061 0004 00AF     		add	r7, sp, #0
 1062              		.cfi_def_cfa_register 7
 1063 0006 7860     		str	r0, [r7, #4]
 374:main.c        ****     //current target
 375:main.c        ****     I2C_1_I2CMasterSendStart(address, I2C_1_I2C_WRITE_XFER_MODE, 2);
 1064              		.loc 1 375 0
 1065 0008 7B68     		ldr	r3, [r7, #4]
 1066 000a 0222     		movs	r2, #2
 1067 000c 0021     		movs	r1, #0
 1068 000e 1800     		movs	r0, r3
 1069 0010 FFF7FEFF 		bl	I2C_1_I2CMasterSendStart
 376:main.c        ****     I2C_1_I2CMasterWriteByte(0xA5, 10);
 1070              		.loc 1 376 0
 1071 0014 0A21     		movs	r1, #10
 1072 0016 A520     		movs	r0, #165
 1073 0018 FFF7FEFF 		bl	I2C_1_I2CMasterWriteByte
 377:main.c        ****     I2C_1_I2CMasterWriteByte(0x09, 10);
 1074              		.loc 1 377 0
 1075 001c 0A21     		movs	r1, #10
 1076 001e 0920     		movs	r0, #9
 1077 0020 FFF7FEFF 		bl	I2C_1_I2CMasterWriteByte
 378:main.c        ****     I2C_1_I2CMasterWriteByte(0x41, 10);
 1078              		.loc 1 378 0
 1079 0024 0A21     		movs	r1, #10
 1080 0026 4120     		movs	r0, #65
 1081 0028 FFF7FEFF 		bl	I2C_1_I2CMasterWriteByte
 379:main.c        ****     I2C_1_I2CMasterWriteByte(0x00, 10);
 1082              		.loc 1 379 0
 1083 002c 0A21     		movs	r1, #10
 1084 002e 0020     		movs	r0, #0
 1085 0030 FFF7FEFF 		bl	I2C_1_I2CMasterWriteByte
 380:main.c        ****     I2C_1_I2CMasterWriteByte(0x86, 10);
 1086              		.loc 1 380 0
 1087 0034 0A21     		movs	r1, #10
 1088 0036 8620     		movs	r0, #134
 1089 0038 FFF7FEFF 		bl	I2C_1_I2CMasterWriteByte
 381:main.c        ****     I2C_1_I2CMasterWriteByte(0x4D, 10);
 1090              		.loc 1 381 0
 1091 003c 0A21     		movs	r1, #10
 1092 003e 4D20     		movs	r0, #77
 1093 0040 FFF7FEFF 		bl	I2C_1_I2CMasterWriteByte
 382:main.c        ****     I2C_1_I2CMasterWriteByte(0x01, 10);
 1094              		.loc 1 382 0
 1095 0044 0A21     		movs	r1, #10
 1096 0046 0120     		movs	r0, #1
 1097 0048 FFF7FEFF 		bl	I2C_1_I2CMasterWriteByte
 383:main.c        ****     I2C_1_I2CMasterWriteByte(0x4B, 10);
 1098              		.loc 1 383 0
 1099 004c 0A21     		movs	r1, #10
 1100 004e 4B20     		movs	r0, #75
 1101 0050 FFF7FEFF 		bl	I2C_1_I2CMasterWriteByte
 384:main.c        ****     I2C_1_I2CMasterWriteByte(0x0E, 10);
 1102              		.loc 1 384 0
 1103 0054 0A21     		movs	r1, #10
 1104 0056 0E20     		movs	r0, #14
 1105 0058 FFF7FEFF 		bl	I2C_1_I2CMasterWriteByte
ARM GAS  C:\Users\sergio\AppData\Local\Temp\ccku3oR8.s 			page 28


 385:main.c        ****     I2C_1_I2CMasterSendStop(10);
 1106              		.loc 1 385 0
 1107 005c 0A20     		movs	r0, #10
 1108 005e FFF7FEFF 		bl	I2C_1_I2CMasterSendStop
 386:main.c        ****     I2C_1_Sleep();
 1109              		.loc 1 386 0
 1110 0062 FFF7FEFF 		bl	I2C_1_Sleep
 387:main.c        ****     I2C_1_Wakeup();
 1111              		.loc 1 387 0
 1112 0066 FFF7FEFF 		bl	I2C_1_Wakeup
 388:main.c        ****     
 389:main.c        ****     // target voltage
 390:main.c        ****     I2C_1_I2CMasterSendStart(address, I2C_1_I2C_WRITE_XFER_MODE, 2);
 1113              		.loc 1 390 0
 1114 006a 7B68     		ldr	r3, [r7, #4]
 1115 006c 0222     		movs	r2, #2
 1116 006e 0021     		movs	r1, #0
 1117 0070 1800     		movs	r0, r3
 1118 0072 FFF7FEFF 		bl	I2C_1_I2CMasterSendStart
 391:main.c        ****     I2C_1_I2CMasterWriteByte(0xA5, 10);
 1119              		.loc 1 391 0
 1120 0076 0A21     		movs	r1, #10
 1121 0078 A520     		movs	r0, #165
 1122 007a FFF7FEFF 		bl	I2C_1_I2CMasterWriteByte
 392:main.c        ****     I2C_1_I2CMasterWriteByte(0x09, 10);
 1123              		.loc 1 392 0
 1124 007e 0A21     		movs	r1, #10
 1125 0080 0920     		movs	r0, #9
 1126 0082 FFF7FEFF 		bl	I2C_1_I2CMasterWriteByte
 393:main.c        ****     I2C_1_I2CMasterWriteByte(0x41, 10);
 1127              		.loc 1 393 0
 1128 0086 0A21     		movs	r1, #10
 1129 0088 4120     		movs	r0, #65
 1130 008a FFF7FEFF 		bl	I2C_1_I2CMasterWriteByte
 394:main.c        ****     I2C_1_I2CMasterWriteByte(0x00, 10);
 1131              		.loc 1 394 0
 1132 008e 0A21     		movs	r1, #10
 1133 0090 0020     		movs	r0, #0
 1134 0092 FFF7FEFF 		bl	I2C_1_I2CMasterWriteByte
 395:main.c        ****     I2C_1_I2CMasterWriteByte(0x8A, 10);
 1135              		.loc 1 395 0
 1136 0096 0A21     		movs	r1, #10
 1137 0098 8A20     		movs	r0, #138
 1138 009a FFF7FEFF 		bl	I2C_1_I2CMasterWriteByte
 396:main.c        ****     I2C_1_I2CMasterWriteByte(0x4D, 10);
 1139              		.loc 1 396 0
 1140 009e 0A21     		movs	r1, #10
 1141 00a0 4D20     		movs	r0, #77
 1142 00a2 FFF7FEFF 		bl	I2C_1_I2CMasterWriteByte
 397:main.c        ****     I2C_1_I2CMasterWriteByte(0x01, 10);
 1143              		.loc 1 397 0
 1144 00a6 0A21     		movs	r1, #10
 1145 00a8 0120     		movs	r0, #1
 1146 00aa FFF7FEFF 		bl	I2C_1_I2CMasterWriteByte
 398:main.c        ****     I2C_1_I2CMasterWriteByte(0x23, 10);
 1147              		.loc 1 398 0
 1148 00ae 0A21     		movs	r1, #10
ARM GAS  C:\Users\sergio\AppData\Local\Temp\ccku3oR8.s 			page 29


 1149 00b0 2320     		movs	r0, #35
 1150 00b2 FFF7FEFF 		bl	I2C_1_I2CMasterWriteByte
 399:main.c        ****     I2C_1_I2CMasterWriteByte(0xEA, 10);
 1151              		.loc 1 399 0
 1152 00b6 0A21     		movs	r1, #10
 1153 00b8 EA20     		movs	r0, #234
 1154 00ba FFF7FEFF 		bl	I2C_1_I2CMasterWriteByte
 400:main.c        ****     I2C_1_I2CMasterSendStop(10);
 1155              		.loc 1 400 0
 1156 00be 0A20     		movs	r0, #10
 1157 00c0 FFF7FEFF 		bl	I2C_1_I2CMasterSendStop
 401:main.c        ****     I2C_1_Sleep();
 1158              		.loc 1 401 0
 1159 00c4 FFF7FEFF 		bl	I2C_1_Sleep
 402:main.c        ****     I2C_1_Wakeup();
 1160              		.loc 1 402 0
 1161 00c8 FFF7FEFF 		bl	I2C_1_Wakeup
 403:main.c        ****     
 404:main.c        ****     // target line freq
 405:main.c        ****     I2C_1_I2CMasterSendStart(address, I2C_1_I2C_WRITE_XFER_MODE, 2);
 1162              		.loc 1 405 0
 1163 00cc 7B68     		ldr	r3, [r7, #4]
 1164 00ce 0222     		movs	r2, #2
 1165 00d0 0021     		movs	r1, #0
 1166 00d2 1800     		movs	r0, r3
 1167 00d4 FFF7FEFF 		bl	I2C_1_I2CMasterSendStart
 406:main.c        ****     I2C_1_I2CMasterWriteByte(0xA5, 10);
 1168              		.loc 1 406 0
 1169 00d8 0A21     		movs	r1, #10
 1170 00da A520     		movs	r0, #165
 1171 00dc FFF7FEFF 		bl	I2C_1_I2CMasterWriteByte
 407:main.c        ****     I2C_1_I2CMasterWriteByte(0x0A, 10);
 1172              		.loc 1 407 0
 1173 00e0 0A21     		movs	r1, #10
 1174 00e2 0A20     		movs	r0, #10
 1175 00e4 FFF7FEFF 		bl	I2C_1_I2CMasterWriteByte
 408:main.c        ****     I2C_1_I2CMasterWriteByte(0x41, 10);
 1176              		.loc 1 408 0
 1177 00e8 0A21     		movs	r1, #10
 1178 00ea 4120     		movs	r0, #65
 1179 00ec FFF7FEFF 		bl	I2C_1_I2CMasterWriteByte
 409:main.c        ****     I2C_1_I2CMasterWriteByte(0x00, 10);
 1180              		.loc 1 409 0
 1181 00f0 0A21     		movs	r1, #10
 1182 00f2 0020     		movs	r0, #0
 1183 00f4 FFF7FEFF 		bl	I2C_1_I2CMasterWriteByte
 410:main.c        ****     I2C_1_I2CMasterWriteByte(0x94, 10);
 1184              		.loc 1 410 0
 1185 00f8 0A21     		movs	r1, #10
 1186 00fa 9420     		movs	r0, #148
 1187 00fc FFF7FEFF 		bl	I2C_1_I2CMasterWriteByte
 411:main.c        ****     I2C_1_I2CMasterWriteByte(0x4D, 10);
 1188              		.loc 1 411 0
 1189 0100 0A21     		movs	r1, #10
 1190 0102 4D20     		movs	r0, #77
 1191 0104 FFF7FEFF 		bl	I2C_1_I2CMasterWriteByte
 412:main.c        ****     I2C_1_I2CMasterWriteByte(0x02, 10);
ARM GAS  C:\Users\sergio\AppData\Local\Temp\ccku3oR8.s 			page 30


 1192              		.loc 1 412 0
 1193 0108 0A21     		movs	r1, #10
 1194 010a 0220     		movs	r0, #2
 1195 010c FFF7FEFF 		bl	I2C_1_I2CMasterWriteByte
 413:main.c        ****     I2C_1_I2CMasterWriteByte(0xEA, 10);
 1196              		.loc 1 413 0
 1197 0110 0A21     		movs	r1, #10
 1198 0112 EA20     		movs	r0, #234
 1199 0114 FFF7FEFF 		bl	I2C_1_I2CMasterWriteByte
 414:main.c        ****     I2C_1_I2CMasterWriteByte(0x60, 10);
 1200              		.loc 1 414 0
 1201 0118 0A21     		movs	r1, #10
 1202 011a 6020     		movs	r0, #96
 1203 011c FFF7FEFF 		bl	I2C_1_I2CMasterWriteByte
 415:main.c        ****     I2C_1_I2CMasterWriteByte(0x1D, 10);
 1204              		.loc 1 415 0
 1205 0120 0A21     		movs	r1, #10
 1206 0122 1D20     		movs	r0, #29
 1207 0124 FFF7FEFF 		bl	I2C_1_I2CMasterWriteByte
 416:main.c        ****     I2C_1_I2CMasterSendStop(10);
 1208              		.loc 1 416 0
 1209 0128 0A20     		movs	r0, #10
 1210 012a FFF7FEFF 		bl	I2C_1_I2CMasterSendStop
 417:main.c        ****     I2C_1_Sleep();
 1211              		.loc 1 417 0
 1212 012e FFF7FEFF 		bl	I2C_1_Sleep
 418:main.c        ****     I2C_1_Wakeup();
 1213              		.loc 1 418 0
 1214 0132 FFF7FEFF 		bl	I2C_1_Wakeup
 419:main.c        ****     
 420:main.c        ****     I2C_1_I2CMasterSendStart(address, I2C_1_I2C_WRITE_XFER_MODE, 2);
 1215              		.loc 1 420 0
 1216 0136 7B68     		ldr	r3, [r7, #4]
 1217 0138 0222     		movs	r2, #2
 1218 013a 0021     		movs	r1, #0
 1219 013c 1800     		movs	r0, r3
 1220 013e FFF7FEFF 		bl	I2C_1_I2CMasterSendStart
 421:main.c        ****     I2C_1_I2CMasterWriteByte(0xA5, 10);
 1221              		.loc 1 421 0
 1222 0142 0A21     		movs	r1, #10
 1223 0144 A520     		movs	r0, #165
 1224 0146 FFF7FEFF 		bl	I2C_1_I2CMasterWriteByte
 422:main.c        ****     I2C_1_I2CMasterWriteByte(0xA4, 10);
 1225              		.loc 1 422 0
 1226 014a 0A21     		movs	r1, #10
 1227 014c A420     		movs	r0, #164
 1228 014e FFF7FEFF 		bl	I2C_1_I2CMasterWriteByte
 423:main.c        ****     I2C_1_I2CMasterWriteByte(0x5A, 10);
 1229              		.loc 1 423 0
 1230 0152 0A21     		movs	r1, #10
 1231 0154 5A20     		movs	r0, #90
 1232 0156 FFF7FEFF 		bl	I2C_1_I2CMasterWriteByte
 424:main.c        ****     I2C_1_I2CMasterWriteByte(0x03, 10);
 1233              		.loc 1 424 0
 1234 015a 0A21     		movs	r1, #10
 1235 015c 0320     		movs	r0, #3
 1236 015e FFF7FEFF 		bl	I2C_1_I2CMasterWriteByte
ARM GAS  C:\Users\sergio\AppData\Local\Temp\ccku3oR8.s 			page 31


 425:main.c        ****     I2C_1_I2CMasterSendStop(10);
 1237              		.loc 1 425 0
 1238 0162 0A20     		movs	r0, #10
 1239 0164 FFF7FEFF 		bl	I2C_1_I2CMasterSendStop
 426:main.c        ****     I2C_1_Sleep();
 1240              		.loc 1 426 0
 1241 0168 FFF7FEFF 		bl	I2C_1_Sleep
 427:main.c        ****     I2C_1_Wakeup();
 1242              		.loc 1 427 0
 1243 016c FFF7FEFF 		bl	I2C_1_Wakeup
 428:main.c        ****     
 429:main.c        **** }
 1244              		.loc 1 429 0
 1245 0170 C046     		nop
 1246 0172 BD46     		mov	sp, r7
 1247 0174 02B0     		add	sp, sp, #8
 1248              		@ sp needed
 1249 0176 80BD     		pop	{r7, pc}
 1250              		.cfi_endproc
 1251              	.LFE46:
 1252              		.size	auto_calibrate_gain, .-auto_calibrate_gain
 1253              		.section	.text.read_power_chips,"ax",%progbits
 1254              		.align	2
 1255              		.global	read_power_chips
 1256              		.code	16
 1257              		.thumb_func
 1258              		.type	read_power_chips, %function
 1259              	read_power_chips:
 1260              	.LFB47:
 430:main.c        **** 
 431:main.c        **** void read_power_chips(uint32 address){
 1261              		.loc 1 431 0
 1262              		.cfi_startproc
 1263              		@ args = 0, pretend = 0, frame = 48
 1264              		@ frame_needed = 1, uses_anonymous_args = 0
 1265 0000 80B5     		push	{r7, lr}
 1266              		.cfi_def_cfa_offset 8
 1267              		.cfi_offset 7, -8
 1268              		.cfi_offset 14, -4
 1269 0002 8CB0     		sub	sp, sp, #48
 1270              		.cfi_def_cfa_offset 56
 1271 0004 00AF     		add	r7, sp, #0
 1272              		.cfi_def_cfa_register 7
 1273 0006 7860     		str	r0, [r7, #4]
 432:main.c        ****     
 433:main.c        ****     uint8 rBuff[35];
 434:main.c        ****     
 435:main.c        ****         I2C_1_I2CMasterSendStart(address,I2C_1_I2C_WRITE_XFER_MODE, 100u);
 1274              		.loc 1 435 0
 1275 0008 7B68     		ldr	r3, [r7, #4]
 1276 000a 6422     		movs	r2, #100
 1277 000c 0021     		movs	r1, #0
 1278 000e 1800     		movs	r0, r3
 1279 0010 FFF7FEFF 		bl	I2C_1_I2CMasterSendStart
 436:main.c        ****         I2C_1_I2CMasterWriteByte(0xA5, 10u);
 1280              		.loc 1 436 0
 1281 0014 0A21     		movs	r1, #10
ARM GAS  C:\Users\sergio\AppData\Local\Temp\ccku3oR8.s 			page 32


 1282 0016 A520     		movs	r0, #165
 1283 0018 FFF7FEFF 		bl	I2C_1_I2CMasterWriteByte
 437:main.c        ****         I2C_1_I2CMasterWriteByte(0x08, 10u);
 1284              		.loc 1 437 0
 1285 001c 0A21     		movs	r1, #10
 1286 001e 0820     		movs	r0, #8
 1287 0020 FFF7FEFF 		bl	I2C_1_I2CMasterWriteByte
 438:main.c        ****         I2C_1_I2CMasterWriteByte(0x41, 10u);
 1288              		.loc 1 438 0
 1289 0024 0A21     		movs	r1, #10
 1290 0026 4120     		movs	r0, #65
 1291 0028 FFF7FEFF 		bl	I2C_1_I2CMasterWriteByte
 439:main.c        ****         I2C_1_I2CMasterWriteByte(0x00, 10u);
 1292              		.loc 1 439 0
 1293 002c 0A21     		movs	r1, #10
 1294 002e 0020     		movs	r0, #0
 1295 0030 FFF7FEFF 		bl	I2C_1_I2CMasterWriteByte
 440:main.c        ****         I2C_1_I2CMasterWriteByte(0x02, 10u);
 1296              		.loc 1 440 0
 1297 0034 0A21     		movs	r1, #10
 1298 0036 0220     		movs	r0, #2
 1299 0038 FFF7FEFF 		bl	I2C_1_I2CMasterWriteByte
 441:main.c        ****         I2C_1_I2CMasterWriteByte(0x4E, 10u);
 1300              		.loc 1 441 0
 1301 003c 0A21     		movs	r1, #10
 1302 003e 4E20     		movs	r0, #78
 1303 0040 FFF7FEFF 		bl	I2C_1_I2CMasterWriteByte
 442:main.c        ****         I2C_1_I2CMasterWriteByte(0x20, 10u);
 1304              		.loc 1 442 0
 1305 0044 0A21     		movs	r1, #10
 1306 0046 2020     		movs	r0, #32
 1307 0048 FFF7FEFF 		bl	I2C_1_I2CMasterWriteByte
 443:main.c        ****         I2C_1_I2CMasterWriteByte(0x5E, 10u);
 1308              		.loc 1 443 0
 1309 004c 0A21     		movs	r1, #10
 1310 004e 5E20     		movs	r0, #94
 1311 0050 FFF7FEFF 		bl	I2C_1_I2CMasterWriteByte
 444:main.c        ****         I2C_1_I2CMasterSendStop(0u);
 1312              		.loc 1 444 0
 1313 0054 0020     		movs	r0, #0
 1314 0056 FFF7FEFF 		bl	I2C_1_I2CMasterSendStop
 445:main.c        ****         
 446:main.c        ****         I2C_1_Sleep();
 1315              		.loc 1 446 0
 1316 005a FFF7FEFF 		bl	I2C_1_Sleep
 447:main.c        ****         I2C_1_Wakeup();
 1317              		.loc 1 447 0
 1318 005e FFF7FEFF 		bl	I2C_1_Wakeup
 448:main.c        ****   
 449:main.c        ****         I2C_1_I2CMasterSendStart(address, I2C_1_I2C_READ_XFER_MODE, 10u);
 1319              		.loc 1 449 0
 1320 0062 7B68     		ldr	r3, [r7, #4]
 1321 0064 0A22     		movs	r2, #10
 1322 0066 0121     		movs	r1, #1
 1323 0068 1800     		movs	r0, r3
 1324 006a FFF7FEFF 		bl	I2C_1_I2CMasterSendStart
 1325              	.LBB2:
ARM GAS  C:\Users\sergio\AppData\Local\Temp\ccku3oR8.s 			page 33


 450:main.c        ****         for(int i =0; i<34; i++){
 1326              		.loc 1 450 0
 1327 006e 0023     		movs	r3, #0
 1328 0070 FB62     		str	r3, [r7, #44]
 1329 0072 0BE0     		b	.L42
 1330              	.L43:
 451:main.c        ****           I2C_1_I2CMasterReadByte(I2C_1_I2C_ACK_DATA,&rBuff[i],10u);
 1331              		.loc 1 451 0 discriminator 3
 1332 0074 0823     		movs	r3, #8
 1333 0076 FA18     		adds	r2, r7, r3
 1334 0078 FB6A     		ldr	r3, [r7, #44]
 1335 007a D318     		adds	r3, r2, r3
 1336 007c 0A22     		movs	r2, #10
 1337 007e 1900     		movs	r1, r3
 1338 0080 0020     		movs	r0, #0
 1339 0082 FFF7FEFF 		bl	I2C_1_I2CMasterReadByte
 450:main.c        ****         for(int i =0; i<34; i++){
 1340              		.loc 1 450 0 discriminator 3
 1341 0086 FB6A     		ldr	r3, [r7, #44]
 1342 0088 0133     		adds	r3, r3, #1
 1343 008a FB62     		str	r3, [r7, #44]
 1344              	.L42:
 450:main.c        ****         for(int i =0; i<34; i++){
 1345              		.loc 1 450 0 is_stmt 0 discriminator 1
 1346 008c FB6A     		ldr	r3, [r7, #44]
 1347 008e 212B     		cmp	r3, #33
 1348 0090 F0DD     		ble	.L43
 1349              	.LBE2:
 452:main.c        ****         }
 453:main.c        ****         I2C_1_I2CMasterReadByte(I2C_1_I2C_NAK_DATA,&rBuff[34],10u);
 1350              		.loc 1 453 0 is_stmt 1
 1351 0092 0823     		movs	r3, #8
 1352 0094 FB18     		adds	r3, r7, r3
 1353 0096 2233     		adds	r3, r3, #34
 1354 0098 0A22     		movs	r2, #10
 1355 009a 1900     		movs	r1, r3
 1356 009c 0120     		movs	r0, #1
 1357 009e FFF7FEFF 		bl	I2C_1_I2CMasterReadByte
 454:main.c        ****         I2C_1_I2CMasterSendStop(100u);
 1358              		.loc 1 454 0
 1359 00a2 6420     		movs	r0, #100
 1360 00a4 FFF7FEFF 		bl	I2C_1_I2CMasterSendStop
 455:main.c        ****         
 456:main.c        ****         switch(address){
 1361              		.loc 1 456 0
 1362 00a8 7B68     		ldr	r3, [r7, #4]
 1363 00aa 752B     		cmp	r3, #117
 1364 00ac 36D0     		beq	.L45
 1365 00ae 762B     		cmp	r3, #118
 1366 00b0 66D0     		beq	.L46
 1367 00b2 742B     		cmp	r3, #116
 1368 00b4 00D0     		beq	.L47
 457:main.c        ****             case 0x74:
 458:main.c        ****                 sensorData.voltCompressor = (rBuff[7] << 8) | rBuff[6];
 459:main.c        ****                 sensorData.lineFreqComp = (rBuff[9] << 8) | rBuff[8];
 460:main.c        ****                 sensorData.currentCompressor = (rBuff[17] << 24) | (rBuff[16] << 16) | (rBuff[15] <
 461:main.c        ****             break;
ARM GAS  C:\Users\sergio\AppData\Local\Temp\ccku3oR8.s 			page 34


 462:main.c        ****             
 463:main.c        ****             case 0x75:
 464:main.c        ****                 sensorData.volt = (rBuff[7] << 8) | rBuff[6];
 465:main.c        ****                 sensorData.lineFreq = (rBuff[9] << 8) | rBuff[8];
 466:main.c        ****                 sensorData.current = (rBuff[17] << 24) | (rBuff[16] << 16) | (rBuff[15] << 8) | rBu
 467:main.c        ****             break;
 468:main.c        ****             
 469:main.c        ****             case 0x76:
 470:main.c        ****                 sensorData.voltFan = (rBuff[7] << 8) | rBuff[6];
 471:main.c        ****                 sensorData.lineFreqFan = (rBuff[9] << 8) | rBuff[8];
 472:main.c        ****                 sensorData.currentFan = (rBuff[17] << 24) | (rBuff[16] << 16) | (rBuff[15] << 8) | 
 473:main.c        ****             break;
 474:main.c        ****             
 475:main.c        ****             default:
 476:main.c        ****             break;
 1369              		.loc 1 476 0
 1370 00b6 95E0     		b	.L48
 1371              	.L47:
 458:main.c        ****                 sensorData.lineFreqComp = (rBuff[9] << 8) | rBuff[8];
 1372              		.loc 1 458 0
 1373 00b8 0823     		movs	r3, #8
 1374 00ba FB18     		adds	r3, r7, r3
 1375 00bc DB79     		ldrb	r3, [r3, #7]
 1376 00be 1B02     		lsls	r3, r3, #8
 1377 00c0 1AB2     		sxth	r2, r3
 1378 00c2 0823     		movs	r3, #8
 1379 00c4 FB18     		adds	r3, r7, r3
 1380 00c6 9B79     		ldrb	r3, [r3, #6]
 1381 00c8 1BB2     		sxth	r3, r3
 1382 00ca 1343     		orrs	r3, r2
 1383 00cc 1BB2     		sxth	r3, r3
 1384 00ce 9AB2     		uxth	r2, r3
 1385 00d0 464B     		ldr	r3, .L49
 1386 00d2 DA80     		strh	r2, [r3, #6]
 459:main.c        ****                 sensorData.currentCompressor = (rBuff[17] << 24) | (rBuff[16] << 16) | (rBuff[15] <
 1387              		.loc 1 459 0
 1388 00d4 0823     		movs	r3, #8
 1389 00d6 FB18     		adds	r3, r7, r3
 1390 00d8 5B7A     		ldrb	r3, [r3, #9]
 1391 00da 1B02     		lsls	r3, r3, #8
 1392 00dc 1AB2     		sxth	r2, r3
 1393 00de 0823     		movs	r3, #8
 1394 00e0 FB18     		adds	r3, r7, r3
 1395 00e2 1B7A     		ldrb	r3, [r3, #8]
 1396 00e4 1BB2     		sxth	r3, r3
 1397 00e6 1343     		orrs	r3, r2
 1398 00e8 1BB2     		sxth	r3, r3
 1399 00ea 9AB2     		uxth	r2, r3
 1400 00ec 3F4B     		ldr	r3, .L49
 1401 00ee 1A83     		strh	r2, [r3, #24]
 460:main.c        ****             break;
 1402              		.loc 1 460 0
 1403 00f0 0823     		movs	r3, #8
 1404 00f2 FB18     		adds	r3, r7, r3
 1405 00f4 5B7C     		ldrb	r3, [r3, #17]
 1406 00f6 1A06     		lsls	r2, r3, #24
 1407 00f8 0823     		movs	r3, #8
ARM GAS  C:\Users\sergio\AppData\Local\Temp\ccku3oR8.s 			page 35


 1408 00fa FB18     		adds	r3, r7, r3
 1409 00fc 1B7C     		ldrb	r3, [r3, #16]
 1410 00fe 1B04     		lsls	r3, r3, #16
 1411 0100 1A43     		orrs	r2, r3
 1412 0102 0823     		movs	r3, #8
 1413 0104 FB18     		adds	r3, r7, r3
 1414 0106 DB7B     		ldrb	r3, [r3, #15]
 1415 0108 1B02     		lsls	r3, r3, #8
 1416 010a 1343     		orrs	r3, r2
 1417 010c 0822     		movs	r2, #8
 1418 010e BA18     		adds	r2, r7, r2
 1419 0110 927B     		ldrb	r2, [r2, #14]
 1420 0112 1343     		orrs	r3, r2
 1421 0114 1A00     		movs	r2, r3
 1422 0116 354B     		ldr	r3, .L49
 1423 0118 DA60     		str	r2, [r3, #12]
 461:main.c        ****             
 1424              		.loc 1 461 0
 1425 011a 63E0     		b	.L48
 1426              	.L45:
 464:main.c        ****                 sensorData.lineFreq = (rBuff[9] << 8) | rBuff[8];
 1427              		.loc 1 464 0
 1428 011c 0823     		movs	r3, #8
 1429 011e FB18     		adds	r3, r7, r3
 1430 0120 DB79     		ldrb	r3, [r3, #7]
 1431 0122 1B02     		lsls	r3, r3, #8
 1432 0124 1AB2     		sxth	r2, r3
 1433 0126 0823     		movs	r3, #8
 1434 0128 FB18     		adds	r3, r7, r3
 1435 012a 9B79     		ldrb	r3, [r3, #6]
 1436 012c 1BB2     		sxth	r3, r3
 1437 012e 1343     		orrs	r3, r2
 1438 0130 1BB2     		sxth	r3, r3
 1439 0132 9AB2     		uxth	r2, r3
 1440 0134 2D4B     		ldr	r3, .L49
 1441 0136 5A81     		strh	r2, [r3, #10]
 465:main.c        ****                 sensorData.current = (rBuff[17] << 24) | (rBuff[16] << 16) | (rBuff[15] << 8) | rBu
 1442              		.loc 1 465 0
 1443 0138 0823     		movs	r3, #8
 1444 013a FB18     		adds	r3, r7, r3
 1445 013c 5B7A     		ldrb	r3, [r3, #9]
 1446 013e 1B02     		lsls	r3, r3, #8
 1447 0140 1AB2     		sxth	r2, r3
 1448 0142 0823     		movs	r3, #8
 1449 0144 FB18     		adds	r3, r7, r3
 1450 0146 1B7A     		ldrb	r3, [r3, #8]
 1451 0148 1BB2     		sxth	r3, r3
 1452 014a 1343     		orrs	r3, r2
 1453 014c 1BB2     		sxth	r3, r3
 1454 014e 9AB2     		uxth	r2, r3
 1455 0150 264B     		ldr	r3, .L49
 1456 0152 9A83     		strh	r2, [r3, #28]
 466:main.c        ****             break;
 1457              		.loc 1 466 0
 1458 0154 0823     		movs	r3, #8
 1459 0156 FB18     		adds	r3, r7, r3
 1460 0158 5B7C     		ldrb	r3, [r3, #17]
ARM GAS  C:\Users\sergio\AppData\Local\Temp\ccku3oR8.s 			page 36


 1461 015a 1A06     		lsls	r2, r3, #24
 1462 015c 0823     		movs	r3, #8
 1463 015e FB18     		adds	r3, r7, r3
 1464 0160 1B7C     		ldrb	r3, [r3, #16]
 1465 0162 1B04     		lsls	r3, r3, #16
 1466 0164 1A43     		orrs	r2, r3
 1467 0166 0823     		movs	r3, #8
 1468 0168 FB18     		adds	r3, r7, r3
 1469 016a DB7B     		ldrb	r3, [r3, #15]
 1470 016c 1B02     		lsls	r3, r3, #8
 1471 016e 1343     		orrs	r3, r2
 1472 0170 0822     		movs	r2, #8
 1473 0172 BA18     		adds	r2, r7, r2
 1474 0174 927B     		ldrb	r2, [r2, #14]
 1475 0176 1343     		orrs	r3, r2
 1476 0178 1A00     		movs	r2, r3
 1477 017a 1C4B     		ldr	r3, .L49
 1478 017c 5A61     		str	r2, [r3, #20]
 467:main.c        ****             
 1479              		.loc 1 467 0
 1480 017e 31E0     		b	.L48
 1481              	.L46:
 470:main.c        ****                 sensorData.lineFreqFan = (rBuff[9] << 8) | rBuff[8];
 1482              		.loc 1 470 0
 1483 0180 0823     		movs	r3, #8
 1484 0182 FB18     		adds	r3, r7, r3
 1485 0184 DB79     		ldrb	r3, [r3, #7]
 1486 0186 1B02     		lsls	r3, r3, #8
 1487 0188 1AB2     		sxth	r2, r3
 1488 018a 0823     		movs	r3, #8
 1489 018c FB18     		adds	r3, r7, r3
 1490 018e 9B79     		ldrb	r3, [r3, #6]
 1491 0190 1BB2     		sxth	r3, r3
 1492 0192 1343     		orrs	r3, r2
 1493 0194 1BB2     		sxth	r3, r3
 1494 0196 9AB2     		uxth	r2, r3
 1495 0198 144B     		ldr	r3, .L49
 1496 019a 1A81     		strh	r2, [r3, #8]
 471:main.c        ****                 sensorData.currentFan = (rBuff[17] << 24) | (rBuff[16] << 16) | (rBuff[15] << 8) | 
 1497              		.loc 1 471 0
 1498 019c 0823     		movs	r3, #8
 1499 019e FB18     		adds	r3, r7, r3
 1500 01a0 5B7A     		ldrb	r3, [r3, #9]
 1501 01a2 1B02     		lsls	r3, r3, #8
 1502 01a4 1AB2     		sxth	r2, r3
 1503 01a6 0823     		movs	r3, #8
 1504 01a8 FB18     		adds	r3, r7, r3
 1505 01aa 1B7A     		ldrb	r3, [r3, #8]
 1506 01ac 1BB2     		sxth	r3, r3
 1507 01ae 1343     		orrs	r3, r2
 1508 01b0 1BB2     		sxth	r3, r3
 1509 01b2 9AB2     		uxth	r2, r3
 1510 01b4 0D4B     		ldr	r3, .L49
 1511 01b6 5A83     		strh	r2, [r3, #26]
 472:main.c        ****             break;
 1512              		.loc 1 472 0
 1513 01b8 0823     		movs	r3, #8
ARM GAS  C:\Users\sergio\AppData\Local\Temp\ccku3oR8.s 			page 37


 1514 01ba FB18     		adds	r3, r7, r3
 1515 01bc 5B7C     		ldrb	r3, [r3, #17]
 1516 01be 1A06     		lsls	r2, r3, #24
 1517 01c0 0823     		movs	r3, #8
 1518 01c2 FB18     		adds	r3, r7, r3
 1519 01c4 1B7C     		ldrb	r3, [r3, #16]
 1520 01c6 1B04     		lsls	r3, r3, #16
 1521 01c8 1A43     		orrs	r2, r3
 1522 01ca 0823     		movs	r3, #8
 1523 01cc FB18     		adds	r3, r7, r3
 1524 01ce DB7B     		ldrb	r3, [r3, #15]
 1525 01d0 1B02     		lsls	r3, r3, #8
 1526 01d2 1343     		orrs	r3, r2
 1527 01d4 0822     		movs	r2, #8
 1528 01d6 BA18     		adds	r2, r7, r2
 1529 01d8 927B     		ldrb	r2, [r2, #14]
 1530 01da 1343     		orrs	r3, r2
 1531 01dc 1A00     		movs	r2, r3
 1532 01de 034B     		ldr	r3, .L49
 1533 01e0 1A61     		str	r2, [r3, #16]
 473:main.c        ****             
 1534              		.loc 1 473 0
 1535 01e2 C046     		nop
 1536              	.L48:
 477:main.c        ****         }
 478:main.c        **** }
 1537              		.loc 1 478 0 discriminator 1
 1538 01e4 C046     		nop
 1539 01e6 BD46     		mov	sp, r7
 1540 01e8 0CB0     		add	sp, sp, #48
 1541              		@ sp needed
 1542 01ea 80BD     		pop	{r7, pc}
 1543              	.L50:
 1544              		.align	2
 1545              	.L49:
 1546 01ec 00000000 		.word	sensorData
 1547              		.cfi_endproc
 1548              	.LFE47:
 1549              		.size	read_power_chips, .-read_power_chips
 1550              		.section	.text.read_Air_Flow,"ax",%progbits
 1551              		.align	2
 1552              		.global	read_Air_Flow
 1553              		.code	16
 1554              		.thumb_func
 1555              		.type	read_Air_Flow, %function
 1556              	read_Air_Flow:
 1557              	.LFB48:
 479:main.c        **** 
 480:main.c        **** void read_Air_Flow(){
 1558              		.loc 1 480 0
 1559              		.cfi_startproc
 1560              		@ args = 0, pretend = 0, frame = 8
 1561              		@ frame_needed = 1, uses_anonymous_args = 0
 1562 0000 80B5     		push	{r7, lr}
 1563              		.cfi_def_cfa_offset 8
 1564              		.cfi_offset 7, -8
 1565              		.cfi_offset 14, -4
ARM GAS  C:\Users\sergio\AppData\Local\Temp\ccku3oR8.s 			page 38


 1566 0002 82B0     		sub	sp, sp, #8
 1567              		.cfi_def_cfa_offset 16
 1568 0004 00AF     		add	r7, sp, #0
 1569              		.cfi_def_cfa_register 7
 481:main.c        ****     uint16 airFlow = 0;
 1570              		.loc 1 481 0
 1571 0006 BB1D     		adds	r3, r7, #6
 1572 0008 0022     		movs	r2, #0
 1573 000a 1A80     		strh	r2, [r3]
 1574              	.LBB3:
 482:main.c        ****     for(int i =0; i < 500; i++){
 1575              		.loc 1 482 0
 1576 000c 0023     		movs	r3, #0
 1577 000e 3B60     		str	r3, [r7]
 1578 0010 0FE0     		b	.L52
 1579              	.L53:
 483:main.c        ****         airFlow += (AF_Read() == 1)? 1 : 0;
 1580              		.loc 1 483 0 discriminator 3
 1581 0012 FFF7FEFF 		bl	AF_Read
 1582 0016 0300     		movs	r3, r0
 1583 0018 013B     		subs	r3, r3, #1
 1584 001a 5A42     		rsbs	r2, r3, #0
 1585 001c 5341     		adcs	r3, r3, r2
 1586 001e DBB2     		uxtb	r3, r3
 1587 0020 99B2     		uxth	r1, r3
 1588 0022 BB1D     		adds	r3, r7, #6
 1589 0024 BA1D     		adds	r2, r7, #6
 1590 0026 1288     		ldrh	r2, [r2]
 1591 0028 8A18     		adds	r2, r1, r2
 1592 002a 1A80     		strh	r2, [r3]
 482:main.c        ****     for(int i =0; i < 500; i++){
 1593              		.loc 1 482 0 discriminator 3
 1594 002c 3B68     		ldr	r3, [r7]
 1595 002e 0133     		adds	r3, r3, #1
 1596 0030 3B60     		str	r3, [r7]
 1597              	.L52:
 482:main.c        ****     for(int i =0; i < 500; i++){
 1598              		.loc 1 482 0 is_stmt 0 discriminator 1
 1599 0032 3A68     		ldr	r2, [r7]
 1600 0034 F423     		movs	r3, #244
 1601 0036 FF33     		adds	r3, r3, #255
 1602 0038 9A42     		cmp	r2, r3
 1603 003a EADD     		ble	.L53
 1604              	.LBE3:
 484:main.c        ****     }
 485:main.c        ****     sensorData.airFlow = airFlow;
 1605              		.loc 1 485 0 is_stmt 1
 1606 003c 034B     		ldr	r3, .L54
 1607 003e BA1D     		adds	r2, r7, #6
 1608 0040 1288     		ldrh	r2, [r2]
 1609 0042 5A84     		strh	r2, [r3, #34]
 486:main.c        **** }
 1610              		.loc 1 486 0
 1611 0044 C046     		nop
 1612 0046 BD46     		mov	sp, r7
 1613 0048 02B0     		add	sp, sp, #8
 1614              		@ sp needed
ARM GAS  C:\Users\sergio\AppData\Local\Temp\ccku3oR8.s 			page 39


 1615 004a 80BD     		pop	{r7, pc}
 1616              	.L55:
 1617              		.align	2
 1618              	.L54:
 1619 004c 00000000 		.word	sensorData
 1620              		.cfi_endproc
 1621              	.LFE48:
 1622              		.size	read_Air_Flow, .-read_Air_Flow
 1623              		.section	.text.delay,"ax",%progbits
 1624              		.align	2
 1625              		.global	delay
 1626              		.code	16
 1627              		.thumb_func
 1628              		.type	delay, %function
 1629              	delay:
 1630              	.LFB49:
 487:main.c        **** 
 488:main.c        **** void delay(int d){
 1631              		.loc 1 488 0
 1632              		.cfi_startproc
 1633              		@ args = 0, pretend = 0, frame = 16
 1634              		@ frame_needed = 1, uses_anonymous_args = 0
 1635 0000 80B5     		push	{r7, lr}
 1636              		.cfi_def_cfa_offset 8
 1637              		.cfi_offset 7, -8
 1638              		.cfi_offset 14, -4
 1639 0002 84B0     		sub	sp, sp, #16
 1640              		.cfi_def_cfa_offset 24
 1641 0004 00AF     		add	r7, sp, #0
 1642              		.cfi_def_cfa_register 7
 1643 0006 7860     		str	r0, [r7, #4]
 1644              	.LBB4:
 489:main.c        ****     for(int i = d;i>0; i--);
 1645              		.loc 1 489 0
 1646 0008 7B68     		ldr	r3, [r7, #4]
 1647 000a FB60     		str	r3, [r7, #12]
 1648 000c 02E0     		b	.L57
 1649              	.L58:
 1650              		.loc 1 489 0 is_stmt 0 discriminator 3
 1651 000e FB68     		ldr	r3, [r7, #12]
 1652 0010 013B     		subs	r3, r3, #1
 1653 0012 FB60     		str	r3, [r7, #12]
 1654              	.L57:
 1655              		.loc 1 489 0 discriminator 1
 1656 0014 FB68     		ldr	r3, [r7, #12]
 1657 0016 002B     		cmp	r3, #0
 1658 0018 F9DC     		bgt	.L58
 1659              	.LBE4:
 490:main.c        **** }
 1660              		.loc 1 490 0 is_stmt 1
 1661 001a C046     		nop
 1662 001c BD46     		mov	sp, r7
 1663 001e 04B0     		add	sp, sp, #16
 1664              		@ sp needed
 1665 0020 80BD     		pop	{r7, pc}
 1666              		.cfi_endproc
 1667              	.LFE49:
ARM GAS  C:\Users\sergio\AppData\Local\Temp\ccku3oR8.s 			page 40


 1668              		.size	delay, .-delay
 1669 0022 C046     		.section	.text.my_interrupt,"ax",%progbits
 1670              		.align	2
 1671              		.global	my_interrupt
 1672              		.code	16
 1673              		.thumb_func
 1674              		.type	my_interrupt, %function
 1675              	my_interrupt:
 1676              	.LFB50:
 491:main.c        **** 
 492:main.c        **** 
 493:main.c        **** void my_interrupt(){
 1677              		.loc 1 493 0
 1678              		.cfi_startproc
 1679              		@ args = 0, pretend = 0, frame = 0
 1680              		@ frame_needed = 1, uses_anonymous_args = 0
 1681 0000 80B5     		push	{r7, lr}
 1682              		.cfi_def_cfa_offset 8
 1683              		.cfi_offset 7, -8
 1684              		.cfi_offset 14, -4
 1685 0002 00AF     		add	r7, sp, #0
 1686              		.cfi_def_cfa_register 7
 494:main.c        ****     
 495:main.c        ****     interruptFlag = 1;
 1687              		.loc 1 495 0
 1688 0004 054B     		ldr	r3, .L60
 1689 0006 0122     		movs	r2, #1
 1690 0008 1A60     		str	r2, [r3]
 496:main.c        ****    
 497:main.c        ****      CySysWdtClearInterrupt(CY_SYS_WDT_COUNTER2_INT);
 1691              		.loc 1 497 0
 1692 000a 8023     		movs	r3, #128
 1693 000c DB02     		lsls	r3, r3, #11
 1694 000e 1800     		movs	r0, r3
 1695 0010 FFF7FEFF 		bl	CySysWdtClearInterrupt
 498:main.c        **** }
 1696              		.loc 1 498 0
 1697 0014 C046     		nop
 1698 0016 BD46     		mov	sp, r7
 1699              		@ sp needed
 1700 0018 80BD     		pop	{r7, pc}
 1701              	.L61:
 1702 001a C046     		.align	2
 1703              	.L60:
 1704 001c 00000000 		.word	interruptFlag
 1705              		.cfi_endproc
 1706              	.LFE50:
 1707              		.size	my_interrupt, .-my_interrupt
 1708              		.section	.rodata
 1709              		.align	2
 1710              	.LC28:
 1711 003c 73746174 		.ascii	"state 14 setting counter to 0\012\000"
 1711      65203134 
 1711      20736574 
 1711      74696E67 
 1711      20636F75 
 1712 005b 00       		.align	2
ARM GAS  C:\Users\sergio\AppData\Local\Temp\ccku3oR8.s 			page 41


 1713              	.LC30:
 1714 005c 73657474 		.ascii	"setting up state 14\012\000"
 1714      696E6720 
 1714      75702073 
 1714      74617465 
 1714      2031340A 
 1715 0071 000000   		.align	2
 1716              	.LC32:
 1717 0074 73746174 		.ascii	"state 14 counter 2\012\000"
 1717      65203134 
 1717      20636F75 
 1717      6E746572 
 1717      20320A00 
 1718              		.align	2
 1719              	.LC34:
 1720 0088 73746174 		.ascii	"state 14 counter 4\012\000"
 1720      65203134 
 1720      20636F75 
 1720      6E746572 
 1720      20340A00 
 1721              		.align	2
 1722              	.LC36:
 1723 009c 73746174 		.ascii	"state 14 already setup\012\000"
 1723      65203134 
 1723      20616C72 
 1723      65616479 
 1723      20736574 
 1724              		.align	2
 1725              	.LC39:
 1726 00b4 30783134 		.ascii	"0x14 switch gpio: %x  acstate: %x LF: %d, HF: %d, C"
 1726      20737769 
 1726      74636820 
 1726      6770696F 
 1726      3A202578 
 1727 00e7 6F6D703A 		.ascii	"omp:%d\012\000"
 1727      25640A00 
 1728 00ef 00       		.align	2
 1729              	.LC42:
 1730 00f0 30783043 		.ascii	"0x0C switch gpio: %x  acstate: %x LF: %d, HF: %d, C"
 1730      20737769 
 1730      74636820 
 1730      6770696F 
 1730      3A202578 
 1731 0123 6F6D703A 		.ascii	"omp:%d\012\000"
 1731      25640A00 
 1732 012b 00       		.align	2
 1733              	.LC44:
 1734 012c 30783038 		.ascii	"0x08  switch gpio: %x  acstate: %x LF: %d, HF: %d, "
 1734      20207377 
 1734      69746368 
 1734      20677069 
 1734      6F3A2025 
 1735 015f 436F6D70 		.ascii	"Comp:%d\012\000"
 1735      3A25640A 
 1735      00
 1736              		.align	2
 1737              	.LC46:
ARM GAS  C:\Users\sergio\AppData\Local\Temp\ccku3oR8.s 			page 42


 1738 0168 30783130 		.ascii	"0x10  switch gpio: %x  acstate: %x LF: %d, HF: %d, "
 1738      20207377 
 1738      69746368 
 1738      20677069 
 1738      6F3A2025 
 1739 019b 436F6D70 		.ascii	"Comp:%d\012\000"
 1739      3A25640A 
 1739      00
 1740              		.align	2
 1741              	.LC48:
 1742 01a4 30783030 		.ascii	"0x00  switch gpio: %x  acstate: %x LF: %d, HF: %d, "
 1742      20207377 
 1742      69746368 
 1742      20677069 
 1742      6F3A2025 
 1743 01d7 436F6D70 		.ascii	"Comp:%d\012\000"
 1743      3A25640A 
 1743      00
 1744              		.section	.text.run_ac,"ax",%progbits
 1745              		.align	2
 1746              		.global	run_ac
 1747              		.code	16
 1748              		.thumb_func
 1749              		.type	run_ac, %function
 1750              	run_ac:
 1751              	.LFB51:
 499:main.c        **** 
 500:main.c        **** void run_ac(){
 1752              		.loc 1 500 0
 1753              		.cfi_startproc
 1754              		@ args = 0, pretend = 0, frame = 8
 1755              		@ frame_needed = 1, uses_anonymous_args = 0
 1756 0000 F0B5     		push	{r4, r5, r6, r7, lr}
 1757              		.cfi_def_cfa_offset 20
 1758              		.cfi_offset 4, -20
 1759              		.cfi_offset 5, -16
 1760              		.cfi_offset 6, -12
 1761              		.cfi_offset 7, -8
 1762              		.cfi_offset 14, -4
 1763 0002 87B0     		sub	sp, sp, #28
 1764              		.cfi_def_cfa_offset 48
 1765 0004 04AF     		add	r7, sp, #16
 1766              		.cfi_def_cfa 7, 32
 501:main.c        ****     
 502:main.c        ****     switch(thermoState){
 1767              		.loc 1 502 0
 1768 0006 D34B     		ldr	r3, .L96
 1769 0008 1B78     		ldrb	r3, [r3]
 1770 000a 142B     		cmp	r3, #20
 1771 000c 00D9     		bls	.LCB1357
 1772 000e 24E2     		b	.L95	@long jump
 1773              	.LCB1357:
 1774 0010 9A00     		lsls	r2, r3, #2
 1775 0012 D14B     		ldr	r3, .L96+4
 1776 0014 D318     		adds	r3, r2, r3
 1777 0016 1B68     		ldr	r3, [r3]
 1778 0018 9F46     		mov	pc, r3
ARM GAS  C:\Users\sergio\AppData\Local\Temp\ccku3oR8.s 			page 43


 1779              		.section	.rodata
 1780              		.align	2
 1781              	.L65:
 1782 01e0 90030000 		.word	.L64
 1783 01e4 5A040000 		.word	.L95
 1784 01e8 5A040000 		.word	.L95
 1785 01ec 5A040000 		.word	.L95
 1786 01f0 5A040000 		.word	.L95
 1787 01f4 5A040000 		.word	.L95
 1788 01f8 5A040000 		.word	.L95
 1789 01fc 5A040000 		.word	.L95
 1790 0200 DE010000 		.word	.L66
 1791 0204 5A040000 		.word	.L95
 1792 0208 5A040000 		.word	.L95
 1793 020c 5A040000 		.word	.L95
 1794 0210 10010000 		.word	.L67
 1795 0214 5A040000 		.word	.L95
 1796 0218 5A040000 		.word	.L95
 1797 021c 5A040000 		.word	.L95
 1798 0220 98020000 		.word	.L68
 1799 0224 5A040000 		.word	.L95
 1800 0228 5A040000 		.word	.L95
 1801 022c 5A040000 		.word	.L95
 1802 0230 1A000000 		.word	.L69
 1803              		.section	.text.run_ac
 1804              	.L69:
 503:main.c        ****         case 0x14: // Low fan and compressor
 504:main.c        ****             if(acStates != 0x14 && counter >= 5){
 1805              		.loc 1 504 0
 1806 001a D04B     		ldr	r3, .L96+8
 1807 001c 1B68     		ldr	r3, [r3]
 1808 001e 142B     		cmp	r3, #20
 1809 0020 0AD0     		beq	.L70
 1810              		.loc 1 504 0 is_stmt 0 discriminator 1
 1811 0022 CF4B     		ldr	r3, .L96+12
 1812 0024 1B68     		ldr	r3, [r3]
 1813 0026 042B     		cmp	r3, #4
 1814 0028 06DD     		ble	.L70
 505:main.c        ****              counter = 0;
 1815              		.loc 1 505 0 is_stmt 1
 1816 002a CD4B     		ldr	r3, .L96+12
 1817 002c 0022     		movs	r2, #0
 1818 002e 1A60     		str	r2, [r3]
 506:main.c        ****                 MyUART_PutString("state 14 setting counter to 0\n");
 1819              		.loc 1 506 0
 1820 0030 CC4B     		ldr	r3, .L96+16
 1821 0032 1800     		movs	r0, r3
 1822 0034 FFF7FEFF 		bl	MyUART_PutString
 1823              	.L70:
 507:main.c        ****         
 508:main.c        ****             }
 509:main.c        ****             if(acStates != 0x14){
 1824              		.loc 1 509 0
 1825 0038 C84B     		ldr	r3, .L96+8
 1826 003a 1B68     		ldr	r3, [r3]
 1827 003c 142B     		cmp	r3, #20
 1828 003e 2FD0     		beq	.L71
ARM GAS  C:\Users\sergio\AppData\Local\Temp\ccku3oR8.s 			page 44


 510:main.c        ****                 RelayC_3_Write(1);
 1829              		.loc 1 510 0
 1830 0040 0120     		movs	r0, #1
 1831 0042 FFF7FEFF 		bl	RelayC_3_Write
 511:main.c        ****                 RelayHF_2_Write(1);
 1832              		.loc 1 511 0
 1833 0046 0120     		movs	r0, #1
 1834 0048 FFF7FEFF 		bl	RelayHF_2_Write
 512:main.c        ****                 Comp_out_Write(1);
 1835              		.loc 1 512 0
 1836 004c 0120     		movs	r0, #1
 1837 004e FFF7FEFF 		bl	Comp_out_Write
 513:main.c        ****                 HighF_out_Write(1);
 1838              		.loc 1 513 0
 1839 0052 0120     		movs	r0, #1
 1840 0054 FFF7FEFF 		bl	HighF_out_Write
 514:main.c        ****                    MyUART_PutString("setting up state 14\n");
 1841              		.loc 1 514 0
 1842 0058 C34B     		ldr	r3, .L96+20
 1843 005a 1800     		movs	r0, r3
 1844 005c FFF7FEFF 		bl	MyUART_PutString
 515:main.c        ****                     if(counter == 2){
 1845              		.loc 1 515 0
 1846 0060 BF4B     		ldr	r3, .L96+12
 1847 0062 1B68     		ldr	r3, [r3]
 1848 0064 022B     		cmp	r3, #2
 1849 0066 09D1     		bne	.L72
 516:main.c        ****                         RelayLF_1_Write(0);
 1850              		.loc 1 516 0
 1851 0068 0020     		movs	r0, #0
 1852 006a FFF7FEFF 		bl	RelayLF_1_Write
 517:main.c        ****                         LowF_out_Write(0);
 1853              		.loc 1 517 0
 1854 006e 0020     		movs	r0, #0
 1855 0070 FFF7FEFF 		bl	LowF_out_Write
 518:main.c        ****                         MyUART_PutString("state 14 counter 2\n");
 1856              		.loc 1 518 0
 1857 0074 BD4B     		ldr	r3, .L96+24
 1858 0076 1800     		movs	r0, r3
 1859 0078 FFF7FEFF 		bl	MyUART_PutString
 1860              	.L72:
 519:main.c        ****                     }
 520:main.c        ****                     if(counter == 4){
 1861              		.loc 1 520 0
 1862 007c B84B     		ldr	r3, .L96+12
 1863 007e 1B68     		ldr	r3, [r3]
 1864 0080 042B     		cmp	r3, #4
 1865 0082 27D1     		bne	.L74
 521:main.c        ****                         RelayC_3_Write(0);
 1866              		.loc 1 521 0
 1867 0084 0020     		movs	r0, #0
 1868 0086 FFF7FEFF 		bl	RelayC_3_Write
 522:main.c        ****                         Comp_out_Write(1);
 1869              		.loc 1 522 0
 1870 008a 0120     		movs	r0, #1
 1871 008c FFF7FEFF 		bl	Comp_out_Write
 523:main.c        ****                        // counter = 0;
ARM GAS  C:\Users\sergio\AppData\Local\Temp\ccku3oR8.s 			page 45


 524:main.c        ****                         acStates = 0x14;
 1872              		.loc 1 524 0
 1873 0090 B24B     		ldr	r3, .L96+8
 1874 0092 1422     		movs	r2, #20
 1875 0094 1A60     		str	r2, [r3]
 525:main.c        ****                         MyUART_PutString("state 14 counter 4\n");
 1876              		.loc 1 525 0
 1877 0096 B64B     		ldr	r3, .L96+28
 1878 0098 1800     		movs	r0, r3
 1879 009a FFF7FEFF 		bl	MyUART_PutString
 1880 009e 19E0     		b	.L74
 1881              	.L71:
 526:main.c        ****                     }
 527:main.c        ****             }
 528:main.c        ****             else{
 529:main.c        ****                if(acStates == 0x14){
 1882              		.loc 1 529 0
 1883 00a0 AE4B     		ldr	r3, .L96+8
 1884 00a2 1B68     		ldr	r3, [r3]
 1885 00a4 142B     		cmp	r3, #20
 1886 00a6 15D1     		bne	.L74
 530:main.c        ****                     RelayHF_2_Write(1);
 1887              		.loc 1 530 0
 1888 00a8 0120     		movs	r0, #1
 1889 00aa FFF7FEFF 		bl	RelayHF_2_Write
 531:main.c        ****                     RelayLF_1_Write(0);
 1890              		.loc 1 531 0
 1891 00ae 0020     		movs	r0, #0
 1892 00b0 FFF7FEFF 		bl	RelayLF_1_Write
 532:main.c        ****                     RelayC_3_Write(0);
 1893              		.loc 1 532 0
 1894 00b4 0020     		movs	r0, #0
 1895 00b6 FFF7FEFF 		bl	RelayC_3_Write
 533:main.c        ****                     
 534:main.c        ****                     HighF_out_Write(1);
 1896              		.loc 1 534 0
 1897 00ba 0120     		movs	r0, #1
 1898 00bc FFF7FEFF 		bl	HighF_out_Write
 535:main.c        ****                     LowF_out_Write(0);
 1899              		.loc 1 535 0
 1900 00c0 0020     		movs	r0, #0
 1901 00c2 FFF7FEFF 		bl	LowF_out_Write
 536:main.c        ****                     Comp_out_Write(0);
 1902              		.loc 1 536 0
 1903 00c6 0020     		movs	r0, #0
 1904 00c8 FFF7FEFF 		bl	Comp_out_Write
 537:main.c        ****                     MyUART_PutString("state 14 already setup\n");
 1905              		.loc 1 537 0
 1906 00cc A94B     		ldr	r3, .L96+32
 1907 00ce 1800     		movs	r0, r3
 1908 00d0 FFF7FEFF 		bl	MyUART_PutString
 1909              	.L74:
 538:main.c        ****                 }
 539:main.c        ****             }
 540:main.c        ****        sprintf(uartStr,"0x14 switch gpio: %x  acstate: %x LF: %d, HF: %d, Comp:%d\n",gpioPins, acSt
 1910              		.loc 1 540 0
 1911 00d4 A84B     		ldr	r3, .L96+36
ARM GAS  C:\Users\sergio\AppData\Local\Temp\ccku3oR8.s 			page 46


 1912 00d6 1B78     		ldrb	r3, [r3]
 1913 00d8 7B60     		str	r3, [r7, #4]
 1914 00da A04B     		ldr	r3, .L96+8
 1915 00dc 1C68     		ldr	r4, [r3]
 541:main.c        ****         RelayLF_1_Read(), RelayHF_2_Read(),RelayC_3_Read());
 1916              		.loc 1 541 0
 1917 00de FFF7FEFF 		bl	RelayLF_1_Read
 1918 00e2 0300     		movs	r3, r0
 540:main.c        ****         RelayLF_1_Read(), RelayHF_2_Read(),RelayC_3_Read());
 1919              		.loc 1 540 0
 1920 00e4 1D00     		movs	r5, r3
 1921              		.loc 1 541 0
 1922 00e6 FFF7FEFF 		bl	RelayHF_2_Read
 1923 00ea 0300     		movs	r3, r0
 540:main.c        ****         RelayLF_1_Read(), RelayHF_2_Read(),RelayC_3_Read());
 1924              		.loc 1 540 0
 1925 00ec 1E00     		movs	r6, r3
 1926              		.loc 1 541 0
 1927 00ee FFF7FEFF 		bl	RelayC_3_Read
 1928 00f2 0300     		movs	r3, r0
 540:main.c        ****         RelayLF_1_Read(), RelayHF_2_Read(),RelayC_3_Read());
 1929              		.loc 1 540 0
 1930 00f4 A149     		ldr	r1, .L96+40
 1931 00f6 A248     		ldr	r0, .L96+44
 1932 00f8 0293     		str	r3, [sp, #8]
 1933 00fa 0196     		str	r6, [sp, #4]
 1934 00fc 0095     		str	r5, [sp]
 1935 00fe 2300     		movs	r3, r4
 1936 0100 7A68     		ldr	r2, [r7, #4]
 1937 0102 FFF7FEFF 		bl	sprintf
 542:main.c        ****        MyUART_PutString(uartStr);
 1938              		.loc 1 542 0
 1939 0106 9E4B     		ldr	r3, .L96+44
 1940 0108 1800     		movs	r0, r3
 1941 010a FFF7FEFF 		bl	MyUART_PutString
 543:main.c        ****     
 544:main.c        ****             break;
 1942              		.loc 1 544 0
 1943 010e A5E1     		b	.L75
 1944              	.L67:
 545:main.c        ****         
 546:main.c        ****         case 0x0C: //High fan and compressor
 547:main.c        ****              if(acStates != 0x0C && counter >= 5){
 1945              		.loc 1 547 0
 1946 0110 924B     		ldr	r3, .L96+8
 1947 0112 1B68     		ldr	r3, [r3]
 1948 0114 0C2B     		cmp	r3, #12
 1949 0116 06D0     		beq	.L76
 1950              		.loc 1 547 0 is_stmt 0 discriminator 1
 1951 0118 914B     		ldr	r3, .L96+12
 1952 011a 1B68     		ldr	r3, [r3]
 1953 011c 042B     		cmp	r3, #4
 1954 011e 02DD     		ble	.L76
 548:main.c        ****                 counter = 0;
 1955              		.loc 1 548 0 is_stmt 1
 1956 0120 8F4B     		ldr	r3, .L96+12
 1957 0122 0022     		movs	r2, #0
ARM GAS  C:\Users\sergio\AppData\Local\Temp\ccku3oR8.s 			page 47


 1958 0124 1A60     		str	r2, [r3]
 1959              	.L76:
 549:main.c        ****              }
 550:main.c        ****             if(acStates != 0x0C){
 1960              		.loc 1 550 0
 1961 0126 8D4B     		ldr	r3, .L96+8
 1962 0128 1B68     		ldr	r3, [r3]
 1963 012a 0C2B     		cmp	r3, #12
 1964 012c 23D0     		beq	.L77
 551:main.c        ****                 RelayC_3_Write(1);
 1965              		.loc 1 551 0
 1966 012e 0120     		movs	r0, #1
 1967 0130 FFF7FEFF 		bl	RelayC_3_Write
 552:main.c        ****                 RelayLF_1_Write(1);
 1968              		.loc 1 552 0
 1969 0134 0120     		movs	r0, #1
 1970 0136 FFF7FEFF 		bl	RelayLF_1_Write
 553:main.c        ****                 Comp_out_Write(1);
 1971              		.loc 1 553 0
 1972 013a 0120     		movs	r0, #1
 1973 013c FFF7FEFF 		bl	Comp_out_Write
 554:main.c        ****                 LowF_out_Write(1);
 1974              		.loc 1 554 0
 1975 0140 0120     		movs	r0, #1
 1976 0142 FFF7FEFF 		bl	LowF_out_Write
 555:main.c        ****                     
 556:main.c        ****                     if(counter == 2){
 1977              		.loc 1 556 0
 1978 0146 864B     		ldr	r3, .L96+12
 1979 0148 1B68     		ldr	r3, [r3]
 1980 014a 022B     		cmp	r3, #2
 1981 014c 05D1     		bne	.L78
 557:main.c        ****                         RelayHF_2_Write(0);
 1982              		.loc 1 557 0
 1983 014e 0020     		movs	r0, #0
 1984 0150 FFF7FEFF 		bl	RelayHF_2_Write
 558:main.c        ****                         HighF_out_Write(0);
 1985              		.loc 1 558 0
 1986 0154 0020     		movs	r0, #0
 1987 0156 FFF7FEFF 		bl	HighF_out_Write
 1988              	.L78:
 559:main.c        ****                     }
 560:main.c        ****                     if(counter == 4){
 1989              		.loc 1 560 0
 1990 015a 814B     		ldr	r3, .L96+12
 1991 015c 1B68     		ldr	r3, [r3]
 1992 015e 042B     		cmp	r3, #4
 1993 0160 1FD1     		bne	.L80
 561:main.c        ****                         RelayC_3_Write(0);
 1994              		.loc 1 561 0
 1995 0162 0020     		movs	r0, #0
 1996 0164 FFF7FEFF 		bl	RelayC_3_Write
 562:main.c        ****                         Comp_out_Write(0);
 1997              		.loc 1 562 0
 1998 0168 0020     		movs	r0, #0
 1999 016a FFF7FEFF 		bl	Comp_out_Write
 563:main.c        ****                        // counter = 0;
ARM GAS  C:\Users\sergio\AppData\Local\Temp\ccku3oR8.s 			page 48


 564:main.c        ****                         acStates = 0x0C;
 2000              		.loc 1 564 0
 2001 016e 7B4B     		ldr	r3, .L96+8
 2002 0170 0C22     		movs	r2, #12
 2003 0172 1A60     		str	r2, [r3]
 2004 0174 15E0     		b	.L80
 2005              	.L77:
 565:main.c        ****                     }
 566:main.c        ****             }
 567:main.c        ****             else{
 568:main.c        ****                if(acStates == 0x0C){
 2006              		.loc 1 568 0
 2007 0176 794B     		ldr	r3, .L96+8
 2008 0178 1B68     		ldr	r3, [r3]
 2009 017a 0C2B     		cmp	r3, #12
 2010 017c 11D1     		bne	.L80
 569:main.c        ****                 RelayLF_1_Write(1);
 2011              		.loc 1 569 0
 2012 017e 0120     		movs	r0, #1
 2013 0180 FFF7FEFF 		bl	RelayLF_1_Write
 570:main.c        ****                 RelayHF_2_Write(0);
 2014              		.loc 1 570 0
 2015 0184 0020     		movs	r0, #0
 2016 0186 FFF7FEFF 		bl	RelayHF_2_Write
 571:main.c        ****                 RelayC_3_Write(0);
 2017              		.loc 1 571 0
 2018 018a 0020     		movs	r0, #0
 2019 018c FFF7FEFF 		bl	RelayC_3_Write
 572:main.c        ****                 
 573:main.c        ****                 LowF_out_Write(1);
 2020              		.loc 1 573 0
 2021 0190 0120     		movs	r0, #1
 2022 0192 FFF7FEFF 		bl	LowF_out_Write
 574:main.c        ****                 HighF_out_Write(0);
 2023              		.loc 1 574 0
 2024 0196 0020     		movs	r0, #0
 2025 0198 FFF7FEFF 		bl	HighF_out_Write
 575:main.c        ****                 Comp_out_Write(0);
 2026              		.loc 1 575 0
 2027 019c 0020     		movs	r0, #0
 2028 019e FFF7FEFF 		bl	Comp_out_Write
 2029              	.L80:
 576:main.c        ****                 }
 577:main.c        ****             }
 578:main.c        ****             sprintf(uartStr,"0x0C switch gpio: %x  acstate: %x LF: %d, HF: %d, Comp:%d\n",gpioPins,
 2030              		.loc 1 578 0
 2031 01a2 754B     		ldr	r3, .L96+36
 2032 01a4 1B78     		ldrb	r3, [r3]
 2033 01a6 7B60     		str	r3, [r7, #4]
 2034 01a8 6C4B     		ldr	r3, .L96+8
 2035 01aa 1C68     		ldr	r4, [r3]
 579:main.c        ****         RelayLF_1_Read(), RelayHF_2_Read(),RelayC_3_Read());
 2036              		.loc 1 579 0
 2037 01ac FFF7FEFF 		bl	RelayLF_1_Read
 2038 01b0 0300     		movs	r3, r0
 578:main.c        ****         RelayLF_1_Read(), RelayHF_2_Read(),RelayC_3_Read());
 2039              		.loc 1 578 0
ARM GAS  C:\Users\sergio\AppData\Local\Temp\ccku3oR8.s 			page 49


 2040 01b2 1D00     		movs	r5, r3
 2041              		.loc 1 579 0
 2042 01b4 FFF7FEFF 		bl	RelayHF_2_Read
 2043 01b8 0300     		movs	r3, r0
 578:main.c        ****         RelayLF_1_Read(), RelayHF_2_Read(),RelayC_3_Read());
 2044              		.loc 1 578 0
 2045 01ba 1E00     		movs	r6, r3
 2046              		.loc 1 579 0
 2047 01bc FFF7FEFF 		bl	RelayC_3_Read
 2048 01c0 0300     		movs	r3, r0
 578:main.c        ****         RelayLF_1_Read(), RelayHF_2_Read(),RelayC_3_Read());
 2049              		.loc 1 578 0
 2050 01c2 7049     		ldr	r1, .L96+48
 2051 01c4 6E48     		ldr	r0, .L96+44
 2052 01c6 0293     		str	r3, [sp, #8]
 2053 01c8 0196     		str	r6, [sp, #4]
 2054 01ca 0095     		str	r5, [sp]
 2055 01cc 2300     		movs	r3, r4
 2056 01ce 7A68     		ldr	r2, [r7, #4]
 2057 01d0 FFF7FEFF 		bl	sprintf
 580:main.c        ****             MyUART_PutString(uartStr);
 2058              		.loc 1 580 0
 2059 01d4 6A4B     		ldr	r3, .L96+44
 2060 01d6 1800     		movs	r0, r3
 2061 01d8 FFF7FEFF 		bl	MyUART_PutString
 581:main.c        ****                 break;
 2062              		.loc 1 581 0
 2063 01dc 3EE1     		b	.L75
 2064              	.L66:
 582:main.c        ****         case 0x08:  // high fan
 583:main.c        ****             if(acStates != 0x08 && counter >= 3){
 2065              		.loc 1 583 0
 2066 01de 5F4B     		ldr	r3, .L96+8
 2067 01e0 1B68     		ldr	r3, [r3]
 2068 01e2 082B     		cmp	r3, #8
 2069 01e4 06D0     		beq	.L81
 2070              		.loc 1 583 0 is_stmt 0 discriminator 1
 2071 01e6 5E4B     		ldr	r3, .L96+12
 2072 01e8 1B68     		ldr	r3, [r3]
 2073 01ea 022B     		cmp	r3, #2
 2074 01ec 02DD     		ble	.L81
 584:main.c        ****              counter = 0;
 2075              		.loc 1 584 0 is_stmt 1
 2076 01ee 5C4B     		ldr	r3, .L96+12
 2077 01f0 0022     		movs	r2, #0
 2078 01f2 1A60     		str	r2, [r3]
 2079              	.L81:
 585:main.c        ****             }
 586:main.c        ****             if(acStates != 0x08){
 2080              		.loc 1 586 0
 2081 01f4 594B     		ldr	r3, .L96+8
 2082 01f6 1B68     		ldr	r3, [r3]
 2083 01f8 082B     		cmp	r3, #8
 2084 01fa 19D0     		beq	.L82
 587:main.c        ****                 RelayC_3_Write(1);
 2085              		.loc 1 587 0
 2086 01fc 0120     		movs	r0, #1
ARM GAS  C:\Users\sergio\AppData\Local\Temp\ccku3oR8.s 			page 50


 2087 01fe FFF7FEFF 		bl	RelayC_3_Write
 588:main.c        ****                 RelayLF_1_Write(1);
 2088              		.loc 1 588 0
 2089 0202 0120     		movs	r0, #1
 2090 0204 FFF7FEFF 		bl	RelayLF_1_Write
 589:main.c        ****                 
 590:main.c        ****                 LowF_out_Write(1);
 2091              		.loc 1 590 0
 2092 0208 0120     		movs	r0, #1
 2093 020a FFF7FEFF 		bl	LowF_out_Write
 591:main.c        ****                 Comp_out_Write(1);
 2094              		.loc 1 591 0
 2095 020e 0120     		movs	r0, #1
 2096 0210 FFF7FEFF 		bl	Comp_out_Write
 592:main.c        ****                     
 593:main.c        ****                     if(counter == 2){
 2097              		.loc 1 593 0
 2098 0214 524B     		ldr	r3, .L96+12
 2099 0216 1B68     		ldr	r3, [r3]
 2100 0218 022B     		cmp	r3, #2
 2101 021a 1FD1     		bne	.L84
 594:main.c        ****                         RelayHF_2_Write(0);
 2102              		.loc 1 594 0
 2103 021c 0020     		movs	r0, #0
 2104 021e FFF7FEFF 		bl	RelayHF_2_Write
 595:main.c        ****                         HighF_out_Write(0);
 2105              		.loc 1 595 0
 2106 0222 0020     		movs	r0, #0
 2107 0224 FFF7FEFF 		bl	HighF_out_Write
 596:main.c        ****                         acStates = 0x08;
 2108              		.loc 1 596 0
 2109 0228 4C4B     		ldr	r3, .L96+8
 2110 022a 0822     		movs	r2, #8
 2111 022c 1A60     		str	r2, [r3]
 2112 022e 15E0     		b	.L84
 2113              	.L82:
 597:main.c        ****                     }
 598:main.c        ****             }
 599:main.c        ****             else{
 600:main.c        ****                if(acStates == 0x08){
 2114              		.loc 1 600 0
 2115 0230 4A4B     		ldr	r3, .L96+8
 2116 0232 1B68     		ldr	r3, [r3]
 2117 0234 082B     		cmp	r3, #8
 2118 0236 11D1     		bne	.L84
 601:main.c        ****                 RelayC_3_Write(1);
 2119              		.loc 1 601 0
 2120 0238 0120     		movs	r0, #1
 2121 023a FFF7FEFF 		bl	RelayC_3_Write
 602:main.c        ****                 RelayLF_1_Write(1);
 2122              		.loc 1 602 0
 2123 023e 0120     		movs	r0, #1
 2124 0240 FFF7FEFF 		bl	RelayLF_1_Write
 603:main.c        ****                 RelayHF_2_Write(0);
 2125              		.loc 1 603 0
 2126 0244 0020     		movs	r0, #0
 2127 0246 FFF7FEFF 		bl	RelayHF_2_Write
ARM GAS  C:\Users\sergio\AppData\Local\Temp\ccku3oR8.s 			page 51


 604:main.c        ****                 
 605:main.c        ****                 Comp_out_Write(1);
 2128              		.loc 1 605 0
 2129 024a 0120     		movs	r0, #1
 2130 024c FFF7FEFF 		bl	Comp_out_Write
 606:main.c        ****                 LowF_out_Write(1);
 2131              		.loc 1 606 0
 2132 0250 0120     		movs	r0, #1
 2133 0252 FFF7FEFF 		bl	LowF_out_Write
 607:main.c        ****                 HighF_out_Write(0);
 2134              		.loc 1 607 0
 2135 0256 0020     		movs	r0, #0
 2136 0258 FFF7FEFF 		bl	HighF_out_Write
 2137              	.L84:
 608:main.c        ****                 }
 609:main.c        ****             }
 610:main.c        ****             sprintf(uartStr,"0x08  switch gpio: %x  acstate: %x LF: %d, HF: %d, Comp:%d\n",gpioPins
 2138              		.loc 1 610 0
 2139 025c 464B     		ldr	r3, .L96+36
 2140 025e 1B78     		ldrb	r3, [r3]
 2141 0260 7B60     		str	r3, [r7, #4]
 2142 0262 3E4B     		ldr	r3, .L96+8
 2143 0264 1C68     		ldr	r4, [r3]
 611:main.c        ****         RelayLF_1_Read(), RelayHF_2_Read(),RelayC_3_Read());
 2144              		.loc 1 611 0
 2145 0266 FFF7FEFF 		bl	RelayLF_1_Read
 2146 026a 0300     		movs	r3, r0
 610:main.c        ****         RelayLF_1_Read(), RelayHF_2_Read(),RelayC_3_Read());
 2147              		.loc 1 610 0
 2148 026c 1D00     		movs	r5, r3
 2149              		.loc 1 611 0
 2150 026e FFF7FEFF 		bl	RelayHF_2_Read
 2151 0272 0300     		movs	r3, r0
 610:main.c        ****         RelayLF_1_Read(), RelayHF_2_Read(),RelayC_3_Read());
 2152              		.loc 1 610 0
 2153 0274 1E00     		movs	r6, r3
 2154              		.loc 1 611 0
 2155 0276 FFF7FEFF 		bl	RelayC_3_Read
 2156 027a 0300     		movs	r3, r0
 610:main.c        ****         RelayLF_1_Read(), RelayHF_2_Read(),RelayC_3_Read());
 2157              		.loc 1 610 0
 2158 027c 4249     		ldr	r1, .L96+52
 2159 027e 4048     		ldr	r0, .L96+44
 2160 0280 0293     		str	r3, [sp, #8]
 2161 0282 0196     		str	r6, [sp, #4]
 2162 0284 0095     		str	r5, [sp]
 2163 0286 2300     		movs	r3, r4
 2164 0288 7A68     		ldr	r2, [r7, #4]
 2165 028a FFF7FEFF 		bl	sprintf
 612:main.c        ****             MyUART_PutString(uartStr);
 2166              		.loc 1 612 0
 2167 028e 3C4B     		ldr	r3, .L96+44
 2168 0290 1800     		movs	r0, r3
 2169 0292 FFF7FEFF 		bl	MyUART_PutString
 613:main.c        ****                 break;
 2170              		.loc 1 613 0
 2171 0296 E1E0     		b	.L75
ARM GAS  C:\Users\sergio\AppData\Local\Temp\ccku3oR8.s 			page 52


 2172              	.L68:
 614:main.c        ****         case 0x10: // low fan
 615:main.c        ****             if(acStates != 0x10 && counter >= 3){
 2173              		.loc 1 615 0
 2174 0298 304B     		ldr	r3, .L96+8
 2175 029a 1B68     		ldr	r3, [r3]
 2176 029c 102B     		cmp	r3, #16
 2177 029e 06D0     		beq	.L85
 2178              		.loc 1 615 0 is_stmt 0 discriminator 1
 2179 02a0 2F4B     		ldr	r3, .L96+12
 2180 02a2 1B68     		ldr	r3, [r3]
 2181 02a4 022B     		cmp	r3, #2
 2182 02a6 02DD     		ble	.L85
 616:main.c        ****              counter = 0;
 2183              		.loc 1 616 0 is_stmt 1
 2184 02a8 2D4B     		ldr	r3, .L96+12
 2185 02aa 0022     		movs	r2, #0
 2186 02ac 1A60     		str	r2, [r3]
 2187              	.L85:
 617:main.c        ****             }
 618:main.c        ****             if(acStates != 0x10){
 2188              		.loc 1 618 0
 2189 02ae 2B4B     		ldr	r3, .L96+8
 2190 02b0 1B68     		ldr	r3, [r3]
 2191 02b2 102B     		cmp	r3, #16
 2192 02b4 19D0     		beq	.L86
 619:main.c        ****                 RelayC_3_Write(1);
 2193              		.loc 1 619 0
 2194 02b6 0120     		movs	r0, #1
 2195 02b8 FFF7FEFF 		bl	RelayC_3_Write
 620:main.c        ****                 RelayHF_2_Write(1);
 2196              		.loc 1 620 0
 2197 02bc 0120     		movs	r0, #1
 2198 02be FFF7FEFF 		bl	RelayHF_2_Write
 621:main.c        ****                 
 622:main.c        ****                 HighF_out_Write(1);
 2199              		.loc 1 622 0
 2200 02c2 0120     		movs	r0, #1
 2201 02c4 FFF7FEFF 		bl	HighF_out_Write
 623:main.c        ****                 Comp_out_Write(1);
 2202              		.loc 1 623 0
 2203 02c8 0120     		movs	r0, #1
 2204 02ca FFF7FEFF 		bl	Comp_out_Write
 624:main.c        ****                     
 625:main.c        ****                 if(counter == 2){
 2205              		.loc 1 625 0
 2206 02ce 244B     		ldr	r3, .L96+12
 2207 02d0 1B68     		ldr	r3, [r3]
 2208 02d2 022B     		cmp	r3, #2
 2209 02d4 1FD1     		bne	.L88
 626:main.c        ****                     RelayLF_1_Write(0);
 2210              		.loc 1 626 0
 2211 02d6 0020     		movs	r0, #0
 2212 02d8 FFF7FEFF 		bl	RelayLF_1_Write
 627:main.c        ****                     LowF_out_Write(0);
 2213              		.loc 1 627 0
 2214 02dc 0020     		movs	r0, #0
ARM GAS  C:\Users\sergio\AppData\Local\Temp\ccku3oR8.s 			page 53


 2215 02de FFF7FEFF 		bl	LowF_out_Write
 628:main.c        ****                     acStates = 0x10;
 2216              		.loc 1 628 0
 2217 02e2 1E4B     		ldr	r3, .L96+8
 2218 02e4 1022     		movs	r2, #16
 2219 02e6 1A60     		str	r2, [r3]
 2220 02e8 15E0     		b	.L88
 2221              	.L86:
 629:main.c        ****                 }
 630:main.c        ****             }
 631:main.c        ****             else{
 632:main.c        ****                if(acStates == 0x10){
 2222              		.loc 1 632 0
 2223 02ea 1C4B     		ldr	r3, .L96+8
 2224 02ec 1B68     		ldr	r3, [r3]
 2225 02ee 102B     		cmp	r3, #16
 2226 02f0 11D1     		bne	.L88
 633:main.c        ****                     RelayC_3_Write(1);
 2227              		.loc 1 633 0
 2228 02f2 0120     		movs	r0, #1
 2229 02f4 FFF7FEFF 		bl	RelayC_3_Write
 634:main.c        ****                     RelayHF_2_Write(1);
 2230              		.loc 1 634 0
 2231 02f8 0120     		movs	r0, #1
 2232 02fa FFF7FEFF 		bl	RelayHF_2_Write
 635:main.c        ****                     RelayLF_1_Write(0);
 2233              		.loc 1 635 0
 2234 02fe 0020     		movs	r0, #0
 2235 0300 FFF7FEFF 		bl	RelayLF_1_Write
 636:main.c        ****                     
 637:main.c        ****                      HighF_out_Write(1);
 2236              		.loc 1 637 0
 2237 0304 0120     		movs	r0, #1
 2238 0306 FFF7FEFF 		bl	HighF_out_Write
 638:main.c        ****                 LowF_out_Write(0);
 2239              		.loc 1 638 0
 2240 030a 0020     		movs	r0, #0
 2241 030c FFF7FEFF 		bl	LowF_out_Write
 639:main.c        ****                 Comp_out_Write(1);
 2242              		.loc 1 639 0
 2243 0310 0120     		movs	r0, #1
 2244 0312 FFF7FEFF 		bl	Comp_out_Write
 2245              	.L88:
 640:main.c        ****                 }
 641:main.c        ****             }
 642:main.c        ****             sprintf(uartStr,"0x10  switch gpio: %x  acstate: %x LF: %d, HF: %d, Comp:%d\n",gpioPins
 2246              		.loc 1 642 0
 2247 0316 184B     		ldr	r3, .L96+36
 2248 0318 1B78     		ldrb	r3, [r3]
 2249 031a 7B60     		str	r3, [r7, #4]
 2250 031c 0F4B     		ldr	r3, .L96+8
 2251 031e 1C68     		ldr	r4, [r3]
 643:main.c        ****             RelayLF_1_Read(), RelayHF_2_Read(),RelayC_3_Read());
 2252              		.loc 1 643 0
 2253 0320 FFF7FEFF 		bl	RelayLF_1_Read
 2254 0324 0300     		movs	r3, r0
 642:main.c        ****             RelayLF_1_Read(), RelayHF_2_Read(),RelayC_3_Read());
ARM GAS  C:\Users\sergio\AppData\Local\Temp\ccku3oR8.s 			page 54


 2255              		.loc 1 642 0
 2256 0326 1D00     		movs	r5, r3
 2257              		.loc 1 643 0
 2258 0328 FFF7FEFF 		bl	RelayHF_2_Read
 2259 032c 0300     		movs	r3, r0
 642:main.c        ****             RelayLF_1_Read(), RelayHF_2_Read(),RelayC_3_Read());
 2260              		.loc 1 642 0
 2261 032e 1E00     		movs	r6, r3
 2262              		.loc 1 643 0
 2263 0330 FFF7FEFF 		bl	RelayC_3_Read
 2264 0334 0300     		movs	r3, r0
 642:main.c        ****             RelayLF_1_Read(), RelayHF_2_Read(),RelayC_3_Read());
 2265              		.loc 1 642 0
 2266 0336 1549     		ldr	r1, .L96+56
 2267 0338 1148     		ldr	r0, .L96+44
 2268 033a 0293     		str	r3, [sp, #8]
 2269 033c 0196     		str	r6, [sp, #4]
 2270 033e 0095     		str	r5, [sp]
 2271 0340 2300     		movs	r3, r4
 2272 0342 7A68     		ldr	r2, [r7, #4]
 2273 0344 FFF7FEFF 		bl	sprintf
 644:main.c        ****             MyUART_PutString(uartStr);
 2274              		.loc 1 644 0
 2275 0348 0D4B     		ldr	r3, .L96+44
 2276 034a 1800     		movs	r0, r3
 2277 034c FFF7FEFF 		bl	MyUART_PutString
 645:main.c        ****                 break;
 2278              		.loc 1 645 0
 2279 0350 84E0     		b	.L75
 2280              	.L97:
 2281 0352 C046     		.align	2
 2282              	.L96:
 2283 0354 00000000 		.word	thermoState
 2284 0358 E0010000 		.word	.L65
 2285 035c 00000000 		.word	acStates
 2286 0360 00000000 		.word	counter
 2287 0364 3C000000 		.word	.LC28
 2288 0368 5C000000 		.word	.LC30
 2289 036c 74000000 		.word	.LC32
 2290 0370 88000000 		.word	.LC34
 2291 0374 9C000000 		.word	.LC36
 2292 0378 00000000 		.word	gpioPins
 2293 037c B4000000 		.word	.LC39
 2294 0380 00000000 		.word	uartStr
 2295 0384 F0000000 		.word	.LC42
 2296 0388 2C010000 		.word	.LC44
 2297 038c 68010000 		.word	.LC46
 2298              	.L64:
 646:main.c        ****         case 0x00:
 647:main.c        ****             if(acStates != 0x0 && counter >= 4){
 2299              		.loc 1 647 0
 2300 0390 344B     		ldr	r3, .L98
 2301 0392 1B68     		ldr	r3, [r3]
 2302 0394 002B     		cmp	r3, #0
 2303 0396 06D0     		beq	.L89
 2304              		.loc 1 647 0 is_stmt 0 discriminator 1
 2305 0398 334B     		ldr	r3, .L98+4
ARM GAS  C:\Users\sergio\AppData\Local\Temp\ccku3oR8.s 			page 55


 2306 039a 1B68     		ldr	r3, [r3]
 2307 039c 032B     		cmp	r3, #3
 2308 039e 02DD     		ble	.L89
 648:main.c        ****                  counter = 0;
 2309              		.loc 1 648 0 is_stmt 1
 2310 03a0 314B     		ldr	r3, .L98+4
 2311 03a2 0022     		movs	r2, #0
 2312 03a4 1A60     		str	r2, [r3]
 2313              	.L89:
 649:main.c        ****             }
 650:main.c        ****             if(acStates != 0x0){
 2314              		.loc 1 650 0
 2315 03a6 2F4B     		ldr	r3, .L98
 2316 03a8 1B68     		ldr	r3, [r3]
 2317 03aa 002B     		cmp	r3, #0
 2318 03ac 21D0     		beq	.L90
 651:main.c        ****                 if(counter == 1){
 2319              		.loc 1 651 0
 2320 03ae 2E4B     		ldr	r3, .L98+4
 2321 03b0 1B68     		ldr	r3, [r3]
 2322 03b2 012B     		cmp	r3, #1
 2323 03b4 05D1     		bne	.L91
 652:main.c        ****                     RelayC_3_Write(1);
 2324              		.loc 1 652 0
 2325 03b6 0120     		movs	r0, #1
 2326 03b8 FFF7FEFF 		bl	RelayC_3_Write
 653:main.c        ****                     Comp_out_Write(0);
 2327              		.loc 1 653 0
 2328 03bc 0020     		movs	r0, #0
 2329 03be FFF7FEFF 		bl	Comp_out_Write
 2330              	.L91:
 654:main.c        ****                 }
 655:main.c        ****                 if(counter == 2){
 2331              		.loc 1 655 0
 2332 03c2 294B     		ldr	r3, .L98+4
 2333 03c4 1B68     		ldr	r3, [r3]
 2334 03c6 022B     		cmp	r3, #2
 2335 03c8 05D1     		bne	.L92
 656:main.c        ****                     RelayHF_2_Write(1);
 2336              		.loc 1 656 0
 2337 03ca 0120     		movs	r0, #1
 2338 03cc FFF7FEFF 		bl	RelayHF_2_Write
 657:main.c        ****                     HighF_out_Write(0);
 2339              		.loc 1 657 0
 2340 03d0 0020     		movs	r0, #0
 2341 03d2 FFF7FEFF 		bl	HighF_out_Write
 2342              	.L92:
 658:main.c        ****                 }
 659:main.c        ****                 if(counter == 3){
 2343              		.loc 1 659 0
 2344 03d6 244B     		ldr	r3, .L98+4
 2345 03d8 1B68     		ldr	r3, [r3]
 2346 03da 032B     		cmp	r3, #3
 2347 03dc 1FD1     		bne	.L94
 660:main.c        ****                     RelayLF_1_Write(1);
 2348              		.loc 1 660 0
 2349 03de 0120     		movs	r0, #1
ARM GAS  C:\Users\sergio\AppData\Local\Temp\ccku3oR8.s 			page 56


 2350 03e0 FFF7FEFF 		bl	RelayLF_1_Write
 661:main.c        ****                     LowF_out_Write(0);
 2351              		.loc 1 661 0
 2352 03e4 0020     		movs	r0, #0
 2353 03e6 FFF7FEFF 		bl	LowF_out_Write
 662:main.c        ****                     acStates = 0x0;
 2354              		.loc 1 662 0
 2355 03ea 1E4B     		ldr	r3, .L98
 2356 03ec 0022     		movs	r2, #0
 2357 03ee 1A60     		str	r2, [r3]
 2358 03f0 15E0     		b	.L94
 2359              	.L90:
 663:main.c        ****                 }
 664:main.c        ****             }
 665:main.c        ****             else{
 666:main.c        ****                if(acStates == 0x00){
 2360              		.loc 1 666 0
 2361 03f2 1C4B     		ldr	r3, .L98
 2362 03f4 1B68     		ldr	r3, [r3]
 2363 03f6 002B     		cmp	r3, #0
 2364 03f8 11D1     		bne	.L94
 667:main.c        ****                     RelayC_3_Write(1);
 2365              		.loc 1 667 0
 2366 03fa 0120     		movs	r0, #1
 2367 03fc FFF7FEFF 		bl	RelayC_3_Write
 668:main.c        ****                     RelayHF_2_Write(1);
 2368              		.loc 1 668 0
 2369 0400 0120     		movs	r0, #1
 2370 0402 FFF7FEFF 		bl	RelayHF_2_Write
 669:main.c        ****                     RelayLF_1_Write(1);
 2371              		.loc 1 669 0
 2372 0406 0120     		movs	r0, #1
 2373 0408 FFF7FEFF 		bl	RelayLF_1_Write
 670:main.c        ****                     
 671:main.c        ****                     HighF_out_Write(1);
 2374              		.loc 1 671 0
 2375 040c 0120     		movs	r0, #1
 2376 040e FFF7FEFF 		bl	HighF_out_Write
 672:main.c        ****                     LowF_out_Write(1);
 2377              		.loc 1 672 0
 2378 0412 0120     		movs	r0, #1
 2379 0414 FFF7FEFF 		bl	LowF_out_Write
 673:main.c        ****                     Comp_out_Write(1);
 2380              		.loc 1 673 0
 2381 0418 0120     		movs	r0, #1
 2382 041a FFF7FEFF 		bl	Comp_out_Write
 2383              	.L94:
 674:main.c        ****                 }
 675:main.c        ****             }
 676:main.c        ****             
 677:main.c        ****             sprintf(uartStr,"0x00  switch gpio: %x  acstate: %x LF: %d, HF: %d, Comp:%d\n",gpioPins
 2384              		.loc 1 677 0
 2385 041e 134B     		ldr	r3, .L98+8
 2386 0420 1B78     		ldrb	r3, [r3]
 2387 0422 7B60     		str	r3, [r7, #4]
 2388 0424 0F4B     		ldr	r3, .L98
 2389 0426 1C68     		ldr	r4, [r3]
ARM GAS  C:\Users\sergio\AppData\Local\Temp\ccku3oR8.s 			page 57


 678:main.c        ****             RelayLF_1_Read(), RelayHF_2_Read(),RelayC_3_Read());
 2390              		.loc 1 678 0
 2391 0428 FFF7FEFF 		bl	RelayLF_1_Read
 2392 042c 0300     		movs	r3, r0
 677:main.c        ****             RelayLF_1_Read(), RelayHF_2_Read(),RelayC_3_Read());
 2393              		.loc 1 677 0
 2394 042e 1D00     		movs	r5, r3
 2395              		.loc 1 678 0
 2396 0430 FFF7FEFF 		bl	RelayHF_2_Read
 2397 0434 0300     		movs	r3, r0
 677:main.c        ****             RelayLF_1_Read(), RelayHF_2_Read(),RelayC_3_Read());
 2398              		.loc 1 677 0
 2399 0436 1E00     		movs	r6, r3
 2400              		.loc 1 678 0
 2401 0438 FFF7FEFF 		bl	RelayC_3_Read
 2402 043c 0300     		movs	r3, r0
 677:main.c        ****             RelayLF_1_Read(), RelayHF_2_Read(),RelayC_3_Read());
 2403              		.loc 1 677 0
 2404 043e 0C49     		ldr	r1, .L98+12
 2405 0440 0C48     		ldr	r0, .L98+16
 2406 0442 0293     		str	r3, [sp, #8]
 2407 0444 0196     		str	r6, [sp, #4]
 2408 0446 0095     		str	r5, [sp]
 2409 0448 2300     		movs	r3, r4
 2410 044a 7A68     		ldr	r2, [r7, #4]
 2411 044c FFF7FEFF 		bl	sprintf
 679:main.c        ****             MyUART_PutString(uartStr);
 2412              		.loc 1 679 0
 2413 0450 084B     		ldr	r3, .L98+16
 2414 0452 1800     		movs	r0, r3
 2415 0454 FFF7FEFF 		bl	MyUART_PutString
 680:main.c        ****             
 681:main.c        ****             break;  
 2416              		.loc 1 681 0
 2417 0458 00E0     		b	.L75
 2418              	.L95:
 682:main.c        ****         default:
 683:main.c        ****             break;
 2419              		.loc 1 683 0
 2420 045a C046     		nop
 2421              	.L75:
 684:main.c        ****     }
 685:main.c        **** 
 686:main.c        **** }
 2422              		.loc 1 686 0
 2423 045c C046     		nop
 2424 045e BD46     		mov	sp, r7
 2425 0460 03B0     		add	sp, sp, #12
 2426              		@ sp needed
 2427 0462 F0BD     		pop	{r4, r5, r6, r7, pc}
 2428              	.L99:
 2429              		.align	2
 2430              	.L98:
 2431 0464 00000000 		.word	acStates
 2432 0468 00000000 		.word	counter
 2433 046c 00000000 		.word	gpioPins
 2434 0470 A4010000 		.word	.LC48
ARM GAS  C:\Users\sergio\AppData\Local\Temp\ccku3oR8.s 			page 58


 2435 0474 00000000 		.word	uartStr
 2436              		.cfi_endproc
 2437              	.LFE51:
 2438              		.size	run_ac, .-run_ac
 2439              		.section	.rodata
 2440              		.align	2
 2441              	.LC57:
 2442 0234 72656164 		.ascii	"reading error\012\000"
 2442      696E6720 
 2442      6572726F 
 2442      720A00
 2443 0243 00       		.align	2
 2444              	.LC60:
 2445 0244 636F756E 		.ascii	"counter: %d\012\012 status start: %d\012 ID: %x\012"
 2445      7465723A 
 2445      2025640A 
 2445      0A207374 
 2445      61747573 
 2446 026b 00       		.ascii	"\000"
 2447              		.align	2
 2448              	.LC65:
 2449 026c 53656E73 		.ascii	"Sensor 1 temperature is %d\012\000"
 2449      6F722031 
 2449      2074656D 
 2449      70657261 
 2449      74757265 
 2450              		.align	2
 2451              	.LC67:
 2452 0288 53656E73 		.ascii	"Sensor 1 Remote temperature 1 is %d \012\000"
 2452      6F722031 
 2452      2052656D 
 2452      6F746520 
 2452      74656D70 
 2453 02ae 0000     		.align	2
 2454              	.LC69:
 2455 02b0 53656E73 		.ascii	"Sensor 1 Remote temperature 2 is %d \012\000"
 2455      6F722031 
 2455      2052656D 
 2455      6F746520 
 2455      74656D70 
 2456 02d6 0000     		.align	2
 2457              	.LC71:
 2458 02d8 0A0A544D 		.ascii	"\012\012TMP432B           ID: %x\012\000"
 2458      50343332 
 2458      42202020 
 2458      20202020 
 2458      20202020 
 2459              		.align	2
 2460              	.LC75:
 2461 02f4 53656E73 		.ascii	"Sensor 2 temperature is %d\012\000"
 2461      6F722032 
 2461      2074656D 
 2461      70657261 
 2461      74757265 
 2462              		.align	2
 2463              	.LC77:
 2464 0310 53656E73 		.ascii	"Sensor 2 Remote temperature 1 is %d \012\000"
ARM GAS  C:\Users\sergio\AppData\Local\Temp\ccku3oR8.s 			page 59


 2464      6F722032 
 2464      2052656D 
 2464      6F746520 
 2464      74656D70 
 2465 0336 0000     		.align	2
 2466              	.LC79:
 2467 0338 53656E73 		.ascii	"Sensor 2 Remote temperature 2 is %d \012\012\012\012"
 2467      6F722032 
 2467      2052656D 
 2467      6F746520 
 2467      74656D70 
 2468 0360 00       		.ascii	"\000"
 2469 0361 000000   		.align	2
 2470              	.LC81:
 2471 0364 0A583A20 		.ascii	"\012X: %d %d    12 bit x: %d\012\000"
 2471      25642025 
 2471      64202020 
 2471      20313220 
 2471      62697420 
 2472 037f 00       		.align	2
 2473              	.LC83:
 2474 0380 793A2025 		.ascii	"y: %d %d      12 bit y: %d\012\000"
 2474      64202564 
 2474      20202020 
 2474      20203132 
 2474      20626974 
 2475              		.align	2
 2476              	.LC85:
 2477 039c 5A3A2025 		.ascii	"Z: %d %d      12 bit z: %d\012\012\012\000"
 2477      64202564 
 2477      20202020 
 2477      20203132 
 2477      20626974 
 2478 03ba 0000     		.align	2
 2479              	.LC89:
 2480 03bc 0A546865 		.ascii	"\012Thermostast pins are 0x%x thermoState %x com %d"
 2480      726D6F73 
 2480      74617374 
 2480      2070696E 
 2480      73206172 
 2481 03ec 2C204C66 		.ascii	", Lf %d, Hf %d\012\012\000"
 2481      2025642C 
 2481      20486620 
 2481      25640A0A 
 2481      00
 2482              		.section	.text.main,"ax",%progbits
 2483              		.align	2
 2484              		.global	main
 2485              		.code	16
 2486              		.thumb_func
 2487              		.type	main, %function
 2488              	main:
 2489              	.LFB52:
 687:main.c        **** 
 688:main.c        **** int main (void)
 689:main.c        **** {
 2490              		.loc 1 689 0
ARM GAS  C:\Users\sergio\AppData\Local\Temp\ccku3oR8.s 			page 60


 2491              		.cfi_startproc
 2492              		@ args = 0, pretend = 0, frame = 72
 2493              		@ frame_needed = 1, uses_anonymous_args = 0
 2494 0000 F0B5     		push	{r4, r5, r6, r7, lr}
 2495              		.cfi_def_cfa_offset 20
 2496              		.cfi_offset 4, -20
 2497              		.cfi_offset 5, -16
 2498              		.cfi_offset 6, -12
 2499              		.cfi_offset 7, -8
 2500              		.cfi_offset 14, -4
 2501 0002 97B0     		sub	sp, sp, #92
 2502              		.cfi_def_cfa_offset 112
 2503 0004 04AF     		add	r7, sp, #16
 2504              		.cfi_def_cfa 7, 96
 690:main.c        ****     /* Place your initialization/startup code here (e.g. MyInst_Start()) */
 691:main.c        **** 
 692:main.c        ****      CyGlobalIntEnable;  /* Uncomment this line to enable global interrupts. */
 2505              		.loc 1 692 0
 2506              		.syntax divided
 2507              	@ 692 "main.c" 1
 2508 0006 62B6     		CPSIE   i
 2509              	@ 0 "" 2
 693:main.c        ****             
 694:main.c        ****     CEPIN_Write(1);
 2510              		.loc 1 694 0
 2511              		.thumb
 2512              		.syntax unified
 2513 0008 0120     		movs	r0, #1
 2514 000a FFF7FEFF 		bl	CEPIN_Write
 695:main.c        ****     
 696:main.c        ****     
 697:main.c        ****     RED_Write(0);
 2515              		.loc 1 697 0
 2516 000e 0020     		movs	r0, #0
 2517 0010 FFF7FEFF 		bl	RED_Write
 698:main.c        ****     GREEN_Write(0);
 2518              		.loc 1 698 0
 2519 0014 0020     		movs	r0, #0
 2520 0016 FFF7FEFF 		bl	GREEN_Write
 699:main.c        ****     BLUE_Write(0);
 2521              		.loc 1 699 0
 2522 001a 0020     		movs	r0, #0
 2523 001c FFF7FEFF 		bl	BLUE_Write
 700:main.c        ****     CyDelay(500);
 2524              		.loc 1 700 0
 2525 0020 FA23     		movs	r3, #250
 2526 0022 5B00     		lsls	r3, r3, #1
 2527 0024 1800     		movs	r0, r3
 2528 0026 FFF7FEFF 		bl	CyDelay
 701:main.c        ****     RED_Write(1);
 2529              		.loc 1 701 0
 2530 002a 0120     		movs	r0, #1
 2531 002c FFF7FEFF 		bl	RED_Write
 702:main.c        ****     GREEN_Write(1);
 2532              		.loc 1 702 0
 2533 0030 0120     		movs	r0, #1
 2534 0032 FFF7FEFF 		bl	GREEN_Write
ARM GAS  C:\Users\sergio\AppData\Local\Temp\ccku3oR8.s 			page 61


 703:main.c        ****     BLUE_Write(1);
 2535              		.loc 1 703 0
 2536 0036 0120     		movs	r0, #1
 2537 0038 FFF7FEFF 		bl	BLUE_Write
 704:main.c        ****     
 705:main.c        ****     I2C_1_Start();
 2538              		.loc 1 705 0
 2539 003c FFF7FEFF 		bl	I2C_1_Start
 706:main.c        ****     
 707:main.c        ****     MyUART_Start();
 2540              		.loc 1 707 0
 2541 0040 FFF7FEFF 		bl	MyUART_Start
 708:main.c        ****     
 709:main.c        ****     MyADC_Start();
 2542              		.loc 1 709 0
 2543 0044 FFF7FEFF 		bl	MyADC_Start
 710:main.c        ****     
 711:main.c        ****     MyADC_StartConvert();
 2544              		.loc 1 711 0
 2545 0048 FFF7FEFF 		bl	MyADC_StartConvert
 712:main.c        ****     
 713:main.c        ****     // call after I2C have been initiated
 714:main.c        ****     configure_temperature_sensor2();
 2546              		.loc 1 714 0
 2547 004c FFF7FEFF 		bl	configure_temperature_sensor2
 715:main.c        ****     configure_temperature_sensor1();
 2548              		.loc 1 715 0
 2549 0050 FFF7FEFF 		bl	configure_temperature_sensor1
 716:main.c        ****     initialized_input_gpioExp();
 2550              		.loc 1 716 0
 2551 0054 FFF7FEFF 		bl	initialized_input_gpioExp
 717:main.c        ****     
 718:main.c        ****     // only need to calibrate the firt time the board is ever used
 719:main.c        **** //   auto_calibrate_gain(ADDR_POWER1);
 720:main.c        **** //    auto_calibrate_gain(ADDR_POWER2);
 721:main.c        **** //    auto_calibrate_gain(ADDR_POWER3);
 722:main.c        ****     
 723:main.c        ****     // start BLE
 724:main.c        ****     CyBle_Start(bleStack);
 2552              		.loc 1 724 0
 2553 0058 FA4B     		ldr	r3, .L131
 2554 005a 1800     		movs	r0, r3
 2555 005c FFF7FEFF 		bl	CyBle_Start
 725:main.c        ****     
 726:main.c        ****     // 1sec interrupt
 727:main.c        ****     CySysWdtEnable(CY_SYS_WDT_COUNTER2);
 2556              		.loc 1 727 0
 2557 0060 0220     		movs	r0, #2
 2558 0062 FFF7FEFF 		bl	CySysWdtEnable
 728:main.c        ****     int_1_StartEx(my_interrupt);
 2559              		.loc 1 728 0
 2560 0066 F84B     		ldr	r3, .L131+4
 2561 0068 1800     		movs	r0, r3
 2562 006a FFF7FEFF 		bl	int_1_StartEx
 729:main.c        ****     
 730:main.c        ****     RelayLF_1_Write(1);
 2563              		.loc 1 730 0
ARM GAS  C:\Users\sergio\AppData\Local\Temp\ccku3oR8.s 			page 62


 2564 006e 0120     		movs	r0, #1
 2565 0070 FFF7FEFF 		bl	RelayLF_1_Write
 731:main.c        ****     HighF_out_Write(1);
 2566              		.loc 1 731 0
 2567 0074 0120     		movs	r0, #1
 2568 0076 FFF7FEFF 		bl	HighF_out_Write
 732:main.c        ****     
 733:main.c        ****     RelayHF_2_Write(1);
 2569              		.loc 1 733 0
 2570 007a 0120     		movs	r0, #1
 2571 007c FFF7FEFF 		bl	RelayHF_2_Write
 734:main.c        ****     LowF_out_Write(1);
 2572              		.loc 1 734 0
 2573 0080 0120     		movs	r0, #1
 2574 0082 FFF7FEFF 		bl	LowF_out_Write
 735:main.c        ****     
 736:main.c        ****     RelayC_3_Write(1);
 2575              		.loc 1 736 0
 2576 0086 0120     		movs	r0, #1
 2577 0088 FFF7FEFF 		bl	RelayC_3_Write
 737:main.c        ****     Comp_out_Write(1);
 2578              		.loc 1 737 0
 2579 008c 0120     		movs	r0, #1
 2580 008e FFF7FEFF 		bl	Comp_out_Write
 738:main.c        ****     
 739:main.c        **** acStates = 0u;
 2581              		.loc 1 739 0
 2582 0092 EE4B     		ldr	r3, .L131+8
 2583 0094 0022     		movs	r2, #0
 2584 0096 1A60     		str	r2, [r3]
 740:main.c        **** thermoState = 0u;
 2585              		.loc 1 740 0
 2586 0098 ED4B     		ldr	r3, .L131+12
 2587 009a 0022     		movs	r2, #0
 2588 009c 1A70     		strb	r2, [r3]
 741:main.c        **** 
 742:main.c        ****     
 743:main.c        **** //uint8 temp1 = 0;
 744:main.c        **** //uint8 tempR1 = 0;
 745:main.c        **** //uint8 tempR2 = 0;
 746:main.c        ****  uint8_t temp2 = 0;
 2589              		.loc 1 746 0
 2590 009e 3F23     		movs	r3, #63
 2591 00a0 FB18     		adds	r3, r7, r3
 2592 00a2 0022     		movs	r2, #0
 2593 00a4 1A70     		strb	r2, [r3]
 747:main.c        **** //uint8_t tempR12 = 0;    
 748:main.c        **** //uint8_t tempR22 = 0;
 749:main.c        ****    // volatile thermostatData thermo;
 750:main.c        ****    // volatile dataCollected sensorData;
 751:main.c        **** thermo.setTemperature = 0;
 2594              		.loc 1 751 0
 2595 00a6 EB4B     		ldr	r3, .L131+16
 2596 00a8 0022     		movs	r2, #0
 2597 00aa DA70     		strb	r2, [r3, #3]
 752:main.c        **** thermo.ambientTemp = 0;
 2598              		.loc 1 752 0
ARM GAS  C:\Users\sergio\AppData\Local\Temp\ccku3oR8.s 			page 63


 2599 00ac E94B     		ldr	r3, .L131+16
 2600 00ae 0022     		movs	r2, #0
 2601 00b0 1A71     		strb	r2, [r3, #4]
 753:main.c        ****  uint8 comp = 0u;
 2602              		.loc 1 753 0
 2603 00b2 4723     		movs	r3, #71
 2604 00b4 FB18     		adds	r3, r7, r3
 2605 00b6 0022     		movs	r2, #0
 2606 00b8 1A70     		strb	r2, [r3]
 754:main.c        ****  uint8 fanL = 0u;
 2607              		.loc 1 754 0
 2608 00ba 4623     		movs	r3, #70
 2609 00bc FB18     		adds	r3, r7, r3
 2610 00be 0022     		movs	r2, #0
 2611 00c0 1A70     		strb	r2, [r3]
 755:main.c        ****  uint8 fanH = 0u;
 2612              		.loc 1 755 0
 2613 00c2 4523     		movs	r3, #69
 2614 00c4 FB18     		adds	r3, r7, r3
 2615 00c6 0022     		movs	r2, #0
 2616 00c8 1A70     		strb	r2, [r3]
 2617              	.L129:
 756:main.c        ****     
 757:main.c        **** 
 758:main.c        ****     
 759:main.c        ****     for(;;){
 760:main.c        **** 
 761:main.c        ****  if(interruptFlag == 1){
 2618              		.loc 1 761 0
 2619 00ca E34B     		ldr	r3, .L131+20
 2620 00cc 1B68     		ldr	r3, [r3]
 2621 00ce 012B     		cmp	r3, #1
 2622 00d0 00D0     		beq	.LCB1986
 2623 00d2 E4E2     		b	.L101	@long jump
 2624              	.LCB1986:
 2625              	.LBB5:
 762:main.c        ****     
 763:main.c        **** //    if(MyADC_IsEndConversion(MyADC_RETURN_STATUS)){
 764:main.c        **** //        adcRead = MyADC_GetResult16(0);
 765:main.c        **** ////    
 766:main.c        **** //    sprintf(uartStr, "*-*-*-*-*-*-*-*-  ADC is: %d -*-*-*-*-*-*-*-*-\n", adcRead);
 767:main.c        **** //    MyUART_PutString(uartStr);
 768:main.c        **** //    }
 769:main.c        **** //    
 770:main.c        ****   // if(adcRead < 1300){
 771:main.c        ****    // if(adcRead < 1501){
 772:main.c        ****        //CEPIN_Write(0);
 773:main.c        ****     // }
 774:main.c        ****   // }
 775:main.c        ****     //else if(adcRead > 1500){
 776:main.c        ****      //  CEPIN_Write(1);
 777:main.c        ****        
 778:main.c        ****     volatile uint8 read_buff[2] = {0,0};
 2626              		.loc 1 778 0
 2627 00d4 3C23     		movs	r3, #60
 2628 00d6 FB18     		adds	r3, r7, r3
 2629 00d8 0022     		movs	r2, #0
ARM GAS  C:\Users\sergio\AppData\Local\Temp\ccku3oR8.s 			page 64


 2630 00da 1A70     		strb	r2, [r3]
 2631 00dc 3C23     		movs	r3, #60
 2632 00de FB18     		adds	r3, r7, r3
 2633 00e0 0022     		movs	r2, #0
 2634 00e2 5A70     		strb	r2, [r3, #1]
 779:main.c        ****     
 780:main.c        ****         int statusStart = 0;
 2635              		.loc 1 780 0
 2636 00e4 0023     		movs	r3, #0
 2637 00e6 3B64     		str	r3, [r7, #64]
 781:main.c        **** 
 782:main.c        ****         
 783:main.c        ****     // -----------------------read temperatures--------------------------------------
 784:main.c        ****     char str[50];
 785:main.c        ****     
 786:main.c        **** //   ID  TMP432A
 787:main.c        **** 
 788:main.c        ****   I2C_1_I2CMasterSendStart(0x4C, I2C_1_I2C_WRITE_XFER_MODE, 0);
 2638              		.loc 1 788 0
 2639 00e8 0022     		movs	r2, #0
 2640 00ea 0021     		movs	r1, #0
 2641 00ec 4C20     		movs	r0, #76
 2642 00ee FFF7FEFF 		bl	I2C_1_I2CMasterSendStart
 789:main.c        **** if ((I2C_1_I2CMasterStatus() & I2C_1_I2C_MSTAT_ERR_ADDR_NAK)==1){ MyUART_PutString("slave NACK addr
 2643              		.loc 1 789 0
 2644 00f2 FFF7FEFF 		bl	I2C_1_I2CMasterStatus
 790:main.c        ****    I2C_1_I2CMasterWriteByte(0xFD, 0); // check ID 
 2645              		.loc 1 790 0
 2646 00f6 0021     		movs	r1, #0
 2647 00f8 FD20     		movs	r0, #253
 2648 00fa FFF7FEFF 		bl	I2C_1_I2CMasterWriteByte
 791:main.c        **** if ((I2C_1_I2CMasterStatus() & I2C_1_I2C_MSTAT_WR_CMPLT)==1){ MyUART_PutString("writing error\n");}
 2649              		.loc 1 791 0
 2650 00fe FFF7FEFF 		bl	I2C_1_I2CMasterStatus
 792:main.c        ****    I2C_1_I2CMasterSendRestart(0x4C,I2C_1_I2C_READ_XFER_MODE, 0);
 2651              		.loc 1 792 0
 2652 0102 0022     		movs	r2, #0
 2653 0104 0121     		movs	r1, #1
 2654 0106 4C20     		movs	r0, #76
 2655 0108 FFF7FEFF 		bl	I2C_1_I2CMasterSendRestart
 793:main.c        **** 
 794:main.c        ****    I2C_1_I2CMasterReadByte(I2C_1_I2C_NAK_DATA,(uint8 *) &thermo.ambientTemp, 0);
 2656              		.loc 1 794 0
 2657 010c D34B     		ldr	r3, .L131+24
 2658 010e 0022     		movs	r2, #0
 2659 0110 1900     		movs	r1, r3
 2660 0112 0120     		movs	r0, #1
 2661 0114 FFF7FEFF 		bl	I2C_1_I2CMasterReadByte
 795:main.c        **** if ((I2C_1_I2CMasterStatus() & I2C_1_I2C_MSTAT_RD_CMPLT)==1){ MyUART_PutString("reading error\n");}
 2662              		.loc 1 795 0
 2663 0118 FFF7FEFF 		bl	I2C_1_I2CMasterStatus
 2664 011c 0200     		movs	r2, r0
 2665 011e 0123     		movs	r3, #1
 2666 0120 1340     		ands	r3, r2
 2667 0122 03D0     		beq	.L102
 2668              		.loc 1 795 0 is_stmt 0 discriminator 1
 2669 0124 CE4B     		ldr	r3, .L131+28
ARM GAS  C:\Users\sergio\AppData\Local\Temp\ccku3oR8.s 			page 65


 2670 0126 1800     		movs	r0, r3
 2671 0128 FFF7FEFF 		bl	MyUART_PutString
 2672              	.L102:
 796:main.c        ****    I2C_1_I2CMasterSendStop(0);
 2673              		.loc 1 796 0 is_stmt 1
 2674 012c 0020     		movs	r0, #0
 2675 012e FFF7FEFF 		bl	I2C_1_I2CMasterSendStop
 797:main.c        **** 
 798:main.c        **** 
 799:main.c        ****   sprintf(str, "counter: %d\n\n status start: %d\n ID: %x\n", counter,statusStart, thermo.ambientTe
 2676              		.loc 1 799 0
 2677 0132 CC4B     		ldr	r3, .L131+32
 2678 0134 1A68     		ldr	r2, [r3]
 2679 0136 C74B     		ldr	r3, .L131+16
 2680 0138 1B79     		ldrb	r3, [r3, #4]
 2681 013a 1C00     		movs	r4, r3
 2682 013c 3B6C     		ldr	r3, [r7, #64]
 2683 013e CA49     		ldr	r1, .L131+36
 2684 0140 381D     		adds	r0, r7, #4
 2685 0142 0094     		str	r4, [sp]
 2686 0144 FFF7FEFF 		bl	sprintf
 800:main.c        ****     MyUART_PutString(str);
 2687              		.loc 1 800 0
 2688 0148 3B1D     		adds	r3, r7, #4
 2689 014a 1800     		movs	r0, r3
 2690 014c FFF7FEFF 		bl	MyUART_PutString
 801:main.c        ****     
 802:main.c        **** //    
 803:main.c        **** //  READ local sensor  TMP432A
 804:main.c        ****     I2C_1_I2CMasterSendStart(0x4C, I2C_1_I2C_WRITE_XFER_MODE, 0u);
 2691              		.loc 1 804 0
 2692 0150 0022     		movs	r2, #0
 2693 0152 0021     		movs	r1, #0
 2694 0154 4C20     		movs	r0, #76
 2695 0156 FFF7FEFF 		bl	I2C_1_I2CMasterSendStart
 805:main.c        ****    I2C_1_I2CMasterWriteByte(0x00, 0u);
 2696              		.loc 1 805 0
 2697 015a 0021     		movs	r1, #0
 2698 015c 0020     		movs	r0, #0
 2699 015e FFF7FEFF 		bl	I2C_1_I2CMasterWriteByte
 806:main.c        ****    I2C_1_I2CMasterSendRestart(0x4C,I2C_1_I2C_READ_XFER_MODE, 0u);
 2700              		.loc 1 806 0
 2701 0162 0022     		movs	r2, #0
 2702 0164 0121     		movs	r1, #1
 2703 0166 4C20     		movs	r0, #76
 2704 0168 FFF7FEFF 		bl	I2C_1_I2CMasterSendRestart
 807:main.c        ****    //I2C_1_I2CMasterReadByte(I2C_1_I2C_ACK_DATA,(uint8 *) &read_buff[0],100u);
 808:main.c        ****    I2C_1_I2CMasterReadByte(I2C_1_I2C_NAK_DATA,(uint8 *) &sensorData.localTemp,0u);
 2705              		.loc 1 808 0
 2706 016c BF4B     		ldr	r3, .L131+40
 2707 016e 0022     		movs	r2, #0
 2708 0170 1900     		movs	r1, r3
 2709 0172 0120     		movs	r0, #1
 2710 0174 FFF7FEFF 		bl	I2C_1_I2CMasterReadByte
 809:main.c        ****    I2C_1_I2CMasterSendStop(0u);
 2711              		.loc 1 809 0
 2712 0178 0020     		movs	r0, #0
ARM GAS  C:\Users\sergio\AppData\Local\Temp\ccku3oR8.s 			page 66


 2713 017a FFF7FEFF 		bl	I2C_1_I2CMasterSendStop
 810:main.c        ****     
 811:main.c        **** ////  READ remote sensor 1 TMP432A    hot side exp valve
 812:main.c        ****   I2C_1_I2CMasterSendStart(0x4C, I2C_1_I2C_WRITE_XFER_MODE, 0u);
 2714              		.loc 1 812 0
 2715 017e 0022     		movs	r2, #0
 2716 0180 0021     		movs	r1, #0
 2717 0182 4C20     		movs	r0, #76
 2718 0184 FFF7FEFF 		bl	I2C_1_I2CMasterSendStart
 813:main.c        ****    I2C_1_I2CMasterWriteByte(0x01, 0u);
 2719              		.loc 1 813 0
 2720 0188 0021     		movs	r1, #0
 2721 018a 0120     		movs	r0, #1
 2722 018c FFF7FEFF 		bl	I2C_1_I2CMasterWriteByte
 814:main.c        ****    I2C_1_I2CMasterSendRestart(0x4C,I2C_1_I2C_READ_XFER_MODE, 0u);
 2723              		.loc 1 814 0
 2724 0190 0022     		movs	r2, #0
 2725 0192 0121     		movs	r1, #1
 2726 0194 4C20     		movs	r0, #76
 2727 0196 FFF7FEFF 		bl	I2C_1_I2CMasterSendRestart
 815:main.c        ****    //I2C_1_I2CMasterReadByte(I2C_1_I2C_ACK_DATA,(uint8 *) &read_buff[0],100u);
 816:main.c        ****    I2C_1_I2CMasterReadByte(I2C_1_I2C_NAK_DATA,(uint8 *) &sensorData.remoteTemp1,0u);
 2728              		.loc 1 816 0
 2729 019a B54B     		ldr	r3, .L131+44
 2730 019c 0022     		movs	r2, #0
 2731 019e 1900     		movs	r1, r3
 2732 01a0 0120     		movs	r0, #1
 2733 01a2 FFF7FEFF 		bl	I2C_1_I2CMasterReadByte
 817:main.c        ****    I2C_1_I2CMasterSendStop(0u);
 2734              		.loc 1 817 0
 2735 01a6 0020     		movs	r0, #0
 2736 01a8 FFF7FEFF 		bl	I2C_1_I2CMasterSendStop
 818:main.c        **** //
 819:main.c        **** //
 820:main.c        **** ////  READ remote sensor 2   TMP432A   hot side evaporator
 821:main.c        ****   I2C_1_I2CMasterSendStart(0x4C, I2C_1_I2C_WRITE_XFER_MODE, 0u);
 2737              		.loc 1 821 0
 2738 01ac 0022     		movs	r2, #0
 2739 01ae 0021     		movs	r1, #0
 2740 01b0 4C20     		movs	r0, #76
 2741 01b2 FFF7FEFF 		bl	I2C_1_I2CMasterSendStart
 822:main.c        ****    I2C_1_I2CMasterWriteByte(0x23, 0u);
 2742              		.loc 1 822 0
 2743 01b6 0021     		movs	r1, #0
 2744 01b8 2320     		movs	r0, #35
 2745 01ba FFF7FEFF 		bl	I2C_1_I2CMasterWriteByte
 823:main.c        ****    I2C_1_I2CMasterSendRestart(0x4C,I2C_1_I2C_READ_XFER_MODE, 0u);
 2746              		.loc 1 823 0
 2747 01be 0022     		movs	r2, #0
 2748 01c0 0121     		movs	r1, #1
 2749 01c2 4C20     		movs	r0, #76
 2750 01c4 FFF7FEFF 		bl	I2C_1_I2CMasterSendRestart
 824:main.c        ****    //I2C_1_I2CMasterReadByte(I2C_1_I2C_ACK_DATA,(uint8 *) &read_buff[0],100u);
 825:main.c        ****    I2C_1_I2CMasterReadByte(I2C_1_I2C_NAK_DATA,(uint8 *) &sensorData.remoteTemp2,0u);
 2751              		.loc 1 825 0
 2752 01c8 AA4B     		ldr	r3, .L131+48
 2753 01ca 0022     		movs	r2, #0
ARM GAS  C:\Users\sergio\AppData\Local\Temp\ccku3oR8.s 			page 67


 2754 01cc 1900     		movs	r1, r3
 2755 01ce 0120     		movs	r0, #1
 2756 01d0 FFF7FEFF 		bl	I2C_1_I2CMasterReadByte
 826:main.c        ****    I2C_1_I2CMasterSendStop(0u);
 2757              		.loc 1 826 0
 2758 01d4 0020     		movs	r0, #0
 2759 01d6 FFF7FEFF 		bl	I2C_1_I2CMasterSendStop
 827:main.c        **** //
 828:main.c        **** //
 829:main.c        **** //
 830:main.c        **** //
 831:main.c        **** sprintf(str, "Sensor 1 temperature is %d\n", sensorData.localTemp-64);
 2760              		.loc 1 831 0
 2761 01da A44B     		ldr	r3, .L131+40
 2762 01dc 1B78     		ldrb	r3, [r3]
 2763 01de 403B     		subs	r3, r3, #64
 2764 01e0 1A00     		movs	r2, r3
 2765 01e2 A549     		ldr	r1, .L131+52
 2766 01e4 3B1D     		adds	r3, r7, #4
 2767 01e6 1800     		movs	r0, r3
 2768 01e8 FFF7FEFF 		bl	sprintf
 832:main.c        **** MyUART_PutString(str);
 2769              		.loc 1 832 0
 2770 01ec 3B1D     		adds	r3, r7, #4
 2771 01ee 1800     		movs	r0, r3
 2772 01f0 FFF7FEFF 		bl	MyUART_PutString
 833:main.c        **** 
 834:main.c        **** sprintf(str, "Sensor 1 Remote temperature 1 is %d \n", (sensorData.remoteTemp1-64));
 2773              		.loc 1 834 0
 2774 01f4 9D4B     		ldr	r3, .L131+40
 2775 01f6 9B78     		ldrb	r3, [r3, #2]
 2776 01f8 403B     		subs	r3, r3, #64
 2777 01fa 1A00     		movs	r2, r3
 2778 01fc 9F49     		ldr	r1, .L131+56
 2779 01fe 3B1D     		adds	r3, r7, #4
 2780 0200 1800     		movs	r0, r3
 2781 0202 FFF7FEFF 		bl	sprintf
 835:main.c        **** MyUART_PutString(str);
 2782              		.loc 1 835 0
 2783 0206 3B1D     		adds	r3, r7, #4
 2784 0208 1800     		movs	r0, r3
 2785 020a FFF7FEFF 		bl	MyUART_PutString
 836:main.c        **** 
 837:main.c        **** 
 838:main.c        **** sprintf(str, "Sensor 1 Remote temperature 2 is %d \n", (sensorData.remoteTemp2-64));
 2786              		.loc 1 838 0
 2787 020e 974B     		ldr	r3, .L131+40
 2788 0210 DB78     		ldrb	r3, [r3, #3]
 2789 0212 403B     		subs	r3, r3, #64
 2790 0214 1A00     		movs	r2, r3
 2791 0216 9A49     		ldr	r1, .L131+60
 2792 0218 3B1D     		adds	r3, r7, #4
 2793 021a 1800     		movs	r0, r3
 2794 021c FFF7FEFF 		bl	sprintf
 839:main.c        **** MyUART_PutString(str);
 2795              		.loc 1 839 0
 2796 0220 3B1D     		adds	r3, r7, #4
ARM GAS  C:\Users\sergio\AppData\Local\Temp\ccku3oR8.s 			page 68


 2797 0222 1800     		movs	r0, r3
 2798 0224 FFF7FEFF 		bl	MyUART_PutString
 840:main.c        **** 
 841:main.c        **** 
 842:main.c        **** //
 843:main.c        **** //   ID  TMP432B
 844:main.c        ****    I2C_1_I2CMasterSendStart(0x4D, I2C_1_I2C_WRITE_XFER_MODE, 0u);
 2799              		.loc 1 844 0
 2800 0228 0022     		movs	r2, #0
 2801 022a 0021     		movs	r1, #0
 2802 022c 4D20     		movs	r0, #77
 2803 022e FFF7FEFF 		bl	I2C_1_I2CMasterSendStart
 845:main.c        **** if ((I2C_1_I2CMasterStatus() & I2C_1_I2C_MSTAT_ERR_ADDR_NAK)==1){ MyUART_PutString("slave NACK addr
 2804              		.loc 1 845 0
 2805 0232 FFF7FEFF 		bl	I2C_1_I2CMasterStatus
 846:main.c        ****    I2C_1_I2CMasterWriteByte(0xFD, 0u); // check ID 
 2806              		.loc 1 846 0
 2807 0236 0021     		movs	r1, #0
 2808 0238 FD20     		movs	r0, #253
 2809 023a FFF7FEFF 		bl	I2C_1_I2CMasterWriteByte
 847:main.c        **** if ((I2C_1_I2CMasterStatus() & I2C_1_I2C_MSTAT_WR_CMPLT)==1){ MyUART_PutString("writing error\n");}
 2810              		.loc 1 847 0
 2811 023e FFF7FEFF 		bl	I2C_1_I2CMasterStatus
 848:main.c        ****    I2C_1_I2CMasterSendRestart(0x4D,I2C_1_I2C_READ_XFER_MODE, 0u);
 2812              		.loc 1 848 0
 2813 0242 0022     		movs	r2, #0
 2814 0244 0121     		movs	r1, #1
 2815 0246 4D20     		movs	r0, #77
 2816 0248 FFF7FEFF 		bl	I2C_1_I2CMasterSendRestart
 849:main.c        **** temp2 =0;
 2817              		.loc 1 849 0
 2818 024c 3F23     		movs	r3, #63
 2819 024e FB18     		adds	r3, r7, r3
 2820 0250 0022     		movs	r2, #0
 2821 0252 1A70     		strb	r2, [r3]
 850:main.c        ****    I2C_1_I2CMasterReadByte(I2C_1_I2C_NAK_DATA,(uint8 *) &temp2, 0u);
 2822              		.loc 1 850 0
 2823 0254 3F23     		movs	r3, #63
 2824 0256 FB18     		adds	r3, r7, r3
 2825 0258 0022     		movs	r2, #0
 2826 025a 1900     		movs	r1, r3
 2827 025c 0120     		movs	r0, #1
 2828 025e FFF7FEFF 		bl	I2C_1_I2CMasterReadByte
 851:main.c        **** if ((I2C_1_I2CMasterStatus() & I2C_1_I2C_MSTAT_RD_CMPLT)==1){ MyUART_PutString("reading error\n");}
 2829              		.loc 1 851 0
 2830 0262 FFF7FEFF 		bl	I2C_1_I2CMasterStatus
 2831 0266 0200     		movs	r2, r0
 2832 0268 0123     		movs	r3, #1
 2833 026a 1340     		ands	r3, r2
 2834 026c 03D0     		beq	.L103
 2835              		.loc 1 851 0 is_stmt 0 discriminator 1
 2836 026e 7C4B     		ldr	r3, .L131+28
 2837 0270 1800     		movs	r0, r3
 2838 0272 FFF7FEFF 		bl	MyUART_PutString
 2839              	.L103:
 852:main.c        ****    I2C_1_I2CMasterSendStop(0);
 2840              		.loc 1 852 0 is_stmt 1
ARM GAS  C:\Users\sergio\AppData\Local\Temp\ccku3oR8.s 			page 69


 2841 0276 0020     		movs	r0, #0
 2842 0278 FFF7FEFF 		bl	I2C_1_I2CMasterSendStop
 853:main.c        **** 
 854:main.c        **** 
 855:main.c        ****   sprintf(str, "\n\nTMP432B           ID: %x\n", temp2);
 2843              		.loc 1 855 0
 2844 027c 3F23     		movs	r3, #63
 2845 027e FB18     		adds	r3, r7, r3
 2846 0280 1B78     		ldrb	r3, [r3]
 2847 0282 1A00     		movs	r2, r3
 2848 0284 7F49     		ldr	r1, .L131+64
 2849 0286 3B1D     		adds	r3, r7, #4
 2850 0288 1800     		movs	r0, r3
 2851 028a FFF7FEFF 		bl	sprintf
 856:main.c        ****     MyUART_PutString(str);
 2852              		.loc 1 856 0
 2853 028e 3B1D     		adds	r3, r7, #4
 2854 0290 1800     		movs	r0, r3
 2855 0292 FFF7FEFF 		bl	MyUART_PutString
 857:main.c        **** 
 858:main.c        **** temp2 = 0;
 2856              		.loc 1 858 0
 2857 0296 3F23     		movs	r3, #63
 2858 0298 FB18     		adds	r3, r7, r3
 2859 029a 0022     		movs	r2, #0
 2860 029c 1A70     		strb	r2, [r3]
 859:main.c        ****   //READ local sensor  2  TMP432B
 860:main.c        ****    I2C_1_I2CMasterSendStart(0x4D, I2C_1_I2C_WRITE_XFER_MODE, 0u);
 2861              		.loc 1 860 0
 2862 029e 0022     		movs	r2, #0
 2863 02a0 0021     		movs	r1, #0
 2864 02a2 4D20     		movs	r0, #77
 2865 02a4 FFF7FEFF 		bl	I2C_1_I2CMasterSendStart
 861:main.c        ****    I2C_1_I2CMasterWriteByte(0x00, 0u);
 2866              		.loc 1 861 0
 2867 02a8 0021     		movs	r1, #0
 2868 02aa 0020     		movs	r0, #0
 2869 02ac FFF7FEFF 		bl	I2C_1_I2CMasterWriteByte
 862:main.c        ****    I2C_1_I2CMasterSendRestart(0x4D,I2C_1_I2C_READ_XFER_MODE, 0u);
 2870              		.loc 1 862 0
 2871 02b0 0022     		movs	r2, #0
 2872 02b2 0121     		movs	r1, #1
 2873 02b4 4D20     		movs	r0, #77
 2874 02b6 FFF7FEFF 		bl	I2C_1_I2CMasterSendRestart
 863:main.c        ****    //I2C_1_I2CMasterReadByte(I2C_1_I2C_ACK_DATA,(uint8 *) &read_buff[0],100u);
 864:main.c        ****    I2C_1_I2CMasterReadByte(I2C_1_I2C_NAK_DATA,(uint8 *) &temp2,0u);
 2875              		.loc 1 864 0
 2876 02ba 3F23     		movs	r3, #63
 2877 02bc FB18     		adds	r3, r7, r3
 2878 02be 0022     		movs	r2, #0
 2879 02c0 1900     		movs	r1, r3
 2880 02c2 0120     		movs	r0, #1
 2881 02c4 FFF7FEFF 		bl	I2C_1_I2CMasterReadByte
 865:main.c        ****    I2C_1_I2CMasterSendStop(0u);
 2882              		.loc 1 865 0
 2883 02c8 0020     		movs	r0, #0
 2884 02ca FFF7FEFF 		bl	I2C_1_I2CMasterSendStop
ARM GAS  C:\Users\sergio\AppData\Local\Temp\ccku3oR8.s 			page 70


 866:main.c        **** 
 867:main.c        **** //  READ remote 2 sensor 1 TMP432B    cold side exp val
 868:main.c        ****   I2C_1_I2CMasterSendStart(0x4D, I2C_1_I2C_WRITE_XFER_MODE, 0u);
 2885              		.loc 1 868 0
 2886 02ce 0022     		movs	r2, #0
 2887 02d0 0021     		movs	r1, #0
 2888 02d2 4D20     		movs	r0, #77
 2889 02d4 FFF7FEFF 		bl	I2C_1_I2CMasterSendStart
 869:main.c        ****    I2C_1_I2CMasterWriteByte(0x23, 0u);
 2890              		.loc 1 869 0
 2891 02d8 0021     		movs	r1, #0
 2892 02da 2320     		movs	r0, #35
 2893 02dc FFF7FEFF 		bl	I2C_1_I2CMasterWriteByte
 870:main.c        ****    I2C_1_I2CMasterSendRestart(0x4D,I2C_1_I2C_READ_XFER_MODE, 0u);
 2894              		.loc 1 870 0
 2895 02e0 0022     		movs	r2, #0
 2896 02e2 0121     		movs	r1, #1
 2897 02e4 4D20     		movs	r0, #77
 2898 02e6 FFF7FEFF 		bl	I2C_1_I2CMasterSendRestart
 871:main.c        ****    //I2C_1_I2CMasterReadByte(I2C_1_I2C_ACK_DATA,(uint8 *) &read_buff[0],100u);
 872:main.c        ****    I2C_1_I2CMasterReadByte(I2C_1_I2C_NAK_DATA,(uint8 *) &sensorData.remoteTemp3,0u);
 2899              		.loc 1 872 0
 2900 02ea 674B     		ldr	r3, .L131+68
 2901 02ec 0022     		movs	r2, #0
 2902 02ee 1900     		movs	r1, r3
 2903 02f0 0120     		movs	r0, #1
 2904 02f2 FFF7FEFF 		bl	I2C_1_I2CMasterReadByte
 873:main.c        ****    I2C_1_I2CMasterSendStop(0u);
 2905              		.loc 1 873 0
 2906 02f6 0020     		movs	r0, #0
 2907 02f8 FFF7FEFF 		bl	I2C_1_I2CMasterSendStop
 874:main.c        **** 
 875:main.c        **** 
 876:main.c        **** //  READ remote 2 sensor 2  TMP432B   cold side evaporator
 877:main.c        ****   I2C_1_I2CMasterSendStart(0x4D, I2C_1_I2C_WRITE_XFER_MODE, 0u);
 2908              		.loc 1 877 0
 2909 02fc 0022     		movs	r2, #0
 2910 02fe 0021     		movs	r1, #0
 2911 0300 4D20     		movs	r0, #77
 2912 0302 FFF7FEFF 		bl	I2C_1_I2CMasterSendStart
 878:main.c        ****    I2C_1_I2CMasterWriteByte(0x01, 0u);
 2913              		.loc 1 878 0
 2914 0306 0021     		movs	r1, #0
 2915 0308 0120     		movs	r0, #1
 2916 030a FFF7FEFF 		bl	I2C_1_I2CMasterWriteByte
 879:main.c        ****    I2C_1_I2CMasterSendRestart(0x4D,I2C_1_I2C_READ_XFER_MODE, 0u);
 2917              		.loc 1 879 0
 2918 030e 0022     		movs	r2, #0
 2919 0310 0121     		movs	r1, #1
 2920 0312 4D20     		movs	r0, #77
 2921 0314 FFF7FEFF 		bl	I2C_1_I2CMasterSendRestart
 880:main.c        ****    //I2C_1_I2CMasterReadByte(I2C_1_I2C_ACK_DATA,(uint8 *) &read_buff[0],100u);
 881:main.c        ****    I2C_1_I2CMasterReadByte(I2C_1_I2C_NAK_DATA,(uint8 *) &sensorData.remoteTemp4,0u);
 2922              		.loc 1 881 0
 2923 0318 5C4B     		ldr	r3, .L131+72
 2924 031a 0022     		movs	r2, #0
 2925 031c 1900     		movs	r1, r3
ARM GAS  C:\Users\sergio\AppData\Local\Temp\ccku3oR8.s 			page 71


 2926 031e 0120     		movs	r0, #1
 2927 0320 FFF7FEFF 		bl	I2C_1_I2CMasterReadByte
 882:main.c        ****    I2C_1_I2CMasterSendStop(0u);
 2928              		.loc 1 882 0
 2929 0324 0020     		movs	r0, #0
 2930 0326 FFF7FEFF 		bl	I2C_1_I2CMasterSendStop
 883:main.c        **** 
 884:main.c        **** 
 885:main.c        **** //sensorData.localTemp = (sensorData.localTemp+temp2)/2;
 886:main.c        **** 
 887:main.c        **** sprintf(str, "Sensor 2 temperature is %d\n", (temp2-64));
 2931              		.loc 1 887 0
 2932 032a 3F23     		movs	r3, #63
 2933 032c FB18     		adds	r3, r7, r3
 2934 032e 1B78     		ldrb	r3, [r3]
 2935 0330 403B     		subs	r3, r3, #64
 2936 0332 1A00     		movs	r2, r3
 2937 0334 5649     		ldr	r1, .L131+76
 2938 0336 3B1D     		adds	r3, r7, #4
 2939 0338 1800     		movs	r0, r3
 2940 033a FFF7FEFF 		bl	sprintf
 888:main.c        **** MyUART_PutString(str);
 2941              		.loc 1 888 0
 2942 033e 3B1D     		adds	r3, r7, #4
 2943 0340 1800     		movs	r0, r3
 2944 0342 FFF7FEFF 		bl	MyUART_PutString
 889:main.c        **** 
 890:main.c        **** sprintf(str, "Sensor 2 Remote temperature 1 is %d \n", (sensorData.remoteTemp3-64));
 2945              		.loc 1 890 0
 2946 0346 494B     		ldr	r3, .L131+40
 2947 0348 1B79     		ldrb	r3, [r3, #4]
 2948 034a 403B     		subs	r3, r3, #64
 2949 034c 1A00     		movs	r2, r3
 2950 034e 5149     		ldr	r1, .L131+80
 2951 0350 3B1D     		adds	r3, r7, #4
 2952 0352 1800     		movs	r0, r3
 2953 0354 FFF7FEFF 		bl	sprintf
 891:main.c        **** MyUART_PutString(str);
 2954              		.loc 1 891 0
 2955 0358 3B1D     		adds	r3, r7, #4
 2956 035a 1800     		movs	r0, r3
 2957 035c FFF7FEFF 		bl	MyUART_PutString
 892:main.c        **** 
 893:main.c        **** 
 894:main.c        **** sprintf(str, "Sensor 2 Remote temperature 2 is %d \n\n\n\n", (sensorData.remoteTemp4-64));
 2958              		.loc 1 894 0
 2959 0360 424B     		ldr	r3, .L131+40
 2960 0362 5B79     		ldrb	r3, [r3, #5]
 2961 0364 403B     		subs	r3, r3, #64
 2962 0366 1A00     		movs	r2, r3
 2963 0368 4B49     		ldr	r1, .L131+84
 2964 036a 3B1D     		adds	r3, r7, #4
 2965 036c 1800     		movs	r0, r3
 2966 036e FFF7FEFF 		bl	sprintf
 895:main.c        **** MyUART_PutString(str);
 2967              		.loc 1 895 0
 2968 0372 3B1D     		adds	r3, r7, #4
ARM GAS  C:\Users\sergio\AppData\Local\Temp\ccku3oR8.s 			page 72


 2969 0374 1800     		movs	r0, r3
 2970 0376 FFF7FEFF 		bl	MyUART_PutString
 896:main.c        **** 
 897:main.c        **** 
 898:main.c        **** 
 899:main.c        **** /*  ---------------------------- ACCELEROMETER -----------------------------------   */
 900:main.c        **** 
 901:main.c        **** uint8 xLSB;
 902:main.c        **** uint8 xMSB;
 903:main.c        **** uint8 yLSB;
 904:main.c        **** uint8 yMSB;
 905:main.c        **** uint8 zLSB;
 906:main.c        **** uint8 zMSB;
 907:main.c        **** 
 908:main.c        **** I2C_1_I2CMasterSendStart(0x18,I2C_1_I2C_WRITE_XFER_MODE, 100u);
 2971              		.loc 1 908 0
 2972 037a 6422     		movs	r2, #100
 2973 037c 0021     		movs	r1, #0
 2974 037e 1820     		movs	r0, #24
 2975 0380 FFF7FEFF 		bl	I2C_1_I2CMasterSendStart
 909:main.c        **** I2C_1_I2CMasterWriteByte(0x02, 100u);
 2976              		.loc 1 909 0
 2977 0384 6421     		movs	r1, #100
 2978 0386 0220     		movs	r0, #2
 2979 0388 FFF7FEFF 		bl	I2C_1_I2CMasterWriteByte
 910:main.c        **** I2C_1_I2CMasterSendRestart(0x18, I2C_1_I2C_READ_XFER_MODE, 100u);
 2980              		.loc 1 910 0
 2981 038c 6422     		movs	r2, #100
 2982 038e 0121     		movs	r1, #1
 2983 0390 1820     		movs	r0, #24
 2984 0392 FFF7FEFF 		bl	I2C_1_I2CMasterSendRestart
 911:main.c        **** I2C_1_I2CMasterReadByte(I2C_1_I2C_NAK_DATA,(uint8 *) &xLSB ,100u);
 2985              		.loc 1 911 0
 2986 0396 3B23     		movs	r3, #59
 2987 0398 FB18     		adds	r3, r7, r3
 2988 039a 6422     		movs	r2, #100
 2989 039c 1900     		movs	r1, r3
 2990 039e 0120     		movs	r0, #1
 2991 03a0 FFF7FEFF 		bl	I2C_1_I2CMasterReadByte
 912:main.c        **** I2C_1_I2CMasterSendStop(100u);
 2992              		.loc 1 912 0
 2993 03a4 6420     		movs	r0, #100
 2994 03a6 FFF7FEFF 		bl	I2C_1_I2CMasterSendStop
 913:main.c        **** 
 914:main.c        **** I2C_1_I2CMasterSendStart(0x18,I2C_1_I2C_WRITE_XFER_MODE, 100u);
 2995              		.loc 1 914 0
 2996 03aa 6422     		movs	r2, #100
 2997 03ac 0021     		movs	r1, #0
 2998 03ae 1820     		movs	r0, #24
 2999 03b0 FFF7FEFF 		bl	I2C_1_I2CMasterSendStart
 915:main.c        **** I2C_1_I2CMasterWriteByte(0x03, 100u);
 3000              		.loc 1 915 0
 3001 03b4 6421     		movs	r1, #100
 3002 03b6 0320     		movs	r0, #3
 3003 03b8 FFF7FEFF 		bl	I2C_1_I2CMasterWriteByte
 916:main.c        **** I2C_1_I2CMasterSendRestart(0x18, I2C_1_I2C_READ_XFER_MODE, 100u);
 3004              		.loc 1 916 0
ARM GAS  C:\Users\sergio\AppData\Local\Temp\ccku3oR8.s 			page 73


 3005 03bc 6422     		movs	r2, #100
 3006 03be 0121     		movs	r1, #1
 3007 03c0 1820     		movs	r0, #24
 3008 03c2 FFF7FEFF 		bl	I2C_1_I2CMasterSendRestart
 917:main.c        **** I2C_1_I2CMasterReadByte(I2C_1_I2C_NAK_DATA,(uint8 *) &xMSB ,100u);
 3009              		.loc 1 917 0
 3010 03c6 3A23     		movs	r3, #58
 3011 03c8 FB18     		adds	r3, r7, r3
 3012 03ca 6422     		movs	r2, #100
 3013 03cc 1900     		movs	r1, r3
 3014 03ce 0120     		movs	r0, #1
 3015 03d0 FFF7FEFF 		bl	I2C_1_I2CMasterReadByte
 918:main.c        **** I2C_1_I2CMasterSendStop(100u);
 3016              		.loc 1 918 0
 3017 03d4 6420     		movs	r0, #100
 3018 03d6 FFF7FEFF 		bl	I2C_1_I2CMasterSendStop
 919:main.c        **** 
 920:main.c        **** I2C_1_I2CMasterSendStart(0x18,I2C_1_I2C_WRITE_XFER_MODE, 100u);
 3019              		.loc 1 920 0
 3020 03da 6422     		movs	r2, #100
 3021 03dc 0021     		movs	r1, #0
 3022 03de 1820     		movs	r0, #24
 3023 03e0 FFF7FEFF 		bl	I2C_1_I2CMasterSendStart
 921:main.c        **** I2C_1_I2CMasterWriteByte(0x04, 100u);
 3024              		.loc 1 921 0
 3025 03e4 6421     		movs	r1, #100
 3026 03e6 0420     		movs	r0, #4
 3027 03e8 FFF7FEFF 		bl	I2C_1_I2CMasterWriteByte
 922:main.c        **** I2C_1_I2CMasterSendRestart(0x18, I2C_1_I2C_READ_XFER_MODE, 100u);
 3028              		.loc 1 922 0
 3029 03ec 6422     		movs	r2, #100
 3030 03ee 0121     		movs	r1, #1
 3031 03f0 1820     		movs	r0, #24
 3032 03f2 FFF7FEFF 		bl	I2C_1_I2CMasterSendRestart
 923:main.c        **** I2C_1_I2CMasterReadByte(I2C_1_I2C_NAK_DATA,(uint8 *) &yLSB ,100u);
 3033              		.loc 1 923 0
 3034 03f6 3923     		movs	r3, #57
 3035 03f8 FB18     		adds	r3, r7, r3
 3036 03fa 6422     		movs	r2, #100
 3037 03fc 1900     		movs	r1, r3
 3038 03fe 0120     		movs	r0, #1
 3039 0400 FFF7FEFF 		bl	I2C_1_I2CMasterReadByte
 924:main.c        **** I2C_1_I2CMasterSendStop(100u);
 3040              		.loc 1 924 0
 3041 0404 6420     		movs	r0, #100
 3042 0406 FFF7FEFF 		bl	I2C_1_I2CMasterSendStop
 925:main.c        **** 
 926:main.c        **** I2C_1_I2CMasterSendStart(0x18,I2C_1_I2C_WRITE_XFER_MODE, 100u);
 3043              		.loc 1 926 0
 3044 040a 6422     		movs	r2, #100
 3045 040c 0021     		movs	r1, #0
 3046 040e 1820     		movs	r0, #24
 3047 0410 FFF7FEFF 		bl	I2C_1_I2CMasterSendStart
 927:main.c        **** I2C_1_I2CMasterWriteByte(0x05, 100u);
 3048              		.loc 1 927 0
 3049 0414 6421     		movs	r1, #100
 3050 0416 0520     		movs	r0, #5
ARM GAS  C:\Users\sergio\AppData\Local\Temp\ccku3oR8.s 			page 74


 3051 0418 FFF7FEFF 		bl	I2C_1_I2CMasterWriteByte
 928:main.c        **** I2C_1_I2CMasterSendRestart(0x18, I2C_1_I2C_READ_XFER_MODE, 100u);
 3052              		.loc 1 928 0
 3053 041c 6422     		movs	r2, #100
 3054 041e 0121     		movs	r1, #1
 3055 0420 1820     		movs	r0, #24
 3056 0422 FFF7FEFF 		bl	I2C_1_I2CMasterSendRestart
 929:main.c        **** I2C_1_I2CMasterReadByte(I2C_1_I2C_NAK_DATA,(uint8 *) &yMSB ,100u);
 3057              		.loc 1 929 0
 3058 0426 3823     		movs	r3, #56
 3059 0428 FB18     		adds	r3, r7, r3
 3060 042a 6422     		movs	r2, #100
 3061 042c 1900     		movs	r1, r3
 3062 042e 0120     		movs	r0, #1
 3063 0430 FFF7FEFF 		bl	I2C_1_I2CMasterReadByte
 930:main.c        **** I2C_1_I2CMasterSendStop(100u);
 3064              		.loc 1 930 0
 3065 0434 6420     		movs	r0, #100
 3066 0436 FFF7FEFF 		bl	I2C_1_I2CMasterSendStop
 931:main.c        **** 
 932:main.c        **** I2C_1_I2CMasterSendStart(0x18,I2C_1_I2C_WRITE_XFER_MODE, 100u);
 3067              		.loc 1 932 0
 3068 043a 6422     		movs	r2, #100
 3069 043c 0021     		movs	r1, #0
 3070 043e 1820     		movs	r0, #24
 3071 0440 2CE0     		b	.L132
 3072              	.L133:
 3073 0442 C046     		.align	2
 3074              	.L131:
 3075 0444 00000000 		.word	bleStack
 3076 0448 00000000 		.word	my_interrupt
 3077 044c 00000000 		.word	acStates
 3078 0450 00000000 		.word	thermoState
 3079 0454 00000000 		.word	thermo
 3080 0458 00000000 		.word	interruptFlag
 3081 045c 04000000 		.word	thermo+4
 3082 0460 34020000 		.word	.LC57
 3083 0464 00000000 		.word	counter
 3084 0468 44020000 		.word	.LC60
 3085 046c 00000000 		.word	sensorData
 3086 0470 02000000 		.word	sensorData+2
 3087 0474 03000000 		.word	sensorData+3
 3088 0478 6C020000 		.word	.LC65
 3089 047c 88020000 		.word	.LC67
 3090 0480 B0020000 		.word	.LC69
 3091 0484 D8020000 		.word	.LC71
 3092 0488 04000000 		.word	sensorData+4
 3093 048c 05000000 		.word	sensorData+5
 3094 0490 F4020000 		.word	.LC75
 3095 0494 10030000 		.word	.LC77
 3096 0498 38030000 		.word	.LC79
 3097              	.L132:
 3098 049c FFF7FEFF 		bl	I2C_1_I2CMasterSendStart
 933:main.c        **** I2C_1_I2CMasterWriteByte(0x06, 100u);
 3099              		.loc 1 933 0
 3100 04a0 6421     		movs	r1, #100
 3101 04a2 0620     		movs	r0, #6
ARM GAS  C:\Users\sergio\AppData\Local\Temp\ccku3oR8.s 			page 75


 3102 04a4 FFF7FEFF 		bl	I2C_1_I2CMasterWriteByte
 934:main.c        **** I2C_1_I2CMasterSendRestart(0x18, I2C_1_I2C_READ_XFER_MODE, 100u);
 3103              		.loc 1 934 0
 3104 04a8 6422     		movs	r2, #100
 3105 04aa 0121     		movs	r1, #1
 3106 04ac 1820     		movs	r0, #24
 3107 04ae FFF7FEFF 		bl	I2C_1_I2CMasterSendRestart
 935:main.c        **** I2C_1_I2CMasterReadByte(I2C_1_I2C_NAK_DATA,(uint8 *) &zLSB ,100u);
 3108              		.loc 1 935 0
 3109 04b2 3723     		movs	r3, #55
 3110 04b4 FB18     		adds	r3, r7, r3
 3111 04b6 6422     		movs	r2, #100
 3112 04b8 1900     		movs	r1, r3
 3113 04ba 0120     		movs	r0, #1
 3114 04bc FFF7FEFF 		bl	I2C_1_I2CMasterReadByte
 936:main.c        **** I2C_1_I2CMasterSendStop(100u);
 3115              		.loc 1 936 0
 3116 04c0 6420     		movs	r0, #100
 3117 04c2 FFF7FEFF 		bl	I2C_1_I2CMasterSendStop
 937:main.c        **** 
 938:main.c        **** I2C_1_I2CMasterSendStart(0x18,I2C_1_I2C_WRITE_XFER_MODE, 100u);
 3118              		.loc 1 938 0
 3119 04c6 6422     		movs	r2, #100
 3120 04c8 0021     		movs	r1, #0
 3121 04ca 1820     		movs	r0, #24
 3122 04cc FFF7FEFF 		bl	I2C_1_I2CMasterSendStart
 939:main.c        **** I2C_1_I2CMasterWriteByte(0x07, 100u);
 3123              		.loc 1 939 0
 3124 04d0 6421     		movs	r1, #100
 3125 04d2 0720     		movs	r0, #7
 3126 04d4 FFF7FEFF 		bl	I2C_1_I2CMasterWriteByte
 940:main.c        **** I2C_1_I2CMasterSendRestart(0x18, I2C_1_I2C_READ_XFER_MODE, 100u);
 3127              		.loc 1 940 0
 3128 04d8 6422     		movs	r2, #100
 3129 04da 0121     		movs	r1, #1
 3130 04dc 1820     		movs	r0, #24
 3131 04de FFF7FEFF 		bl	I2C_1_I2CMasterSendRestart
 941:main.c        **** I2C_1_I2CMasterReadByte(I2C_1_I2C_NAK_DATA,(uint8 *) &zMSB ,100u);
 3132              		.loc 1 941 0
 3133 04e2 3623     		movs	r3, #54
 3134 04e4 FB18     		adds	r3, r7, r3
 3135 04e6 6422     		movs	r2, #100
 3136 04e8 1900     		movs	r1, r3
 3137 04ea 0120     		movs	r0, #1
 3138 04ec FFF7FEFF 		bl	I2C_1_I2CMasterReadByte
 942:main.c        **** I2C_1_I2CMasterSendStop(100u);
 3139              		.loc 1 942 0
 3140 04f0 6420     		movs	r0, #100
 3141 04f2 FFF7FEFF 		bl	I2C_1_I2CMasterSendStop
 943:main.c        **** 
 944:main.c        **** sensorData.accX = (xMSB );
 3142              		.loc 1 944 0
 3143 04f6 3A23     		movs	r3, #58
 3144 04f8 FB18     		adds	r3, r7, r3
 3145 04fa 1A78     		ldrb	r2, [r3]
 3146 04fc D14B     		ldr	r3, .L134
 3147 04fe 9A77     		strb	r2, [r3, #30]
ARM GAS  C:\Users\sergio\AppData\Local\Temp\ccku3oR8.s 			page 76


 945:main.c        **** sensorData.accY = (yMSB );
 3148              		.loc 1 945 0
 3149 0500 3823     		movs	r3, #56
 3150 0502 FB18     		adds	r3, r7, r3
 3151 0504 1A78     		ldrb	r2, [r3]
 3152 0506 CF4B     		ldr	r3, .L134
 3153 0508 DA77     		strb	r2, [r3, #31]
 946:main.c        **** sensorData.accZ = (zMSB );
 3154              		.loc 1 946 0
 3155 050a 3623     		movs	r3, #54
 3156 050c FB18     		adds	r3, r7, r3
 3157 050e 1978     		ldrb	r1, [r3]
 3158 0510 CC4B     		ldr	r3, .L134
 3159 0512 2022     		movs	r2, #32
 3160 0514 9954     		strb	r1, [r3, r2]
 947:main.c        **** I2C_1_Sleep();
 3161              		.loc 1 947 0
 3162 0516 FFF7FEFF 		bl	I2C_1_Sleep
 948:main.c        ****     I2C_1_Wakeup();
 3163              		.loc 1 948 0
 3164 051a FFF7FEFF 		bl	I2C_1_Wakeup
 949:main.c        **** 
 950:main.c        **** 
 951:main.c        **** sprintf(str,"\nX: %d %d    12 bit x: %d\n", xMSB, xLSB, sensorData.accX);
 3165              		.loc 1 951 0
 3166 051e 3A23     		movs	r3, #58
 3167 0520 FB18     		adds	r3, r7, r3
 3168 0522 1B78     		ldrb	r3, [r3]
 3169 0524 1A00     		movs	r2, r3
 3170 0526 3B23     		movs	r3, #59
 3171 0528 FB18     		adds	r3, r7, r3
 3172 052a 1B78     		ldrb	r3, [r3]
 3173 052c 1C00     		movs	r4, r3
 3174 052e C54B     		ldr	r3, .L134
 3175 0530 9B7F     		ldrb	r3, [r3, #30]
 3176 0532 C549     		ldr	r1, .L134+4
 3177 0534 381D     		adds	r0, r7, #4
 3178 0536 0093     		str	r3, [sp]
 3179 0538 2300     		movs	r3, r4
 3180 053a FFF7FEFF 		bl	sprintf
 952:main.c        **** MyUART_PutString(str);
 3181              		.loc 1 952 0
 3182 053e 3B1D     		adds	r3, r7, #4
 3183 0540 1800     		movs	r0, r3
 3184 0542 FFF7FEFF 		bl	MyUART_PutString
 953:main.c        **** sprintf(str,"y: %d %d      12 bit y: %d\n", yMSB, yLSB, sensorData.accY);
 3185              		.loc 1 953 0
 3186 0546 3823     		movs	r3, #56
 3187 0548 FB18     		adds	r3, r7, r3
 3188 054a 1B78     		ldrb	r3, [r3]
 3189 054c 1A00     		movs	r2, r3
 3190 054e 3923     		movs	r3, #57
 3191 0550 FB18     		adds	r3, r7, r3
 3192 0552 1B78     		ldrb	r3, [r3]
 3193 0554 1C00     		movs	r4, r3
 3194 0556 BB4B     		ldr	r3, .L134
 3195 0558 DB7F     		ldrb	r3, [r3, #31]
ARM GAS  C:\Users\sergio\AppData\Local\Temp\ccku3oR8.s 			page 77


 3196 055a BC49     		ldr	r1, .L134+8
 3197 055c 381D     		adds	r0, r7, #4
 3198 055e 0093     		str	r3, [sp]
 3199 0560 2300     		movs	r3, r4
 3200 0562 FFF7FEFF 		bl	sprintf
 954:main.c        **** MyUART_PutString(str);
 3201              		.loc 1 954 0
 3202 0566 3B1D     		adds	r3, r7, #4
 3203 0568 1800     		movs	r0, r3
 3204 056a FFF7FEFF 		bl	MyUART_PutString
 955:main.c        **** sprintf(str,"Z: %d %d      12 bit z: %d\n\n\n", zMSB, zLSB, sensorData.accZ);
 3205              		.loc 1 955 0
 3206 056e 3623     		movs	r3, #54
 3207 0570 FB18     		adds	r3, r7, r3
 3208 0572 1B78     		ldrb	r3, [r3]
 3209 0574 1C00     		movs	r4, r3
 3210 0576 3723     		movs	r3, #55
 3211 0578 FB18     		adds	r3, r7, r3
 3212 057a 1B78     		ldrb	r3, [r3]
 3213 057c 1D00     		movs	r5, r3
 3214 057e B14B     		ldr	r3, .L134
 3215 0580 2022     		movs	r2, #32
 3216 0582 9B5C     		ldrb	r3, [r3, r2]
 3217 0584 B249     		ldr	r1, .L134+12
 3218 0586 381D     		adds	r0, r7, #4
 3219 0588 0093     		str	r3, [sp]
 3220 058a 2B00     		movs	r3, r5
 3221 058c 2200     		movs	r2, r4
 3222 058e FFF7FEFF 		bl	sprintf
 956:main.c        **** MyUART_PutString(str);
 3223              		.loc 1 956 0
 3224 0592 3B1D     		adds	r3, r7, #4
 3225 0594 1800     		movs	r0, r3
 3226 0596 FFF7FEFF 		bl	MyUART_PutString
 957:main.c        **** 
 958:main.c        **** // ---------------  Read humidity ---------------
 959:main.c        **** read_buff[0]=0;
 3227              		.loc 1 959 0
 3228 059a 3C23     		movs	r3, #60
 3229 059c FB18     		adds	r3, r7, r3
 3230 059e 0022     		movs	r2, #0
 3231 05a0 1A70     		strb	r2, [r3]
 960:main.c        **** read_buff[1]=0;
 3232              		.loc 1 960 0
 3233 05a2 3C23     		movs	r3, #60
 3234 05a4 FB18     		adds	r3, r7, r3
 3235 05a6 0022     		movs	r2, #0
 3236 05a8 5A70     		strb	r2, [r3, #1]
 961:main.c        **** //I2C_1_I2CMasterSendStart(0x18,I2C_1_I2C_WRITE_XFER_MODE, 0u);
 962:main.c        **** //I2C_1_I2CMasterWriteByte(0xE5, 0u);
 963:main.c        **** //I2C_1_I2CMasterSendRestart(0x18, I2C_1_I2C_READ_XFER_MODE, 0u);
 964:main.c        **** //I2C_1_I2CMasterReadByte(I2C_1_I2C_ACK_DATA,(uint8 *) &read_buff[0] ,0u);
 965:main.c        **** //I2C_1_I2CMasterReadByte(I2C_1_I2C_NAK_DATA,(uint8 *) &read_buff[1] ,0u);
 966:main.c        **** //I2C_1_I2CMasterSendStop(0u);
 967:main.c        **** //
 968:main.c        **** ////    I2C_1_Sleep();
 969:main.c        **** ////    I2C_1_Wakeup();
ARM GAS  C:\Users\sergio\AppData\Local\Temp\ccku3oR8.s 			page 78


 970:main.c        **** //
 971:main.c        **** //uint16 rh = ((read_buff[0] << 8) | read_buff[1]);
 972:main.c        **** //
 973:main.c        **** //sensorData.humidity = ((125 * rh)/65536)-6; 
 974:main.c        **** //rh = 0;
 975:main.c        **** //
 976:main.c        **** //I2C_1_I2CMasterSendStart(0x18,I2C_1_I2C_WRITE_XFER_MODE, 0u);
 977:main.c        **** //I2C_1_I2CMasterWriteByte(0xE3, 0u);
 978:main.c        **** //I2C_1_I2CMasterSendRestart(0x18, I2C_1_I2C_READ_XFER_MODE, 0u);
 979:main.c        **** //I2C_1_I2CMasterReadByte(I2C_1_I2C_ACK_DATA,(uint8 *) &read_buff[0] ,0u);
 980:main.c        **** //I2C_1_I2CMasterReadByte(I2C_1_I2C_NAK_DATA,(uint8 *) &read_buff[1] ,0u);
 981:main.c        **** //I2C_1_I2CMasterSendStop(0u);
 982:main.c        **** //
 983:main.c        **** //uint16 tp = ((read_buff[0] << 8) | read_buff[1]);
 984:main.c        **** //tp = ((175.72 * tp)/65536) - 46.85;
 985:main.c        **** 
 986:main.c        **** //sprintf(str, "\nThe humidity is %d   temp = %d\n", sensorData.humidity, tp);
 987:main.c        **** //MyUART_PutString(str);
 988:main.c        **** 
 989:main.c        **** 
 990:main.c        **** 
 991:main.c        **** // ---------------------  Read thermostat pins ---------------------
 992:main.c        **** 
 993:main.c        ****  gpioPins = read_thermostat_pins();
 3237              		.loc 1 993 0
 3238 05aa FFF7FEFF 		bl	read_thermostat_pins
 3239 05ae 0300     		movs	r3, r0
 3240 05b0 1A00     		movs	r2, r3
 3241 05b2 A84B     		ldr	r3, .L134+16
 3242 05b4 1A70     		strb	r2, [r3]
 994:main.c        **** if(bleConnected == 0){ thermoState = (gpioPins & 0x1F);}
 3243              		.loc 1 994 0
 3244 05b6 A84B     		ldr	r3, .L134+20
 3245 05b8 1B78     		ldrb	r3, [r3]
 3246 05ba 002B     		cmp	r3, #0
 3247 05bc 06D1     		bne	.L104
 3248              		.loc 1 994 0 is_stmt 0 discriminator 1
 3249 05be A54B     		ldr	r3, .L134+16
 3250 05c0 1B78     		ldrb	r3, [r3]
 3251 05c2 1F22     		movs	r2, #31
 3252 05c4 1340     		ands	r3, r2
 3253 05c6 DAB2     		uxtb	r2, r3
 3254 05c8 A44B     		ldr	r3, .L134+24
 3255 05ca 1A70     		strb	r2, [r3]
 3256              	.L104:
 995:main.c        **** // comp = (gpioPins & 0x01)==  0x04? 1:0;
 996:main.c        **** // fanH = (gpioPins & 0x08) == 0x08? 1:0;
 997:main.c        **** // fanL = (gpioPins & 0x10) == 0x10? 1:0;
 998:main.c        **** //gpioPins =0u;
 999:main.c        **** 
1000:main.c        **** 
1001:main.c        **** 
1002:main.c        **** sprintf(str, "\nThermostast pins are 0x%x thermoState %x com %d, Lf %d, Hf %d\n\n", gpioPins, therm
 3257              		.loc 1 1002 0 is_stmt 1
 3258 05cc A14B     		ldr	r3, .L134+16
 3259 05ce 1B78     		ldrb	r3, [r3]
 3260 05d0 1D00     		movs	r5, r3
ARM GAS  C:\Users\sergio\AppData\Local\Temp\ccku3oR8.s 			page 79


 3261 05d2 A24B     		ldr	r3, .L134+24
 3262 05d4 1B78     		ldrb	r3, [r3]
 3263 05d6 1E00     		movs	r6, r3
 3264 05d8 4723     		movs	r3, #71
 3265 05da FB18     		adds	r3, r7, r3
 3266 05dc 1B78     		ldrb	r3, [r3]
 3267 05de 4622     		movs	r2, #70
 3268 05e0 BA18     		adds	r2, r7, r2
 3269 05e2 1278     		ldrb	r2, [r2]
 3270 05e4 4521     		movs	r1, #69
 3271 05e6 7918     		adds	r1, r7, r1
 3272 05e8 0978     		ldrb	r1, [r1]
 3273 05ea 9D4C     		ldr	r4, .L134+28
 3274 05ec 381D     		adds	r0, r7, #4
 3275 05ee 0291     		str	r1, [sp, #8]
 3276 05f0 0192     		str	r2, [sp, #4]
 3277 05f2 0093     		str	r3, [sp]
 3278 05f4 3300     		movs	r3, r6
 3279 05f6 2A00     		movs	r2, r5
 3280 05f8 2100     		movs	r1, r4
 3281 05fa FFF7FEFF 		bl	sprintf
1003:main.c        **** MyUART_PutString(str);
 3282              		.loc 1 1003 0
 3283 05fe 3B1D     		adds	r3, r7, #4
 3284 0600 1800     		movs	r0, r3
 3285 0602 FFF7FEFF 		bl	MyUART_PutString
1004:main.c        **** 
1005:main.c        **** 
1006:main.c        **** //// ------------------------------- power sensors check version  -----------------------
1007:main.c        **** 
1008:main.c        **** //        read_power_chips(ADDR_POWER1);
1009:main.c        **** //        sprintf(str, "\nComp volt: %d  freq: %d  current: %lu\n", sensorData.voltCompressor, sens
1010:main.c        **** //        MyUART_PutString(str);
1011:main.c        **** //        
1012:main.c        **** //        read_power_chips(ADDR_POWER2);
1013:main.c        **** //        sprintf(str, "\nLow Fan volt: %d  freq: %d  current: %lu\n", sensorData.voltFan, sensorDa
1014:main.c        **** //        MyUART_PutString(str);
1015:main.c        **** //        
1016:main.c        **** //        read_power_chips(ADDR_POWER3);
1017:main.c        **** //        sprintf(str, "\nHigh Fan volt: %d  freq: %d  current: %lu\n", sensorData.volt, sensorData
1018:main.c        **** //        MyUART_PutString(str);
1019:main.c        **** 
1020:main.c        ****   // } //end of  if adc result is > 1500 turn regulator
1021:main.c        **** 
1022:main.c        **** // --------------- AIR FLOW ------------
1023:main.c        **** 
1024:main.c        ****     //read_Air_Flow();
1025:main.c        **** 
1026:main.c        **** // ----- BLE CODE ----------
1027:main.c        **** 
1028:main.c        **** 
1029:main.c        ****      if(bleConnected == 1){ ///
 3286              		.loc 1 1029 0
 3287 0606 944B     		ldr	r3, .L134+20
 3288 0608 1B78     		ldrb	r3, [r3]
 3289 060a 012B     		cmp	r3, #1
 3290 060c 2AD1     		bne	.L105
ARM GAS  C:\Users\sergio\AppData\Local\Temp\ccku3oR8.s 			page 80


1030:main.c        **** //                RED_Write(1);
1031:main.c        **** //                BLUE_Write(1);
1032:main.c        **** //                GREEN_Write(1);
1033:main.c        ****             updateNotificationCCCD();
 3291              		.loc 1 1033 0
 3292 060e FFF7FEFF 		bl	updateNotificationCCCD
1034:main.c        ****             
1035:main.c        ****             if(isNotify == 1){
 3293              		.loc 1 1035 0
 3294 0612 944B     		ldr	r3, .L134+32
 3295 0614 1B78     		ldrb	r3, [r3]
 3296 0616 012B     		cmp	r3, #1
 3297 0618 16D1     		bne	.L106
1036:main.c        ****                 GREEN_Write(1);
 3298              		.loc 1 1036 0
 3299 061a 0120     		movs	r0, #1
 3300 061c FFF7FEFF 		bl	GREEN_Write
1037:main.c        ****                 RED_Write(1);
 3301              		.loc 1 1037 0
 3302 0620 0120     		movs	r0, #1
 3303 0622 FFF7FEFF 		bl	RED_Write
1038:main.c        ****                 if(CyBle_GattGetBusStatus() == CYBLE_STACK_STATE_FREE){
 3304              		.loc 1 1038 0
 3305 0626 904B     		ldr	r3, .L134+36
 3306 0628 1B78     		ldrb	r3, [r3]
 3307 062a DBB2     		uxtb	r3, r3
 3308 062c 002B     		cmp	r3, #0
 3309 062e 2ED1     		bne	.L109
1039:main.c        ****                  BLUE_Write(!BLUE_Read());
 3310              		.loc 1 1039 0
 3311 0630 FFF7FEFF 		bl	BLUE_Read
 3312 0634 0300     		movs	r3, r0
 3313 0636 5A42     		rsbs	r2, r3, #0
 3314 0638 5341     		adcs	r3, r3, r2
 3315 063a DBB2     		uxtb	r3, r3
 3316 063c 1800     		movs	r0, r3
 3317 063e FFF7FEFF 		bl	BLUE_Write
1040:main.c        ****                     SendDataNotify();
 3318              		.loc 1 1040 0
 3319 0642 FFF7FEFF 		bl	SendDataNotify
 3320 0646 22E0     		b	.L109
 3321              	.L106:
1041:main.c        ****                  //BLUE_Write(1);
1042:main.c        ****                }
1043:main.c        ****             } // end of notification
1044:main.c        ****             else{
1045:main.c        ****                 thermo.ambientTemp = sensorData.localTemp;
 3322              		.loc 1 1045 0
 3323 0648 7E4B     		ldr	r3, .L134
 3324 064a 1A78     		ldrb	r2, [r3]
 3325 064c 874B     		ldr	r3, .L134+40
 3326 064e 1A71     		strb	r2, [r3, #4]
1046:main.c        ****                 
1047:main.c        ****                 GREEN_Write(0);
 3327              		.loc 1 1047 0
 3328 0650 0020     		movs	r0, #0
 3329 0652 FFF7FEFF 		bl	GREEN_Write
ARM GAS  C:\Users\sergio\AppData\Local\Temp\ccku3oR8.s 			page 81


1048:main.c        ****                 RED_Write(1);
 3330              		.loc 1 1048 0
 3331 0656 0120     		movs	r0, #1
 3332 0658 FFF7FEFF 		bl	RED_Write
1049:main.c        ****                 BLUE_Write(1);
 3333              		.loc 1 1049 0
 3334 065c 0120     		movs	r0, #1
 3335 065e FFF7FEFF 		bl	BLUE_Write
 3336 0662 14E0     		b	.L109
 3337              	.L105:
1050:main.c        ****                 
1051:main.c        ****             } //end of read/write 
1052:main.c        ****         } // end ble connected if  
1053:main.c        ****     else{
1054:main.c        ****         RED_Write(!RED_Read());
 3338              		.loc 1 1054 0
 3339 0664 FFF7FEFF 		bl	RED_Read
 3340 0668 0300     		movs	r3, r0
 3341 066a 5A42     		rsbs	r2, r3, #0
 3342 066c 5341     		adcs	r3, r3, r2
 3343 066e DBB2     		uxtb	r3, r3
 3344 0670 1800     		movs	r0, r3
 3345 0672 FFF7FEFF 		bl	RED_Write
1055:main.c        ****         GREEN_Write(!GREEN_Read());
 3346              		.loc 1 1055 0
 3347 0676 FFF7FEFF 		bl	GREEN_Read
 3348 067a 0300     		movs	r3, r0
 3349 067c 5A42     		rsbs	r2, r3, #0
 3350 067e 5341     		adcs	r3, r3, r2
 3351 0680 DBB2     		uxtb	r3, r3
 3352 0682 1800     		movs	r0, r3
 3353 0684 FFF7FEFF 		bl	GREEN_Write
1056:main.c        ****         BLUE_Write(1);
 3354              		.loc 1 1056 0
 3355 0688 0120     		movs	r0, #1
 3356 068a FFF7FEFF 		bl	BLUE_Write
 3357              	.L109:
1057:main.c        ****     }
1058:main.c        ****     counter +=1;
 3358              		.loc 1 1058 0 discriminator 2
 3359 068e 784B     		ldr	r3, .L134+44
 3360 0690 1B68     		ldr	r3, [r3]
 3361 0692 5A1C     		adds	r2, r3, #1
 3362 0694 764B     		ldr	r3, .L134+44
 3363 0696 1A60     		str	r2, [r3]
1059:main.c        ****     interruptFlag = 0;
 3364              		.loc 1 1059 0 discriminator 2
 3365 0698 764B     		ldr	r3, .L134+48
 3366 069a 0022     		movs	r2, #0
 3367 069c 1A60     		str	r2, [r3]
 3368              	.L101:
 3369              	.LBE5:
1060:main.c        ****     }// end if int flag
1061:main.c        **** 
1062:main.c        **** // --------------------   control relays and high switch  -----------------
1063:main.c        **** //  0x04 comp  0x08 low fan   0x10 high  fan  gipo masks for checking pins
1064:main.c        **** 
ARM GAS  C:\Users\sergio\AppData\Local\Temp\ccku3oR8.s 			page 82


1065:main.c        **** if (bleConnected == 1){
 3370              		.loc 1 1065 0
 3371 069e 6E4B     		ldr	r3, .L134+20
 3372 06a0 1B78     		ldrb	r3, [r3]
 3373 06a2 012B     		cmp	r3, #1
 3374 06a4 00D0     		beq	.LCB2613
 3375 06a6 4FE1     		b	.L110	@long jump
 3376              	.LCB2613:
1066:main.c        ****     
1067:main.c        **** //    if(thermo.power == 1 && thermo.fanLow == 1 && thermo.compressor == 1){           // Asking fo
1068:main.c        **** //        thermoState = 0x11;
1069:main.c        **** //    }
1070:main.c        **** //    else if(thermo.power == 1 && thermo.fanHigh == 1 && thermo.compressor == 1){     // Asking fo
1071:main.c        **** //        thermoState = 0x09;
1072:main.c        **** //    }
1073:main.c        **** //    else if (thermo.power == 1 && thermo.fanLow == 1 && thermo.compressor == 0){    // Asking .
1074:main.c        **** //        thermoState = 0x10;
1075:main.c        **** //    }
1076:main.c        **** //    else if(thermo.power == 1 && thermo.fanHigh == 1 && thermo.compressor == 0){
1077:main.c        **** //        thermoState = 0x08;
1078:main.c        **** //    }else if(thermo.power == 0){
1079:main.c        **** //        thermoState = 0x00;
1080:main.c        **** //    }
1081:main.c        **** 
1082:main.c        ****         if(thermo.power == 1 && thermo.test == 0){
 3377              		.loc 1 1082 0
 3378 06a8 704B     		ldr	r3, .L134+40
 3379 06aa 5B79     		ldrb	r3, [r3, #5]
 3380 06ac 012B     		cmp	r3, #1
 3381 06ae 00D0     		beq	.LCB2617
 3382 06b0 B9E0     		b	.L111	@long jump
 3383              	.LCB2617:
 3384              		.loc 1 1082 0 is_stmt 0 discriminator 1
 3385 06b2 6E4B     		ldr	r3, .L134+40
 3386 06b4 9B79     		ldrb	r3, [r3, #6]
 3387 06b6 002B     		cmp	r3, #0
 3388 06b8 00D0     		beq	.LCB2621
 3389 06ba B4E0     		b	.L111	@long jump
 3390              	.LCB2621:
1083:main.c        ****             if(thermo.compressor == 1){
 3391              		.loc 1 1083 0 is_stmt 1
 3392 06bc 6B4B     		ldr	r3, .L134+40
 3393 06be 1B78     		ldrb	r3, [r3]
 3394 06c0 012B     		cmp	r3, #1
 3395 06c2 00D0     		beq	.LCB2625
 3396 06c4 7EE0     		b	.L112	@long jump
 3397              	.LCB2625:
1084:main.c        ****                 // if the temperature of ambient is higher than the temprature set turn on the comp
1085:main.c        ****                 if(sensorData.localTemp > (thermo.setTemperature + 2)){
 3398              		.loc 1 1085 0
 3399 06c6 5F4B     		ldr	r3, .L134
 3400 06c8 1B78     		ldrb	r3, [r3]
 3401 06ca 1A00     		movs	r2, r3
 3402 06cc 674B     		ldr	r3, .L134+40
 3403 06ce DB78     		ldrb	r3, [r3, #3]
 3404 06d0 0233     		adds	r3, r3, #2
 3405 06d2 9A42     		cmp	r2, r3
ARM GAS  C:\Users\sergio\AppData\Local\Temp\ccku3oR8.s 			page 83


 3406 06d4 36DD     		ble	.L113
1086:main.c        ****                     if(sensorData.localTemp > thermo.setTemperature){
 3407              		.loc 1 1086 0
 3408 06d6 5B4B     		ldr	r3, .L134
 3409 06d8 1A78     		ldrb	r2, [r3]
 3410 06da 644B     		ldr	r3, .L134+40
 3411 06dc DB78     		ldrb	r3, [r3, #3]
 3412 06de 9A42     		cmp	r2, r3
 3413 06e0 00D8     		bhi	.LCB2639
 3414 06e2 34E1     		b	.L130	@long jump
 3415              	.LCB2639:
1087:main.c        ****                         
1088:main.c        ****                         if(thermo.power == 1 && thermo.fanLow == 1 && thermo.compressor == 1 && the
 3416              		.loc 1 1088 0
 3417 06e4 614B     		ldr	r3, .L134+40
 3418 06e6 5B79     		ldrb	r3, [r3, #5]
 3419 06e8 012B     		cmp	r3, #1
 3420 06ea 11D1     		bne	.L115
 3421              		.loc 1 1088 0 is_stmt 0 discriminator 1
 3422 06ec 5F4B     		ldr	r3, .L134+40
 3423 06ee 5B78     		ldrb	r3, [r3, #1]
 3424 06f0 012B     		cmp	r3, #1
 3425 06f2 0DD1     		bne	.L115
 3426              		.loc 1 1088 0 discriminator 2
 3427 06f4 5D4B     		ldr	r3, .L134+40
 3428 06f6 1B78     		ldrb	r3, [r3]
 3429 06f8 012B     		cmp	r3, #1
 3430 06fa 09D1     		bne	.L115
 3431              		.loc 1 1088 0 discriminator 3
 3432 06fc 5B4B     		ldr	r3, .L134+40
 3433 06fe 9B78     		ldrb	r3, [r3, #2]
 3434 0700 002B     		cmp	r3, #0
 3435 0702 05D1     		bne	.L115
1089:main.c        ****                             thermoState = 0x14;
 3436              		.loc 1 1089 0 is_stmt 1
 3437 0704 554B     		ldr	r3, .L134+24
 3438 0706 1422     		movs	r2, #20
 3439 0708 1A70     		strb	r2, [r3]
1090:main.c        ****                             run_ac();
 3440              		.loc 1 1090 0
 3441 070a FFF7FEFF 		bl	run_ac
 3442 070e 89E0     		b	.L118
 3443              	.L115:
1091:main.c        ****                         }
1092:main.c        ****                         else if(thermo.power == 1 && thermo.fanHigh == 1 && thermo.compressor == 1 
 3444              		.loc 1 1092 0
 3445 0710 564B     		ldr	r3, .L134+40
 3446 0712 5B79     		ldrb	r3, [r3, #5]
 3447 0714 012B     		cmp	r3, #1
 3448 0716 00D0     		beq	.LCB2667
 3449 0718 19E1     		b	.L130	@long jump
 3450              	.LCB2667:
 3451              		.loc 1 1092 0 is_stmt 0 discriminator 1
 3452 071a 544B     		ldr	r3, .L134+40
 3453 071c 9B78     		ldrb	r3, [r3, #2]
 3454 071e 012B     		cmp	r3, #1
 3455 0720 00D0     		beq	.LCB2671
ARM GAS  C:\Users\sergio\AppData\Local\Temp\ccku3oR8.s 			page 84


 3456 0722 14E1     		b	.L130	@long jump
 3457              	.LCB2671:
 3458              		.loc 1 1092 0 discriminator 2
 3459 0724 514B     		ldr	r3, .L134+40
 3460 0726 1B78     		ldrb	r3, [r3]
 3461 0728 012B     		cmp	r3, #1
 3462 072a 00D0     		beq	.LCB2675
 3463 072c 0FE1     		b	.L130	@long jump
 3464              	.LCB2675:
 3465              		.loc 1 1092 0 discriminator 3
 3466 072e 4F4B     		ldr	r3, .L134+40
 3467 0730 5B78     		ldrb	r3, [r3, #1]
 3468 0732 002B     		cmp	r3, #0
 3469 0734 00D0     		beq	.LCB2679
 3470 0736 0AE1     		b	.L130	@long jump
 3471              	.LCB2679:
1093:main.c        ****                             thermoState = 0x0C;
 3472              		.loc 1 1093 0 is_stmt 1
 3473 0738 484B     		ldr	r3, .L134+24
 3474 073a 0C22     		movs	r2, #12
 3475 073c 1A70     		strb	r2, [r3]
1094:main.c        ****                             run_ac();
 3476              		.loc 1 1094 0
 3477 073e FFF7FEFF 		bl	run_ac
1083:main.c        ****                 // if the temperature of ambient is higher than the temprature set turn on the comp
 3478              		.loc 1 1083 0
 3479 0742 04E1     		b	.L130
 3480              	.L113:
1095:main.c        ****                         }
1096:main.c        ****                     }
1097:main.c        ****                 }
1098:main.c        ****                 // if the ambient temperature is equal or less to the set temperature turn off the 
1099:main.c        ****                 else if(sensorData.localTemp <= (thermo.setTemperature - 2)){
 3481              		.loc 1 1099 0
 3482 0744 3F4B     		ldr	r3, .L134
 3483 0746 1B78     		ldrb	r3, [r3]
 3484 0748 1A00     		movs	r2, r3
 3485 074a 484B     		ldr	r3, .L134+40
 3486 074c DB78     		ldrb	r3, [r3, #3]
 3487 074e 023B     		subs	r3, r3, #2
 3488 0750 9A42     		cmp	r2, r3
 3489 0752 00DD     		ble	.LCB2695
 3490 0754 FBE0     		b	.L130	@long jump
 3491              	.LCB2695:
1100:main.c        ****                     if(sensorData.localTemp <= thermo.setTemperature){
 3492              		.loc 1 1100 0
 3493 0756 3B4B     		ldr	r3, .L134
 3494 0758 1A78     		ldrb	r2, [r3]
 3495 075a 444B     		ldr	r3, .L134+40
 3496 075c DB78     		ldrb	r3, [r3, #3]
 3497 075e 9A42     		cmp	r2, r3
 3498 0760 00D9     		bls	.LCB2701
 3499 0762 F4E0     		b	.L130	@long jump
 3500              	.LCB2701:
1101:main.c        ****                         
1102:main.c        ****                         if (thermo.power == 1 && thermo.fanLow == 1 && thermo.fanHigh == 0 && therm
 3501              		.loc 1 1102 0
ARM GAS  C:\Users\sergio\AppData\Local\Temp\ccku3oR8.s 			page 85


 3502 0764 414B     		ldr	r3, .L134+40
 3503 0766 5B79     		ldrb	r3, [r3, #5]
 3504 0768 012B     		cmp	r3, #1
 3505 076a 11D1     		bne	.L117
 3506              		.loc 1 1102 0 is_stmt 0 discriminator 1
 3507 076c 3F4B     		ldr	r3, .L134+40
 3508 076e 5B78     		ldrb	r3, [r3, #1]
 3509 0770 012B     		cmp	r3, #1
 3510 0772 0DD1     		bne	.L117
 3511              		.loc 1 1102 0 discriminator 2
 3512 0774 3D4B     		ldr	r3, .L134+40
 3513 0776 9B78     		ldrb	r3, [r3, #2]
 3514 0778 002B     		cmp	r3, #0
 3515 077a 09D1     		bne	.L117
 3516              		.loc 1 1102 0 discriminator 3
 3517 077c 3B4B     		ldr	r3, .L134+40
 3518 077e 1B78     		ldrb	r3, [r3]
 3519 0780 002B     		cmp	r3, #0
 3520 0782 05D1     		bne	.L117
1103:main.c        ****                             thermoState = 0x10;
 3521              		.loc 1 1103 0 is_stmt 1
 3522 0784 354B     		ldr	r3, .L134+24
 3523 0786 1022     		movs	r2, #16
 3524 0788 1A70     		strb	r2, [r3]
1104:main.c        ****                             run_ac();
 3525              		.loc 1 1104 0
 3526 078a FFF7FEFF 		bl	run_ac
 3527 078e 49E0     		b	.L118
 3528              	.L117:
1105:main.c        ****                         }
1106:main.c        ****                         else if(thermo.power == 1 && thermo.fanLow == 0 && thermo.fanHigh == 1 && t
 3529              		.loc 1 1106 0
 3530 0790 364B     		ldr	r3, .L134+40
 3531 0792 5B79     		ldrb	r3, [r3, #5]
 3532 0794 012B     		cmp	r3, #1
 3533 0796 00D0     		beq	.LCB2729
 3534 0798 D9E0     		b	.L130	@long jump
 3535              	.LCB2729:
 3536              		.loc 1 1106 0 is_stmt 0 discriminator 1
 3537 079a 344B     		ldr	r3, .L134+40
 3538 079c 5B78     		ldrb	r3, [r3, #1]
 3539 079e 002B     		cmp	r3, #0
 3540 07a0 00D0     		beq	.LCB2733
 3541 07a2 D4E0     		b	.L130	@long jump
 3542              	.LCB2733:
 3543              		.loc 1 1106 0 discriminator 2
 3544 07a4 314B     		ldr	r3, .L134+40
 3545 07a6 9B78     		ldrb	r3, [r3, #2]
 3546 07a8 012B     		cmp	r3, #1
 3547 07aa 00D0     		beq	.LCB2737
 3548 07ac CFE0     		b	.L130	@long jump
 3549              	.LCB2737:
 3550              		.loc 1 1106 0 discriminator 3
 3551 07ae 2F4B     		ldr	r3, .L134+40
 3552 07b0 1B78     		ldrb	r3, [r3]
 3553 07b2 002B     		cmp	r3, #0
 3554 07b4 00D0     		beq	.LCB2741
ARM GAS  C:\Users\sergio\AppData\Local\Temp\ccku3oR8.s 			page 86


 3555 07b6 CAE0     		b	.L130	@long jump
 3556              	.LCB2741:
1107:main.c        ****                             thermoState = 0x08;
 3557              		.loc 1 1107 0 is_stmt 1
 3558 07b8 284B     		ldr	r3, .L134+24
 3559 07ba 0822     		movs	r2, #8
 3560 07bc 1A70     		strb	r2, [r3]
1108:main.c        ****                             run_ac();
 3561              		.loc 1 1108 0
 3562 07be FFF7FEFF 		bl	run_ac
1083:main.c        ****                 // if the temperature of ambient is higher than the temprature set turn on the comp
 3563              		.loc 1 1083 0
 3564 07c2 C4E0     		b	.L130
 3565              	.L112:
1109:main.c        ****                         }
1110:main.c        ****                     }
1111:main.c        ****                 }
1112:main.c        ****                 
1113:main.c        ****              } // end comp on
1114:main.c        ****              else{
1115:main.c        ****                 if (thermo.power == 1 && thermo.fanLow == 1 && thermo.fanHigh == 0 && thermo.compre
 3566              		.loc 1 1115 0
 3567 07c4 294B     		ldr	r3, .L134+40
 3568 07c6 5B79     		ldrb	r3, [r3, #5]
 3569 07c8 012B     		cmp	r3, #1
 3570 07ca 11D1     		bne	.L119
 3571              		.loc 1 1115 0 is_stmt 0 discriminator 1
 3572 07cc 274B     		ldr	r3, .L134+40
 3573 07ce 5B78     		ldrb	r3, [r3, #1]
 3574 07d0 012B     		cmp	r3, #1
 3575 07d2 0DD1     		bne	.L119
 3576              		.loc 1 1115 0 discriminator 2
 3577 07d4 254B     		ldr	r3, .L134+40
 3578 07d6 9B78     		ldrb	r3, [r3, #2]
 3579 07d8 002B     		cmp	r3, #0
 3580 07da 09D1     		bne	.L119
 3581              		.loc 1 1115 0 discriminator 3
 3582 07dc 234B     		ldr	r3, .L134+40
 3583 07de 1B78     		ldrb	r3, [r3]
 3584 07e0 002B     		cmp	r3, #0
 3585 07e2 05D1     		bne	.L119
1116:main.c        ****                     thermoState = 0x10;
 3586              		.loc 1 1116 0 is_stmt 1
 3587 07e4 1D4B     		ldr	r3, .L134+24
 3588 07e6 1022     		movs	r2, #16
 3589 07e8 1A70     		strb	r2, [r3]
1117:main.c        ****                     run_ac();
 3590              		.loc 1 1117 0
 3591 07ea FFF7FEFF 		bl	run_ac
 3592 07ee 19E0     		b	.L118
 3593              	.L119:
1118:main.c        ****                 }
1119:main.c        ****                 else if(thermo.power == 1 && thermo.fanLow == 0 && thermo.fanHigh == 1 && thermo.co
 3594              		.loc 1 1119 0
 3595 07f0 1E4B     		ldr	r3, .L134+40
 3596 07f2 5B79     		ldrb	r3, [r3, #5]
 3597 07f4 012B     		cmp	r3, #1
ARM GAS  C:\Users\sergio\AppData\Local\Temp\ccku3oR8.s 			page 87


 3598 07f6 00D0     		beq	.LCB2777
 3599 07f8 A9E0     		b	.L130	@long jump
 3600              	.LCB2777:
 3601              		.loc 1 1119 0 is_stmt 0 discriminator 1
 3602 07fa 1C4B     		ldr	r3, .L134+40
 3603 07fc 5B78     		ldrb	r3, [r3, #1]
 3604 07fe 002B     		cmp	r3, #0
 3605 0800 00D0     		beq	.LCB2781
 3606 0802 A4E0     		b	.L130	@long jump
 3607              	.LCB2781:
 3608              		.loc 1 1119 0 discriminator 2
 3609 0804 194B     		ldr	r3, .L134+40
 3610 0806 9B78     		ldrb	r3, [r3, #2]
 3611 0808 012B     		cmp	r3, #1
 3612 080a 00D0     		beq	.LCB2785
 3613 080c 9FE0     		b	.L130	@long jump
 3614              	.LCB2785:
 3615              		.loc 1 1119 0 discriminator 3
 3616 080e 174B     		ldr	r3, .L134+40
 3617 0810 1B78     		ldrb	r3, [r3]
 3618 0812 002B     		cmp	r3, #0
 3619 0814 00D0     		beq	.LCB2789
 3620 0816 9AE0     		b	.L130	@long jump
 3621              	.LCB2789:
1120:main.c        ****                     thermoState = 0x08;
 3622              		.loc 1 1120 0 is_stmt 1
 3623 0818 104B     		ldr	r3, .L134+24
 3624 081a 0822     		movs	r2, #8
 3625 081c 1A70     		strb	r2, [r3]
1121:main.c        ****                     run_ac();
 3626              		.loc 1 1121 0
 3627 081e FFF7FEFF 		bl	run_ac
1083:main.c        ****                 // if the temperature of ambient is higher than the temprature set turn on the comp
 3628              		.loc 1 1083 0
 3629 0822 94E0     		b	.L130
 3630              	.L118:
1083:main.c        ****                 // if the temperature of ambient is higher than the temprature set turn on the comp
 3631              		.loc 1 1083 0 is_stmt 0 discriminator 4
 3632 0824 93E0     		b	.L130
 3633              	.L111:
1122:main.c        ****                 }
1123:main.c        ****             }
1124:main.c        ****         }
1125:main.c        ****         else if(thermo.power == 0 && thermo.test == 0){
 3634              		.loc 1 1125 0 is_stmt 1
 3635 0826 114B     		ldr	r3, .L134+40
 3636 0828 5B79     		ldrb	r3, [r3, #5]
 3637 082a 002B     		cmp	r3, #0
 3638 082c 24D1     		bne	.L121
 3639              		.loc 1 1125 0 is_stmt 0 discriminator 1
 3640 082e 0F4B     		ldr	r3, .L134+40
 3641 0830 9B79     		ldrb	r3, [r3, #6]
 3642 0832 002B     		cmp	r3, #0
 3643 0834 20D1     		bne	.L121
1126:main.c        ****             thermoState = 0x00;
 3644              		.loc 1 1126 0 is_stmt 1
 3645 0836 094B     		ldr	r3, .L134+24
ARM GAS  C:\Users\sergio\AppData\Local\Temp\ccku3oR8.s 			page 88


 3646 0838 0022     		movs	r2, #0
 3647 083a 1A70     		strb	r2, [r3]
1127:main.c        ****             run_ac();
 3648              		.loc 1 1127 0
 3649 083c FFF7FEFF 		bl	run_ac
 3650 0840 86E0     		b	.L128
 3651              	.L135:
 3652 0842 C046     		.align	2
 3653              	.L134:
 3654 0844 00000000 		.word	sensorData
 3655 0848 64030000 		.word	.LC81
 3656 084c 80030000 		.word	.LC83
 3657 0850 9C030000 		.word	.LC85
 3658 0854 00000000 		.word	gpioPins
 3659 0858 00000000 		.word	bleConnected
 3660 085c 00000000 		.word	thermoState
 3661 0860 BC030000 		.word	.LC89
 3662 0864 00000000 		.word	isNotify
 3663 0868 00000000 		.word	cyBle_busyStatus
 3664 086c 00000000 		.word	thermo
 3665 0870 00000000 		.word	counter
 3666 0874 00000000 		.word	interruptFlag
 3667              	.L121:
1128:main.c        ****         }
1129:main.c        **** //---------------------------------- test page here -----------------------------------------------
1130:main.c        ****         else if(thermo.test == 1){
 3668              		.loc 1 1130 0
 3669 0878 384B     		ldr	r3, .L136
 3670 087a 9B79     		ldrb	r3, [r3, #6]
 3671 087c 012B     		cmp	r3, #1
 3672 087e 67D1     		bne	.L128
1131:main.c        ****             if(thermo.power == 0){
 3673              		.loc 1 1131 0
 3674 0880 364B     		ldr	r3, .L136
 3675 0882 5B79     		ldrb	r3, [r3, #5]
 3676 0884 002B     		cmp	r3, #0
 3677 0886 12D1     		bne	.L122
1132:main.c        ****                  RelayC_3_Write(1);
 3678              		.loc 1 1132 0
 3679 0888 0120     		movs	r0, #1
 3680 088a FFF7FEFF 		bl	RelayC_3_Write
1133:main.c        ****                  Comp_out_Write(1);
 3681              		.loc 1 1133 0
 3682 088e 0120     		movs	r0, #1
 3683 0890 FFF7FEFF 		bl	Comp_out_Write
1134:main.c        ****                 
1135:main.c        ****                  RelayLF_1_Write(1);
 3684              		.loc 1 1135 0
 3685 0894 0120     		movs	r0, #1
 3686 0896 FFF7FEFF 		bl	RelayLF_1_Write
1136:main.c        ****                  LowF_out_Write(1);
 3687              		.loc 1 1136 0
 3688 089a 0120     		movs	r0, #1
 3689 089c FFF7FEFF 		bl	LowF_out_Write
1137:main.c        ****             
1138:main.c        ****                  RelayHF_2_Write(1);
 3690              		.loc 1 1138 0
ARM GAS  C:\Users\sergio\AppData\Local\Temp\ccku3oR8.s 			page 89


 3691 08a0 0120     		movs	r0, #1
 3692 08a2 FFF7FEFF 		bl	RelayHF_2_Write
1139:main.c        ****                  LowF_out_Write(1);
 3693              		.loc 1 1139 0
 3694 08a6 0120     		movs	r0, #1
 3695 08a8 FFF7FEFF 		bl	LowF_out_Write
 3696 08ac 50E0     		b	.L128
 3697              	.L122:
1140:main.c        ****             } // end power off
1141:main.c        ****             else if(thermo.power == 1){
 3698              		.loc 1 1141 0
 3699 08ae 2B4B     		ldr	r3, .L136
 3700 08b0 5B79     		ldrb	r3, [r3, #5]
 3701 08b2 012B     		cmp	r3, #1
 3702 08b4 4CD1     		bne	.L128
1142:main.c        ****                 if(thermo.compressor == 1){
 3703              		.loc 1 1142 0
 3704 08b6 294B     		ldr	r3, .L136
 3705 08b8 1B78     		ldrb	r3, [r3]
 3706 08ba 012B     		cmp	r3, #1
 3707 08bc 09D1     		bne	.L123
1143:main.c        ****                     RelayC_3_Write(0);
 3708              		.loc 1 1143 0
 3709 08be 0020     		movs	r0, #0
 3710 08c0 FFF7FEFF 		bl	RelayC_3_Write
1144:main.c        ****                     Comp_out_Write(0);
 3711              		.loc 1 1144 0
 3712 08c4 0020     		movs	r0, #0
 3713 08c6 FFF7FEFF 		bl	Comp_out_Write
1145:main.c        ****                     
1146:main.c        ****                  //   if(sensorData.voltCompressor > 2){
1147:main.c        ****                    //     if(sensorData.currentCompressor > 1000){
1148:main.c        ****                             thermo.compressor = 1u;
 3714              		.loc 1 1148 0
 3715 08ca 244B     		ldr	r3, .L136
 3716 08cc 0122     		movs	r2, #1
 3717 08ce 1A70     		strb	r2, [r3]
 3718 08d0 09E0     		b	.L124
 3719              	.L123:
1149:main.c        ****                         //}
1150:main.c        ****                      //   else{
1151:main.c        ****                        //     errorPower.err_Comp_curr = 1;
1152:main.c        ****                          //   thermo.compressor = 0u;
1153:main.c        ****                         //}
1154:main.c        ****                     //}
1155:main.c        ****                     //else{
1156:main.c        ****                       //  errorPower.err_Comp_volt = 1; 
1157:main.c        ****                         //thermo.compressor = 0u;
1158:main.c        ****                    // }
1159:main.c        ****                 } // end compressor on
1160:main.c        ****                 else if(thermo.compressor == 0){
 3720              		.loc 1 1160 0
 3721 08d2 224B     		ldr	r3, .L136
 3722 08d4 1B78     		ldrb	r3, [r3]
 3723 08d6 002B     		cmp	r3, #0
 3724 08d8 05D1     		bne	.L124
1161:main.c        ****                     RelayC_3_Write(1);
ARM GAS  C:\Users\sergio\AppData\Local\Temp\ccku3oR8.s 			page 90


 3725              		.loc 1 1161 0
 3726 08da 0120     		movs	r0, #1
 3727 08dc FFF7FEFF 		bl	RelayC_3_Write
1162:main.c        ****                     Comp_out_Write(1);
 3728              		.loc 1 1162 0
 3729 08e0 0120     		movs	r0, #1
 3730 08e2 FFF7FEFF 		bl	Comp_out_Write
 3731              	.L124:
1163:main.c        ****                     
1164:main.c        ****                     //if(sensorData.voltCompressor < 2){
1165:main.c        ****                       //  errorPower.err_Comp_volt = 1;
1166:main.c        ****                         //if(sensorData.currentCompressor < 1000){
1167:main.c        ****                           //  errorPower.err_Comp_curr = 1;
1168:main.c        ****                         //}
1169:main.c        ****                     //}
1170:main.c        ****                 } // end compressor on
1171:main.c        ****                 
1172:main.c        ****                 if(thermo.fanLow == 1){
 3732              		.loc 1 1172 0
 3733 08e6 1D4B     		ldr	r3, .L136
 3734 08e8 5B78     		ldrb	r3, [r3, #1]
 3735 08ea 012B     		cmp	r3, #1
 3736 08ec 09D1     		bne	.L125
1173:main.c        ****                     RelayLF_1_Write(0);
 3737              		.loc 1 1173 0
 3738 08ee 0020     		movs	r0, #0
 3739 08f0 FFF7FEFF 		bl	RelayLF_1_Write
1174:main.c        ****                     LowF_out_Write(0);
 3740              		.loc 1 1174 0
 3741 08f4 0020     		movs	r0, #0
 3742 08f6 FFF7FEFF 		bl	LowF_out_Write
1175:main.c        ****                     
1176:main.c        ****                     //if(sensorData.volt > 2){
1177:main.c        ****                         //if(sensorData.current > 1000){
1178:main.c        ****                            thermo.fanLow = 1;
 3743              		.loc 1 1178 0
 3744 08fa 184B     		ldr	r3, .L136
 3745 08fc 0122     		movs	r2, #1
 3746 08fe 5A70     		strb	r2, [r3, #1]
 3747 0900 09E0     		b	.L126
 3748              	.L125:
1179:main.c        ****                         //}
1180:main.c        **** //                        else{
1181:main.c        **** //                           errorPower.err_LFan_curr = 1;
1182:main.c        **** //                           thermo.fanLow = 0;
1183:main.c        **** //                        }
1184:main.c        ****                     //}
1185:main.c        **** //                    else{
1186:main.c        **** //                        errorPower.err_LFan_volt = 1; 
1187:main.c        **** //                        thermo.fanLow = 0;
1188:main.c        **** //                    }
1189:main.c        ****                 } // end of low fan on
1190:main.c        ****                 else if(thermo.fanLow == 0){
 3749              		.loc 1 1190 0
 3750 0902 164B     		ldr	r3, .L136
 3751 0904 5B78     		ldrb	r3, [r3, #1]
 3752 0906 002B     		cmp	r3, #0
ARM GAS  C:\Users\sergio\AppData\Local\Temp\ccku3oR8.s 			page 91


 3753 0908 05D1     		bne	.L126
1191:main.c        ****                     RelayLF_1_Write(1);
 3754              		.loc 1 1191 0
 3755 090a 0120     		movs	r0, #1
 3756 090c FFF7FEFF 		bl	RelayLF_1_Write
1192:main.c        ****                     LowF_out_Write(1);
 3757              		.loc 1 1192 0
 3758 0910 0120     		movs	r0, #1
 3759 0912 FFF7FEFF 		bl	LowF_out_Write
 3760              	.L126:
1193:main.c        ****                     
1194:main.c        ****                     //if(sensorData.volt > 2){
1195:main.c        ****                         //errorPower.err_Comp_volt = 1;
1196:main.c        ****                         
1197:main.c        **** //                        if(sensorData.current > 1000){
1198:main.c        **** //                            errorPower.err_Comp_curr = 1;
1199:main.c        **** //                        }
1200:main.c        **** //                    }
1201:main.c        ****                 } // end of low fan off
1202:main.c        ****                 
1203:main.c        ****                 if(thermo.fanHigh == 1){
 3761              		.loc 1 1203 0
 3762 0916 114B     		ldr	r3, .L136
 3763 0918 9B78     		ldrb	r3, [r3, #2]
 3764 091a 012B     		cmp	r3, #1
 3765 091c 09D1     		bne	.L127
1204:main.c        ****                     RelayHF_2_Write(0);
 3766              		.loc 1 1204 0
 3767 091e 0020     		movs	r0, #0
 3768 0920 FFF7FEFF 		bl	RelayHF_2_Write
1205:main.c        ****                     HighF_out_Write(0);
 3769              		.loc 1 1205 0
 3770 0924 0020     		movs	r0, #0
 3771 0926 FFF7FEFF 		bl	HighF_out_Write
1206:main.c        ****                     
1207:main.c        ****                     //if(sensorData.voltFan > 2){                        
1208:main.c        ****                       //  if(sensorData.currentFan > 1000){
1209:main.c        ****                             thermo.fanHigh = 1;
 3772              		.loc 1 1209 0
 3773 092a 0C4B     		ldr	r3, .L136
 3774 092c 0122     		movs	r2, #1
 3775 092e 9A70     		strb	r2, [r3, #2]
 3776 0930 0EE0     		b	.L128
 3777              	.L127:
1210:main.c        ****                         //}
1211:main.c        ****                         //else{
1212:main.c        ****                           //  errorPower.err_HFan_curr = 1;
1213:main.c        ****                            // thermo.fanHigh = 0;
1214:main.c        ****                         //}
1215:main.c        ****                     //}
1216:main.c        ****                     //else{
1217:main.c        ****                       //  errorPower.err_HFan_volt = 1;
1218:main.c        ****                         //thermo.fanHigh = 0;
1219:main.c        ****                   //  }
1220:main.c        ****                 } // end of High fan on
1221:main.c        ****                 else if(thermo.fanHigh == 0){
 3778              		.loc 1 1221 0
ARM GAS  C:\Users\sergio\AppData\Local\Temp\ccku3oR8.s 			page 92


 3779 0932 0A4B     		ldr	r3, .L136
 3780 0934 9B78     		ldrb	r3, [r3, #2]
 3781 0936 002B     		cmp	r3, #0
 3782 0938 0AD1     		bne	.L128
1222:main.c        ****                     RelayHF_2_Write(1);
 3783              		.loc 1 1222 0
 3784 093a 0120     		movs	r0, #1
 3785 093c FFF7FEFF 		bl	RelayHF_2_Write
1223:main.c        ****                     HighF_out_Write(1);
 3786              		.loc 1 1223 0
 3787 0940 0120     		movs	r0, #1
 3788 0942 FFF7FEFF 		bl	HighF_out_Write
 3789 0946 03E0     		b	.L128
 3790              	.L110:
1224:main.c        ****                     
1225:main.c        ****                  //   if(sensorData.voltFan > 2){
1226:main.c        ****                     //    errorPower.err_HFan_volt = 1;
1227:main.c        ****                         
1228:main.c        ****                       //  if(sensorData.currentFan > 1000){
1229:main.c        ****                           //  errorPower.err_HFan_curr = 1;
1230:main.c        ****                         //}
1231:main.c        ****                     //}
1232:main.c        ****                 } //end of high fan off
1233:main.c        ****             } // end of power on
1234:main.c        ****         } // end of test
1235:main.c        **** } // end of ble connected 
1236:main.c        **** else{
1237:main.c        ****     run_ac();
 3791              		.loc 1 1237 0
 3792 0948 FFF7FEFF 		bl	run_ac
 3793 094c 00E0     		b	.L128
 3794              	.L130:
1083:main.c        ****                 // if the temperature of ambient is higher than the temprature set turn on the comp
 3795              		.loc 1 1083 0
 3796 094e C046     		nop
 3797              	.L128:
1238:main.c        **** }
1239:main.c        **** 
1240:main.c        ****         //send_Error_Power_to_Phone();
1241:main.c        ****         send_Thermo_to_phone();
 3798              		.loc 1 1241 0
 3799 0950 FFF7FEFF 		bl	send_Thermo_to_phone
1242:main.c        ****         CyBle_ProcessEvents();
 3800              		.loc 1 1242 0
 3801 0954 FFF7FEFF 		bl	CyBle_ProcessEvents
1243:main.c        ****    
1244:main.c        ****     } // end for loop
 3802              		.loc 1 1244 0
 3803 0958 FFF7B7FB 		bl	.L129	@ far jump
 3804              	.L137:
 3805              		.align	2
 3806              	.L136:
 3807 095c 00000000 		.word	thermo
 3808              		.cfi_endproc
 3809              	.LFE52:
 3810              		.size	main, .-main
 3811              		.text
ARM GAS  C:\Users\sergio\AppData\Local\Temp\ccku3oR8.s 			page 93


 3812              	.Letext0:
 3813              		.file 2 "c:\\program files (x86)\\cypress\\psoc creator\\4.2\\psoc creator\\import\\gnu\\arm\\5.4.
 3814              		.file 3 "c:\\program files (x86)\\cypress\\psoc creator\\4.2\\psoc creator\\import\\gnu\\arm\\5.4.
 3815              		.file 4 "Generated_Source\\PSoC4/cytypes.h"
 3816              		.file 5 "Generated_Source\\PSoC4/BLE_1_StackGatt.h"
 3817              		.file 6 "Generated_Source\\PSoC4/BLE_1_StackGattServer.h"
 3818              		.file 7 "Generated_Source\\PSoC4/BLE_1_Stack.h"
 3819              		.file 8 "Generated_Source\\PSoC4/BLE_1_eventHandler.h"