ARM GAS  C:\Users\sergio\AppData\Local\Temp\ccZ8BvM2.s 			page 1


   1              		.syntax unified
   2              		.cpu cortex-m0
   3              		.fpu softvfp
   4              		.eabi_attribute 20, 1
   5              		.eabi_attribute 21, 1
   6              		.eabi_attribute 23, 3
   7              		.eabi_attribute 24, 1
   8              		.eabi_attribute 25, 1
   9              		.eabi_attribute 26, 1
  10              		.eabi_attribute 30, 6
  11              		.eabi_attribute 34, 0
  12              		.eabi_attribute 18, 4
  13              		.thumb
  14              		.syntax unified
  15              		.file	"main.c"
  16              		.text
  17              	.Ltext0:
  18              		.cfi_sections	.debug_frame
  19              		.comm	thermoHandle,12,4
  20              		.global	interruptFlag
  21              		.bss
  22              		.align	2
  23              		.type	interruptFlag, %object
  24              		.size	interruptFlag, 4
  25              	interruptFlag:
  26 0000 00000000 		.space	4
  27              		.global	isNotify
  28              		.type	isNotify, %object
  29              		.size	isNotify, 1
  30              	isNotify:
  31 0004 00       		.space	1
  32              		.global	updateIsNotifyCCCDAttr
  33              		.type	updateIsNotifyCCCDAttr, %object
  34              		.size	updateIsNotifyCCCDAttr, 1
  35              	updateIsNotifyCCCDAttr:
  36 0005 00       		.space	1
  37              		.global	bleConnected
  38              		.type	bleConnected, %object
  39              		.size	bleConnected, 1
  40              	bleConnected:
  41 0006 00       		.space	1
  42              		.comm	uartStr,50,4
  43              		.global	gpioPins
  44              		.type	gpioPins, %object
  45              		.size	gpioPins, 1
  46              	gpioPins:
  47 0007 00       		.space	1
  48              		.global	adcRead
  49              		.align	1
  50              		.type	adcRead, %object
  51              		.size	adcRead, 2
  52              	adcRead:
  53 0008 0000     		.space	2
  54              		.comm	sensorData,36,4
  55              		.comm	thermo,7,4
  56              		.global	setTemperature
  57              		.type	setTemperature, %object
ARM GAS  C:\Users\sergio\AppData\Local\Temp\ccZ8BvM2.s 			page 2


  58              		.size	setTemperature, 1
  59              	setTemperature:
  60 000a 00       		.space	1
  61              		.global	prevComp
  62              		.type	prevComp, %object
  63              		.size	prevComp, 1
  64              	prevComp:
  65 000b 00       		.space	1
  66              		.global	prevLFan
  67              		.type	prevLFan, %object
  68              		.size	prevLFan, 1
  69              	prevLFan:
  70 000c 00       		.space	1
  71              		.global	prevHFan
  72              		.type	prevHFan, %object
  73              		.size	prevHFan, 1
  74              	prevHFan:
  75 000d 00       		.space	1
  76              		.section	.text.updateThermostatData,"ax",%progbits
  77              		.align	2
  78              		.global	updateThermostatData
  79              		.code	16
  80              		.thumb_func
  81              		.type	updateThermostatData, %function
  82              	updateThermostatData:
  83              	.LFB36:
  84              		.file 1 "main.c"
   1:main.c        **** /* ========================================
   2:main.c        ****  *
   3:main.c        ****  * Copyright YOUR COMPANY, THE YEAR
   4:main.c        ****  * All Rights Reserved
   5:main.c        ****  * UNPUBLISHED, LICENSED SOFTWARE.
   6:main.c        ****  *
   7:main.c        ****  * CONFIDENTIAL AND PROPRIETARY INFORMATION
   8:main.c        ****  * WHICH IS THE PROPERTY OF your company.
   9:main.c        ****  *
  10:main.c        ****  * ========================================
  11:main.c        **** */
  12:main.c        **** #include <project.h>
  13:main.c        **** 
  14:main.c        **** #include <stdio.h>
  15:main.c        **** #include <stdlib.h>
  16:main.c        **** 
  17:main.c        **** CYBLE_GATT_HANDLE_VALUE_PAIR_T thermoHandle;
  18:main.c        **** 
  19:main.c        **** // These are for the gpio exp.
  20:main.c        **** #define ADDR (0x70)
  21:main.c        **** #define REG_READ (0x00)
  22:main.c        **** #define REG_WRITE (0x01)
  23:main.c        **** #define REG_CONFIG (0x03)
  24:main.c        **** 
  25:main.c        **** #define ADDR_POWER1 (0x74)
  26:main.c        **** #define ADDR_POWER2 (0x75)
  27:main.c        **** #define ADDR_POWER3 (0x76)
  28:main.c        **** #define REG_POWER_VERSION (0x04)
  29:main.c        **** 
  30:main.c        **** // the address fro the temp sensor are 0x4C for A model and 0x4D for B model.
ARM GAS  C:\Users\sergio\AppData\Local\Temp\ccZ8BvM2.s 			page 3


  31:main.c        **** 
  32:main.c        **** int interruptFlag = 0;
  33:main.c        **** uint8 isNotify = 0;
  34:main.c        **** uint8 updateIsNotifyCCCDAttr = 0;
  35:main.c        **** uint8 bleConnected = 0;
  36:main.c        **** char uartStr[50];
  37:main.c        **** 
  38:main.c        **** uint8 gpioPins = 0u;
  39:main.c        **** uint16 adcRead = 0u;
  40:main.c        **** 
  41:main.c        **** 
  42:main.c        **** typedef struct{
  43:main.c        ****     
  44:main.c        ****     uint8 localTemp;
  45:main.c        ****     uint8 humidity;
  46:main.c        ****     uint8 remoteTemp1;
  47:main.c        ****     uint8 remoteTemp2; 
  48:main.c        ****     uint8 remoteTemp3;
  49:main.c        ****     uint8 remoteTemp4;
  50:main.c        ****     
  51:main.c        ****     uint16 voltCompressor;
  52:main.c        ****     uint16 voltFan;
  53:main.c        ****     uint16 volt;
  54:main.c        ****     
  55:main.c        ****     uint32 currentCompressor;
  56:main.c        ****     uint32 currentFan; 
  57:main.c        ****     uint32 current;
  58:main.c        ****     
  59:main.c        ****     uint16 lineFreqComp;
  60:main.c        ****     uint16 lineFreqFan;
  61:main.c        ****     uint16 lineFreq;
  62:main.c        ****     
  63:main.c        ****     
  64:main.c        ****     uint8 accX;
  65:main.c        ****     uint8 accY;
  66:main.c        ****     uint8 accZ;
  67:main.c        ****     
  68:main.c        ****     uint16 airFlow;
  69:main.c        ****     
  70:main.c        **** }dataCollected;
  71:main.c        **** 
  72:main.c        ****  dataCollected sensorData;
  73:main.c        **** // 5 bytes
  74:main.c        **** typedef struct{
  75:main.c        ****     uint8 compressor;
  76:main.c        ****     uint8 fanLow;
  77:main.c        ****     uint8 fanHigh;
  78:main.c        ****     uint8 setTemperature;
  79:main.c        ****     uint8 ambientTemp;
  80:main.c        ****     uint8 power;
  81:main.c        ****     uint8 test;
  82:main.c        **** } thermostatData ;
  83:main.c        **** 
  84:main.c        **** 
  85:main.c        **** 
  86:main.c        ****  thermostatData thermo;
  87:main.c        **** 
ARM GAS  C:\Users\sergio\AppData\Local\Temp\ccZ8BvM2.s 			page 4


  88:main.c        **** typedef struct{
  89:main.c        ****     int8 err_Power;
  90:main.c        ****     int8 err_Temp;
  91:main.c        ****     int8 err_Hum;
  92:main.c        ****     int8 err_Acc;
  93:main.c        ****     
  94:main.c        **** }errorCode;
  95:main.c        **** 
  96:main.c        **** uint8 setTemperature = 0;
  97:main.c        **** 
  98:main.c        **** uint8 prevComp = 0;
  99:main.c        **** uint8 prevLFan = 0;
 100:main.c        **** uint8 prevHFan = 0;
 101:main.c        **** 
 102:main.c        **** 
 103:main.c        **** 
 104:main.c        **** void updateThermostatData(void){
  85              		.loc 1 104 0
  86              		.cfi_startproc
  87              		@ args = 0, pretend = 0, frame = 8
  88              		@ frame_needed = 1, uses_anonymous_args = 0
  89 0000 80B5     		push	{r7, lr}
  90              		.cfi_def_cfa_offset 8
  91              		.cfi_offset 7, -8
  92              		.cfi_offset 14, -4
  93 0002 82B0     		sub	sp, sp, #8
  94              		.cfi_def_cfa_offset 16
  95 0004 00AF     		add	r7, sp, #0
  96              		.cfi_def_cfa_register 7
 105:main.c        ****     
 106:main.c        ****     
 107:main.c        ****     uint8 thermoTemp[] = {thermo.compressor, thermo.fanLow, thermo.fanHigh,
  97              		.loc 1 107 0
  98 0006 194B     		ldr	r3, .L2
  99 0008 1A78     		ldrb	r2, [r3]
 100 000a 3B00     		movs	r3, r7
 101 000c 1A70     		strb	r2, [r3]
 102 000e 174B     		ldr	r3, .L2
 103 0010 5A78     		ldrb	r2, [r3, #1]
 104 0012 3B00     		movs	r3, r7
 105 0014 5A70     		strb	r2, [r3, #1]
 106 0016 154B     		ldr	r3, .L2
 107 0018 9A78     		ldrb	r2, [r3, #2]
 108 001a 3B00     		movs	r3, r7
 109 001c 9A70     		strb	r2, [r3, #2]
 108:main.c        ****     thermo.setTemperature, thermo.ambientTemp, thermo.power, thermo.test};
 110              		.loc 1 108 0
 111 001e 134B     		ldr	r3, .L2
 112 0020 DA78     		ldrb	r2, [r3, #3]
 107:main.c        ****     thermo.setTemperature, thermo.ambientTemp, thermo.power, thermo.test};
 113              		.loc 1 107 0
 114 0022 3B00     		movs	r3, r7
 115 0024 DA70     		strb	r2, [r3, #3]
 116              		.loc 1 108 0
 117 0026 114B     		ldr	r3, .L2
 118 0028 1A79     		ldrb	r2, [r3, #4]
 107:main.c        ****     thermo.setTemperature, thermo.ambientTemp, thermo.power, thermo.test};
ARM GAS  C:\Users\sergio\AppData\Local\Temp\ccZ8BvM2.s 			page 5


 119              		.loc 1 107 0
 120 002a 3B00     		movs	r3, r7
 121 002c 1A71     		strb	r2, [r3, #4]
 122              		.loc 1 108 0
 123 002e 0F4B     		ldr	r3, .L2
 124 0030 5A79     		ldrb	r2, [r3, #5]
 107:main.c        ****     thermo.setTemperature, thermo.ambientTemp, thermo.power, thermo.test};
 125              		.loc 1 107 0
 126 0032 3B00     		movs	r3, r7
 127 0034 5A71     		strb	r2, [r3, #5]
 128              		.loc 1 108 0
 129 0036 0D4B     		ldr	r3, .L2
 130 0038 9A79     		ldrb	r2, [r3, #6]
 107:main.c        ****     thermo.setTemperature, thermo.ambientTemp, thermo.power, thermo.test};
 131              		.loc 1 107 0
 132 003a 3B00     		movs	r3, r7
 133 003c 9A71     		strb	r2, [r3, #6]
 109:main.c        ****     thermoHandle.attrHandle = CYBLE_RVAC_THERMOSTAT_THERMOCCCD_DESC_HANDLE;
 134              		.loc 1 109 0
 135 003e 0C4B     		ldr	r3, .L2+4
 136 0040 1722     		movs	r2, #23
 137 0042 1A81     		strh	r2, [r3, #8]
 110:main.c        ****     thermoHandle.value.val = (uint8 *) thermoTemp;
 138              		.loc 1 110 0
 139 0044 0A4B     		ldr	r3, .L2+4
 140 0046 3A00     		movs	r2, r7
 141 0048 1A60     		str	r2, [r3]
 111:main.c        ****     thermoHandle.value.len = 7; 
 142              		.loc 1 111 0
 143 004a 094B     		ldr	r3, .L2+4
 144 004c 0722     		movs	r2, #7
 145 004e 9A80     		strh	r2, [r3, #4]
 112:main.c        ****     thermoHandle.value.actualLen = 7; 
 146              		.loc 1 112 0
 147 0050 074B     		ldr	r3, .L2+4
 148 0052 0722     		movs	r2, #7
 149 0054 DA80     		strh	r2, [r3, #6]
 113:main.c        ****     
 114:main.c        ****     CyBle_GattsWriteAttributeValue(&thermoHandle, 0, &cyBle_connHandle, 0);
 150              		.loc 1 114 0
 151 0056 074A     		ldr	r2, .L2+8
 152 0058 0548     		ldr	r0, .L2+4
 153 005a 0023     		movs	r3, #0
 154 005c 0021     		movs	r1, #0
 155 005e FFF7FEFF 		bl	CyBle_GattsWriteAttributeValue
 115:main.c        **** }
 156              		.loc 1 115 0
 157 0062 C046     		nop
 158 0064 BD46     		mov	sp, r7
 159 0066 02B0     		add	sp, sp, #8
 160              		@ sp needed
 161 0068 80BD     		pop	{r7, pc}
 162              	.L3:
 163 006a C046     		.align	2
 164              	.L2:
 165 006c 00000000 		.word	thermo
 166 0070 00000000 		.word	thermoHandle
ARM GAS  C:\Users\sergio\AppData\Local\Temp\ccZ8BvM2.s 			page 6


 167 0074 00000000 		.word	cyBle_connHandle
 168              		.cfi_endproc
 169              	.LFE36:
 170              		.size	updateThermostatData, .-updateThermostatData
 171              		.section	.rodata
 172              		.align	2
 173              	.LC8:
 174 0000 2D2D2D2D 		.ascii	"-----------------    comp %d   flow %d   dhigh %d p"
 174      2D2D2D2D 
 174      2D2D2D2D 
 174      2D2D2D2D 
 174      2D202020 
 175 0033 6F776572 		.ascii	"ower %d\012\000"
 175      2025640A 
 175      00
 176              		.section	.text.bleStack,"ax",%progbits
 177              		.align	2
 178              		.global	bleStack
 179              		.code	16
 180              		.thumb_func
 181              		.type	bleStack, %function
 182              	bleStack:
 183              	.LFB37:
 116:main.c        **** 
 117:main.c        **** void bleStack(uint32 event, void *eventParam){
 184              		.loc 1 117 0
 185              		.cfi_startproc
 186              		@ args = 0, pretend = 0, frame = 32
 187              		@ frame_needed = 1, uses_anonymous_args = 0
 188 0000 B0B5     		push	{r4, r5, r7, lr}
 189              		.cfi_def_cfa_offset 16
 190              		.cfi_offset 4, -16
 191              		.cfi_offset 5, -12
 192              		.cfi_offset 7, -8
 193              		.cfi_offset 14, -4
 194 0002 8AB0     		sub	sp, sp, #40
 195              		.cfi_def_cfa_offset 56
 196 0004 02AF     		add	r7, sp, #8
 197              		.cfi_def_cfa 7, 48
 198 0006 7860     		str	r0, [r7, #4]
 199 0008 3960     		str	r1, [r7]
 118:main.c        ****     
 119:main.c        ****     CYBLE_GATTS_WRITE_REQ_PARAM_T wrReq;
 120:main.c        ****     CYBLE_API_RESULT_T apiResult;
 121:main.c        ****     CYBLE_GAP_BD_ADDR_T localAddr;
 122:main.c        ****     
 123:main.c        ****     switch(event){
 200              		.loc 1 123 0
 201 000a 7B68     		ldr	r3, [r7, #4]
 202 000c 282B     		cmp	r3, #40
 203 000e 14D0     		beq	.L6
 204 0010 05D8     		bhi	.L7
 205 0012 262B     		cmp	r3, #38
 206 0014 18D0     		beq	.L8
 207 0016 0DD8     		bhi	.L9
 208 0018 012B     		cmp	r3, #1
 209 001a 07D0     		beq	.L10
ARM GAS  C:\Users\sergio\AppData\Local\Temp\ccZ8BvM2.s 			page 7


 124:main.c        ****     
 125:main.c        ****      
 126:main.c        ****         case CYBLE_EVT_STACK_ON:
 127:main.c        ****           CyBle_GappStartAdvertisement(CYBLE_ADVERTISING_FAST);
 128:main.c        **** //            if(apiResult != CYBLE_ERROR_OK){
 129:main.c        **** //            // DBG_PRINTF("Start Advertisement API Error: %d \r\n",apiResult);   
 130:main.c        **** //            }
 131:main.c        ****             //DBG_PRINTF("Bluetooth On, StartAdvertisement with addr: ");
 132:main.c        **** //            localAddr.type = 0u;
 133:main.c        **** //            CyBle_GetDeviceAddress(&localAddr);
 134:main.c        **** //            for(uint i = CYBLE_GAP_BD_ADDR_SIZE; i > 0u; i--)
 135:main.c        **** //            {
 136:main.c        **** //                DBG_PRINTF("%2.2x", localAddr.bdAddr[i-1]);
 137:main.c        **** //            }
 138:main.c        **** //            DBG_PRINTF("\r\n");
 139:main.c        ****             break; //(Claudio Modified) Is there a reason why we didn't have a break expression in 
 140:main.c        ****         case CYBLE_EVT_GAP_DEVICE_CONNECTED:
 141:main.c        ****             CyBle_GappStopAdvertisement(); 
 142:main.c        ****             break;
 143:main.c        ****         case CYBLE_EVT_GAP_DEVICE_DISCONNECTED:
 144:main.c        ****             CyBle_GappStartAdvertisement(CYBLE_ADVERTISING_FAST);
 145:main.c        ****             isNotify = 0;
 146:main.c        ****             break;
 147:main.c        ****         case CYBLE_EVT_GAPP_ADVERTISEMENT_START_STOP:
 148:main.c        ****              if(CyBle_GetState() == CYBLE_STATE_DISCONNECTED){
 149:main.c        ****                  CyBle_GappStartAdvertisement(CYBLE_SCANNING_FAST);
 150:main.c        ****             }
 151:main.c        ****             break;
 152:main.c        ****         case CYBLE_EVT_GATT_CONNECT_IND:
 153:main.c        ****             bleConnected = 1;
 154:main.c        ****             CyBle_GappStopAdvertisement();
 155:main.c        ****             break;
 156:main.c        ****         case CYBLE_EVT_GATT_DISCONNECT_IND:
 157:main.c        ****             isNotify = 0;
 158:main.c        ****             bleConnected = 0;
 159:main.c        ****             // Update the notifications CCCD
 160:main.c        ****             updateIsNotifyCCCDAttr = 1;
 161:main.c        ****             
 162:main.c        ****             // update the thermostat array with the thermosstat info.
 163:main.c        ****             // ex. themostat[0] = readSensor();
 164:main.c        ****             // update the data in the thermostat attibute
 165:main.c        ****             updateThermostatData();
 166:main.c        ****             
 167:main.c        ****            break;
 168:main.c        ****         case CYBLE_EVT_GATTS_WRITE_REQ:
 169:main.c        ****             wrReq = *(CYBLE_GATTS_WRITE_REQ_PARAM_T *)eventParam; //CYBLE_DAC_SERVICE_VOLT_VOLTCCCD
 170:main.c        ****            
 171:main.c        ****             // This handle the notofications
 172:main.c        ****             if(wrReq.handleValPair.attrHandle == CYBLE_RVAC_SENSORS_SENSORCCCD_DESC_HANDLE){
 173:main.c        ****                 
 174:main.c        ****                // CyBle_GattsWriteAttributeValue( &wrReq->handleValPair, 0, &connHandle, CYBLE_GATT
 175:main.c        ****                 isNotify = wrReq.handleValPair.value.val[0];//CYBLE_RVAC_SENSOR_SENSORCCCD_DESC_IND
 176:main.c        ****                 
 177:main.c        ****                 updateIsNotifyCCCDAttr = 1;
 178:main.c        ****             }
 179:main.c        ****             
 180:main.c        ****             // This handle data incoming
ARM GAS  C:\Users\sergio\AppData\Local\Temp\ccZ8BvM2.s 			page 8


 181:main.c        ****             if(wrReq.handleValPair.attrHandle == CYBLE_RVAC_THERMOSTAT_CHAR_HANDLE){
 182:main.c        ****             
 183:main.c        ****                 thermo.compressor = wrReq.handleValPair.value.val[0];
 184:main.c        ****                 thermo.fanLow= wrReq.handleValPair.value.val[1];
 185:main.c        ****                 thermo.fanHigh = wrReq.handleValPair.value.val[2];
 186:main.c        ****                 thermo.setTemperature = wrReq.handleValPair.value.val[3];
 187:main.c        ****                 thermo.power = wrReq.handleValPair.value.val[5];
 188:main.c        ****                 thermo.test = wrReq.handleValPair.value.val[6];
 189:main.c        ****                 
 190:main.c        ****                 sprintf(uartStr, "-----------------    comp %d   flow %d   dhigh %d power %d\n", th
 191:main.c        ****                 MyUART_PutString(uartStr);
 192:main.c        ****                // thermostat[0] = thermo.compressor;
 193:main.c        ****                
 194:main.c        ****                 updateThermostatData();
 195:main.c        ****                 
 196:main.c        ****             }
 197:main.c        **** 
 198:main.c        ****             CyBle_GattsWriteRsp(cyBle_connHandle);
 199:main.c        ****             
 200:main.c        ****             break; 
 201:main.c        ****         
 202:main.c        ****      default:
 203:main.c        ****         break;
 210              		.loc 1 203 0
 211 001c 96E0     		b	.L14
 212              	.L7:
 123:main.c        ****     
 213              		.loc 1 123 0
 214 001e 422B     		cmp	r3, #66
 215 0020 21D0     		beq	.L11
 216 0022 4C2B     		cmp	r3, #76
 217 0024 2BD0     		beq	.L12
 218 0026 412B     		cmp	r3, #65
 219 0028 17D0     		beq	.L13
 220              		.loc 1 203 0
 221 002a 8FE0     		b	.L14
 222              	.L10:
 127:main.c        **** //            if(apiResult != CYBLE_ERROR_OK){
 223              		.loc 1 127 0
 224 002c 0020     		movs	r0, #0
 225 002e FFF7FEFF 		bl	CyBle_GappStartAdvertisement
 139:main.c        ****         case CYBLE_EVT_GAP_DEVICE_CONNECTED:
 226              		.loc 1 139 0
 227 0032 8BE0     		b	.L14
 228              	.L9:
 141:main.c        ****             break;
 229              		.loc 1 141 0
 230 0034 FFF7FEFF 		bl	CyBle_GappStopAdvertisement
 142:main.c        ****         case CYBLE_EVT_GAP_DEVICE_DISCONNECTED:
 231              		.loc 1 142 0
 232 0038 88E0     		b	.L14
 233              	.L6:
 144:main.c        ****             isNotify = 0;
 234              		.loc 1 144 0
 235 003a 0020     		movs	r0, #0
 236 003c FFF7FEFF 		bl	CyBle_GappStartAdvertisement
 145:main.c        ****             break;
ARM GAS  C:\Users\sergio\AppData\Local\Temp\ccZ8BvM2.s 			page 9


 237              		.loc 1 145 0
 238 0040 444B     		ldr	r3, .L19
 239 0042 0022     		movs	r2, #0
 240 0044 1A70     		strb	r2, [r3]
 146:main.c        ****         case CYBLE_EVT_GAPP_ADVERTISEMENT_START_STOP:
 241              		.loc 1 146 0
 242 0046 81E0     		b	.L14
 243              	.L8:
 148:main.c        ****                  CyBle_GappStartAdvertisement(CYBLE_SCANNING_FAST);
 244              		.loc 1 148 0
 245 0048 434B     		ldr	r3, .L19+4
 246 004a 1B78     		ldrb	r3, [r3]
 247 004c 042B     		cmp	r3, #4
 248 004e 00D0     		beq	.LCB139
 249 0050 7BE0     		b	.L18	@long jump
 250              	.LCB139:
 149:main.c        ****             }
 251              		.loc 1 149 0
 252 0052 0020     		movs	r0, #0
 253 0054 FFF7FEFF 		bl	CyBle_GappStartAdvertisement
 151:main.c        ****         case CYBLE_EVT_GATT_CONNECT_IND:
 254              		.loc 1 151 0
 255 0058 77E0     		b	.L18
 256              	.L13:
 153:main.c        ****             CyBle_GappStopAdvertisement();
 257              		.loc 1 153 0
 258 005a 404B     		ldr	r3, .L19+8
 259 005c 0122     		movs	r2, #1
 260 005e 1A70     		strb	r2, [r3]
 154:main.c        ****             break;
 261              		.loc 1 154 0
 262 0060 FFF7FEFF 		bl	CyBle_GappStopAdvertisement
 155:main.c        ****         case CYBLE_EVT_GATT_DISCONNECT_IND:
 263              		.loc 1 155 0
 264 0064 72E0     		b	.L14
 265              	.L11:
 157:main.c        ****             bleConnected = 0;
 266              		.loc 1 157 0
 267 0066 3B4B     		ldr	r3, .L19
 268 0068 0022     		movs	r2, #0
 269 006a 1A70     		strb	r2, [r3]
 158:main.c        ****             // Update the notifications CCCD
 270              		.loc 1 158 0
 271 006c 3B4B     		ldr	r3, .L19+8
 272 006e 0022     		movs	r2, #0
 273 0070 1A70     		strb	r2, [r3]
 160:main.c        ****             
 274              		.loc 1 160 0
 275 0072 3B4B     		ldr	r3, .L19+12
 276 0074 0122     		movs	r2, #1
 277 0076 1A70     		strb	r2, [r3]
 165:main.c        ****             
 278              		.loc 1 165 0
 279 0078 FFF7FEFF 		bl	updateThermostatData
 167:main.c        ****         case CYBLE_EVT_GATTS_WRITE_REQ:
 280              		.loc 1 167 0
 281 007c 66E0     		b	.L14
ARM GAS  C:\Users\sergio\AppData\Local\Temp\ccZ8BvM2.s 			page 10


 282              	.L12:
 169:main.c        ****            
 283              		.loc 1 169 0
 284 007e 1023     		movs	r3, #16
 285 0080 FB18     		adds	r3, r7, r3
 286 0082 3A68     		ldr	r2, [r7]
 287 0084 13CA     		ldmia	r2!, {r0, r1, r4}
 288 0086 13C3     		stmia	r3!, {r0, r1, r4}
 289 0088 1268     		ldr	r2, [r2]
 290 008a 1A60     		str	r2, [r3]
 172:main.c        ****                 
 291              		.loc 1 172 0
 292 008c 1023     		movs	r3, #16
 293 008e FB18     		adds	r3, r7, r3
 294 0090 9B89     		ldrh	r3, [r3, #12]
 295 0092 142B     		cmp	r3, #20
 296 0094 08D1     		bne	.L16
 175:main.c        ****                 
 297              		.loc 1 175 0
 298 0096 1023     		movs	r3, #16
 299 0098 FB18     		adds	r3, r7, r3
 300 009a 5B68     		ldr	r3, [r3, #4]
 301 009c 1A78     		ldrb	r2, [r3]
 302 009e 2D4B     		ldr	r3, .L19
 303 00a0 1A70     		strb	r2, [r3]
 177:main.c        ****             }
 304              		.loc 1 177 0
 305 00a2 2F4B     		ldr	r3, .L19+12
 306 00a4 0122     		movs	r2, #1
 307 00a6 1A70     		strb	r2, [r3]
 308              	.L16:
 181:main.c        ****             
 309              		.loc 1 181 0
 310 00a8 1023     		movs	r3, #16
 311 00aa FB18     		adds	r3, r7, r3
 312 00ac 9B89     		ldrh	r3, [r3, #12]
 313 00ae 162B     		cmp	r3, #22
 314 00b0 3CD1     		bne	.L17
 183:main.c        ****                 thermo.fanLow= wrReq.handleValPair.value.val[1];
 315              		.loc 1 183 0
 316 00b2 1023     		movs	r3, #16
 317 00b4 FB18     		adds	r3, r7, r3
 318 00b6 5B68     		ldr	r3, [r3, #4]
 319 00b8 1A78     		ldrb	r2, [r3]
 320 00ba 2A4B     		ldr	r3, .L19+16
 321 00bc 1A70     		strb	r2, [r3]
 184:main.c        ****                 thermo.fanHigh = wrReq.handleValPair.value.val[2];
 322              		.loc 1 184 0
 323 00be 1023     		movs	r3, #16
 324 00c0 FB18     		adds	r3, r7, r3
 325 00c2 5B68     		ldr	r3, [r3, #4]
 326 00c4 5A78     		ldrb	r2, [r3, #1]
 327 00c6 274B     		ldr	r3, .L19+16
 328 00c8 5A70     		strb	r2, [r3, #1]
 185:main.c        ****                 thermo.setTemperature = wrReq.handleValPair.value.val[3];
 329              		.loc 1 185 0
 330 00ca 1023     		movs	r3, #16
ARM GAS  C:\Users\sergio\AppData\Local\Temp\ccZ8BvM2.s 			page 11


 331 00cc FB18     		adds	r3, r7, r3
 332 00ce 5B68     		ldr	r3, [r3, #4]
 333 00d0 9A78     		ldrb	r2, [r3, #2]
 334 00d2 244B     		ldr	r3, .L19+16
 335 00d4 9A70     		strb	r2, [r3, #2]
 186:main.c        ****                 thermo.power = wrReq.handleValPair.value.val[5];
 336              		.loc 1 186 0
 337 00d6 1023     		movs	r3, #16
 338 00d8 FB18     		adds	r3, r7, r3
 339 00da 5B68     		ldr	r3, [r3, #4]
 340 00dc DA78     		ldrb	r2, [r3, #3]
 341 00de 214B     		ldr	r3, .L19+16
 342 00e0 DA70     		strb	r2, [r3, #3]
 187:main.c        ****                 thermo.test = wrReq.handleValPair.value.val[6];
 343              		.loc 1 187 0
 344 00e2 1023     		movs	r3, #16
 345 00e4 FB18     		adds	r3, r7, r3
 346 00e6 5B68     		ldr	r3, [r3, #4]
 347 00e8 5A79     		ldrb	r2, [r3, #5]
 348 00ea 1E4B     		ldr	r3, .L19+16
 349 00ec 5A71     		strb	r2, [r3, #5]
 188:main.c        ****                 
 350              		.loc 1 188 0
 351 00ee 1023     		movs	r3, #16
 352 00f0 FB18     		adds	r3, r7, r3
 353 00f2 5B68     		ldr	r3, [r3, #4]
 354 00f4 9A79     		ldrb	r2, [r3, #6]
 355 00f6 1B4B     		ldr	r3, .L19+16
 356 00f8 9A71     		strb	r2, [r3, #6]
 190:main.c        ****                 MyUART_PutString(uartStr);
 357              		.loc 1 190 0
 358 00fa 1A4B     		ldr	r3, .L19+16
 359 00fc 1B78     		ldrb	r3, [r3]
 360 00fe 1C00     		movs	r4, r3
 361 0100 184B     		ldr	r3, .L19+16
 362 0102 5B78     		ldrb	r3, [r3, #1]
 363 0104 1D00     		movs	r5, r3
 364 0106 174B     		ldr	r3, .L19+16
 365 0108 9B78     		ldrb	r3, [r3, #2]
 366 010a 1A00     		movs	r2, r3
 367 010c 154B     		ldr	r3, .L19+16
 368 010e 5B79     		ldrb	r3, [r3, #5]
 369 0110 1549     		ldr	r1, .L19+20
 370 0112 1648     		ldr	r0, .L19+24
 371 0114 0193     		str	r3, [sp, #4]
 372 0116 0092     		str	r2, [sp]
 373 0118 2B00     		movs	r3, r5
 374 011a 2200     		movs	r2, r4
 375 011c FFF7FEFF 		bl	sprintf
 191:main.c        ****                // thermostat[0] = thermo.compressor;
 376              		.loc 1 191 0
 377 0120 124B     		ldr	r3, .L19+24
 378 0122 1800     		movs	r0, r3
 379 0124 FFF7FEFF 		bl	MyUART_PutString
 194:main.c        ****                 
 380              		.loc 1 194 0
 381 0128 FFF7FEFF 		bl	updateThermostatData
ARM GAS  C:\Users\sergio\AppData\Local\Temp\ccZ8BvM2.s 			page 12


 382              	.L17:
 198:main.c        ****             
 383              		.loc 1 198 0
 384 012c 104B     		ldr	r3, .L19+28
 385 012e 1A78     		ldrb	r2, [r3]
 386 0130 5B78     		ldrb	r3, [r3, #1]
 387 0132 1B02     		lsls	r3, r3, #8
 388 0134 1A43     		orrs	r2, r3
 389 0136 0023     		movs	r3, #0
 390 0138 1204     		lsls	r2, r2, #16
 391 013a 120C     		lsrs	r2, r2, #16
 392 013c 1B0C     		lsrs	r3, r3, #16
 393 013e 1B04     		lsls	r3, r3, #16
 394 0140 1343     		orrs	r3, r2
 395 0142 1800     		movs	r0, r3
 396 0144 FFF7FEFF 		bl	CyBle_GattsWriteRsp
 200:main.c        ****         
 397              		.loc 1 200 0
 398 0148 00E0     		b	.L14
 399              	.L18:
 151:main.c        ****         case CYBLE_EVT_GATT_CONNECT_IND:
 400              		.loc 1 151 0
 401 014a C046     		nop
 402              	.L14:
 204:main.c        ****     }
 205:main.c        ****     
 206:main.c        **** }
 403              		.loc 1 206 0 discriminator 1
 404 014c C046     		nop
 405 014e BD46     		mov	sp, r7
 406 0150 08B0     		add	sp, sp, #32
 407              		@ sp needed
 408 0152 B0BD     		pop	{r4, r5, r7, pc}
 409              	.L20:
 410              		.align	2
 411              	.L19:
 412 0154 00000000 		.word	isNotify
 413 0158 00000000 		.word	cyBle_state
 414 015c 00000000 		.word	bleConnected
 415 0160 00000000 		.word	updateIsNotifyCCCDAttr
 416 0164 00000000 		.word	thermo
 417 0168 00000000 		.word	.LC8
 418 016c 00000000 		.word	uartStr
 419 0170 00000000 		.word	cyBle_connHandle
 420              		.cfi_endproc
 421              	.LFE37:
 422              		.size	bleStack, .-bleStack
 423              		.section	.text.send_Thermo_to_phone,"ax",%progbits
 424              		.align	2
 425              		.global	send_Thermo_to_phone
 426              		.code	16
 427              		.thumb_func
 428              		.type	send_Thermo_to_phone, %function
 429              	send_Thermo_to_phone:
 430              	.LFB38:
 207:main.c        **** 
 208:main.c        **** // function to read thermostat data on the phone
ARM GAS  C:\Users\sergio\AppData\Local\Temp\ccZ8BvM2.s 			page 13


 209:main.c        **** void send_Thermo_to_phone(){
 431              		.loc 1 209 0
 432              		.cfi_startproc
 433              		@ args = 0, pretend = 0, frame = 24
 434              		@ frame_needed = 1, uses_anonymous_args = 0
 435 0000 80B5     		push	{r7, lr}
 436              		.cfi_def_cfa_offset 8
 437              		.cfi_offset 7, -8
 438              		.cfi_offset 14, -4
 439 0002 86B0     		sub	sp, sp, #24
 440              		.cfi_def_cfa_offset 32
 441 0004 00AF     		add	r7, sp, #0
 442              		.cfi_def_cfa_register 7
 210:main.c        ****     CYBLE_GATT_HANDLE_VALUE_PAIR_T thermoRead;
 211:main.c        ****     
 212:main.c        ****     uint8 readThermo[7]; 
 213:main.c        ****     readThermo[0] = thermo.compressor;
 443              		.loc 1 213 0
 444 0006 194B     		ldr	r3, .L22
 445 0008 1A78     		ldrb	r2, [r3]
 446 000a 3B1D     		adds	r3, r7, #4
 447 000c 1A70     		strb	r2, [r3]
 214:main.c        ****     readThermo[1] = thermo.fanLow;
 448              		.loc 1 214 0
 449 000e 174B     		ldr	r3, .L22
 450 0010 5A78     		ldrb	r2, [r3, #1]
 451 0012 3B1D     		adds	r3, r7, #4
 452 0014 5A70     		strb	r2, [r3, #1]
 215:main.c        ****     readThermo[2] = thermo.fanHigh;
 453              		.loc 1 215 0
 454 0016 154B     		ldr	r3, .L22
 455 0018 9A78     		ldrb	r2, [r3, #2]
 456 001a 3B1D     		adds	r3, r7, #4
 457 001c 9A70     		strb	r2, [r3, #2]
 216:main.c        ****     readThermo[3] = thermo.setTemperature;
 458              		.loc 1 216 0
 459 001e 134B     		ldr	r3, .L22
 460 0020 DA78     		ldrb	r2, [r3, #3]
 461 0022 3B1D     		adds	r3, r7, #4
 462 0024 DA70     		strb	r2, [r3, #3]
 217:main.c        ****     readThermo[4] = thermo.ambientTemp;
 463              		.loc 1 217 0
 464 0026 114B     		ldr	r3, .L22
 465 0028 1A79     		ldrb	r2, [r3, #4]
 466 002a 3B1D     		adds	r3, r7, #4
 467 002c 1A71     		strb	r2, [r3, #4]
 218:main.c        ****     readThermo[5] = thermo.power;
 468              		.loc 1 218 0
 469 002e 0F4B     		ldr	r3, .L22
 470 0030 5A79     		ldrb	r2, [r3, #5]
 471 0032 3B1D     		adds	r3, r7, #4
 472 0034 5A71     		strb	r2, [r3, #5]
 219:main.c        ****     readThermo[6] = thermo.test;
 473              		.loc 1 219 0
 474 0036 0D4B     		ldr	r3, .L22
 475 0038 9A79     		ldrb	r2, [r3, #6]
 476 003a 3B1D     		adds	r3, r7, #4
ARM GAS  C:\Users\sergio\AppData\Local\Temp\ccZ8BvM2.s 			page 14


 477 003c 9A71     		strb	r2, [r3, #6]
 220:main.c        ****    
 221:main.c        ****     
 222:main.c        ****      thermoRead.attrHandle = CYBLE_RVAC_THERMOSTAT_CHAR_HANDLE;
 478              		.loc 1 222 0
 479 003e 0C23     		movs	r3, #12
 480 0040 FB18     		adds	r3, r7, r3
 481 0042 1622     		movs	r2, #22
 482 0044 1A81     		strh	r2, [r3, #8]
 223:main.c        ****         thermoRead.value.val = (uint8 *) &readThermo;
 483              		.loc 1 223 0
 484 0046 0C23     		movs	r3, #12
 485 0048 FB18     		adds	r3, r7, r3
 486 004a 3A1D     		adds	r2, r7, #4
 487 004c 1A60     		str	r2, [r3]
 224:main.c        ****         thermoRead.value.len = 7;
 488              		.loc 1 224 0
 489 004e 0C23     		movs	r3, #12
 490 0050 FB18     		adds	r3, r7, r3
 491 0052 0722     		movs	r2, #7
 492 0054 9A80     		strh	r2, [r3, #4]
 225:main.c        ****     
 226:main.c        ****    CyBle_GattsWriteAttributeValue(&thermoRead, 0, &cyBle_connHandle, CYBLE_GATT_DB_PEER_INITIATED);
 493              		.loc 1 226 0
 494 0056 064A     		ldr	r2, .L22+4
 495 0058 0C23     		movs	r3, #12
 496 005a F818     		adds	r0, r7, r3
 497 005c 4023     		movs	r3, #64
 498 005e 0021     		movs	r1, #0
 499 0060 FFF7FEFF 		bl	CyBle_GattsWriteAttributeValue
 227:main.c        **** }
 500              		.loc 1 227 0
 501 0064 C046     		nop
 502 0066 BD46     		mov	sp, r7
 503 0068 06B0     		add	sp, sp, #24
 504              		@ sp needed
 505 006a 80BD     		pop	{r7, pc}
 506              	.L23:
 507              		.align	2
 508              	.L22:
 509 006c 00000000 		.word	thermo
 510 0070 00000000 		.word	cyBle_connHandle
 511              		.cfi_endproc
 512              	.LFE38:
 513              		.size	send_Thermo_to_phone, .-send_Thermo_to_phone
 514              		.section	.text.SendDataNotify,"ax",%progbits
 515              		.align	2
 516              		.global	SendDataNotify
 517              		.code	16
 518              		.thumb_func
 519              		.type	SendDataNotify, %function
 520              	SendDataNotify:
 521              	.LFB39:
 228:main.c        **** 
 229:main.c        **** void SendDataNotify( ){
 522              		.loc 1 229 0
 523              		.cfi_startproc
ARM GAS  C:\Users\sergio\AppData\Local\Temp\ccZ8BvM2.s 			page 15


 524              		@ args = 0, pretend = 0, frame = 24
 525              		@ frame_needed = 1, uses_anonymous_args = 0
 526 0000 80B5     		push	{r7, lr}
 527              		.cfi_def_cfa_offset 8
 528              		.cfi_offset 7, -8
 529              		.cfi_offset 14, -4
 530 0002 86B0     		sub	sp, sp, #24
 531              		.cfi_def_cfa_offset 32
 532 0004 00AF     		add	r7, sp, #0
 533              		.cfi_def_cfa_register 7
 230:main.c        ****     CYBLE_GATTS_HANDLE_VALUE_NTF_T notiHandle;
 231:main.c        ****     
 232:main.c        ****       uint8 dataForBLE[] = {sensorData.localTemp, sensorData.remoteTemp1, sensorData.remoteTemp2, s
 534              		.loc 1 232 0
 535 0006 224B     		ldr	r3, .L25
 536 0008 1A78     		ldrb	r2, [r3]
 537 000a 3B00     		movs	r3, r7
 538 000c 1A70     		strb	r2, [r3]
 539 000e 204B     		ldr	r3, .L25
 540 0010 9A78     		ldrb	r2, [r3, #2]
 541 0012 3B00     		movs	r3, r7
 542 0014 5A70     		strb	r2, [r3, #1]
 543 0016 1E4B     		ldr	r3, .L25
 544 0018 DA78     		ldrb	r2, [r3, #3]
 545 001a 3B00     		movs	r3, r7
 546 001c 9A70     		strb	r2, [r3, #2]
 547 001e 1C4B     		ldr	r3, .L25
 548 0020 1A79     		ldrb	r2, [r3, #4]
 549 0022 3B00     		movs	r3, r7
 550 0024 DA70     		strb	r2, [r3, #3]
 551 0026 1A4B     		ldr	r3, .L25
 552 0028 5A79     		ldrb	r2, [r3, #5]
 553 002a 3B00     		movs	r3, r7
 554 002c 1A71     		strb	r2, [r3, #4]
 555 002e 184B     		ldr	r3, .L25
 556 0030 9A7F     		ldrb	r2, [r3, #30]
 557 0032 3B00     		movs	r3, r7
 558 0034 5A71     		strb	r2, [r3, #5]
 559 0036 164B     		ldr	r3, .L25
 560 0038 DA7F     		ldrb	r2, [r3, #31]
 561 003a 3B00     		movs	r3, r7
 562 003c 9A71     		strb	r2, [r3, #6]
 563 003e 144B     		ldr	r3, .L25
 564 0040 2022     		movs	r2, #32
 565 0042 9A5C     		ldrb	r2, [r3, r2]
 566 0044 3B00     		movs	r3, r7
 567 0046 DA71     		strb	r2, [r3, #7]
 568 0048 114B     		ldr	r3, .L25
 569 004a 5A78     		ldrb	r2, [r3, #1]
 570 004c 3B00     		movs	r3, r7
 571 004e 1A72     		strb	r2, [r3, #8]
 233:main.c        ****     /*{sensorData.localTemp/10,sensorData.localTemp%10,sensorData.remoteTemp1/10, sensorData.remote
 234:main.c        ****         sensorData.remoteTemp3/10, sensorData.remoteTemp3%10, sensorData.humidity/10, sensorData.hu
 235:main.c        ****         sensorData.voltFan%10, sensorData.volt/10, sensorData.volt%10, sensorData.currentCompressor
 236:main.c        ****         sensorData.current%10, sensorData.lineFreqComp/10, sensorData.lineFreqComp%10, sensorData.l
 237:main.c        ****         sensorData.accX/10, sensorData.accX%10, sensorData.accY/10, sensorData.accY%10, sensorData.
 238:main.c        ****     
ARM GAS  C:\Users\sergio\AppData\Local\Temp\ccZ8BvM2.s 			page 16


 239:main.c        **** 
 240:main.c        ****      notiHandle.attrHandle = CYBLE_RVAC_SENSORS_CHAR_HANDLE;
 572              		.loc 1 240 0
 573 0050 0C23     		movs	r3, #12
 574 0052 FB18     		adds	r3, r7, r3
 575 0054 1222     		movs	r2, #18
 576 0056 1A81     		strh	r2, [r3, #8]
 241:main.c        ****      notiHandle.value.val = (uint8 *) &dataForBLE;     //(uint8 *) dataForBLE; // collectedData; //
 577              		.loc 1 241 0
 578 0058 0C23     		movs	r3, #12
 579 005a FB18     		adds	r3, r7, r3
 580 005c 3A00     		movs	r2, r7
 581 005e 1A60     		str	r2, [r3]
 242:main.c        ****      notiHandle.value.len = 9; //36;
 582              		.loc 1 242 0
 583 0060 0C23     		movs	r3, #12
 584 0062 FB18     		adds	r3, r7, r3
 585 0064 0922     		movs	r2, #9
 586 0066 9A80     		strh	r2, [r3, #4]
 243:main.c        ****         
 244:main.c        ****         CyBle_GattsNotification(cyBle_connHandle, &notiHandle);
 587              		.loc 1 244 0
 588 0068 0C23     		movs	r3, #12
 589 006a F918     		adds	r1, r7, r3
 590 006c 094B     		ldr	r3, .L25+4
 591 006e 1A78     		ldrb	r2, [r3]
 592 0070 5B78     		ldrb	r3, [r3, #1]
 593 0072 1B02     		lsls	r3, r3, #8
 594 0074 1A43     		orrs	r2, r3
 595 0076 0023     		movs	r3, #0
 596 0078 1204     		lsls	r2, r2, #16
 597 007a 120C     		lsrs	r2, r2, #16
 598 007c 1B0C     		lsrs	r3, r3, #16
 599 007e 1B04     		lsls	r3, r3, #16
 600 0080 1343     		orrs	r3, r2
 601 0082 1800     		movs	r0, r3
 602 0084 FFF7FEFF 		bl	CyBle_GattsNotification
 245:main.c        **** 
 246:main.c        **** }
 603              		.loc 1 246 0
 604 0088 C046     		nop
 605 008a BD46     		mov	sp, r7
 606 008c 06B0     		add	sp, sp, #24
 607              		@ sp needed
 608 008e 80BD     		pop	{r7, pc}
 609              	.L26:
 610              		.align	2
 611              	.L25:
 612 0090 00000000 		.word	sensorData
 613 0094 00000000 		.word	cyBle_connHandle
 614              		.cfi_endproc
 615              	.LFE39:
 616              		.size	SendDataNotify, .-SendDataNotify
 617              		.section	.text.updateNotificationCCCD,"ax",%progbits
 618              		.align	2
 619              		.global	updateNotificationCCCD
 620              		.code	16
ARM GAS  C:\Users\sergio\AppData\Local\Temp\ccZ8BvM2.s 			page 17


 621              		.thumb_func
 622              		.type	updateNotificationCCCD, %function
 623              	updateNotificationCCCD:
 624              	.LFB40:
 247:main.c        **** 
 248:main.c        **** void updateNotificationCCCD(void){
 625              		.loc 1 248 0
 626              		.cfi_startproc
 627              		@ args = 0, pretend = 0, frame = 16
 628              		@ frame_needed = 1, uses_anonymous_args = 0
 629 0000 80B5     		push	{r7, lr}
 630              		.cfi_def_cfa_offset 8
 631              		.cfi_offset 7, -8
 632              		.cfi_offset 14, -4
 633 0002 84B0     		sub	sp, sp, #16
 634              		.cfi_def_cfa_offset 24
 635 0004 00AF     		add	r7, sp, #0
 636              		.cfi_def_cfa_register 7
 249:main.c        ****     CYBLE_GATT_HANDLE_VALUE_PAIR_T sensorNotCCCDHandle;
 250:main.c        ****     
 251:main.c        ****     uint8 sensorCCCDVal[2];
 252:main.c        ****     
 253:main.c        ****     if(updateIsNotifyCCCDAttr == 1){
 637              		.loc 1 253 0
 638 0006 114B     		ldr	r3, .L30
 639 0008 1B78     		ldrb	r3, [r3]
 640 000a 012B     		cmp	r3, #1
 641 000c 1AD1     		bne	.L29
 254:main.c        ****         
 255:main.c        ****      updateIsNotifyCCCDAttr = 0;
 642              		.loc 1 255 0
 643 000e 0F4B     		ldr	r3, .L30
 644 0010 0022     		movs	r2, #0
 645 0012 1A70     		strb	r2, [r3]
 256:main.c        ****         sensorCCCDVal[0] = isNotify;
 646              		.loc 1 256 0
 647 0014 0E4B     		ldr	r3, .L30+4
 648 0016 1A78     		ldrb	r2, [r3]
 649 0018 3B00     		movs	r3, r7
 650 001a 1A70     		strb	r2, [r3]
 257:main.c        ****         sensorCCCDVal[1] = 0x00;
 651              		.loc 1 257 0
 652 001c 3B00     		movs	r3, r7
 653 001e 0022     		movs	r2, #0
 654 0020 5A70     		strb	r2, [r3, #1]
 258:main.c        ****         
 259:main.c        ****         sensorNotCCCDHandle.attrHandle = CYBLE_RVAC_SENSORS_SENSORCCCD_DESC_HANDLE;
 655              		.loc 1 259 0
 656 0022 3B1D     		adds	r3, r7, #4
 657 0024 1422     		movs	r2, #20
 658 0026 1A81     		strh	r2, [r3, #8]
 260:main.c        ****         sensorNotCCCDHandle.value.val = sensorCCCDVal;
 659              		.loc 1 260 0
 660 0028 3B1D     		adds	r3, r7, #4
 661 002a 3A00     		movs	r2, r7
 662 002c 1A60     		str	r2, [r3]
 261:main.c        ****         sensorNotCCCDHandle.value.len = 2;
ARM GAS  C:\Users\sergio\AppData\Local\Temp\ccZ8BvM2.s 			page 18


 663              		.loc 1 261 0
 664 002e 3B1D     		adds	r3, r7, #4
 665 0030 0222     		movs	r2, #2
 666 0032 9A80     		strh	r2, [r3, #4]
 262:main.c        ****         
 263:main.c        ****         CyBle_GattsWriteAttributeValue(&sensorNotCCCDHandle, 0, &cyBle_connHandle, CYBLE_GATT_DB_PE
 667              		.loc 1 263 0
 668 0034 074A     		ldr	r2, .L30+8
 669 0036 381D     		adds	r0, r7, #4
 670 0038 4023     		movs	r3, #64
 671 003a 0021     		movs	r1, #0
 672 003c FFF7FEFF 		bl	CyBle_GattsWriteAttributeValue
 264:main.c        ****         CyBle_ProcessEvents();
 673              		.loc 1 264 0
 674 0040 FFF7FEFF 		bl	CyBle_ProcessEvents
 675              	.L29:
 265:main.c        ****     }
 266:main.c        **** }
 676              		.loc 1 266 0
 677 0044 C046     		nop
 678 0046 BD46     		mov	sp, r7
 679 0048 04B0     		add	sp, sp, #16
 680              		@ sp needed
 681 004a 80BD     		pop	{r7, pc}
 682              	.L31:
 683              		.align	2
 684              	.L30:
 685 004c 00000000 		.word	updateIsNotifyCCCDAttr
 686 0050 00000000 		.word	isNotify
 687 0054 00000000 		.word	cyBle_connHandle
 688              		.cfi_endproc
 689              	.LFE40:
 690              		.size	updateNotificationCCCD, .-updateNotificationCCCD
 691              		.section	.text.initialized_input_gpioExp,"ax",%progbits
 692              		.align	2
 693              		.global	initialized_input_gpioExp
 694              		.code	16
 695              		.thumb_func
 696              		.type	initialized_input_gpioExp, %function
 697              	initialized_input_gpioExp:
 698              	.LFB41:
 267:main.c        **** 
 268:main.c        **** 
 269:main.c        **** void initialized_input_gpioExp(){
 699              		.loc 1 269 0
 700              		.cfi_startproc
 701              		@ args = 0, pretend = 0, frame = 0
 702              		@ frame_needed = 1, uses_anonymous_args = 0
 703 0000 80B5     		push	{r7, lr}
 704              		.cfi_def_cfa_offset 8
 705              		.cfi_offset 7, -8
 706              		.cfi_offset 14, -4
 707 0002 00AF     		add	r7, sp, #0
 708              		.cfi_def_cfa_register 7
 270:main.c        ****    I2C_1_I2CMasterSendStart(ADDR,I2C_1_I2C_WRITE_XFER_MODE, 100u);
 709              		.loc 1 270 0
 710 0004 6422     		movs	r2, #100
ARM GAS  C:\Users\sergio\AppData\Local\Temp\ccZ8BvM2.s 			page 19


 711 0006 0021     		movs	r1, #0
 712 0008 7020     		movs	r0, #112
 713 000a FFF7FEFF 		bl	I2C_1_I2CMasterSendStart
 271:main.c        ****    I2C_1_I2CMasterWriteByte(REG_CONFIG, 100u);
 714              		.loc 1 271 0
 715 000e 6421     		movs	r1, #100
 716 0010 0320     		movs	r0, #3
 717 0012 FFF7FEFF 		bl	I2C_1_I2CMasterWriteByte
 272:main.c        ****    I2C_1_I2CMasterWriteByte(0xFF, 100u);
 718              		.loc 1 272 0
 719 0016 6421     		movs	r1, #100
 720 0018 FF20     		movs	r0, #255
 721 001a FFF7FEFF 		bl	I2C_1_I2CMasterWriteByte
 273:main.c        ****    I2C_1_I2CMasterSendStop(100u);
 722              		.loc 1 273 0
 723 001e 6420     		movs	r0, #100
 724 0020 FFF7FEFF 		bl	I2C_1_I2CMasterSendStop
 274:main.c        **** }
 725              		.loc 1 274 0
 726 0024 C046     		nop
 727 0026 BD46     		mov	sp, r7
 728              		@ sp needed
 729 0028 80BD     		pop	{r7, pc}
 730              		.cfi_endproc
 731              	.LFE41:
 732              		.size	initialized_input_gpioExp, .-initialized_input_gpioExp
 733 002a C046     		.section	.text.read_thermostat_pins,"ax",%progbits
 734              		.align	2
 735              		.global	read_thermostat_pins
 736              		.code	16
 737              		.thumb_func
 738              		.type	read_thermostat_pins, %function
 739              	read_thermostat_pins:
 740              	.LFB42:
 275:main.c        **** 
 276:main.c        **** uint8 read_thermostat_pins(){
 741              		.loc 1 276 0
 742              		.cfi_startproc
 743              		@ args = 0, pretend = 0, frame = 8
 744              		@ frame_needed = 1, uses_anonymous_args = 0
 745 0000 80B5     		push	{r7, lr}
 746              		.cfi_def_cfa_offset 8
 747              		.cfi_offset 7, -8
 748              		.cfi_offset 14, -4
 749 0002 82B0     		sub	sp, sp, #8
 750              		.cfi_def_cfa_offset 16
 751 0004 00AF     		add	r7, sp, #0
 752              		.cfi_def_cfa_register 7
 277:main.c        ****    
 278:main.c        ****     uint8 pins = 0u;
 753              		.loc 1 278 0
 754 0006 FB1D     		adds	r3, r7, #7
 755 0008 0022     		movs	r2, #0
 756 000a 1A70     		strb	r2, [r3]
 279:main.c        **** 
 280:main.c        ****    I2C_1_I2CMasterSendStart(ADDR, I2C_1_I2C_WRITE_XFER_MODE, 100u);
 757              		.loc 1 280 0
ARM GAS  C:\Users\sergio\AppData\Local\Temp\ccZ8BvM2.s 			page 20


 758 000c 6422     		movs	r2, #100
 759 000e 0021     		movs	r1, #0
 760 0010 7020     		movs	r0, #112
 761 0012 FFF7FEFF 		bl	I2C_1_I2CMasterSendStart
 281:main.c        ****    I2C_1_I2CMasterWriteByte(REG_READ, 100u);
 762              		.loc 1 281 0
 763 0016 6421     		movs	r1, #100
 764 0018 0020     		movs	r0, #0
 765 001a FFF7FEFF 		bl	I2C_1_I2CMasterWriteByte
 282:main.c        ****    I2C_1_I2CMasterSendRestart(ADDR,I2C_1_I2C_READ_XFER_MODE, 100u);
 766              		.loc 1 282 0
 767 001e 6422     		movs	r2, #100
 768 0020 0121     		movs	r1, #1
 769 0022 7020     		movs	r0, #112
 770 0024 FFF7FEFF 		bl	I2C_1_I2CMasterSendRestart
 283:main.c        ****    I2C_1_I2CMasterReadByte(I2C_1_I2C_NAK_DATA,(uint8 *) &pins,100u);
 771              		.loc 1 283 0
 772 0028 FB1D     		adds	r3, r7, #7
 773 002a 6422     		movs	r2, #100
 774 002c 1900     		movs	r1, r3
 775 002e 0120     		movs	r0, #1
 776 0030 FFF7FEFF 		bl	I2C_1_I2CMasterReadByte
 284:main.c        ****    I2C_1_I2CMasterSendStop(100u);
 777              		.loc 1 284 0
 778 0034 6420     		movs	r0, #100
 779 0036 FFF7FEFF 		bl	I2C_1_I2CMasterSendStop
 285:main.c        ****     
 286:main.c        ****     return pins;
 780              		.loc 1 286 0
 781 003a FB1D     		adds	r3, r7, #7
 782 003c 1B78     		ldrb	r3, [r3]
 287:main.c        **** }
 783              		.loc 1 287 0
 784 003e 1800     		movs	r0, r3
 785 0040 BD46     		mov	sp, r7
 786 0042 02B0     		add	sp, sp, #8
 787              		@ sp needed
 788 0044 80BD     		pop	{r7, pc}
 789              		.cfi_endproc
 790              	.LFE42:
 791              		.size	read_thermostat_pins, .-read_thermostat_pins
 792 0046 C046     		.section	.text.configure_temperature_sensor2,"ax",%progbits
 793              		.align	2
 794              		.global	configure_temperature_sensor2
 795              		.code	16
 796              		.thumb_func
 797              		.type	configure_temperature_sensor2, %function
 798              	configure_temperature_sensor2:
 799              	.LFB43:
 288:main.c        **** 
 289:main.c        **** void configure_temperature_sensor2(){
 800              		.loc 1 289 0
 801              		.cfi_startproc
 802              		@ args = 0, pretend = 0, frame = 0
 803              		@ frame_needed = 1, uses_anonymous_args = 0
 804 0000 80B5     		push	{r7, lr}
 805              		.cfi_def_cfa_offset 8
ARM GAS  C:\Users\sergio\AppData\Local\Temp\ccZ8BvM2.s 			page 21


 806              		.cfi_offset 7, -8
 807              		.cfi_offset 14, -4
 808 0002 00AF     		add	r7, sp, #0
 809              		.cfi_def_cfa_register 7
 290:main.c        ****         // Config register 1
 291:main.c        ****    I2C_1_I2CMasterSendStart(0x4C, I2C_1_I2C_WRITE_XFER_MODE, 100u);
 810              		.loc 1 291 0
 811 0004 6422     		movs	r2, #100
 812 0006 0021     		movs	r1, #0
 813 0008 4C20     		movs	r0, #76
 814 000a FFF7FEFF 		bl	I2C_1_I2CMasterSendStart
 292:main.c        ****    I2C_1_I2CMasterWriteByte(0x09, 100u);
 815              		.loc 1 292 0
 816 000e 6421     		movs	r1, #100
 817 0010 0920     		movs	r0, #9
 818 0012 FFF7FEFF 		bl	I2C_1_I2CMasterWriteByte
 293:main.c        ****    I2C_1_I2CMasterWriteByte(0x84, 100u);
 819              		.loc 1 293 0
 820 0016 6421     		movs	r1, #100
 821 0018 8420     		movs	r0, #132
 822 001a FFF7FEFF 		bl	I2C_1_I2CMasterWriteByte
 294:main.c        ****    I2C_1_I2CMasterSendStop(100u);
 823              		.loc 1 294 0
 824 001e 6420     		movs	r0, #100
 825 0020 FFF7FEFF 		bl	I2C_1_I2CMasterSendStop
 295:main.c        ****    //Config register 2
 296:main.c        ****    I2C_1_I2CMasterSendStart(0x4C, I2C_1_I2C_WRITE_XFER_MODE, 100u);
 826              		.loc 1 296 0
 827 0024 6422     		movs	r2, #100
 828 0026 0021     		movs	r1, #0
 829 0028 4C20     		movs	r0, #76
 830 002a FFF7FEFF 		bl	I2C_1_I2CMasterSendStart
 297:main.c        ****    I2C_1_I2CMasterWriteByte(0x3F, 100u);
 831              		.loc 1 297 0
 832 002e 6421     		movs	r1, #100
 833 0030 3F20     		movs	r0, #63
 834 0032 FFF7FEFF 		bl	I2C_1_I2CMasterWriteByte
 298:main.c        ****    I2C_1_I2CMasterWriteByte(0x3C, 100u);
 835              		.loc 1 298 0
 836 0036 6421     		movs	r1, #100
 837 0038 3C20     		movs	r0, #60
 838 003a FFF7FEFF 		bl	I2C_1_I2CMasterWriteByte
 299:main.c        ****    I2C_1_I2CMasterSendStop(100u);   
 839              		.loc 1 299 0
 840 003e 6420     		movs	r0, #100
 841 0040 FFF7FEFF 		bl	I2C_1_I2CMasterSendStop
 300:main.c        **** }
 842              		.loc 1 300 0
 843 0044 C046     		nop
 844 0046 BD46     		mov	sp, r7
 845              		@ sp needed
 846 0048 80BD     		pop	{r7, pc}
 847              		.cfi_endproc
 848              	.LFE43:
 849              		.size	configure_temperature_sensor2, .-configure_temperature_sensor2
 850 004a C046     		.section	.text.configure_temperature_sensor1,"ax",%progbits
 851              		.align	2
ARM GAS  C:\Users\sergio\AppData\Local\Temp\ccZ8BvM2.s 			page 22


 852              		.global	configure_temperature_sensor1
 853              		.code	16
 854              		.thumb_func
 855              		.type	configure_temperature_sensor1, %function
 856              	configure_temperature_sensor1:
 857              	.LFB44:
 301:main.c        **** 
 302:main.c        **** void configure_temperature_sensor1(){
 858              		.loc 1 302 0
 859              		.cfi_startproc
 860              		@ args = 0, pretend = 0, frame = 0
 861              		@ frame_needed = 1, uses_anonymous_args = 0
 862 0000 80B5     		push	{r7, lr}
 863              		.cfi_def_cfa_offset 8
 864              		.cfi_offset 7, -8
 865              		.cfi_offset 14, -4
 866 0002 00AF     		add	r7, sp, #0
 867              		.cfi_def_cfa_register 7
 303:main.c        ****         // Config register 1
 304:main.c        ****    I2C_1_I2CMasterSendStart(0x4D, I2C_1_I2C_WRITE_XFER_MODE, 100u);
 868              		.loc 1 304 0
 869 0004 6422     		movs	r2, #100
 870 0006 0021     		movs	r1, #0
 871 0008 4D20     		movs	r0, #77
 872 000a FFF7FEFF 		bl	I2C_1_I2CMasterSendStart
 305:main.c        ****    I2C_1_I2CMasterWriteByte(0x09, 100u);
 873              		.loc 1 305 0
 874 000e 6421     		movs	r1, #100
 875 0010 0920     		movs	r0, #9
 876 0012 FFF7FEFF 		bl	I2C_1_I2CMasterWriteByte
 306:main.c        ****    I2C_1_I2CMasterWriteByte(0x84, 100u);
 877              		.loc 1 306 0
 878 0016 6421     		movs	r1, #100
 879 0018 8420     		movs	r0, #132
 880 001a FFF7FEFF 		bl	I2C_1_I2CMasterWriteByte
 307:main.c        ****    I2C_1_I2CMasterSendStop(100u);
 881              		.loc 1 307 0
 882 001e 6420     		movs	r0, #100
 883 0020 FFF7FEFF 		bl	I2C_1_I2CMasterSendStop
 308:main.c        ****    //Config register 2
 309:main.c        ****    I2C_1_I2CMasterSendStart(0x4D, I2C_1_I2C_WRITE_XFER_MODE, 100u);
 884              		.loc 1 309 0
 885 0024 6422     		movs	r2, #100
 886 0026 0021     		movs	r1, #0
 887 0028 4D20     		movs	r0, #77
 888 002a FFF7FEFF 		bl	I2C_1_I2CMasterSendStart
 310:main.c        ****    I2C_1_I2CMasterWriteByte(0x3F, 100u);
 889              		.loc 1 310 0
 890 002e 6421     		movs	r1, #100
 891 0030 3F20     		movs	r0, #63
 892 0032 FFF7FEFF 		bl	I2C_1_I2CMasterWriteByte
 311:main.c        ****    I2C_1_I2CMasterWriteByte(0x3C, 100u);
 893              		.loc 1 311 0
 894 0036 6421     		movs	r1, #100
 895 0038 3C20     		movs	r0, #60
 896 003a FFF7FEFF 		bl	I2C_1_I2CMasterWriteByte
 312:main.c        ****    I2C_1_I2CMasterSendStop(100u);   
ARM GAS  C:\Users\sergio\AppData\Local\Temp\ccZ8BvM2.s 			page 23


 897              		.loc 1 312 0
 898 003e 6420     		movs	r0, #100
 899 0040 FFF7FEFF 		bl	I2C_1_I2CMasterSendStop
 313:main.c        **** }
 900              		.loc 1 313 0
 901 0044 C046     		nop
 902 0046 BD46     		mov	sp, r7
 903              		@ sp needed
 904 0048 80BD     		pop	{r7, pc}
 905              		.cfi_endproc
 906              	.LFE44:
 907              		.size	configure_temperature_sensor1, .-configure_temperature_sensor1
 908 004a C046     		.section	.text.read_Air_Flow,"ax",%progbits
 909              		.align	2
 910              		.global	read_Air_Flow
 911              		.code	16
 912              		.thumb_func
 913              		.type	read_Air_Flow, %function
 914              	read_Air_Flow:
 915              	.LFB45:
 314:main.c        **** void read_Air_Flow(){
 916              		.loc 1 314 0
 917              		.cfi_startproc
 918              		@ args = 0, pretend = 0, frame = 8
 919              		@ frame_needed = 1, uses_anonymous_args = 0
 920 0000 80B5     		push	{r7, lr}
 921              		.cfi_def_cfa_offset 8
 922              		.cfi_offset 7, -8
 923              		.cfi_offset 14, -4
 924 0002 82B0     		sub	sp, sp, #8
 925              		.cfi_def_cfa_offset 16
 926 0004 00AF     		add	r7, sp, #0
 927              		.cfi_def_cfa_register 7
 315:main.c        ****     uint16 airFlow = 0;
 928              		.loc 1 315 0
 929 0006 BB1D     		adds	r3, r7, #6
 930 0008 0022     		movs	r2, #0
 931 000a 1A80     		strh	r2, [r3]
 932              	.LBB2:
 316:main.c        ****     for(int i =0; i < 500; i++){
 933              		.loc 1 316 0
 934 000c 0023     		movs	r3, #0
 935 000e 3B60     		str	r3, [r7]
 936 0010 0FE0     		b	.L38
 937              	.L39:
 317:main.c        ****         airFlow += (AF_Read() == 1)? 1 : 0;
 938              		.loc 1 317 0 discriminator 3
 939 0012 FFF7FEFF 		bl	AF_Read
 940 0016 0300     		movs	r3, r0
 941 0018 013B     		subs	r3, r3, #1
 942 001a 5A42     		rsbs	r2, r3, #0
 943 001c 5341     		adcs	r3, r3, r2
 944 001e DBB2     		uxtb	r3, r3
 945 0020 99B2     		uxth	r1, r3
 946 0022 BB1D     		adds	r3, r7, #6
 947 0024 BA1D     		adds	r2, r7, #6
 948 0026 1288     		ldrh	r2, [r2]
ARM GAS  C:\Users\sergio\AppData\Local\Temp\ccZ8BvM2.s 			page 24


 949 0028 8A18     		adds	r2, r1, r2
 950 002a 1A80     		strh	r2, [r3]
 316:main.c        ****     for(int i =0; i < 500; i++){
 951              		.loc 1 316 0 discriminator 3
 952 002c 3B68     		ldr	r3, [r7]
 953 002e 0133     		adds	r3, r3, #1
 954 0030 3B60     		str	r3, [r7]
 955              	.L38:
 316:main.c        ****     for(int i =0; i < 500; i++){
 956              		.loc 1 316 0 is_stmt 0 discriminator 1
 957 0032 3A68     		ldr	r2, [r7]
 958 0034 F423     		movs	r3, #244
 959 0036 FF33     		adds	r3, r3, #255
 960 0038 9A42     		cmp	r2, r3
 961 003a EADD     		ble	.L39
 962              	.LBE2:
 318:main.c        ****     }
 319:main.c        ****     sensorData.airFlow = airFlow;
 963              		.loc 1 319 0 is_stmt 1
 964 003c 034B     		ldr	r3, .L40
 965 003e BA1D     		adds	r2, r7, #6
 966 0040 1288     		ldrh	r2, [r2]
 967 0042 5A84     		strh	r2, [r3, #34]
 320:main.c        **** }
 968              		.loc 1 320 0
 969 0044 C046     		nop
 970 0046 BD46     		mov	sp, r7
 971 0048 02B0     		add	sp, sp, #8
 972              		@ sp needed
 973 004a 80BD     		pop	{r7, pc}
 974              	.L41:
 975              		.align	2
 976              	.L40:
 977 004c 00000000 		.word	sensorData
 978              		.cfi_endproc
 979              	.LFE45:
 980              		.size	read_Air_Flow, .-read_Air_Flow
 981              		.section	.text.my_interrupt,"ax",%progbits
 982              		.align	2
 983              		.global	my_interrupt
 984              		.code	16
 985              		.thumb_func
 986              		.type	my_interrupt, %function
 987              	my_interrupt:
 988              	.LFB46:
 321:main.c        **** 
 322:main.c        **** 
 323:main.c        **** void my_interrupt(){
 989              		.loc 1 323 0
 990              		.cfi_startproc
 991              		@ args = 0, pretend = 0, frame = 0
 992              		@ frame_needed = 1, uses_anonymous_args = 0
 993 0000 80B5     		push	{r7, lr}
 994              		.cfi_def_cfa_offset 8
 995              		.cfi_offset 7, -8
 996              		.cfi_offset 14, -4
 997 0002 00AF     		add	r7, sp, #0
ARM GAS  C:\Users\sergio\AppData\Local\Temp\ccZ8BvM2.s 			page 25


 998              		.cfi_def_cfa_register 7
 324:main.c        ****     
 325:main.c        ****     interruptFlag = 1;
 999              		.loc 1 325 0
 1000 0004 054B     		ldr	r3, .L43
 1001 0006 0122     		movs	r2, #1
 1002 0008 1A60     		str	r2, [r3]
 326:main.c        ****    
 327:main.c        ****      CySysWdtClearInterrupt(CY_SYS_WDT_COUNTER2_INT);
 1003              		.loc 1 327 0
 1004 000a 8023     		movs	r3, #128
 1005 000c DB02     		lsls	r3, r3, #11
 1006 000e 1800     		movs	r0, r3
 1007 0010 FFF7FEFF 		bl	CySysWdtClearInterrupt
 328:main.c        **** }
 1008              		.loc 1 328 0
 1009 0014 C046     		nop
 1010 0016 BD46     		mov	sp, r7
 1011              		@ sp needed
 1012 0018 80BD     		pop	{r7, pc}
 1013              	.L44:
 1014 001a C046     		.align	2
 1015              	.L43:
 1016 001c 00000000 		.word	interruptFlag
 1017              		.cfi_endproc
 1018              	.LFE46:
 1019              		.size	my_interrupt, .-my_interrupt
 1020              		.section	.rodata
 1021              		.align	2
 1022              	.LC26:
 1023 003c 72656164 		.ascii	"reading error\012\000"
 1023      696E6720 
 1023      6572726F 
 1023      720A00
 1024 004b 00       		.align	2
 1025              	.LC28:
 1026 004c 636F756E 		.ascii	"counter: %d            ID: %x\012\000"
 1026      7465723A 
 1026      20256420 
 1026      20202020 
 1026      20202020 
 1027 006b 00       		.align	2
 1028              	.LC33:
 1029 006c 53656E73 		.ascii	"Sensor 1 temperature is %d\012\000"
 1029      6F722031 
 1029      2074656D 
 1029      70657261 
 1029      74757265 
 1030              		.align	2
 1031              	.LC35:
 1032 0088 53656E73 		.ascii	"Sensor 1 Remote temperature 1 is %d \012\000"
 1032      6F722031 
 1032      2052656D 
 1032      6F746520 
 1032      74656D70 
 1033 00ae 0000     		.align	2
 1034              	.LC37:
ARM GAS  C:\Users\sergio\AppData\Local\Temp\ccZ8BvM2.s 			page 26


 1035 00b0 53656E73 		.ascii	"Sensor 1 Remote temperature 2 is %d \012\000"
 1035      6F722031 
 1035      2052656D 
 1035      6F746520 
 1035      74656D70 
 1036 00d6 0000     		.align	2
 1037              	.LC41:
 1038 00d8 0A0A5365 		.ascii	"\012\012Sensor 2 temperature is %d\012\000"
 1038      6E736F72 
 1038      20322074 
 1038      656D7065 
 1038      72617475 
 1039 00f6 0000     		.align	2
 1040              	.LC43:
 1041 00f8 53656E73 		.ascii	"Sensor 2 Remote temperature 1 is %d \012\000"
 1041      6F722032 
 1041      2052656D 
 1041      6F746520 
 1041      74656D70 
 1042 011e 0000     		.align	2
 1043              	.LC45:
 1044 0120 53656E73 		.ascii	"Sensor 2 Remote temperature 2 is %d \012\012\012\012"
 1044      6F722032 
 1044      2052656D 
 1044      6F746520 
 1044      74656D70 
 1045 0148 00       		.ascii	"\000"
 1046 0149 000000   		.align	2
 1047              	.LC47:
 1048 014c 0A583A20 		.ascii	"\012X: %d %d    12 bit x: %d\012\000"
 1048      25642025 
 1048      64202020 
 1048      20313220 
 1048      62697420 
 1049 0167 00       		.align	2
 1050              	.LC49:
 1051 0168 793A2025 		.ascii	"y: %d %d      12 bit y: %d\012\000"
 1051      64202564 
 1051      20202020 
 1051      20203132 
 1051      20626974 
 1052              		.align	2
 1053              	.LC51:
 1054 0184 5A3A2025 		.ascii	"Z: %d %d      12 bit z: %d\012\012\012\000"
 1054      64202564 
 1054      20202020 
 1054      20203132 
 1054      20626974 
 1055 01a2 0000     		.align	2
 1056              	.LC53:
 1057 01a4 0A546865 		.ascii	"\012The humidity is %d\012\000"
 1057      2068756D 
 1057      69646974 
 1057      79206973 
 1057      2025640A 
 1058 01b9 000000   		.align	2
 1059              	.LC56:
ARM GAS  C:\Users\sergio\AppData\Local\Temp\ccZ8BvM2.s 			page 27


 1060 01bc 0A546865 		.ascii	"\012Thermostast pins are 0x%x\012\000"
 1060      726D6F73 
 1060      74617374 
 1060      2070696E 
 1060      73206172 
 1061              		.section	.text.main,"ax",%progbits
 1062              		.align	2
 1063              		.global	main
 1064              		.code	16
 1065              		.thumb_func
 1066              		.type	main, %function
 1067              	main:
 1068              	.LFB47:
 329:main.c        **** 
 330:main.c        **** int main (void)
 331:main.c        **** {
 1069              		.loc 1 331 0
 1070              		.cfi_startproc
 1071              		@ args = 0, pretend = 0, frame = 96
 1072              		@ frame_needed = 1, uses_anonymous_args = 0
 1073 0000 B0B5     		push	{r4, r5, r7, lr}
 1074              		.cfi_def_cfa_offset 16
 1075              		.cfi_offset 4, -16
 1076              		.cfi_offset 5, -12
 1077              		.cfi_offset 7, -8
 1078              		.cfi_offset 14, -4
 1079 0002 9AB0     		sub	sp, sp, #104
 1080              		.cfi_def_cfa_offset 120
 1081 0004 02AF     		add	r7, sp, #8
 1082              		.cfi_def_cfa 7, 112
 332:main.c        ****     /* Place your initialization/startup code here (e.g. MyInst_Start()) */
 333:main.c        **** 
 334:main.c        ****      CyGlobalIntEnable;  /* Uncomment this line to enable global interrupts. */
 1083              		.loc 1 334 0
 1084              		.syntax divided
 1085              	@ 334 "main.c" 1
 1086 0006 62B6     		CPSIE   i
 1087              	@ 0 "" 2
 335:main.c        ****             
 336:main.c        ****     CEPIN_Write(1);
 1088              		.loc 1 336 0
 1089              		.thumb
 1090              		.syntax unified
 1091 0008 0120     		movs	r0, #1
 1092 000a FFF7FEFF 		bl	CEPIN_Write
 337:main.c        ****     
 338:main.c        ****     
 339:main.c        ****     RED_Write(0);
 1093              		.loc 1 339 0
 1094 000e 0020     		movs	r0, #0
 1095 0010 FFF7FEFF 		bl	RED_Write
 340:main.c        ****     GREEN_Write(0);
 1096              		.loc 1 340 0
 1097 0014 0020     		movs	r0, #0
 1098 0016 FFF7FEFF 		bl	GREEN_Write
 341:main.c        ****     BLUE_Write(0);
 1099              		.loc 1 341 0
ARM GAS  C:\Users\sergio\AppData\Local\Temp\ccZ8BvM2.s 			page 28


 1100 001a 0020     		movs	r0, #0
 1101 001c FFF7FEFF 		bl	BLUE_Write
 342:main.c        ****     CyDelay(500);
 1102              		.loc 1 342 0
 1103 0020 FA23     		movs	r3, #250
 1104 0022 5B00     		lsls	r3, r3, #1
 1105 0024 1800     		movs	r0, r3
 1106 0026 FFF7FEFF 		bl	CyDelay
 343:main.c        ****     RED_Write(1);
 1107              		.loc 1 343 0
 1108 002a 0120     		movs	r0, #1
 1109 002c FFF7FEFF 		bl	RED_Write
 344:main.c        ****     GREEN_Write(1);
 1110              		.loc 1 344 0
 1111 0030 0120     		movs	r0, #1
 1112 0032 FFF7FEFF 		bl	GREEN_Write
 345:main.c        ****     BLUE_Write(1);
 1113              		.loc 1 345 0
 1114 0036 0120     		movs	r0, #1
 1115 0038 FFF7FEFF 		bl	BLUE_Write
 346:main.c        ****     
 347:main.c        ****     I2C_1_Start();
 1116              		.loc 1 347 0
 1117 003c FFF7FEFF 		bl	I2C_1_Start
 348:main.c        ****     
 349:main.c        ****      MyUART_Start();
 1118              		.loc 1 349 0
 1119 0040 FFF7FEFF 		bl	MyUART_Start
 350:main.c        ****     
 351:main.c        ****     MyADC_Start();
 1120              		.loc 1 351 0
 1121 0044 FFF7FEFF 		bl	MyADC_Start
 352:main.c        ****     
 353:main.c        ****      // call after I2C have been initiated
 354:main.c        ****     configure_temperature_sensor2();
 1122              		.loc 1 354 0
 1123 0048 FFF7FEFF 		bl	configure_temperature_sensor2
 355:main.c        ****     configure_temperature_sensor1();
 1124              		.loc 1 355 0
 1125 004c FFF7FEFF 		bl	configure_temperature_sensor1
 356:main.c        ****     initialized_input_gpioExp();
 1126              		.loc 1 356 0
 1127 0050 FFF7FEFF 		bl	initialized_input_gpioExp
 357:main.c        ****     
 358:main.c        ****     CyBle_Start(bleStack);
 1128              		.loc 1 358 0
 1129 0054 FA4B     		ldr	r3, .L71
 1130 0056 1800     		movs	r0, r3
 1131 0058 FFF7FEFF 		bl	CyBle_Start
 359:main.c        ****     // 1sec interrupt
 360:main.c        ****     CySysWdtEnable(CY_SYS_WDT_COUNTER2);
 1132              		.loc 1 360 0
 1133 005c 0220     		movs	r0, #2
 1134 005e FFF7FEFF 		bl	CySysWdtEnable
 361:main.c        ****     int_1_StartEx(my_interrupt);
 1135              		.loc 1 361 0
 1136 0062 F84B     		ldr	r3, .L71+4
ARM GAS  C:\Users\sergio\AppData\Local\Temp\ccZ8BvM2.s 			page 29


 1137 0064 1800     		movs	r0, r3
 1138 0066 FFF7FEFF 		bl	int_1_StartEx
 362:main.c        **** 
 363:main.c        ****     
 364:main.c        **** uint8 temp1 = 0;
 1139              		.loc 1 364 0
 1140 006a 4F23     		movs	r3, #79
 1141 006c FB18     		adds	r3, r7, r3
 1142 006e 0022     		movs	r2, #0
 1143 0070 1A70     		strb	r2, [r3]
 365:main.c        **** uint8 tempR1 = 0;
 1144              		.loc 1 365 0
 1145 0072 4E23     		movs	r3, #78
 1146 0074 FB18     		adds	r3, r7, r3
 1147 0076 0022     		movs	r2, #0
 1148 0078 1A70     		strb	r2, [r3]
 366:main.c        **** uint8 tempR2 = 0;
 1149              		.loc 1 366 0
 1150 007a 4D23     		movs	r3, #77
 1151 007c FB18     		adds	r3, r7, r3
 1152 007e 0022     		movs	r2, #0
 1153 0080 1A70     		strb	r2, [r3]
 367:main.c        **** uint8_t temp2 = 0;
 1154              		.loc 1 367 0
 1155 0082 4123     		movs	r3, #65
 1156 0084 FB18     		adds	r3, r7, r3
 1157 0086 0022     		movs	r2, #0
 1158 0088 1A70     		strb	r2, [r3]
 368:main.c        **** uint8_t tempR12 = 0;    
 1159              		.loc 1 368 0
 1160 008a 4C23     		movs	r3, #76
 1161 008c FB18     		adds	r3, r7, r3
 1162 008e 0022     		movs	r2, #0
 1163 0090 1A70     		strb	r2, [r3]
 369:main.c        **** uint8_t tempR22 = 0;
 1164              		.loc 1 369 0
 1165 0092 4B23     		movs	r3, #75
 1166 0094 FB18     		adds	r3, r7, r3
 1167 0096 0022     		movs	r2, #0
 1168 0098 1A70     		strb	r2, [r3]
 370:main.c        ****    // volatile thermostatData thermo;
 371:main.c        ****    // volatile dataCollected sensorData;
 372:main.c        ****     thermo.setTemperature = 0;
 1169              		.loc 1 372 0
 1170 009a EB4B     		ldr	r3, .L71+8
 1171 009c 0022     		movs	r2, #0
 1172 009e DA70     		strb	r2, [r3, #3]
 373:main.c        ****     thermo.ambientTemp = 0;
 1173              		.loc 1 373 0
 1174 00a0 E94B     		ldr	r3, .L71+8
 1175 00a2 0022     		movs	r2, #0
 1176 00a4 1A71     		strb	r2, [r3, #4]
 374:main.c        ****  int comp = 0u;
 1177              		.loc 1 374 0
 1178 00a6 0023     		movs	r3, #0
 1179 00a8 FB65     		str	r3, [r7, #92]
 375:main.c        ****  int fanL = 0u;
ARM GAS  C:\Users\sergio\AppData\Local\Temp\ccZ8BvM2.s 			page 30


 1180              		.loc 1 375 0
 1181 00aa 0023     		movs	r3, #0
 1182 00ac BB65     		str	r3, [r7, #88]
 376:main.c        ****  int fanH = 0u;
 1183              		.loc 1 376 0
 1184 00ae 0023     		movs	r3, #0
 1185 00b0 7B65     		str	r3, [r7, #84]
 377:main.c        ****     
 378:main.c        ****     int counter =0;
 1186              		.loc 1 378 0
 1187 00b2 0023     		movs	r3, #0
 1188 00b4 3B65     		str	r3, [r7, #80]
 1189              	.L70:
 379:main.c        ****     
 380:main.c        ****     for(;;){
 381:main.c        **** 
 382:main.c        **** if(interruptFlag == 1){
 1190              		.loc 1 382 0
 1191 00b6 E54B     		ldr	r3, .L71+12
 1192 00b8 1B68     		ldr	r3, [r3]
 1193 00ba 012B     		cmp	r3, #1
 1194 00bc 00D0     		beq	.LCB874
 1195 00be 49E2     		b	.L46	@long jump
 1196              	.LCB874:
 1197              	.LBB3:
 383:main.c        ****     
 384:main.c        **** //    MyADC_StartConvert();
 385:main.c        **** //    adcRead =  MyADC_GetResult16(0);
 386:main.c        **** //    MyADC_SetGain(0, 1100);
 387:main.c        **** //    adcRead = MyADC_CountsTo_Volts(0, adcRead);
 388:main.c        **** //    MyADC_StopConvert();
 389:main.c        **** //    //MyADC_CountsTo_Volts(0, adcRead);
 390:main.c        **** //    
 391:main.c        **** //    sprintf(uartStr, "*-*-*-*-*-*-*-*-  ADC is: %d -*-*-*-*-*-*-*-*-\n", adcRead);
 392:main.c        **** //    MyUART_PutString(uartStr);
 393:main.c        **** //    
 394:main.c        **** //   if(adcRead >= 14){
 395:main.c        **** ////        if(adcRead > 510){
 396:main.c        **** //       CEPIN_Write(1);
 397:main.c        ****    
 398:main.c        ****        
 399:main.c        ****     volatile uint8 read_buff[2] = {0,0};
 1198              		.loc 1 399 0
 1199 00c0 3C23     		movs	r3, #60
 1200 00c2 FB18     		adds	r3, r7, r3
 1201 00c4 0022     		movs	r2, #0
 1202 00c6 1A70     		strb	r2, [r3]
 1203 00c8 3C23     		movs	r3, #60
 1204 00ca FB18     		adds	r3, r7, r3
 1205 00cc 0022     		movs	r2, #0
 1206 00ce 5A70     		strb	r2, [r3, #1]
 400:main.c        ****         
 401:main.c        ****     // -----------------------read temperatures--------------------------------------
 402:main.c        ****     char str[50];
 403:main.c        ****     uint8 wBuff[2] = {0x00, 0u};
 1207              		.loc 1 403 0
 1208 00d0 3823     		movs	r3, #56
ARM GAS  C:\Users\sergio\AppData\Local\Temp\ccZ8BvM2.s 			page 31


 1209 00d2 FB18     		adds	r3, r7, r3
 1210 00d4 0022     		movs	r2, #0
 1211 00d6 1A70     		strb	r2, [r3]
 1212 00d8 3823     		movs	r3, #56
 1213 00da FB18     		adds	r3, r7, r3
 1214 00dc 0022     		movs	r2, #0
 1215 00de 5A70     		strb	r2, [r3, #1]
 404:main.c        ****     volatile uint8 rBuff[2] = {0u, 0u};
 1216              		.loc 1 404 0
 1217 00e0 3423     		movs	r3, #52
 1218 00e2 FB18     		adds	r3, r7, r3
 1219 00e4 0022     		movs	r2, #0
 1220 00e6 1A70     		strb	r2, [r3]
 1221 00e8 3423     		movs	r3, #52
 1222 00ea FB18     		adds	r3, r7, r3
 1223 00ec 0022     		movs	r2, #0
 1224 00ee 5A70     		strb	r2, [r3, #1]
 405:main.c        ****     
 406:main.c        **** 
 407:main.c        ****     
 408:main.c        **** ////   ID  
 409:main.c        ****    I2C_1_I2CMasterSendStart(0x4C, I2C_1_I2C_WRITE_XFER_MODE, 0);
 1225              		.loc 1 409 0
 1226 00f0 0022     		movs	r2, #0
 1227 00f2 0021     		movs	r1, #0
 1228 00f4 4C20     		movs	r0, #76
 1229 00f6 FFF7FEFF 		bl	I2C_1_I2CMasterSendStart
 410:main.c        **** if ((I2C_1_I2CMasterStatus() & I2C_1_I2C_MSTAT_ERR_ADDR_NAK)==1){ MyUART_PutString("slave NACK addr
 1230              		.loc 1 410 0
 1231 00fa FFF7FEFF 		bl	I2C_1_I2CMasterStatus
 411:main.c        ****    I2C_1_I2CMasterWriteByte(0xFD, 0); // check ID 
 1232              		.loc 1 411 0
 1233 00fe 0021     		movs	r1, #0
 1234 0100 FD20     		movs	r0, #253
 1235 0102 FFF7FEFF 		bl	I2C_1_I2CMasterWriteByte
 412:main.c        **** if ((I2C_1_I2CMasterStatus() & I2C_1_I2C_MSTAT_WR_CMPLT)==1){ MyUART_PutString("writing error\n");}
 1236              		.loc 1 412 0
 1237 0106 FFF7FEFF 		bl	I2C_1_I2CMasterStatus
 413:main.c        ****    I2C_1_I2CMasterSendRestart(0x4C,I2C_1_I2C_READ_XFER_MODE, 0);
 1238              		.loc 1 413 0
 1239 010a 0022     		movs	r2, #0
 1240 010c 0121     		movs	r1, #1
 1241 010e 4C20     		movs	r0, #76
 1242 0110 FFF7FEFF 		bl	I2C_1_I2CMasterSendRestart
 414:main.c        **** 
 415:main.c        ****    I2C_1_I2CMasterReadByte(I2C_1_I2C_NAK_DATA,(uint8 *) &thermo.ambientTemp, 0);
 1243              		.loc 1 415 0
 1244 0114 CE4B     		ldr	r3, .L71+16
 1245 0116 0022     		movs	r2, #0
 1246 0118 1900     		movs	r1, r3
 1247 011a 0120     		movs	r0, #1
 1248 011c FFF7FEFF 		bl	I2C_1_I2CMasterReadByte
 416:main.c        **** if ((I2C_1_I2CMasterStatus() & I2C_1_I2C_MSTAT_RD_CMPLT)==1){ MyUART_PutString("reading error\n");}
 1249              		.loc 1 416 0
 1250 0120 FFF7FEFF 		bl	I2C_1_I2CMasterStatus
 1251 0124 0200     		movs	r2, r0
 1252 0126 0123     		movs	r3, #1
ARM GAS  C:\Users\sergio\AppData\Local\Temp\ccZ8BvM2.s 			page 32


 1253 0128 1340     		ands	r3, r2
 1254 012a 03D0     		beq	.L47
 1255              		.loc 1 416 0 is_stmt 0 discriminator 1
 1256 012c C94B     		ldr	r3, .L71+20
 1257 012e 1800     		movs	r0, r3
 1258 0130 FFF7FEFF 		bl	MyUART_PutString
 1259              	.L47:
 417:main.c        ****    I2C_1_I2CMasterSendStop(0);
 1260              		.loc 1 417 0 is_stmt 1
 1261 0134 0020     		movs	r0, #0
 1262 0136 FFF7FEFF 		bl	I2C_1_I2CMasterSendStop
 418:main.c        **** 
 419:main.c        **** 
 420:main.c        ****   sprintf(str, "counter: %d            ID: %x\n", counter, thermo.ambientTemp);
 1263              		.loc 1 420 0
 1264 013a C34B     		ldr	r3, .L71+8
 1265 013c 1B79     		ldrb	r3, [r3, #4]
 1266 013e 3A6D     		ldr	r2, [r7, #80]
 1267 0140 C549     		ldr	r1, .L71+24
 1268 0142 3800     		movs	r0, r7
 1269 0144 FFF7FEFF 		bl	sprintf
 421:main.c        ****     MyUART_PutString(str);
 1270              		.loc 1 421 0
 1271 0148 3B00     		movs	r3, r7
 1272 014a 1800     		movs	r0, r3
 1273 014c FFF7FEFF 		bl	MyUART_PutString
 422:main.c        ****     counter +=1;
 1274              		.loc 1 422 0
 1275 0150 3B6D     		ldr	r3, [r7, #80]
 1276 0152 0133     		adds	r3, r3, #1
 1277 0154 3B65     		str	r3, [r7, #80]
 423:main.c        **** //  READ local sensor 
 424:main.c        ****     I2C_1_I2CMasterSendStart(0x4C, I2C_1_I2C_WRITE_XFER_MODE, 0u);
 1278              		.loc 1 424 0
 1279 0156 0022     		movs	r2, #0
 1280 0158 0021     		movs	r1, #0
 1281 015a 4C20     		movs	r0, #76
 1282 015c FFF7FEFF 		bl	I2C_1_I2CMasterSendStart
 425:main.c        ****    I2C_1_I2CMasterWriteByte(0x00, 0u);
 1283              		.loc 1 425 0
 1284 0160 0021     		movs	r1, #0
 1285 0162 0020     		movs	r0, #0
 1286 0164 FFF7FEFF 		bl	I2C_1_I2CMasterWriteByte
 426:main.c        ****    I2C_1_I2CMasterSendRestart(0x4C,I2C_1_I2C_READ_XFER_MODE, 0u);
 1287              		.loc 1 426 0
 1288 0168 0022     		movs	r2, #0
 1289 016a 0121     		movs	r1, #1
 1290 016c 4C20     		movs	r0, #76
 1291 016e FFF7FEFF 		bl	I2C_1_I2CMasterSendRestart
 427:main.c        ****    //I2C_1_I2CMasterReadByte(I2C_1_I2C_ACK_DATA,(uint8 *) &read_buff[0],100u);
 428:main.c        ****    I2C_1_I2CMasterReadByte(I2C_1_I2C_NAK_DATA,(uint8 *) &sensorData.localTemp,0u);
 1292              		.loc 1 428 0
 1293 0172 BA4B     		ldr	r3, .L71+28
 1294 0174 0022     		movs	r2, #0
 1295 0176 1900     		movs	r1, r3
 1296 0178 0120     		movs	r0, #1
 1297 017a FFF7FEFF 		bl	I2C_1_I2CMasterReadByte
ARM GAS  C:\Users\sergio\AppData\Local\Temp\ccZ8BvM2.s 			page 33


 429:main.c        ****    I2C_1_I2CMasterSendStop(0u);
 1298              		.loc 1 429 0
 1299 017e 0020     		movs	r0, #0
 1300 0180 FFF7FEFF 		bl	I2C_1_I2CMasterSendStop
 430:main.c        ****     
 431:main.c        **** ////  READ remote sensor 1
 432:main.c        ****   I2C_1_I2CMasterSendStart(0x4C, I2C_1_I2C_WRITE_XFER_MODE, 0u);
 1301              		.loc 1 432 0
 1302 0184 0022     		movs	r2, #0
 1303 0186 0021     		movs	r1, #0
 1304 0188 4C20     		movs	r0, #76
 1305 018a FFF7FEFF 		bl	I2C_1_I2CMasterSendStart
 433:main.c        ****    I2C_1_I2CMasterWriteByte(0x01, 0u);
 1306              		.loc 1 433 0
 1307 018e 0021     		movs	r1, #0
 1308 0190 0120     		movs	r0, #1
 1309 0192 FFF7FEFF 		bl	I2C_1_I2CMasterWriteByte
 434:main.c        ****    I2C_1_I2CMasterSendRestart(0x4C,I2C_1_I2C_READ_XFER_MODE, 0u);
 1310              		.loc 1 434 0
 1311 0196 0022     		movs	r2, #0
 1312 0198 0121     		movs	r1, #1
 1313 019a 4C20     		movs	r0, #76
 1314 019c FFF7FEFF 		bl	I2C_1_I2CMasterSendRestart
 435:main.c        ****    //I2C_1_I2CMasterReadByte(I2C_1_I2C_ACK_DATA,(uint8 *) &read_buff[0],100u);
 436:main.c        ****    I2C_1_I2CMasterReadByte(I2C_1_I2C_NAK_DATA,(uint8 *) &sensorData.remoteTemp1,0u);
 1315              		.loc 1 436 0
 1316 01a0 AF4B     		ldr	r3, .L71+32
 1317 01a2 0022     		movs	r2, #0
 1318 01a4 1900     		movs	r1, r3
 1319 01a6 0120     		movs	r0, #1
 1320 01a8 FFF7FEFF 		bl	I2C_1_I2CMasterReadByte
 437:main.c        ****    I2C_1_I2CMasterSendStop(0u);
 1321              		.loc 1 437 0
 1322 01ac 0020     		movs	r0, #0
 1323 01ae FFF7FEFF 		bl	I2C_1_I2CMasterSendStop
 438:main.c        **** //
 439:main.c        **** //
 440:main.c        **** ////  READ remote sensor 2
 441:main.c        ****   I2C_1_I2CMasterSendStart(0x4C, I2C_1_I2C_WRITE_XFER_MODE, 100u);
 1324              		.loc 1 441 0
 1325 01b2 6422     		movs	r2, #100
 1326 01b4 0021     		movs	r1, #0
 1327 01b6 4C20     		movs	r0, #76
 1328 01b8 FFF7FEFF 		bl	I2C_1_I2CMasterSendStart
 442:main.c        ****    I2C_1_I2CMasterWriteByte(0x23, 100u);
 1329              		.loc 1 442 0
 1330 01bc 6421     		movs	r1, #100
 1331 01be 2320     		movs	r0, #35
 1332 01c0 FFF7FEFF 		bl	I2C_1_I2CMasterWriteByte
 443:main.c        ****    I2C_1_I2CMasterSendRestart(0x4C,I2C_1_I2C_READ_XFER_MODE, 100u);
 1333              		.loc 1 443 0
 1334 01c4 6422     		movs	r2, #100
 1335 01c6 0121     		movs	r1, #1
 1336 01c8 4C20     		movs	r0, #76
 1337 01ca FFF7FEFF 		bl	I2C_1_I2CMasterSendRestart
 444:main.c        ****    //I2C_1_I2CMasterReadByte(I2C_1_I2C_ACK_DATA,(uint8 *) &read_buff[0],100u);
 445:main.c        ****    I2C_1_I2CMasterReadByte(I2C_1_I2C_NAK_DATA,(uint8 *) &sensorData.remoteTemp2,100u);
ARM GAS  C:\Users\sergio\AppData\Local\Temp\ccZ8BvM2.s 			page 34


 1338              		.loc 1 445 0
 1339 01ce A54B     		ldr	r3, .L71+36
 1340 01d0 6422     		movs	r2, #100
 1341 01d2 1900     		movs	r1, r3
 1342 01d4 0120     		movs	r0, #1
 1343 01d6 FFF7FEFF 		bl	I2C_1_I2CMasterReadByte
 446:main.c        ****    I2C_1_I2CMasterSendStop(100u);
 1344              		.loc 1 446 0
 1345 01da 6420     		movs	r0, #100
 1346 01dc FFF7FEFF 		bl	I2C_1_I2CMasterSendStop
 447:main.c        **** //
 448:main.c        **** //
 449:main.c        **** //
 450:main.c        **** //
 451:main.c        **** sprintf(str, "Sensor 1 temperature is %d\n", sensorData.localTemp-64);
 1347              		.loc 1 451 0
 1348 01e0 9E4B     		ldr	r3, .L71+28
 1349 01e2 1B78     		ldrb	r3, [r3]
 1350 01e4 403B     		subs	r3, r3, #64
 1351 01e6 1A00     		movs	r2, r3
 1352 01e8 9F49     		ldr	r1, .L71+40
 1353 01ea 3B00     		movs	r3, r7
 1354 01ec 1800     		movs	r0, r3
 1355 01ee FFF7FEFF 		bl	sprintf
 452:main.c        **** MyUART_PutString(str);
 1356              		.loc 1 452 0
 1357 01f2 3B00     		movs	r3, r7
 1358 01f4 1800     		movs	r0, r3
 1359 01f6 FFF7FEFF 		bl	MyUART_PutString
 453:main.c        **** 
 454:main.c        **** sprintf(str, "Sensor 1 Remote temperature 1 is %d \n", (sensorData.remoteTemp1-64));
 1360              		.loc 1 454 0
 1361 01fa 984B     		ldr	r3, .L71+28
 1362 01fc 9B78     		ldrb	r3, [r3, #2]
 1363 01fe 403B     		subs	r3, r3, #64
 1364 0200 1A00     		movs	r2, r3
 1365 0202 9A49     		ldr	r1, .L71+44
 1366 0204 3B00     		movs	r3, r7
 1367 0206 1800     		movs	r0, r3
 1368 0208 FFF7FEFF 		bl	sprintf
 455:main.c        **** MyUART_PutString(str);
 1369              		.loc 1 455 0
 1370 020c 3B00     		movs	r3, r7
 1371 020e 1800     		movs	r0, r3
 1372 0210 FFF7FEFF 		bl	MyUART_PutString
 456:main.c        **** 
 457:main.c        **** 
 458:main.c        **** sprintf(str, "Sensor 1 Remote temperature 2 is %d \n", (sensorData.remoteTemp2-64));
 1373              		.loc 1 458 0
 1374 0214 914B     		ldr	r3, .L71+28
 1375 0216 DB78     		ldrb	r3, [r3, #3]
 1376 0218 403B     		subs	r3, r3, #64
 1377 021a 1A00     		movs	r2, r3
 1378 021c 9449     		ldr	r1, .L71+48
 1379 021e 3B00     		movs	r3, r7
 1380 0220 1800     		movs	r0, r3
 1381 0222 FFF7FEFF 		bl	sprintf
ARM GAS  C:\Users\sergio\AppData\Local\Temp\ccZ8BvM2.s 			page 35


 459:main.c        **** MyUART_PutString(str);
 1382              		.loc 1 459 0
 1383 0226 3B00     		movs	r3, r7
 1384 0228 1800     		movs	r0, r3
 1385 022a FFF7FEFF 		bl	MyUART_PutString
 460:main.c        **** //
 461:main.c        **** //temp = tempR1 = tempR2 = 0;
 462:main.c        ****   //READ local sensor  2  
 463:main.c        ****    I2C_1_I2CMasterSendStart(0x4D, I2C_1_I2C_WRITE_XFER_MODE, 100u);
 1386              		.loc 1 463 0
 1387 022e 6422     		movs	r2, #100
 1388 0230 0021     		movs	r1, #0
 1389 0232 4D20     		movs	r0, #77
 1390 0234 FFF7FEFF 		bl	I2C_1_I2CMasterSendStart
 464:main.c        ****    I2C_1_I2CMasterWriteByte(0x00, 100u);
 1391              		.loc 1 464 0
 1392 0238 6421     		movs	r1, #100
 1393 023a 0020     		movs	r0, #0
 1394 023c FFF7FEFF 		bl	I2C_1_I2CMasterWriteByte
 465:main.c        ****    I2C_1_I2CMasterSendRestart(0x4D,I2C_1_I2C_READ_XFER_MODE, 100u);
 1395              		.loc 1 465 0
 1396 0240 6422     		movs	r2, #100
 1397 0242 0121     		movs	r1, #1
 1398 0244 4D20     		movs	r0, #77
 1399 0246 FFF7FEFF 		bl	I2C_1_I2CMasterSendRestart
 466:main.c        ****    //I2C_1_I2CMasterReadByte(I2C_1_I2C_ACK_DATA,(uint8 *) &read_buff[0],100u);
 467:main.c        ****    I2C_1_I2CMasterReadByte(I2C_1_I2C_NAK_DATA,(uint8 *) &temp2,100u);
 1400              		.loc 1 467 0
 1401 024a 4123     		movs	r3, #65
 1402 024c FB18     		adds	r3, r7, r3
 1403 024e 6422     		movs	r2, #100
 1404 0250 1900     		movs	r1, r3
 1405 0252 0120     		movs	r0, #1
 1406 0254 FFF7FEFF 		bl	I2C_1_I2CMasterReadByte
 468:main.c        ****    I2C_1_I2CMasterSendStop(100u);
 1407              		.loc 1 468 0
 1408 0258 6420     		movs	r0, #100
 1409 025a FFF7FEFF 		bl	I2C_1_I2CMasterSendStop
 469:main.c        **** 
 470:main.c        **** //  READ remote 2 sensor 1
 471:main.c        ****   I2C_1_I2CMasterSendStart(0x4D, I2C_1_I2C_WRITE_XFER_MODE, 100u);
 1410              		.loc 1 471 0
 1411 025e 6422     		movs	r2, #100
 1412 0260 0021     		movs	r1, #0
 1413 0262 4D20     		movs	r0, #77
 1414 0264 FFF7FEFF 		bl	I2C_1_I2CMasterSendStart
 472:main.c        ****    I2C_1_I2CMasterWriteByte(0x01, 100u);
 1415              		.loc 1 472 0
 1416 0268 6421     		movs	r1, #100
 1417 026a 0120     		movs	r0, #1
 1418 026c FFF7FEFF 		bl	I2C_1_I2CMasterWriteByte
 473:main.c        ****    I2C_1_I2CMasterSendRestart(0x4D,I2C_1_I2C_READ_XFER_MODE, 100u);
 1419              		.loc 1 473 0
 1420 0270 6422     		movs	r2, #100
 1421 0272 0121     		movs	r1, #1
 1422 0274 4D20     		movs	r0, #77
 1423 0276 FFF7FEFF 		bl	I2C_1_I2CMasterSendRestart
ARM GAS  C:\Users\sergio\AppData\Local\Temp\ccZ8BvM2.s 			page 36


 474:main.c        ****    //I2C_1_I2CMasterReadByte(I2C_1_I2C_ACK_DATA,(uint8 *) &read_buff[0],100u);
 475:main.c        ****    I2C_1_I2CMasterReadByte(I2C_1_I2C_NAK_DATA,(uint8 *) &sensorData.remoteTemp3,100u);
 1424              		.loc 1 475 0
 1425 027a 7E4B     		ldr	r3, .L71+52
 1426 027c 6422     		movs	r2, #100
 1427 027e 1900     		movs	r1, r3
 1428 0280 0120     		movs	r0, #1
 1429 0282 FFF7FEFF 		bl	I2C_1_I2CMasterReadByte
 476:main.c        ****    I2C_1_I2CMasterSendStop(100u);
 1430              		.loc 1 476 0
 1431 0286 6420     		movs	r0, #100
 1432 0288 FFF7FEFF 		bl	I2C_1_I2CMasterSendStop
 477:main.c        **** 
 478:main.c        **** 
 479:main.c        **** //  READ remote 2 sensor 2
 480:main.c        ****   I2C_1_I2CMasterSendStart(0x4D, I2C_1_I2C_WRITE_XFER_MODE, 100u);
 1433              		.loc 1 480 0
 1434 028c 6422     		movs	r2, #100
 1435 028e 0021     		movs	r1, #0
 1436 0290 4D20     		movs	r0, #77
 1437 0292 FFF7FEFF 		bl	I2C_1_I2CMasterSendStart
 481:main.c        ****    I2C_1_I2CMasterWriteByte(0x23, 100u);
 1438              		.loc 1 481 0
 1439 0296 6421     		movs	r1, #100
 1440 0298 2320     		movs	r0, #35
 1441 029a FFF7FEFF 		bl	I2C_1_I2CMasterWriteByte
 482:main.c        ****    I2C_1_I2CMasterSendRestart(0x4D,I2C_1_I2C_READ_XFER_MODE, 100u);
 1442              		.loc 1 482 0
 1443 029e 6422     		movs	r2, #100
 1444 02a0 0121     		movs	r1, #1
 1445 02a2 4D20     		movs	r0, #77
 1446 02a4 FFF7FEFF 		bl	I2C_1_I2CMasterSendRestart
 483:main.c        ****    //I2C_1_I2CMasterReadByte(I2C_1_I2C_ACK_DATA,(uint8 *) &read_buff[0],100u);
 484:main.c        ****    I2C_1_I2CMasterReadByte(I2C_1_I2C_NAK_DATA,(uint8 *) &sensorData.remoteTemp4,100u);
 1447              		.loc 1 484 0
 1448 02a8 734B     		ldr	r3, .L71+56
 1449 02aa 6422     		movs	r2, #100
 1450 02ac 1900     		movs	r1, r3
 1451 02ae 0120     		movs	r0, #1
 1452 02b0 FFF7FEFF 		bl	I2C_1_I2CMasterReadByte
 485:main.c        ****    I2C_1_I2CMasterSendStop(100u);
 1453              		.loc 1 485 0
 1454 02b4 6420     		movs	r0, #100
 1455 02b6 FFF7FEFF 		bl	I2C_1_I2CMasterSendStop
 486:main.c        **** 
 487:main.c        **** 
 488:main.c        **** 
 489:main.c        **** 
 490:main.c        **** sprintf(str, "\n\nSensor 2 temperature is %d\n", (temp2-64));
 1456              		.loc 1 490 0
 1457 02ba 4123     		movs	r3, #65
 1458 02bc FB18     		adds	r3, r7, r3
 1459 02be 1B78     		ldrb	r3, [r3]
 1460 02c0 403B     		subs	r3, r3, #64
 1461 02c2 1A00     		movs	r2, r3
 1462 02c4 6D49     		ldr	r1, .L71+60
 1463 02c6 3B00     		movs	r3, r7
ARM GAS  C:\Users\sergio\AppData\Local\Temp\ccZ8BvM2.s 			page 37


 1464 02c8 1800     		movs	r0, r3
 1465 02ca FFF7FEFF 		bl	sprintf
 491:main.c        **** MyUART_PutString(str);
 1466              		.loc 1 491 0
 1467 02ce 3B00     		movs	r3, r7
 1468 02d0 1800     		movs	r0, r3
 1469 02d2 FFF7FEFF 		bl	MyUART_PutString
 492:main.c        **** 
 493:main.c        **** sprintf(str, "Sensor 2 Remote temperature 1 is %d \n", (sensorData.remoteTemp3-64));
 1470              		.loc 1 493 0
 1471 02d6 614B     		ldr	r3, .L71+28
 1472 02d8 1B79     		ldrb	r3, [r3, #4]
 1473 02da 403B     		subs	r3, r3, #64
 1474 02dc 1A00     		movs	r2, r3
 1475 02de 6849     		ldr	r1, .L71+64
 1476 02e0 3B00     		movs	r3, r7
 1477 02e2 1800     		movs	r0, r3
 1478 02e4 FFF7FEFF 		bl	sprintf
 494:main.c        **** MyUART_PutString(str);
 1479              		.loc 1 494 0
 1480 02e8 3B00     		movs	r3, r7
 1481 02ea 1800     		movs	r0, r3
 1482 02ec FFF7FEFF 		bl	MyUART_PutString
 495:main.c        **** 
 496:main.c        **** 
 497:main.c        **** sprintf(str, "Sensor 2 Remote temperature 2 is %d \n\n\n\n", (sensorData.remoteTemp4-64));
 1483              		.loc 1 497 0
 1484 02f0 5A4B     		ldr	r3, .L71+28
 1485 02f2 5B79     		ldrb	r3, [r3, #5]
 1486 02f4 403B     		subs	r3, r3, #64
 1487 02f6 1A00     		movs	r2, r3
 1488 02f8 6249     		ldr	r1, .L71+68
 1489 02fa 3B00     		movs	r3, r7
 1490 02fc 1800     		movs	r0, r3
 1491 02fe FFF7FEFF 		bl	sprintf
 498:main.c        **** MyUART_PutString(str);
 1492              		.loc 1 498 0
 1493 0302 3B00     		movs	r3, r7
 1494 0304 1800     		movs	r0, r3
 1495 0306 FFF7FEFF 		bl	MyUART_PutString
 499:main.c        **** 
 500:main.c        **** 
 501:main.c        **** 
 502:main.c        **** /*  ---------------------------- ACCELEROMETER -----------------------------------   */
 503:main.c        **** 
 504:main.c        **** uint8 xLSB;
 505:main.c        **** uint8 xMSB;
 506:main.c        **** uint8 yLSB;
 507:main.c        **** uint8 yMSB;
 508:main.c        **** uint8 zLSB;
 509:main.c        **** uint8 zMSB;
 510:main.c        **** 
 511:main.c        **** //I2C_1_I2CMasterSendStart(0x18,I2C_1_I2C_WRITE_XFER_MODE, 100u);
 512:main.c        **** //I2C_1_I2CMasterWriteByte(0x02, 100u);
 513:main.c        **** //I2C_1_I2CMasterSendRestart(0x18, I2C_1_I2C_READ_XFER_MODE, 100u);
 514:main.c        **** //I2C_1_I2CMasterReadByte(I2C_1_I2C_NAK_DATA,(uint8 *) &xLSB ,100u);
 515:main.c        **** //I2C_1_I2CMasterSendStop(100u);
ARM GAS  C:\Users\sergio\AppData\Local\Temp\ccZ8BvM2.s 			page 38


 516:main.c        **** //
 517:main.c        **** //I2C_1_I2CMasterSendStart(0x18,I2C_1_I2C_WRITE_XFER_MODE, 100u);
 518:main.c        **** //I2C_1_I2CMasterWriteByte(0x03, 100u);
 519:main.c        **** //I2C_1_I2CMasterSendRestart(0x18, I2C_1_I2C_READ_XFER_MODE, 100u);
 520:main.c        **** //I2C_1_I2CMasterReadByte(I2C_1_I2C_NAK_DATA,(uint8 *) &xMSB ,100u);
 521:main.c        **** //I2C_1_I2CMasterSendStop(100u);
 522:main.c        **** //
 523:main.c        **** //I2C_1_I2CMasterSendStart(0x18,I2C_1_I2C_WRITE_XFER_MODE, 100u);
 524:main.c        **** //I2C_1_I2CMasterWriteByte(0x04, 100u);
 525:main.c        **** //I2C_1_I2CMasterSendRestart(0x18, I2C_1_I2C_READ_XFER_MODE, 100u);
 526:main.c        **** //I2C_1_I2CMasterReadByte(I2C_1_I2C_NAK_DATA,(uint8 *) &yLSB ,100u);
 527:main.c        **** //I2C_1_I2CMasterSendStop(100u);
 528:main.c        **** //
 529:main.c        **** //I2C_1_I2CMasterSendStart(0x18,I2C_1_I2C_WRITE_XFER_MODE, 100u);
 530:main.c        **** //I2C_1_I2CMasterWriteByte(0x05, 100u);
 531:main.c        **** //I2C_1_I2CMasterSendRestart(0x18, I2C_1_I2C_READ_XFER_MODE, 100u);
 532:main.c        **** //I2C_1_I2CMasterReadByte(I2C_1_I2C_NAK_DATA,(uint8 *) &yMSB ,100u);
 533:main.c        **** //I2C_1_I2CMasterSendStop(100u);
 534:main.c        **** //
 535:main.c        **** //I2C_1_I2CMasterSendStart(0x18,I2C_1_I2C_WRITE_XFER_MODE, 100u);
 536:main.c        **** //I2C_1_I2CMasterWriteByte(0x06, 100u);
 537:main.c        **** //I2C_1_I2CMasterSendRestart(0x18, I2C_1_I2C_READ_XFER_MODE, 100u);
 538:main.c        **** //I2C_1_I2CMasterReadByte(I2C_1_I2C_NAK_DATA,(uint8 *) &zLSB ,100u);
 539:main.c        **** //I2C_1_I2CMasterSendStop(100u);
 540:main.c        **** //
 541:main.c        **** //I2C_1_I2CMasterSendStart(0x18,I2C_1_I2C_WRITE_XFER_MODE, 100u);
 542:main.c        **** //I2C_1_I2CMasterWriteByte(0x07, 100u);
 543:main.c        **** //I2C_1_I2CMasterSendRestart(0x18, I2C_1_I2C_READ_XFER_MODE, 100u);
 544:main.c        **** //I2C_1_I2CMasterReadByte(I2C_1_I2C_NAK_DATA,(uint8 *) &zMSB ,100u);
 545:main.c        **** //I2C_1_I2CMasterSendStop(100u);
 546:main.c        **** 
 547:main.c        **** sensorData.accX = (xMSB );
 1496              		.loc 1 547 0
 1497 030a 544B     		ldr	r3, .L71+28
 1498 030c 4A22     		movs	r2, #74
 1499 030e BA18     		adds	r2, r7, r2
 1500 0310 1278     		ldrb	r2, [r2]
 1501 0312 9A77     		strb	r2, [r3, #30]
 548:main.c        **** sensorData.accY = (yMSB );
 1502              		.loc 1 548 0
 1503 0314 514B     		ldr	r3, .L71+28
 1504 0316 4922     		movs	r2, #73
 1505 0318 BA18     		adds	r2, r7, r2
 1506 031a 1278     		ldrb	r2, [r2]
 1507 031c DA77     		strb	r2, [r3, #31]
 549:main.c        **** sensorData.accZ = (zMSB );
 1508              		.loc 1 549 0
 1509 031e 4F4B     		ldr	r3, .L71+28
 1510 0320 4822     		movs	r2, #72
 1511 0322 BA18     		adds	r2, r7, r2
 1512 0324 2021     		movs	r1, #32
 1513 0326 1278     		ldrb	r2, [r2]
 1514 0328 5A54     		strb	r2, [r3, r1]
 550:main.c        **** 
 551:main.c        **** 
 552:main.c        **** 
 553:main.c        **** sprintf(str,"\nX: %d %d    12 bit x: %d\n", xMSB, xLSB, sensorData.accX);
ARM GAS  C:\Users\sergio\AppData\Local\Temp\ccZ8BvM2.s 			page 39


 1515              		.loc 1 553 0
 1516 032a 4A23     		movs	r3, #74
 1517 032c FB18     		adds	r3, r7, r3
 1518 032e 1A78     		ldrb	r2, [r3]
 1519 0330 4723     		movs	r3, #71
 1520 0332 FB18     		adds	r3, r7, r3
 1521 0334 1C78     		ldrb	r4, [r3]
 1522 0336 494B     		ldr	r3, .L71+28
 1523 0338 9B7F     		ldrb	r3, [r3, #30]
 1524 033a 5349     		ldr	r1, .L71+72
 1525 033c 3800     		movs	r0, r7
 1526 033e 0093     		str	r3, [sp]
 1527 0340 2300     		movs	r3, r4
 1528 0342 FFF7FEFF 		bl	sprintf
 554:main.c        **** MyUART_PutString(str);
 1529              		.loc 1 554 0
 1530 0346 3B00     		movs	r3, r7
 1531 0348 1800     		movs	r0, r3
 1532 034a FFF7FEFF 		bl	MyUART_PutString
 555:main.c        **** sprintf(str,"y: %d %d      12 bit y: %d\n", yMSB, yLSB, sensorData.accY);
 1533              		.loc 1 555 0
 1534 034e 4923     		movs	r3, #73
 1535 0350 FB18     		adds	r3, r7, r3
 1536 0352 1A78     		ldrb	r2, [r3]
 1537 0354 4623     		movs	r3, #70
 1538 0356 FB18     		adds	r3, r7, r3
 1539 0358 1C78     		ldrb	r4, [r3]
 1540 035a 404B     		ldr	r3, .L71+28
 1541 035c DB7F     		ldrb	r3, [r3, #31]
 1542 035e 4B49     		ldr	r1, .L71+76
 1543 0360 3800     		movs	r0, r7
 1544 0362 0093     		str	r3, [sp]
 1545 0364 2300     		movs	r3, r4
 1546 0366 FFF7FEFF 		bl	sprintf
 556:main.c        **** MyUART_PutString(str);
 1547              		.loc 1 556 0
 1548 036a 3B00     		movs	r3, r7
 1549 036c 1800     		movs	r0, r3
 1550 036e FFF7FEFF 		bl	MyUART_PutString
 557:main.c        **** sprintf(str,"Z: %d %d      12 bit z: %d\n\n\n", zMSB, zLSB, sensorData.accZ);
 1551              		.loc 1 557 0
 1552 0372 4823     		movs	r3, #72
 1553 0374 FB18     		adds	r3, r7, r3
 1554 0376 1C78     		ldrb	r4, [r3]
 1555 0378 4523     		movs	r3, #69
 1556 037a FB18     		adds	r3, r7, r3
 1557 037c 1D78     		ldrb	r5, [r3]
 1558 037e 374B     		ldr	r3, .L71+28
 1559 0380 2022     		movs	r2, #32
 1560 0382 9B5C     		ldrb	r3, [r3, r2]
 1561 0384 4249     		ldr	r1, .L71+80
 1562 0386 3800     		movs	r0, r7
 1563 0388 0093     		str	r3, [sp]
 1564 038a 2B00     		movs	r3, r5
 1565 038c 2200     		movs	r2, r4
 1566 038e FFF7FEFF 		bl	sprintf
 558:main.c        **** MyUART_PutString(str);
ARM GAS  C:\Users\sergio\AppData\Local\Temp\ccZ8BvM2.s 			page 40


 1567              		.loc 1 558 0
 1568 0392 3B00     		movs	r3, r7
 1569 0394 1800     		movs	r0, r3
 1570 0396 FFF7FEFF 		bl	MyUART_PutString
 559:main.c        **** 
 560:main.c        **** // ---------------  Read humidity ---------------
 561:main.c        **** 
 562:main.c        **** I2C_1_I2CMasterSendStart(0x18,I2C_1_I2C_WRITE_XFER_MODE, 100u);
 1571              		.loc 1 562 0
 1572 039a 6422     		movs	r2, #100
 1573 039c 0021     		movs	r1, #0
 1574 039e 1820     		movs	r0, #24
 1575 03a0 FFF7FEFF 		bl	I2C_1_I2CMasterSendStart
 563:main.c        **** I2C_1_I2CMasterWriteByte(0x07, 100u);
 1576              		.loc 1 563 0
 1577 03a4 6421     		movs	r1, #100
 1578 03a6 0720     		movs	r0, #7
 1579 03a8 FFF7FEFF 		bl	I2C_1_I2CMasterWriteByte
 564:main.c        **** I2C_1_I2CMasterSendRestart(0x18, I2C_1_I2C_READ_XFER_MODE, 100u);
 1580              		.loc 1 564 0
 1581 03ac 6422     		movs	r2, #100
 1582 03ae 0121     		movs	r1, #1
 1583 03b0 1820     		movs	r0, #24
 1584 03b2 FFF7FEFF 		bl	I2C_1_I2CMasterSendRestart
 565:main.c        **** I2C_1_I2CMasterReadByte(I2C_1_I2C_ACK_DATA,(uint8 *) &read_buff[0] ,100u);
 1585              		.loc 1 565 0
 1586 03b6 3C23     		movs	r3, #60
 1587 03b8 FB18     		adds	r3, r7, r3
 1588 03ba 6422     		movs	r2, #100
 1589 03bc 1900     		movs	r1, r3
 1590 03be 0020     		movs	r0, #0
 1591 03c0 FFF7FEFF 		bl	I2C_1_I2CMasterReadByte
 566:main.c        **** I2C_1_I2CMasterReadByte(I2C_1_I2C_NAK_DATA,(uint8 *) &read_buff[1] ,100u);
 1592              		.loc 1 566 0
 1593 03c4 3C23     		movs	r3, #60
 1594 03c6 FB18     		adds	r3, r7, r3
 1595 03c8 0133     		adds	r3, r3, #1
 1596 03ca 6422     		movs	r2, #100
 1597 03cc 1900     		movs	r1, r3
 1598 03ce 0120     		movs	r0, #1
 1599 03d0 FFF7FEFF 		bl	I2C_1_I2CMasterReadByte
 567:main.c        **** I2C_1_I2CMasterSendStop(100u);
 1600              		.loc 1 567 0
 1601 03d4 6420     		movs	r0, #100
 1602 03d6 FFF7FEFF 		bl	I2C_1_I2CMasterSendStop
 568:main.c        **** 
 569:main.c        **** uint16 rh = ((read_buff[0] << 8) | read_buff[1]);
 1603              		.loc 1 569 0
 1604 03da 3C23     		movs	r3, #60
 1605 03dc FB18     		adds	r3, r7, r3
 1606 03de 1B78     		ldrb	r3, [r3]
 1607 03e0 DBB2     		uxtb	r3, r3
 1608 03e2 1B02     		lsls	r3, r3, #8
 1609 03e4 1AB2     		sxth	r2, r3
 1610 03e6 3C23     		movs	r3, #60
 1611 03e8 FB18     		adds	r3, r7, r3
 1612 03ea 5B78     		ldrb	r3, [r3, #1]
ARM GAS  C:\Users\sergio\AppData\Local\Temp\ccZ8BvM2.s 			page 41


 1613 03ec DBB2     		uxtb	r3, r3
 1614 03ee 1BB2     		sxth	r3, r3
 1615 03f0 1343     		orrs	r3, r2
 1616 03f2 1AB2     		sxth	r2, r3
 1617 03f4 4223     		movs	r3, #66
 1618 03f6 FB18     		adds	r3, r7, r3
 1619 03f8 1A80     		strh	r2, [r3]
 570:main.c        **** 
 571:main.c        **** sensorData.humidity = ((125 * rh)/65536)-6; 
 1620              		.loc 1 571 0
 1621 03fa 4223     		movs	r3, #66
 1622 03fc FB18     		adds	r3, r7, r3
 1623 03fe 1A88     		ldrh	r2, [r3]
 1624 0400 1300     		movs	r3, r2
 1625 0402 5B01     		lsls	r3, r3, #5
 1626 0404 9B1A     		subs	r3, r3, r2
 1627 0406 9B00     		lsls	r3, r3, #2
 1628 0408 9B18     		adds	r3, r3, r2
 1629 040a 002B     		cmp	r3, #0
 1630 040c 02DA     		bge	.L48
 1631 040e 214A     		ldr	r2, .L71+84
 1632 0410 9446     		mov	ip, r2
 1633 0412 6344     		add	r3, r3, ip
 1634              	.L48:
 1635 0414 1B14     		asrs	r3, r3, #16
 1636 0416 DBB2     		uxtb	r3, r3
 1637 0418 063B     		subs	r3, r3, #6
 1638 041a DAB2     		uxtb	r2, r3
 1639 041c 0F4B     		ldr	r3, .L71+28
 1640 041e 5A70     		strb	r2, [r3, #1]
 572:main.c        **** 
 573:main.c        **** sprintf(str, "\nThe humidity is %d\n", sensorData.humidity);
 1641              		.loc 1 573 0
 1642 0420 0E4B     		ldr	r3, .L71+28
 1643 0422 5B78     		ldrb	r3, [r3, #1]
 1644 0424 1A00     		movs	r2, r3
 1645 0426 1C49     		ldr	r1, .L71+88
 1646 0428 3B00     		movs	r3, r7
 1647 042a 1800     		movs	r0, r3
 1648 042c FFF7FEFF 		bl	sprintf
 574:main.c        **** MyUART_PutString(str);
 1649              		.loc 1 574 0
 1650 0430 3B00     		movs	r3, r7
 1651 0432 1800     		movs	r0, r3
 1652 0434 FFF7FEFF 		bl	MyUART_PutString
 575:main.c        **** 
 576:main.c        **** // ---------------------  Read thermostat pins ---------------------
 577:main.c        **** 
 578:main.c        **** gpioPins = read_thermostat_pins();
 1653              		.loc 1 578 0
 1654 0438 FFF7FEFF 		bl	read_thermostat_pins
 1655 043c 0300     		movs	r3, r0
 1656 043e 2DE0     		b	.L72
 1657              	.L73:
 1658              		.align	2
 1659              	.L71:
 1660 0440 00000000 		.word	bleStack
ARM GAS  C:\Users\sergio\AppData\Local\Temp\ccZ8BvM2.s 			page 42


 1661 0444 00000000 		.word	my_interrupt
 1662 0448 00000000 		.word	thermo
 1663 044c 00000000 		.word	interruptFlag
 1664 0450 04000000 		.word	thermo+4
 1665 0454 3C000000 		.word	.LC26
 1666 0458 4C000000 		.word	.LC28
 1667 045c 00000000 		.word	sensorData
 1668 0460 02000000 		.word	sensorData+2
 1669 0464 03000000 		.word	sensorData+3
 1670 0468 6C000000 		.word	.LC33
 1671 046c 88000000 		.word	.LC35
 1672 0470 B0000000 		.word	.LC37
 1673 0474 04000000 		.word	sensorData+4
 1674 0478 05000000 		.word	sensorData+5
 1675 047c D8000000 		.word	.LC41
 1676 0480 F8000000 		.word	.LC43
 1677 0484 20010000 		.word	.LC45
 1678 0488 4C010000 		.word	.LC47
 1679 048c 68010000 		.word	.LC49
 1680 0490 84010000 		.word	.LC51
 1681 0494 FFFF0000 		.word	65535
 1682 0498 A4010000 		.word	.LC53
 1683              	.L72:
 1684 049c 1A00     		movs	r2, r3
 1685 049e C54B     		ldr	r3, .L74
 1686 04a0 1A70     		strb	r2, [r3]
 579:main.c        ****  comp = (gpioPins & 0x04);
 1687              		.loc 1 579 0
 1688 04a2 C44B     		ldr	r3, .L74
 1689 04a4 1B78     		ldrb	r3, [r3]
 1690 04a6 1A00     		movs	r2, r3
 1691 04a8 0423     		movs	r3, #4
 1692 04aa 1340     		ands	r3, r2
 1693 04ac FB65     		str	r3, [r7, #92]
 580:main.c        ****  fanL = (gpioPins & 0x08);
 1694              		.loc 1 580 0
 1695 04ae C14B     		ldr	r3, .L74
 1696 04b0 1B78     		ldrb	r3, [r3]
 1697 04b2 1A00     		movs	r2, r3
 1698 04b4 0823     		movs	r3, #8
 1699 04b6 1340     		ands	r3, r2
 1700 04b8 BB65     		str	r3, [r7, #88]
 581:main.c        ****  fanH = (gpioPins & 0x10);
 1701              		.loc 1 581 0
 1702 04ba BE4B     		ldr	r3, .L74
 1703 04bc 1B78     		ldrb	r3, [r3]
 1704 04be 1A00     		movs	r2, r3
 1705 04c0 1023     		movs	r3, #16
 1706 04c2 1340     		ands	r3, r2
 1707 04c4 7B65     		str	r3, [r7, #84]
 582:main.c        **** 
 583:main.c        **** 
 584:main.c        **** sprintf(str, "\nThermostast pins are 0x%x\n", gpioPins);
 1708              		.loc 1 584 0
 1709 04c6 BB4B     		ldr	r3, .L74
 1710 04c8 1B78     		ldrb	r3, [r3]
 1711 04ca 1A00     		movs	r2, r3
ARM GAS  C:\Users\sergio\AppData\Local\Temp\ccZ8BvM2.s 			page 43


 1712 04cc BA49     		ldr	r1, .L74+4
 1713 04ce 3B00     		movs	r3, r7
 1714 04d0 1800     		movs	r0, r3
 1715 04d2 FFF7FEFF 		bl	sprintf
 585:main.c        **** MyUART_PutString(str);
 1716              		.loc 1 585 0
 1717 04d6 3B00     		movs	r3, r7
 1718 04d8 1800     		movs	r0, r3
 1719 04da FFF7FEFF 		bl	MyUART_PutString
 586:main.c        **** 
 587:main.c        **** 
 588:main.c        **** //// ------------------------------- power sensors  -----------------------
 589:main.c        **** //uint8 ver[2] = {0,0};
 590:main.c        **** //
 591:main.c        **** //I2C_1_I2CMasterSendStart(ADDR_POWER1,I2C_1_I2C_WRITE_XFER_MODE, 100u);
 592:main.c        **** //I2C_1_I2CMasterWriteByte(REG_POWER_VERSION, 100u);
 593:main.c        **** //I2C_1_I2CMasterSendStop(100u);
 594:main.c        **** //I2C_1_I2CMasterSendStart(ADDR_POWER1, I2C_1_I2C_READ_XFER_MODE, 100u);
 595:main.c        **** //I2C_1_I2CMasterReadByte(I2C_1_I2C_ACK_DATA,(uint8 *) &ver[0] ,100u);
 596:main.c        **** //I2C_1_I2CMasterReadByte(I2C_1_I2C_NAK_DATA,(uint8 *) &ver[1] ,100u);
 597:main.c        **** //I2C_1_I2CMasterSendStop(100u);
 598:main.c        **** //
 599:main.c        **** //sprintf(str, "power 1 ver: %d %d\n", ver[0], ver[1]);
 600:main.c        **** //MyUART_PutString(str);
 601:main.c        **** //
 602:main.c        **** //I2C_1_I2CMasterSendStart(ADDR_POWER2,I2C_1_I2C_WRITE_XFER_MODE, 100u);
 603:main.c        **** //I2C_1_I2CMasterWriteByte(REG_POWER_VERSION, 100u);
 604:main.c        **** //I2C_1_I2CMasterSendStop(100u);
 605:main.c        **** //I2C_1_I2CMasterSendStart(ADDR_POWER2, I2C_1_I2C_READ_XFER_MODE, 100u);
 606:main.c        **** //I2C_1_I2CMasterReadByte(I2C_1_I2C_ACK_DATA,(uint8 *) &ver[0] ,100u);
 607:main.c        **** //I2C_1_I2CMasterReadByte(I2C_1_I2C_NAK_DATA,(uint8 *) &ver[1] ,100u);
 608:main.c        **** //I2C_1_I2CMasterSendStop(100u);
 609:main.c        **** //
 610:main.c        **** //sprintf(str, "power 2 ver: %d %d\n", ver[0], ver[1]);
 611:main.c        **** //MyUART_PutString(str);
 612:main.c        **** //
 613:main.c        **** //I2C_1_I2CMasterSendStart(ADDR_POWER3,I2C_1_I2C_WRITE_XFER_MODE, 100u);
 614:main.c        **** //I2C_1_I2CMasterWriteByte(REG_POWER_VERSION, 100u);
 615:main.c        **** //I2C_1_I2CMasterSendStop(100u);
 616:main.c        **** //I2C_1_I2CMasterSendStart(ADDR_POWER3, I2C_1_I2C_READ_XFER_MODE, 100u);
 617:main.c        **** //I2C_1_I2CMasterReadByte(I2C_1_I2C_ACK_DATA,(uint8 *) &ver[0] ,100u);
 618:main.c        **** //I2C_1_I2CMasterReadByte(I2C_1_I2C_NAK_DATA,(uint8 *) &ver[1] ,100u);
 619:main.c        **** //I2C_1_I2CMasterSendStop(100u);
 620:main.c        **** //
 621:main.c        **** //sprintf(str, "power 3 ver: %d %d\n", ver[0], ver[1]);
 622:main.c        **** //MyUART_PutString(str);
 623:main.c        **** //
 624:main.c        **** //read_buff[0] =0u;
 625:main.c        **** //// --------------------- VOLT -----------------------------------------------
 626:main.c        **** //I2C_1_I2CMasterSendStart(ADDR_POWER1,I2C_1_I2C_WRITE_XFER_MODE, 100u);
 627:main.c        **** //I2C_1_I2CMasterWriteByte(0x06, 100u);
 628:main.c        **** //I2C_1_I2CMasterSendStop(100u);
 629:main.c        **** //I2C_1_I2CMasterSendStart(ADDR_POWER1, I2C_1_I2C_READ_XFER_MODE, 100u);
 630:main.c        **** //I2C_1_I2CMasterReadByte(I2C_1_I2C_ACK_DATA,(uint8 *) &ver[0] ,100u);
 631:main.c        **** //I2C_1_I2CMasterReadByte(I2C_1_I2C_NAK_DATA,(uint8 *) &ver[1] ,100u);
 632:main.c        **** //I2C_1_I2CMasterSendStop(100u);
 633:main.c        **** //
ARM GAS  C:\Users\sergio\AppData\Local\Temp\ccZ8BvM2.s 			page 44


 634:main.c        **** //sensorData.voltCompressor = ((ver[0] << 8) || ver[1]);
 635:main.c        **** //
 636:main.c        **** //sprintf(str, "power 1 volt: %d %d    volt 16: %d\n", ver[0], ver[1],sensorData.voltCompressor);
 637:main.c        **** //MyUART_PutString(str);
 638:main.c        **** //
 639:main.c        **** //I2C_1_I2CMasterSendStart(ADDR_POWER2,I2C_1_I2C_WRITE_XFER_MODE, 100u);
 640:main.c        **** //I2C_1_I2CMasterWriteByte(0x06, 100u);
 641:main.c        **** //I2C_1_I2CMasterSendStop(100u);
 642:main.c        **** //I2C_1_I2CMasterSendStart(ADDR_POWER2, I2C_1_I2C_READ_XFER_MODE, 100u);
 643:main.c        **** //I2C_1_I2CMasterReadByte(I2C_1_I2C_ACK_DATA,(uint8 *) &ver[0] ,100u);
 644:main.c        **** //I2C_1_I2CMasterReadByte(I2C_1_I2C_NAK_DATA,(uint8 *) &ver[1] ,100u);
 645:main.c        **** //I2C_1_I2CMasterSendStop(100u);
 646:main.c        **** //
 647:main.c        **** //sprintf(str, "power 2 volt: %d %d    volt 16: %d\n", ver[0], ver[1],sensorData.voltFan);
 648:main.c        **** //MyUART_PutString(str);
 649:main.c        **** //
 650:main.c        **** //I2C_1_I2CMasterSendStart(ADDR_POWER3,I2C_1_I2C_WRITE_XFER_MODE, 100u);
 651:main.c        **** //I2C_1_I2CMasterWriteByte(0x06, 100u);
 652:main.c        **** //I2C_1_I2CMasterSendStop(100u);
 653:main.c        **** //I2C_1_I2CMasterSendStart(ADDR_POWER3, I2C_1_I2C_READ_XFER_MODE, 100u);
 654:main.c        **** //I2C_1_I2CMasterReadByte(I2C_1_I2C_ACK_DATA,(uint8 *) &ver[0] ,100u);
 655:main.c        **** //I2C_1_I2CMasterReadByte(I2C_1_I2C_NAK_DATA,(uint8 *) &ver[1] ,100u);
 656:main.c        **** //I2C_1_I2CMasterSendStop(100u);
 657:main.c        **** //
 658:main.c        **** //sprintf(str, "power 3 volt: %d %d    volt 16: %d\n", ver[0], ver[1],sensorData.volt);
 659:main.c        **** //MyUART_PutString(str);
 660:main.c        **** //// -------   FREQ ---------------------------------------------------------------
 661:main.c        **** //I2C_1_I2CMasterSendStart(ADDR_POWER1,I2C_1_I2C_WRITE_XFER_MODE, 100u);
 662:main.c        **** //I2C_1_I2CMasterWriteByte(0x08, 100u);
 663:main.c        **** //I2C_1_I2CMasterSendStop(100u);
 664:main.c        **** //I2C_1_I2CMasterSendStart(ADDR_POWER1, I2C_1_I2C_READ_XFER_MODE, 100u);
 665:main.c        **** //I2C_1_I2CMasterReadByte(I2C_1_I2C_ACK_DATA,(uint8 *) &ver[0] ,100u);
 666:main.c        **** //I2C_1_I2CMasterReadByte(I2C_1_I2C_NAK_DATA,(uint8 *) &ver[1] ,100u);
 667:main.c        **** //I2C_1_I2CMasterSendStop(100u);
 668:main.c        **** //
 669:main.c        **** //sensorData.lineFreqComp = ((ver[0] << 8) || ver[1]);
 670:main.c        **** //
 671:main.c        **** //sprintf(str, "power 1 freq: %d %d    freq 16: %d\n", ver[0], ver[1],sensorData.lineFreqComp);
 672:main.c        **** //MyUART_PutString(str);
 673:main.c        **** //
 674:main.c        **** //I2C_1_I2CMasterSendStart(ADDR_POWER2,I2C_1_I2C_WRITE_XFER_MODE, 100u);
 675:main.c        **** //I2C_1_I2CMasterWriteByte(0x08, 100u);
 676:main.c        **** //I2C_1_I2CMasterSendStop(100u);
 677:main.c        **** //I2C_1_I2CMasterSendStart(ADDR_POWER2, I2C_1_I2C_READ_XFER_MODE, 100u);
 678:main.c        **** //I2C_1_I2CMasterReadByte(I2C_1_I2C_ACK_DATA,(uint8 *) &ver[0] ,100u);
 679:main.c        **** //I2C_1_I2CMasterReadByte(I2C_1_I2C_NAK_DATA,(uint8 *) &ver[1] ,100u);
 680:main.c        **** //I2C_1_I2CMasterSendStop(100u);
 681:main.c        **** //
 682:main.c        **** //sensorData.lineFreqFan = ((ver[0] << 8) || ver[1]);
 683:main.c        **** //
 684:main.c        **** //sprintf(str, "power 2 freq: %d %d    freq 16: %d\n", ver[0], ver[1],sensorData.lineFreqFan);
 685:main.c        **** //MyUART_PutString(str);
 686:main.c        **** //
 687:main.c        **** //I2C_1_I2CMasterSendStart(ADDR_POWER3,I2C_1_I2C_WRITE_XFER_MODE, 100u);
 688:main.c        **** //I2C_1_I2CMasterWriteByte(0x08, 100u);
 689:main.c        **** //I2C_1_I2CMasterSendStop(100u);
 690:main.c        **** //I2C_1_I2CMasterSendStart(ADDR_POWER3, I2C_1_I2C_READ_XFER_MODE, 100u);
ARM GAS  C:\Users\sergio\AppData\Local\Temp\ccZ8BvM2.s 			page 45


 691:main.c        **** //I2C_1_I2CMasterReadByte(I2C_1_I2C_ACK_DATA,(uint8 *) &ver[0] ,100u);
 692:main.c        **** //I2C_1_I2CMasterReadByte(I2C_1_I2C_NAK_DATA,(uint8 *) &ver[1] ,100u);
 693:main.c        **** //I2C_1_I2CMasterSendStop(100u);
 694:main.c        **** //
 695:main.c        **** //sensorData.lineFreq = ((ver[0] << 8) | ver[1]);
 696:main.c        **** //
 697:main.c        **** //sprintf(str, "power 3 freq: %d %d    freq 16: %d\n", ver[0], ver[1],sensorData.lineFreq);
 698:main.c        **** //MyUART_PutString(str);
 699:main.c        **** //
 700:main.c        **** //// -------------   current ---------------
 701:main.c        **** //uint8 currentRead[4] = {0,0,0,0};
 702:main.c        **** //
 703:main.c        **** //I2C_1_I2CMasterSendStart(ADDR_POWER1,I2C_1_I2C_WRITE_XFER_MODE, 100u);
 704:main.c        **** //I2C_1_I2CMasterWriteByte(0x0E, 100u);
 705:main.c        **** //I2C_1_I2CMasterSendStop(100u);
 706:main.c        **** //I2C_1_I2CMasterSendStart(ADDR_POWER1, I2C_1_I2C_READ_XFER_MODE, 100u);
 707:main.c        **** //I2C_1_I2CMasterReadByte(I2C_1_I2C_ACK_DATA,(uint8 *) &currentRead[0] ,100u);
 708:main.c        **** //I2C_1_I2CMasterReadByte(I2C_1_I2C_ACK_DATA,(uint8 *) &currentRead[1] ,100u);
 709:main.c        **** //I2C_1_I2CMasterReadByte(I2C_1_I2C_ACK_DATA,(uint8 *) &currentRead[2] ,100u);
 710:main.c        **** //I2C_1_I2CMasterReadByte(I2C_1_I2C_NAK_DATA,(uint8 *) &currentRead[3] ,100u);
 711:main.c        **** //I2C_1_I2CMasterSendStop(100u);
 712:main.c        **** //
 713:main.c        **** //sensorData.currentCompressor = (currentRead[0] << 24);
 714:main.c        **** //sensorData.currentCompressor = (currentRead[1] << 16);
 715:main.c        **** //sensorData.currentCompressor = (currentRead[2] << 8);
 716:main.c        **** //sensorData.currentCompressor |= (currentRead[3]);
 717:main.c        **** //
 718:main.c        **** //
 719:main.c        **** //sprintf(str, "power 1 volt: %d %d    volt 16: %lu\n", ver[0], ver[1],sensorData.currentCompressor
 720:main.c        **** //MyUART_PutString(str);
 721:main.c        **** //
 722:main.c        **** //I2C_1_I2CMasterSendStart(ADDR_POWER2,I2C_1_I2C_WRITE_XFER_MODE, 100u);
 723:main.c        **** //I2C_1_I2CMasterWriteByte(0x0E, 100u);
 724:main.c        **** //I2C_1_I2CMasterSendStop(100u);
 725:main.c        **** //I2C_1_I2CMasterSendStart(ADDR_POWER2, I2C_1_I2C_READ_XFER_MODE, 100u);
 726:main.c        **** //I2C_1_I2CMasterReadByte(I2C_1_I2C_ACK_DATA,(uint8 *) &currentRead[0] ,100u);
 727:main.c        **** //I2C_1_I2CMasterReadByte(I2C_1_I2C_ACK_DATA,(uint8 *) &currentRead[1] ,100u);
 728:main.c        **** //I2C_1_I2CMasterReadByte(I2C_1_I2C_ACK_DATA,(uint8 *) &currentRead[2] ,100u);
 729:main.c        **** //I2C_1_I2CMasterReadByte(I2C_1_I2C_NAK_DATA,(uint8 *) &currentRead[3] ,100u);
 730:main.c        **** //I2C_1_I2CMasterSendStop(100u);
 731:main.c        **** //
 732:main.c        **** //sensorData.currentFan = (currentRead[0] << 24);
 733:main.c        **** //sensorData.currentFan = (currentRead[1] << 16);
 734:main.c        **** //sensorData.currentFan = (currentRead[2] << 8);
 735:main.c        **** //sensorData.currentFan |= (currentRead[3]);
 736:main.c        **** //
 737:main.c        **** //sprintf(str, "power 2 current %lu\n", sensorData.currentFan);
 738:main.c        **** //MyUART_PutString(str);
 739:main.c        **** //
 740:main.c        **** //I2C_1_I2CMasterSendStart(ADDR_POWER3,I2C_1_I2C_WRITE_XFER_MODE, 100u);
 741:main.c        **** //I2C_1_I2CMasterWriteByte(0x0E, 100u);
 742:main.c        **** //I2C_1_I2CMasterSendStop(100u);
 743:main.c        **** //I2C_1_I2CMasterSendStart(ADDR_POWER3, I2C_1_I2C_READ_XFER_MODE, 100u);
 744:main.c        **** //I2C_1_I2CMasterReadByte(I2C_1_I2C_ACK_DATA,(uint8 *) &currentRead[0] ,100u);
 745:main.c        **** //I2C_1_I2CMasterReadByte(I2C_1_I2C_ACK_DATA,(uint8 *) &currentRead[1] ,100u);
 746:main.c        **** //I2C_1_I2CMasterReadByte(I2C_1_I2C_ACK_DATA,(uint8 *) &currentRead[2] ,100u);
 747:main.c        **** //I2C_1_I2CMasterReadByte(I2C_1_I2C_NAK_DATA,(uint8 *) &currentRead[3] ,100u);
ARM GAS  C:\Users\sergio\AppData\Local\Temp\ccZ8BvM2.s 			page 46


 748:main.c        **** //I2C_1_I2CMasterSendStop(100u);
 749:main.c        **** //
 750:main.c        **** //sensorData.current = (currentRead[0] << 24);
 751:main.c        **** //sensorData.current = (currentRead[1] << 16);
 752:main.c        **** //sensorData.current = (currentRead[2] << 8);
 753:main.c        **** //sensorData.current |= (currentRead[3]);
 754:main.c        **** //
 755:main.c        **** //sprintf(str, "power 3 current %lu\n", sensorData.current);
 756:main.c        **** //MyUART_PutString(str);
 757:main.c        **** 
 758:main.c        **** 
 759:main.c        **** //       }
 760:main.c        **** //  }// end of adc
 761:main.c        **** //   else if(adcRead <= 10) {
 762:main.c        **** ////        if(adcRead <395){
 763:main.c        **** //            CEPIN_Write(0);
 764:main.c        **** ////        }
 765:main.c        **** //    }
 766:main.c        **** 
 767:main.c        **** // --------------- AIR FLOW -------------
 768:main.c        **** 
 769:main.c        ****     //read_Air_Flow();
 770:main.c        **** 
 771:main.c        **** // ----- BLE CODE ----------
 772:main.c        **** 
 773:main.c        **** 
 774:main.c        ****      if(bleConnected == 1){ ///
 1720              		.loc 1 774 0
 1721 04de B74B     		ldr	r3, .L74+8
 1722 04e0 1B78     		ldrb	r3, [r3]
 1723 04e2 012B     		cmp	r3, #1
 1724 04e4 24D1     		bne	.L49
 775:main.c        ****                 RED_Write(1);
 1725              		.loc 1 775 0
 1726 04e6 0120     		movs	r0, #1
 1727 04e8 FFF7FEFF 		bl	RED_Write
 776:main.c        ****                 
 777:main.c        ****             updateNotificationCCCD();
 1728              		.loc 1 777 0
 1729 04ec FFF7FEFF 		bl	updateNotificationCCCD
 778:main.c        ****             
 779:main.c        ****             if(isNotify == 1){
 1730              		.loc 1 779 0
 1731 04f0 B34B     		ldr	r3, .L74+12
 1732 04f2 1B78     		ldrb	r3, [r3]
 1733 04f4 012B     		cmp	r3, #1
 1734 04f6 13D1     		bne	.L50
 780:main.c        ****                 GREEN_Write(1);
 1735              		.loc 1 780 0
 1736 04f8 0120     		movs	r0, #1
 1737 04fa FFF7FEFF 		bl	GREEN_Write
 781:main.c        ****                 if(CyBle_GattGetBusStatus() == CYBLE_STACK_STATE_FREE){
 1738              		.loc 1 781 0
 1739 04fe B14B     		ldr	r3, .L74+16
 1740 0500 1B78     		ldrb	r3, [r3]
 1741 0502 DBB2     		uxtb	r3, r3
 1742 0504 002B     		cmp	r3, #0
ARM GAS  C:\Users\sergio\AppData\Local\Temp\ccZ8BvM2.s 			page 47


 1743 0506 22D1     		bne	.L53
 782:main.c        ****                  BLUE_Write(!BLUE_Read());
 1744              		.loc 1 782 0
 1745 0508 FFF7FEFF 		bl	BLUE_Read
 1746 050c 0300     		movs	r3, r0
 1747 050e 5A42     		rsbs	r2, r3, #0
 1748 0510 5341     		adcs	r3, r3, r2
 1749 0512 DBB2     		uxtb	r3, r3
 1750 0514 1800     		movs	r0, r3
 1751 0516 FFF7FEFF 		bl	BLUE_Write
 783:main.c        ****                     SendDataNotify();
 1752              		.loc 1 783 0
 1753 051a FFF7FEFF 		bl	SendDataNotify
 1754 051e 16E0     		b	.L53
 1755              	.L50:
 784:main.c        ****                  //BLUE_Write(1);
 785:main.c        ****                }
 786:main.c        ****             } // end of notification
 787:main.c        ****             else{
 788:main.c        ****                 thermo.ambientTemp = sensorData.localTemp;
 1756              		.loc 1 788 0
 1757 0520 A94B     		ldr	r3, .L74+20
 1758 0522 1A78     		ldrb	r2, [r3]
 1759 0524 A94B     		ldr	r3, .L74+24
 1760 0526 1A71     		strb	r2, [r3, #4]
 789:main.c        ****                 
 790:main.c        ****                 GREEN_Write(0);
 1761              		.loc 1 790 0
 1762 0528 0020     		movs	r0, #0
 1763 052a FFF7FEFF 		bl	GREEN_Write
 1764 052e 0EE0     		b	.L53
 1765              	.L49:
 791:main.c        ****                 
 792:main.c        ****             } //end of read/write 
 793:main.c        ****         } // end ble connected if  
 794:main.c        ****     else{
 795:main.c        ****         RED_Write(!RED_Read());
 1766              		.loc 1 795 0
 1767 0530 FFF7FEFF 		bl	RED_Read
 1768 0534 0300     		movs	r3, r0
 1769 0536 5A42     		rsbs	r2, r3, #0
 1770 0538 5341     		adcs	r3, r3, r2
 1771 053a DBB2     		uxtb	r3, r3
 1772 053c 1800     		movs	r0, r3
 1773 053e FFF7FEFF 		bl	RED_Write
 796:main.c        ****         GREEN_Write(1);
 1774              		.loc 1 796 0
 1775 0542 0120     		movs	r0, #1
 1776 0544 FFF7FEFF 		bl	GREEN_Write
 797:main.c        ****         BLUE_Write(1);
 1777              		.loc 1 797 0
 1778 0548 0120     		movs	r0, #1
 1779 054a FFF7FEFF 		bl	BLUE_Write
 1780              	.L53:
 798:main.c        ****     }
 799:main.c        ****     interruptFlag = 0;
 1781              		.loc 1 799 0 discriminator 2
ARM GAS  C:\Users\sergio\AppData\Local\Temp\ccZ8BvM2.s 			page 48


 1782 054e A04B     		ldr	r3, .L74+28
 1783 0550 0022     		movs	r2, #0
 1784 0552 1A60     		str	r2, [r3]
 1785              	.L46:
 1786              	.LBE3:
 800:main.c        ****     }// end if int flag
 801:main.c        **** 
 802:main.c        **** // --------------------   control relays and high switch  -----------------
 803:main.c        **** //  0x04 comp  0x08 low fan   0x10 high  fan  gipo masks for checking pins
 804:main.c        **** 
 805:main.c        **** if (bleConnected == 1){
 1787              		.loc 1 805 0
 1788 0554 994B     		ldr	r3, .L74+8
 1789 0556 1B78     		ldrb	r3, [r3]
 1790 0558 012B     		cmp	r3, #1
 1791 055a 00D0     		beq	.LCB1382
 1792 055c F4E0     		b	.L54	@long jump
 1793              	.LCB1382:
 806:main.c        **** 
 807:main.c        ****         if(thermo.power == 1){
 1794              		.loc 1 807 0
 1795 055e 9B4B     		ldr	r3, .L74+24
 1796 0560 5B79     		ldrb	r3, [r3, #5]
 1797 0562 012B     		cmp	r3, #1
 1798 0564 4ED1     		bne	.L55
 808:main.c        ****             if(thermo.compressor == 1){
 1799              		.loc 1 808 0
 1800 0566 994B     		ldr	r3, .L74+24
 1801 0568 1B78     		ldrb	r3, [r3]
 1802 056a 012B     		cmp	r3, #1
 1803 056c 29D1     		bne	.L56
 809:main.c        ****                 //if the temperature of ambient is higher than the temprature set turn on the compr
 810:main.c        ****                 if(sensorData.localTemp > (thermo.setTemperature+2)){
 1804              		.loc 1 810 0
 1805 056e 964B     		ldr	r3, .L74+20
 1806 0570 1B78     		ldrb	r3, [r3]
 1807 0572 1A00     		movs	r2, r3
 1808 0574 954B     		ldr	r3, .L74+24
 1809 0576 DB78     		ldrb	r3, [r3, #3]
 1810 0578 0233     		adds	r3, r3, #2
 1811 057a 9A42     		cmp	r2, r3
 1812 057c 0CDD     		ble	.L57
 811:main.c        ****                     if(sensorData.localTemp > thermo.setTemperature){
 1813              		.loc 1 811 0
 1814 057e 924B     		ldr	r3, .L74+20
 1815 0580 1A78     		ldrb	r2, [r3]
 1816 0582 924B     		ldr	r3, .L74+24
 1817 0584 DB78     		ldrb	r3, [r3, #3]
 1818 0586 9A42     		cmp	r2, r3
 1819 0588 21D9     		bls	.L60
 812:main.c        ****                        RelayC_3_Write(0);
 1820              		.loc 1 812 0
 1821 058a 0020     		movs	r0, #0
 1822 058c FFF7FEFF 		bl	RelayC_3_Write
 813:main.c        ****                        Comp_out_Write(1);
 1823              		.loc 1 813 0
 1824 0590 0120     		movs	r0, #1
ARM GAS  C:\Users\sergio\AppData\Local\Temp\ccZ8BvM2.s 			page 49


 1825 0592 FFF7FEFF 		bl	Comp_out_Write
 1826 0596 1AE0     		b	.L60
 1827              	.L57:
 814:main.c        ****                     }
 815:main.c        ****                 }
 816:main.c        ****                 // if the ambient temperature is equal or less to the set temperature turn off the 
 817:main.c        ****                 else if(sensorData.localTemp <= (thermo.setTemperature-2)){
 1828              		.loc 1 817 0
 1829 0598 8B4B     		ldr	r3, .L74+20
 1830 059a 1B78     		ldrb	r3, [r3]
 1831 059c 1A00     		movs	r2, r3
 1832 059e 8B4B     		ldr	r3, .L74+24
 1833 05a0 DB78     		ldrb	r3, [r3, #3]
 1834 05a2 023B     		subs	r3, r3, #2
 1835 05a4 9A42     		cmp	r2, r3
 1836 05a6 12DC     		bgt	.L60
 818:main.c        ****                     if(sensorData.localTemp <= thermo.setTemperature){
 1837              		.loc 1 818 0
 1838 05a8 874B     		ldr	r3, .L74+20
 1839 05aa 1A78     		ldrb	r2, [r3]
 1840 05ac 874B     		ldr	r3, .L74+24
 1841 05ae DB78     		ldrb	r3, [r3, #3]
 1842 05b0 9A42     		cmp	r2, r3
 1843 05b2 0CD8     		bhi	.L60
 819:main.c        ****                       RelayC_3_Write(1);
 1844              		.loc 1 819 0
 1845 05b4 0120     		movs	r0, #1
 1846 05b6 FFF7FEFF 		bl	RelayC_3_Write
 820:main.c        ****                       Comp_out_Write(0);
 1847              		.loc 1 820 0
 1848 05ba 0020     		movs	r0, #0
 1849 05bc FFF7FEFF 		bl	Comp_out_Write
 1850 05c0 05E0     		b	.L60
 1851              	.L56:
 821:main.c        ****                     }
 822:main.c        ****                 }
 823:main.c        ****              } // end comp on
 824:main.c        ****            else{
 825:main.c        ****              RelayC_3_Write(1);
 1852              		.loc 1 825 0
 1853 05c2 0120     		movs	r0, #1
 1854 05c4 FFF7FEFF 		bl	RelayC_3_Write
 826:main.c        ****              Comp_out_Write(0);
 1855              		.loc 1 826 0
 1856 05c8 0020     		movs	r0, #0
 1857 05ca FFF7FEFF 		bl	Comp_out_Write
 1858              	.L60:
 827:main.c        ****            }
 828:main.c        ****             
 829:main.c        ****             RelayLF_1_Write(!thermo.fanLow);
 1859              		.loc 1 829 0
 1860 05ce 7F4B     		ldr	r3, .L74+24
 1861 05d0 5B78     		ldrb	r3, [r3, #1]
 1862 05d2 5A42     		rsbs	r2, r3, #0
 1863 05d4 5341     		adcs	r3, r3, r2
 1864 05d6 DBB2     		uxtb	r3, r3
 1865 05d8 1800     		movs	r0, r3
ARM GAS  C:\Users\sergio\AppData\Local\Temp\ccZ8BvM2.s 			page 50


 1866 05da FFF7FEFF 		bl	RelayLF_1_Write
 830:main.c        ****             LowF_out_Write(thermo.fanLow);
 1867              		.loc 1 830 0
 1868 05de 7B4B     		ldr	r3, .L74+24
 1869 05e0 5B78     		ldrb	r3, [r3, #1]
 1870 05e2 1800     		movs	r0, r3
 1871 05e4 FFF7FEFF 		bl	LowF_out_Write
 831:main.c        ****             
 832:main.c        ****             RelayHF_2_Write(!thermo.fanHigh);
 1872              		.loc 1 832 0
 1873 05e8 784B     		ldr	r3, .L74+24
 1874 05ea 9B78     		ldrb	r3, [r3, #2]
 1875 05ec 5A42     		rsbs	r2, r3, #0
 1876 05ee 5341     		adcs	r3, r3, r2
 1877 05f0 DBB2     		uxtb	r3, r3
 1878 05f2 1800     		movs	r0, r3
 1879 05f4 FFF7FEFF 		bl	RelayHF_2_Write
 833:main.c        ****             LowF_out_Write(thermo.fanHigh);
 1880              		.loc 1 833 0
 1881 05f8 744B     		ldr	r3, .L74+24
 1882 05fa 9B78     		ldrb	r3, [r3, #2]
 1883 05fc 1800     		movs	r0, r3
 1884 05fe FFF7FEFF 		bl	LowF_out_Write
 1885 0602 D1E0     		b	.L69
 1886              	.L55:
 834:main.c        ****         }
 835:main.c        ****         else if(thermo.power == 0){
 1887              		.loc 1 835 0
 1888 0604 714B     		ldr	r3, .L74+24
 1889 0606 5B79     		ldrb	r3, [r3, #5]
 1890 0608 002B     		cmp	r3, #0
 1891 060a 12D1     		bne	.L62
 836:main.c        ****             RelayC_3_Write(1);
 1892              		.loc 1 836 0
 1893 060c 0120     		movs	r0, #1
 1894 060e FFF7FEFF 		bl	RelayC_3_Write
 837:main.c        ****             Comp_out_Write(0);
 1895              		.loc 1 837 0
 1896 0612 0020     		movs	r0, #0
 1897 0614 FFF7FEFF 		bl	Comp_out_Write
 838:main.c        ****             
 839:main.c        ****             RelayLF_1_Write(1);
 1898              		.loc 1 839 0
 1899 0618 0120     		movs	r0, #1
 1900 061a FFF7FEFF 		bl	RelayLF_1_Write
 840:main.c        ****             LowF_out_Write(0);
 1901              		.loc 1 840 0
 1902 061e 0020     		movs	r0, #0
 1903 0620 FFF7FEFF 		bl	LowF_out_Write
 841:main.c        ****             
 842:main.c        ****             RelayHF_2_Write(1);
 1904              		.loc 1 842 0
 1905 0624 0120     		movs	r0, #1
 1906 0626 FFF7FEFF 		bl	RelayHF_2_Write
 843:main.c        ****             LowF_out_Write(0);
 1907              		.loc 1 843 0
 1908 062a 0020     		movs	r0, #0
ARM GAS  C:\Users\sergio\AppData\Local\Temp\ccZ8BvM2.s 			page 51


 1909 062c FFF7FEFF 		bl	LowF_out_Write
 1910 0630 BAE0     		b	.L69
 1911              	.L62:
 844:main.c        ****         }
 845:main.c        ****         
 846:main.c        ****         else if(thermo.test ==1){
 1912              		.loc 1 846 0
 1913 0632 664B     		ldr	r3, .L74+24
 1914 0634 9B79     		ldrb	r3, [r3, #6]
 1915 0636 012B     		cmp	r3, #1
 1916 0638 00D0     		beq	.LCB1488
 1917 063a B5E0     		b	.L69	@long jump
 1918              	.LCB1488:
 847:main.c        ****             if(thermo.power == 0){
 1919              		.loc 1 847 0
 1920 063c 634B     		ldr	r3, .L74+24
 1921 063e 5B79     		ldrb	r3, [r3, #5]
 1922 0640 002B     		cmp	r3, #0
 1923 0642 12D1     		bne	.L63
 848:main.c        ****                  RelayC_3_Write(1);
 1924              		.loc 1 848 0
 1925 0644 0120     		movs	r0, #1
 1926 0646 FFF7FEFF 		bl	RelayC_3_Write
 849:main.c        ****                  Comp_out_Write(0);
 1927              		.loc 1 849 0
 1928 064a 0020     		movs	r0, #0
 1929 064c FFF7FEFF 		bl	Comp_out_Write
 850:main.c        ****                 
 851:main.c        ****                  RelayLF_1_Write(1);
 1930              		.loc 1 851 0
 1931 0650 0120     		movs	r0, #1
 1932 0652 FFF7FEFF 		bl	RelayLF_1_Write
 852:main.c        ****                  LowF_out_Write(0);
 1933              		.loc 1 852 0
 1934 0656 0020     		movs	r0, #0
 1935 0658 FFF7FEFF 		bl	LowF_out_Write
 853:main.c        ****             
 854:main.c        ****                  RelayHF_2_Write(1);
 1936              		.loc 1 854 0
 1937 065c 0120     		movs	r0, #1
 1938 065e FFF7FEFF 		bl	RelayHF_2_Write
 855:main.c        ****                  LowF_out_Write(0);
 1939              		.loc 1 855 0
 1940 0662 0020     		movs	r0, #0
 1941 0664 FFF7FEFF 		bl	LowF_out_Write
 1942 0668 9EE0     		b	.L69
 1943              	.L63:
 856:main.c        ****             }
 857:main.c        ****                 
 858:main.c        ****             else if(thermo.power == 1){
 1944              		.loc 1 858 0
 1945 066a 584B     		ldr	r3, .L74+24
 1946 066c 5B79     		ldrb	r3, [r3, #5]
 1947 066e 012B     		cmp	r3, #1
 1948 0670 00D0     		beq	.LCB1512
 1949 0672 99E0     		b	.L69	@long jump
 1950              	.LCB1512:
ARM GAS  C:\Users\sergio\AppData\Local\Temp\ccZ8BvM2.s 			page 52


 859:main.c        ****                 if(thermo.compressor == 1){
 1951              		.loc 1 859 0
 1952 0674 554B     		ldr	r3, .L74+24
 1953 0676 1B78     		ldrb	r3, [r3]
 1954 0678 012B     		cmp	r3, #1
 1955 067a 0DD1     		bne	.L64
 860:main.c        ****                     //if(sensorData.voltCompressor > 0){
 861:main.c        ****                         //if(sensorData.currentCompressor > 0){
 862:main.c        ****                             RelayC_3_Write(!thermo.compressor);
 1956              		.loc 1 862 0
 1957 067c 534B     		ldr	r3, .L74+24
 1958 067e 1B78     		ldrb	r3, [r3]
 1959 0680 5A42     		rsbs	r2, r3, #0
 1960 0682 5341     		adcs	r3, r3, r2
 1961 0684 DBB2     		uxtb	r3, r3
 1962 0686 1800     		movs	r0, r3
 1963 0688 FFF7FEFF 		bl	RelayC_3_Write
 863:main.c        ****                             Comp_out_Write(thermo.compressor);
 1964              		.loc 1 863 0
 1965 068c 4F4B     		ldr	r3, .L74+24
 1966 068e 1B78     		ldrb	r3, [r3]
 1967 0690 1800     		movs	r0, r3
 1968 0692 FFF7FEFF 		bl	Comp_out_Write
 1969 0696 10E0     		b	.L65
 1970              	.L64:
 864:main.c        ****                         //}
 865:main.c        ****                     //}
 866:main.c        ****                    // else{
 867:main.c        ****                     //}
 868:main.c        ****                 }
 869:main.c        ****                 else if(thermo.compressor == 0){
 1971              		.loc 1 869 0
 1972 0698 4C4B     		ldr	r3, .L74+24
 1973 069a 1B78     		ldrb	r3, [r3]
 1974 069c 002B     		cmp	r3, #0
 1975 069e 0CD1     		bne	.L65
 870:main.c        ****                        RelayC_3_Write(!thermo.compressor);
 1976              		.loc 1 870 0
 1977 06a0 4A4B     		ldr	r3, .L74+24
 1978 06a2 1B78     		ldrb	r3, [r3]
 1979 06a4 5A42     		rsbs	r2, r3, #0
 1980 06a6 5341     		adcs	r3, r3, r2
 1981 06a8 DBB2     		uxtb	r3, r3
 1982 06aa 1800     		movs	r0, r3
 1983 06ac FFF7FEFF 		bl	RelayC_3_Write
 871:main.c        ****                        Comp_out_Write(thermo.compressor);
 1984              		.loc 1 871 0
 1985 06b0 464B     		ldr	r3, .L74+24
 1986 06b2 1B78     		ldrb	r3, [r3]
 1987 06b4 1800     		movs	r0, r3
 1988 06b6 FFF7FEFF 		bl	Comp_out_Write
 1989              	.L65:
 872:main.c        ****                 }
 873:main.c        ****                 
 874:main.c        ****                  if(thermo.fanLow == 1){
 1990              		.loc 1 874 0
 1991 06ba 444B     		ldr	r3, .L74+24
ARM GAS  C:\Users\sergio\AppData\Local\Temp\ccZ8BvM2.s 			page 53


 1992 06bc 5B78     		ldrb	r3, [r3, #1]
 1993 06be 012B     		cmp	r3, #1
 1994 06c0 0DD1     		bne	.L66
 875:main.c        ****                     //if(sensorData.voltCompressor > 0){
 876:main.c        ****                         //if(sensorData.currentCompressor > 0){
 877:main.c        ****               
 878:main.c        ****                             RelayLF_1_Write(!thermo.fanLow);
 1995              		.loc 1 878 0
 1996 06c2 424B     		ldr	r3, .L74+24
 1997 06c4 5B78     		ldrb	r3, [r3, #1]
 1998 06c6 5A42     		rsbs	r2, r3, #0
 1999 06c8 5341     		adcs	r3, r3, r2
 2000 06ca DBB2     		uxtb	r3, r3
 2001 06cc 1800     		movs	r0, r3
 2002 06ce FFF7FEFF 		bl	RelayLF_1_Write
 879:main.c        ****                             LowF_out_Write(thermo.fanLow);
 2003              		.loc 1 879 0
 2004 06d2 3E4B     		ldr	r3, .L74+24
 2005 06d4 5B78     		ldrb	r3, [r3, #1]
 2006 06d6 1800     		movs	r0, r3
 2007 06d8 FFF7FEFF 		bl	LowF_out_Write
 2008 06dc 10E0     		b	.L67
 2009              	.L66:
 880:main.c        ****                         //}
 881:main.c        ****                     //}
 882:main.c        ****                    // else{
 883:main.c        ****                     //}
 884:main.c        ****                 }
 885:main.c        ****                 else if(thermo.fanLow == 0){
 2010              		.loc 1 885 0
 2011 06de 3B4B     		ldr	r3, .L74+24
 2012 06e0 5B78     		ldrb	r3, [r3, #1]
 2013 06e2 002B     		cmp	r3, #0
 2014 06e4 0CD1     		bne	.L67
 886:main.c        ****                     RelayLF_1_Write(!thermo.fanLow);
 2015              		.loc 1 886 0
 2016 06e6 394B     		ldr	r3, .L74+24
 2017 06e8 5B78     		ldrb	r3, [r3, #1]
 2018 06ea 5A42     		rsbs	r2, r3, #0
 2019 06ec 5341     		adcs	r3, r3, r2
 2020 06ee DBB2     		uxtb	r3, r3
 2021 06f0 1800     		movs	r0, r3
 2022 06f2 FFF7FEFF 		bl	RelayLF_1_Write
 887:main.c        ****                     LowF_out_Write(thermo.fanLow);
 2023              		.loc 1 887 0
 2024 06f6 354B     		ldr	r3, .L74+24
 2025 06f8 5B78     		ldrb	r3, [r3, #1]
 2026 06fa 1800     		movs	r0, r3
 2027 06fc FFF7FEFF 		bl	LowF_out_Write
 2028              	.L67:
 888:main.c        ****                 }
 889:main.c        ****                 
 890:main.c        ****                 if(thermo.fanLow == 1){
 2029              		.loc 1 890 0
 2030 0700 324B     		ldr	r3, .L74+24
 2031 0702 5B78     		ldrb	r3, [r3, #1]
 2032 0704 012B     		cmp	r3, #1
ARM GAS  C:\Users\sergio\AppData\Local\Temp\ccZ8BvM2.s 			page 54


 2033 0706 0DD1     		bne	.L68
 891:main.c        ****                  //if(sensorData.voltCompressor > 0){
 892:main.c        ****                     //if(sensorData.currentCompressor > 0){
 893:main.c        ****                     
 894:main.c        ****                     RelayHF_2_Write(!thermo.fanHigh);
 2034              		.loc 1 894 0
 2035 0708 304B     		ldr	r3, .L74+24
 2036 070a 9B78     		ldrb	r3, [r3, #2]
 2037 070c 5A42     		rsbs	r2, r3, #0
 2038 070e 5341     		adcs	r3, r3, r2
 2039 0710 DBB2     		uxtb	r3, r3
 2040 0712 1800     		movs	r0, r3
 2041 0714 FFF7FEFF 		bl	RelayHF_2_Write
 895:main.c        ****                     LowF_out_Write(thermo.fanHigh);
 2042              		.loc 1 895 0
 2043 0718 2C4B     		ldr	r3, .L74+24
 2044 071a 9B78     		ldrb	r3, [r3, #2]
 2045 071c 1800     		movs	r0, r3
 2046 071e FFF7FEFF 		bl	LowF_out_Write
 2047 0722 41E0     		b	.L69
 2048              	.L68:
 896:main.c        ****                     //}
 897:main.c        ****                     //}
 898:main.c        ****                    // else{
 899:main.c        ****                     //}
 900:main.c        ****                 }
 901:main.c        ****                  else if(thermo.fanHigh == 0){
 2049              		.loc 1 901 0
 2050 0724 294B     		ldr	r3, .L74+24
 2051 0726 9B78     		ldrb	r3, [r3, #2]
 2052 0728 002B     		cmp	r3, #0
 2053 072a 3DD1     		bne	.L69
 902:main.c        ****                     RelayHF_2_Write(!thermo.fanHigh);
 2054              		.loc 1 902 0
 2055 072c 274B     		ldr	r3, .L74+24
 2056 072e 9B78     		ldrb	r3, [r3, #2]
 2057 0730 5A42     		rsbs	r2, r3, #0
 2058 0732 5341     		adcs	r3, r3, r2
 2059 0734 DBB2     		uxtb	r3, r3
 2060 0736 1800     		movs	r0, r3
 2061 0738 FFF7FEFF 		bl	RelayHF_2_Write
 903:main.c        ****                     LowF_out_Write(thermo.fanHigh);
 2062              		.loc 1 903 0
 2063 073c 234B     		ldr	r3, .L74+24
 2064 073e 9B78     		ldrb	r3, [r3, #2]
 2065 0740 1800     		movs	r0, r3
 2066 0742 FFF7FEFF 		bl	LowF_out_Write
 2067 0746 2FE0     		b	.L69
 2068              	.L54:
 904:main.c        ****                 }
 905:main.c        ****                 
 906:main.c        ****             }
 907:main.c        ****         }
 908:main.c        ****   
 909:main.c        **** } // end of ble connected 
 910:main.c        **** else{
 911:main.c        ****    
ARM GAS  C:\Users\sergio\AppData\Local\Temp\ccZ8BvM2.s 			page 55


 912:main.c        ****     
 913:main.c        ****     RelayC_3_Write( !comp);
 2069              		.loc 1 913 0
 2070 0748 FB6D     		ldr	r3, [r7, #92]
 2071 074a 5A42     		rsbs	r2, r3, #0
 2072 074c 5341     		adcs	r3, r3, r2
 2073 074e DBB2     		uxtb	r3, r3
 2074 0750 1800     		movs	r0, r3
 2075 0752 FFF7FEFF 		bl	RelayC_3_Write
 914:main.c        ****     Comp_out_Write(comp);
 2076              		.loc 1 914 0
 2077 0756 FB6D     		ldr	r3, [r7, #92]
 2078 0758 DBB2     		uxtb	r3, r3
 2079 075a 1800     		movs	r0, r3
 2080 075c FFF7FEFF 		bl	Comp_out_Write
 915:main.c        ****     thermo.compressor = comp;
 2081              		.loc 1 915 0
 2082 0760 FB6D     		ldr	r3, [r7, #92]
 2083 0762 DAB2     		uxtb	r2, r3
 2084 0764 194B     		ldr	r3, .L74+24
 2085 0766 1A70     		strb	r2, [r3]
 916:main.c        ****     
 917:main.c        ****     
 918:main.c        ****     RelayLF_1_Write(!fanL);
 2086              		.loc 1 918 0
 2087 0768 BB6D     		ldr	r3, [r7, #88]
 2088 076a 5A42     		rsbs	r2, r3, #0
 2089 076c 5341     		adcs	r3, r3, r2
 2090 076e DBB2     		uxtb	r3, r3
 2091 0770 1800     		movs	r0, r3
 2092 0772 FFF7FEFF 		bl	RelayLF_1_Write
 919:main.c        ****     LowF_out_Write(fanL);
 2093              		.loc 1 919 0
 2094 0776 BB6D     		ldr	r3, [r7, #88]
 2095 0778 DBB2     		uxtb	r3, r3
 2096 077a 1800     		movs	r0, r3
 2097 077c FFF7FEFF 		bl	LowF_out_Write
 920:main.c        ****     thermo.fanLow = fanL;
 2098              		.loc 1 920 0
 2099 0780 BB6D     		ldr	r3, [r7, #88]
 2100 0782 DAB2     		uxtb	r2, r3
 2101 0784 114B     		ldr	r3, .L74+24
 2102 0786 5A70     		strb	r2, [r3, #1]
 921:main.c        ****     
 922:main.c        ****     RelayHF_2_Write(!fanH);
 2103              		.loc 1 922 0
 2104 0788 7B6D     		ldr	r3, [r7, #84]
 2105 078a 5A42     		rsbs	r2, r3, #0
 2106 078c 5341     		adcs	r3, r3, r2
 2107 078e DBB2     		uxtb	r3, r3
 2108 0790 1800     		movs	r0, r3
 2109 0792 FFF7FEFF 		bl	RelayHF_2_Write
 923:main.c        ****     LowF_out_Write(fanH);
 2110              		.loc 1 923 0
 2111 0796 7B6D     		ldr	r3, [r7, #84]
 2112 0798 DBB2     		uxtb	r3, r3
 2113 079a 1800     		movs	r0, r3
ARM GAS  C:\Users\sergio\AppData\Local\Temp\ccZ8BvM2.s 			page 56


 2114 079c FFF7FEFF 		bl	LowF_out_Write
 924:main.c        ****     thermo.fanHigh = fanH;
 2115              		.loc 1 924 0
 2116 07a0 7B6D     		ldr	r3, [r7, #84]
 2117 07a2 DAB2     		uxtb	r2, r3
 2118 07a4 094B     		ldr	r3, .L74+24
 2119 07a6 9A70     		strb	r2, [r3, #2]
 2120              	.L69:
 925:main.c        ****    }
 926:main.c        **** 
 927:main.c        ****    
 928:main.c        **** send_Thermo_to_phone();
 2121              		.loc 1 928 0
 2122 07a8 FFF7FEFF 		bl	send_Thermo_to_phone
 929:main.c        **** CyBle_ProcessEvents();
 2123              		.loc 1 929 0
 2124 07ac FFF7FEFF 		bl	CyBle_ProcessEvents
 930:main.c        ****    
 931:main.c        ****     } // end for loop
 2125              		.loc 1 931 0
 2126 07b0 81E4     		b	.L70
 2127              	.L75:
 2128 07b2 C046     		.align	2
 2129              	.L74:
 2130 07b4 00000000 		.word	gpioPins
 2131 07b8 BC010000 		.word	.LC56
 2132 07bc 00000000 		.word	bleConnected
 2133 07c0 00000000 		.word	isNotify
 2134 07c4 00000000 		.word	cyBle_busyStatus
 2135 07c8 00000000 		.word	sensorData
 2136 07cc 00000000 		.word	thermo
 2137 07d0 00000000 		.word	interruptFlag
 2138              		.cfi_endproc
 2139              	.LFE47:
 2140              		.size	main, .-main
 2141              		.text
 2142              	.Letext0:
 2143              		.file 2 "c:\\program files (x86)\\cypress\\psoc creator\\4.2\\psoc creator\\import\\gnu\\arm\\5.4.
 2144              		.file 3 "c:\\program files (x86)\\cypress\\psoc creator\\4.2\\psoc creator\\import\\gnu\\arm\\5.4.
 2145              		.file 4 "Generated_Source\\PSoC4/cytypes.h"
 2146              		.file 5 "Generated_Source\\PSoC4/BLE_1_Stack.h"
 2147              		.file 6 "Generated_Source\\PSoC4/BLE_1_StackGatt.h"
 2148              		.file 7 "Generated_Source\\PSoC4/BLE_1_StackGattServer.h"
 2149              		.file 8 "Generated_Source\\PSoC4/BLE_1_eventHandler.h"
 2150              		.section	.debug_info,"",%progbits
 2151              	.Ldebug_info0:
 2152 0000 C10A0000 		.4byte	0xac1
 2153 0004 0400     		.2byte	0x4
 2154 0006 00000000 		.4byte	.Ldebug_abbrev0
 2155 000a 04       		.byte	0x4
 2156 000b 01       		.uleb128 0x1
 2157 000c 01090000 		.4byte	.LASF234
 2158 0010 0C       		.byte	0xc
 2159 0011 48110000 		.4byte	.LASF235
 2160 0015 BD040000 		.4byte	.LASF236
 2161 0019 00000000 		.4byte	.Ldebug_ranges0+0
 2162 001d 00000000 		.4byte	0
ARM GAS  C:\Users\sergio\AppData\Local\Temp\ccZ8BvM2.s 			page 57


 2163 0021 00000000 		.4byte	.Ldebug_line0
 2164 0025 02       		.uleb128 0x2
 2165 0026 01       		.byte	0x1
 2166 0027 06       		.byte	0x6
 2167 0028 CC020000 		.4byte	.LASF0
 2168 002c 03       		.uleb128 0x3
 2169 002d 2D010000 		.4byte	.LASF9
 2170 0031 02       		.byte	0x2
 2171 0032 1D       		.byte	0x1d
 2172 0033 37000000 		.4byte	0x37
 2173 0037 02       		.uleb128 0x2
 2174 0038 01       		.byte	0x1
 2175 0039 08       		.byte	0x8
 2176 003a 2D0D0000 		.4byte	.LASF1
 2177 003e 02       		.uleb128 0x2
 2178 003f 02       		.byte	0x2
 2179 0040 05       		.byte	0x5
 2180 0041 900D0000 		.4byte	.LASF2
 2181 0045 02       		.uleb128 0x2
 2182 0046 02       		.byte	0x2
 2183 0047 07       		.byte	0x7
 2184 0048 F00D0000 		.4byte	.LASF3
 2185 004c 02       		.uleb128 0x2
 2186 004d 04       		.byte	0x4
 2187 004e 05       		.byte	0x5
 2188 004f 53010000 		.4byte	.LASF4
 2189 0053 02       		.uleb128 0x2
 2190 0054 04       		.byte	0x4
 2191 0055 07       		.byte	0x7
 2192 0056 8C060000 		.4byte	.LASF5
 2193 005a 02       		.uleb128 0x2
 2194 005b 08       		.byte	0x8
 2195 005c 05       		.byte	0x5
 2196 005d 64040000 		.4byte	.LASF6
 2197 0061 02       		.uleb128 0x2
 2198 0062 08       		.byte	0x8
 2199 0063 07       		.byte	0x7
 2200 0064 7C010000 		.4byte	.LASF7
 2201 0068 04       		.uleb128 0x4
 2202 0069 04       		.byte	0x4
 2203 006a 05       		.byte	0x5
 2204 006b 696E7400 		.ascii	"int\000"
 2205 006f 02       		.uleb128 0x2
 2206 0070 04       		.byte	0x4
 2207 0071 07       		.byte	0x7
 2208 0072 4A0F0000 		.4byte	.LASF8
 2209 0076 03       		.uleb128 0x3
 2210 0077 A8110000 		.4byte	.LASF10
 2211 007b 03       		.byte	0x3
 2212 007c 18       		.byte	0x18
 2213 007d 2C000000 		.4byte	0x2c
 2214 0081 05       		.uleb128 0x5
 2215 0082 57040000 		.4byte	.LASF11
 2216 0086 04       		.byte	0x4
 2217 0087 E401     		.2byte	0x1e4
 2218 0089 37000000 		.4byte	0x37
 2219 008d 05       		.uleb128 0x5
ARM GAS  C:\Users\sergio\AppData\Local\Temp\ccZ8BvM2.s 			page 58


 2220 008e 3B0D0000 		.4byte	.LASF12
 2221 0092 04       		.byte	0x4
 2222 0093 E501     		.2byte	0x1e5
 2223 0095 45000000 		.4byte	0x45
 2224 0099 05       		.uleb128 0x5
 2225 009a F4040000 		.4byte	.LASF13
 2226 009e 04       		.byte	0x4
 2227 009f E601     		.2byte	0x1e6
 2228 00a1 53000000 		.4byte	0x53
 2229 00a5 02       		.uleb128 0x2
 2230 00a6 04       		.byte	0x4
 2231 00a7 04       		.byte	0x4
 2232 00a8 4D0C0000 		.4byte	.LASF14
 2233 00ac 02       		.uleb128 0x2
 2234 00ad 08       		.byte	0x8
 2235 00ae 04       		.byte	0x4
 2236 00af 5D040000 		.4byte	.LASF15
 2237 00b3 02       		.uleb128 0x2
 2238 00b4 01       		.byte	0x1
 2239 00b5 08       		.byte	0x8
 2240 00b6 FE0E0000 		.4byte	.LASF16
 2241 00ba 06       		.uleb128 0x6
 2242 00bb 81000000 		.4byte	0x81
 2243 00bf 02       		.uleb128 0x2
 2244 00c0 08       		.byte	0x8
 2245 00c1 04       		.byte	0x4
 2246 00c2 CF0A0000 		.4byte	.LASF17
 2247 00c6 02       		.uleb128 0x2
 2248 00c7 04       		.byte	0x4
 2249 00c8 07       		.byte	0x7
 2250 00c9 A70A0000 		.4byte	.LASF18
 2251 00cd 07       		.uleb128 0x7
 2252 00ce 04       		.byte	0x4
 2253 00cf 08       		.uleb128 0x8
 2254 00d0 01       		.byte	0x1
 2255 00d1 37000000 		.4byte	0x37
 2256 00d5 05       		.byte	0x5
 2257 00d6 3501     		.2byte	0x135
 2258 00d8 8D020000 		.4byte	0x28d
 2259 00dc 09       		.uleb128 0x9
 2260 00dd 8E070000 		.4byte	.LASF19
 2261 00e1 00       		.byte	0
 2262 00e2 09       		.uleb128 0x9
 2263 00e3 D8020000 		.4byte	.LASF20
 2264 00e7 01       		.byte	0x1
 2265 00e8 09       		.uleb128 0x9
 2266 00e9 41010000 		.4byte	.LASF21
 2267 00ed 02       		.byte	0x2
 2268 00ee 09       		.uleb128 0x9
 2269 00ef 7D100000 		.4byte	.LASF22
 2270 00f3 03       		.byte	0x3
 2271 00f4 09       		.uleb128 0x9
 2272 00f5 A6010000 		.4byte	.LASF23
 2273 00f9 04       		.byte	0x4
 2274 00fa 09       		.uleb128 0x9
 2275 00fb 1E000000 		.4byte	.LASF24
 2276 00ff 05       		.byte	0x5
ARM GAS  C:\Users\sergio\AppData\Local\Temp\ccZ8BvM2.s 			page 59


 2277 0100 09       		.uleb128 0x9
 2278 0101 C3070000 		.4byte	.LASF25
 2279 0105 06       		.byte	0x6
 2280 0106 09       		.uleb128 0x9
 2281 0107 F4090000 		.4byte	.LASF26
 2282 010b 20       		.byte	0x20
 2283 010c 09       		.uleb128 0x9
 2284 010d 40030000 		.4byte	.LASF27
 2285 0111 21       		.byte	0x21
 2286 0112 09       		.uleb128 0x9
 2287 0113 2A080000 		.4byte	.LASF28
 2288 0117 22       		.byte	0x22
 2289 0118 09       		.uleb128 0x9
 2290 0119 57100000 		.4byte	.LASF29
 2291 011d 23       		.byte	0x23
 2292 011e 09       		.uleb128 0x9
 2293 011f 430B0000 		.4byte	.LASF30
 2294 0123 24       		.byte	0x24
 2295 0124 09       		.uleb128 0x9
 2296 0125 910E0000 		.4byte	.LASF31
 2297 0129 25       		.byte	0x25
 2298 012a 09       		.uleb128 0x9
 2299 012b E6030000 		.4byte	.LASF32
 2300 012f 26       		.byte	0x26
 2301 0130 09       		.uleb128 0x9
 2302 0131 4E080000 		.4byte	.LASF33
 2303 0135 27       		.byte	0x27
 2304 0136 09       		.uleb128 0x9
 2305 0137 230F0000 		.4byte	.LASF34
 2306 013b 28       		.byte	0x28
 2307 013c 09       		.uleb128 0x9
 2308 013d 2D020000 		.4byte	.LASF35
 2309 0141 29       		.byte	0x29
 2310 0142 09       		.uleb128 0x9
 2311 0143 BF060000 		.4byte	.LASF36
 2312 0147 2A       		.byte	0x2a
 2313 0148 09       		.uleb128 0x9
 2314 0149 C5010000 		.4byte	.LASF37
 2315 014d 2B       		.byte	0x2b
 2316 014e 09       		.uleb128 0x9
 2317 014f 83120000 		.4byte	.LASF38
 2318 0153 2C       		.byte	0x2c
 2319 0154 09       		.uleb128 0x9
 2320 0155 58020000 		.4byte	.LASF39
 2321 0159 2D       		.byte	0x2d
 2322 015a 09       		.uleb128 0x9
 2323 015b 420D0000 		.4byte	.LASF40
 2324 015f 2E       		.byte	0x2e
 2325 0160 09       		.uleb128 0x9
 2326 0161 990C0000 		.4byte	.LASF41
 2327 0165 2F       		.byte	0x2f
 2328 0166 09       		.uleb128 0x9
 2329 0167 220B0000 		.4byte	.LASF42
 2330 016b 30       		.byte	0x30
 2331 016c 09       		.uleb128 0x9
 2332 016d 13130000 		.4byte	.LASF43
 2333 0171 31       		.byte	0x31
ARM GAS  C:\Users\sergio\AppData\Local\Temp\ccZ8BvM2.s 			page 60


 2334 0172 09       		.uleb128 0x9
 2335 0173 010B0000 		.4byte	.LASF44
 2336 0177 32       		.byte	0x32
 2337 0178 09       		.uleb128 0x9
 2338 0179 AB0E0000 		.4byte	.LASF45
 2339 017d 33       		.byte	0x33
 2340 017e 09       		.uleb128 0x9
 2341 017f 9E060000 		.4byte	.LASF46
 2342 0183 34       		.byte	0x34
 2343 0184 09       		.uleb128 0x9
 2344 0185 9E050000 		.4byte	.LASF47
 2345 0189 35       		.byte	0x35
 2346 018a 09       		.uleb128 0x9
 2347 018b A8080000 		.4byte	.LASF48
 2348 018f 36       		.byte	0x36
 2349 0190 09       		.uleb128 0x9
 2350 0191 230A0000 		.4byte	.LASF49
 2351 0195 37       		.byte	0x37
 2352 0196 09       		.uleb128 0x9
 2353 0197 22050000 		.4byte	.LASF50
 2354 019b 40       		.byte	0x40
 2355 019c 09       		.uleb128 0x9
 2356 019d 9C090000 		.4byte	.LASF51
 2357 01a1 41       		.byte	0x41
 2358 01a2 09       		.uleb128 0x9
 2359 01a3 5C130000 		.4byte	.LASF52
 2360 01a7 42       		.byte	0x42
 2361 01a8 09       		.uleb128 0x9
 2362 01a9 39040000 		.4byte	.LASF53
 2363 01ad 43       		.byte	0x43
 2364 01ae 09       		.uleb128 0x9
 2365 01af E8060000 		.4byte	.LASF54
 2366 01b3 44       		.byte	0x44
 2367 01b4 09       		.uleb128 0x9
 2368 01b5 1E0C0000 		.4byte	.LASF55
 2369 01b9 45       		.byte	0x45
 2370 01ba 09       		.uleb128 0x9
 2371 01bb 860A0000 		.4byte	.LASF56
 2372 01bf 46       		.byte	0x46
 2373 01c0 09       		.uleb128 0x9
 2374 01c1 A5070000 		.4byte	.LASF57
 2375 01c5 47       		.byte	0x47
 2376 01c6 09       		.uleb128 0x9
 2377 01c7 47120000 		.4byte	.LASF58
 2378 01cb 48       		.byte	0x48
 2379 01cc 09       		.uleb128 0x9
 2380 01cd 57030000 		.4byte	.LASF59
 2381 01d1 49       		.byte	0x49
 2382 01d2 09       		.uleb128 0x9
 2383 01d3 00000000 		.4byte	.LASF60
 2384 01d7 4A       		.byte	0x4a
 2385 01d8 09       		.uleb128 0x9
 2386 01d9 0E010000 		.4byte	.LASF61
 2387 01dd 4B       		.byte	0x4b
 2388 01de 09       		.uleb128 0x9
 2389 01df 8E080000 		.4byte	.LASF62
 2390 01e3 4C       		.byte	0x4c
ARM GAS  C:\Users\sergio\AppData\Local\Temp\ccZ8BvM2.s 			page 61


 2391 01e4 09       		.uleb128 0x9
 2392 01e5 8B0F0000 		.4byte	.LASF63
 2393 01e9 4D       		.byte	0x4d
 2394 01ea 09       		.uleb128 0x9
 2395 01eb A2030000 		.4byte	.LASF64
 2396 01ef 4E       		.byte	0x4e
 2397 01f0 09       		.uleb128 0x9
 2398 01f1 120E0000 		.4byte	.LASF65
 2399 01f5 4F       		.byte	0x4f
 2400 01f6 09       		.uleb128 0x9
 2401 01f7 E5070000 		.4byte	.LASF66
 2402 01fb 50       		.byte	0x50
 2403 01fc 09       		.uleb128 0x9
 2404 01fd 72040000 		.4byte	.LASF67
 2405 0201 51       		.byte	0x51
 2406 0202 09       		.uleb128 0x9
 2407 0203 850B0000 		.4byte	.LASF68
 2408 0207 52       		.byte	0x52
 2409 0208 09       		.uleb128 0x9
 2410 0209 6D080000 		.4byte	.LASF69
 2411 020d 53       		.byte	0x53
 2412 020e 09       		.uleb128 0x9
 2413 020f 630E0000 		.4byte	.LASF70
 2414 0213 54       		.byte	0x54
 2415 0214 09       		.uleb128 0x9
 2416 0215 06070000 		.4byte	.LASF71
 2417 0219 55       		.byte	0x55
 2418 021a 09       		.uleb128 0x9
 2419 021b EB050000 		.4byte	.LASF72
 2420 021f 56       		.byte	0x56
 2421 0220 09       		.uleb128 0x9
 2422 0221 620F0000 		.4byte	.LASF73
 2423 0225 57       		.byte	0x57
 2424 0226 09       		.uleb128 0x9
 2425 0227 C1050000 		.4byte	.LASF74
 2426 022b 58       		.byte	0x58
 2427 022c 09       		.uleb128 0x9
 2428 022d CF080000 		.4byte	.LASF75
 2429 0231 70       		.byte	0x70
 2430 0232 09       		.uleb128 0x9
 2431 0233 E2120000 		.4byte	.LASF76
 2432 0237 71       		.byte	0x71
 2433 0238 09       		.uleb128 0x9
 2434 0239 D8090000 		.4byte	.LASF77
 2435 023d 72       		.byte	0x72
 2436 023e 09       		.uleb128 0x9
 2437 023f 680A0000 		.4byte	.LASF78
 2438 0243 73       		.byte	0x73
 2439 0244 09       		.uleb128 0x9
 2440 0245 F30B0000 		.4byte	.LASF79
 2441 0249 74       		.byte	0x74
 2442 024a 09       		.uleb128 0x9
 2443 024b A7120000 		.4byte	.LASF80
 2444 024f 75       		.byte	0x75
 2445 0250 09       		.uleb128 0x9
 2446 0251 2A070000 		.4byte	.LASF81
 2447 0255 76       		.byte	0x76
ARM GAS  C:\Users\sergio\AppData\Local\Temp\ccZ8BvM2.s 			page 62


 2448 0256 09       		.uleb128 0x9
 2449 0257 0B080000 		.4byte	.LASF82
 2450 025b 77       		.byte	0x77
 2451 025c 09       		.uleb128 0x9
 2452 025d A50F0000 		.4byte	.LASF83
 2453 0261 78       		.byte	0x78
 2454 0262 09       		.uleb128 0x9
 2455 0263 E10F0000 		.4byte	.LASF84
 2456 0267 79       		.byte	0x79
 2457 0268 09       		.uleb128 0x9
 2458 0269 62050000 		.4byte	.LASF85
 2459 026d 7A       		.byte	0x7a
 2460 026e 09       		.uleb128 0x9
 2461 026f B1000000 		.4byte	.LASF86
 2462 0273 FA       		.byte	0xfa
 2463 0274 09       		.uleb128 0x9
 2464 0275 3F060000 		.4byte	.LASF87
 2465 0279 FB       		.byte	0xfb
 2466 027a 09       		.uleb128 0x9
 2467 027b BF0D0000 		.4byte	.LASF88
 2468 027f FC       		.byte	0xfc
 2469 0280 09       		.uleb128 0x9
 2470 0281 A2130000 		.4byte	.LASF89
 2471 0285 FD       		.byte	0xfd
 2472 0286 09       		.uleb128 0x9
 2473 0287 05050000 		.4byte	.LASF90
 2474 028b FF       		.byte	0xff
 2475 028c 00       		.byte	0
 2476 028d 08       		.uleb128 0x8
 2477 028e 02       		.byte	0x2
 2478 028f 45000000 		.4byte	0x45
 2479 0293 05       		.byte	0x5
 2480 0294 EA03     		.2byte	0x3ea
 2481 0296 6C030000 		.4byte	0x36c
 2482 029a 09       		.uleb128 0x9
 2483 029b 13050000 		.4byte	.LASF91
 2484 029f 00       		.byte	0
 2485 02a0 09       		.uleb128 0x9
 2486 02a1 9F040000 		.4byte	.LASF92
 2487 02a5 01       		.byte	0x1
 2488 02a6 09       		.uleb128 0x9
 2489 02a7 2A110000 		.4byte	.LASF93
 2490 02ab 02       		.byte	0x2
 2491 02ac 09       		.uleb128 0x9
 2492 02ad 8C000000 		.4byte	.LASF94
 2493 02b1 03       		.byte	0x3
 2494 02b2 09       		.uleb128 0x9
 2495 02b3 6F110000 		.4byte	.LASF95
 2496 02b7 04       		.byte	0x4
 2497 02b8 09       		.uleb128 0x9
 2498 02b9 12060000 		.4byte	.LASF96
 2499 02bd 05       		.byte	0x5
 2500 02be 09       		.uleb128 0x9
 2501 02bf D10D0000 		.4byte	.LASF97
 2502 02c3 06       		.byte	0x6
 2503 02c4 09       		.uleb128 0x9
 2504 02c5 19030000 		.4byte	.LASF98
ARM GAS  C:\Users\sergio\AppData\Local\Temp\ccZ8BvM2.s 			page 63


 2505 02c9 07       		.byte	0x7
 2506 02ca 09       		.uleb128 0x9
 2507 02cb C5130000 		.4byte	.LASF99
 2508 02cf 08       		.byte	0x8
 2509 02d0 09       		.uleb128 0x9
 2510 02d1 6E120000 		.4byte	.LASF100
 2511 02d5 09       		.byte	0x9
 2512 02d6 09       		.uleb128 0x9
 2513 02d7 F00C0000 		.4byte	.LASF101
 2514 02db 0A       		.byte	0xa
 2515 02dc 09       		.uleb128 0x9
 2516 02dd 030F0000 		.4byte	.LASF102
 2517 02e1 0B       		.byte	0xb
 2518 02e2 09       		.uleb128 0x9
 2519 02e3 16020000 		.4byte	.LASF103
 2520 02e7 0C       		.byte	0xc
 2521 02e8 09       		.uleb128 0x9
 2522 02e9 F7100000 		.4byte	.LASF104
 2523 02ed 0D       		.byte	0xd
 2524 02ee 09       		.uleb128 0x9
 2525 02ef 63060000 		.4byte	.LASF105
 2526 02f3 0E       		.byte	0xe
 2527 02f4 09       		.uleb128 0x9
 2528 02f5 F3110000 		.4byte	.LASF106
 2529 02f9 0F       		.byte	0xf
 2530 02fa 09       		.uleb128 0x9
 2531 02fb 29100000 		.4byte	.LASF107
 2532 02ff 10       		.byte	0x10
 2533 0300 09       		.uleb128 0x9
 2534 0301 4B070000 		.4byte	.LASF108
 2535 0305 11       		.byte	0x11
 2536 0306 09       		.uleb128 0x9
 2537 0307 16040000 		.4byte	.LASF109
 2538 030b 12       		.byte	0x12
 2539 030c 09       		.uleb128 0x9
 2540 030d 7A130000 		.4byte	.LASF110
 2541 0311 13       		.byte	0x13
 2542 0312 09       		.uleb128 0x9
 2543 0313 F7020000 		.4byte	.LASF111
 2544 0317 27       		.byte	0x27
 2545 0318 09       		.uleb128 0x9
 2546 0319 04100000 		.4byte	.LASF112
 2547 031d 28       		.byte	0x28
 2548 031e 09       		.uleb128 0x9
 2549 031f D7110000 		.4byte	.LASF113
 2550 0323 29       		.byte	0x29
 2551 0324 09       		.uleb128 0x9
 2552 0325 D30C0000 		.4byte	.LASF114
 2553 0329 2A       		.byte	0x2a
 2554 032a 09       		.uleb128 0x9
 2555 032b DB000000 		.4byte	.LASF115
 2556 032f 2B       		.byte	0x2b
 2557 0330 09       		.uleb128 0x9
 2558 0331 86050000 		.4byte	.LASF116
 2559 0335 2C       		.byte	0x2c
 2560 0336 09       		.uleb128 0x9
 2561 0337 390E0000 		.4byte	.LASF117
ARM GAS  C:\Users\sergio\AppData\Local\Temp\ccZ8BvM2.s 			page 64


 2562 033b 2D       		.byte	0x2d
 2563 033c 09       		.uleb128 0x9
 2564 033d B0110000 		.4byte	.LASF118
 2565 0341 FE       		.byte	0xfe
 2566 0342 09       		.uleb128 0x9
 2567 0343 580A0000 		.4byte	.LASF119
 2568 0347 FF       		.byte	0xff
 2569 0348 0A       		.uleb128 0xa
 2570 0349 75070000 		.4byte	.LASF120
 2571 034d 0001     		.2byte	0x100
 2572 034f 0A       		.uleb128 0xa
 2573 0350 A60B0000 		.4byte	.LASF121
 2574 0354 0101     		.2byte	0x101
 2575 0356 0A       		.uleb128 0xa
 2576 0357 0A0D0000 		.4byte	.LASF122
 2577 035b 0201     		.2byte	0x102
 2578 035d 0A       		.uleb128 0xa
 2579 035e 79030000 		.4byte	.LASF123
 2580 0362 0301     		.2byte	0x103
 2581 0364 0A       		.uleb128 0xa
 2582 0365 D20E0000 		.4byte	.LASF124
 2583 0369 0401     		.2byte	0x104
 2584 036b 00       		.byte	0
 2585 036c 05       		.uleb128 0x5
 2586 036d 720B0000 		.4byte	.LASF125
 2587 0371 05       		.byte	0x5
 2588 0372 5C04     		.2byte	0x45c
 2589 0374 8D020000 		.4byte	0x28d
 2590 0378 0B       		.uleb128 0xb
 2591 0379 07       		.byte	0x7
 2592 037a 05       		.byte	0x5
 2593 037b 2A05     		.2byte	0x52a
 2594 037d 9C030000 		.4byte	0x39c
 2595 0381 0C       		.uleb128 0xc
 2596 0382 04080000 		.4byte	.LASF126
 2597 0386 05       		.byte	0x5
 2598 0387 2D05     		.2byte	0x52d
 2599 0389 9C030000 		.4byte	0x39c
 2600 038d 00       		.byte	0
 2601 038e 0C       		.uleb128 0xc
 2602 038f 37010000 		.4byte	.LASF127
 2603 0393 05       		.byte	0x5
 2604 0394 2F05     		.2byte	0x52f
 2605 0396 81000000 		.4byte	0x81
 2606 039a 06       		.byte	0x6
 2607 039b 00       		.byte	0
 2608 039c 0D       		.uleb128 0xd
 2609 039d 81000000 		.4byte	0x81
 2610 03a1 AC030000 		.4byte	0x3ac
 2611 03a5 0E       		.uleb128 0xe
 2612 03a6 C6000000 		.4byte	0xc6
 2613 03aa 05       		.byte	0x5
 2614 03ab 00       		.byte	0
 2615 03ac 05       		.uleb128 0x5
 2616 03ad 02020000 		.4byte	.LASF128
 2617 03b1 05       		.byte	0x5
 2618 03b2 3005     		.2byte	0x530
ARM GAS  C:\Users\sergio\AppData\Local\Temp\ccZ8BvM2.s 			page 65


 2619 03b4 78030000 		.4byte	0x378
 2620 03b8 0F       		.uleb128 0xf
 2621 03b9 04       		.byte	0x4
 2622 03ba 81000000 		.4byte	0x81
 2623 03be 0D       		.uleb128 0xd
 2624 03bf 81000000 		.4byte	0x81
 2625 03c3 CE030000 		.4byte	0x3ce
 2626 03c7 0E       		.uleb128 0xe
 2627 03c8 C6000000 		.4byte	0xc6
 2628 03cc 06       		.byte	0x6
 2629 03cd 00       		.byte	0
 2630 03ce 05       		.uleb128 0x5
 2631 03cf 37130000 		.4byte	.LASF129
 2632 03d3 06       		.byte	0x6
 2633 03d4 8901     		.2byte	0x189
 2634 03d6 8D000000 		.4byte	0x8d
 2635 03da 0B       		.uleb128 0xb
 2636 03db 02       		.byte	0x2
 2637 03dc 06       		.byte	0x6
 2638 03dd 9301     		.2byte	0x193
 2639 03df FE030000 		.4byte	0x3fe
 2640 03e3 0C       		.uleb128 0xc
 2641 03e4 3C050000 		.4byte	.LASF130
 2642 03e8 06       		.byte	0x6
 2643 03e9 9A01     		.2byte	0x19a
 2644 03eb 81000000 		.4byte	0x81
 2645 03ef 00       		.byte	0
 2646 03f0 0C       		.uleb128 0xc
 2647 03f1 C9080000 		.4byte	.LASF131
 2648 03f5 06       		.byte	0x6
 2649 03f6 A001     		.2byte	0x1a0
 2650 03f8 81000000 		.4byte	0x81
 2651 03fc 01       		.byte	0x1
 2652 03fd 00       		.byte	0
 2653 03fe 05       		.uleb128 0x5
 2654 03ff 64000000 		.4byte	.LASF132
 2655 0403 06       		.byte	0x6
 2656 0404 A201     		.2byte	0x1a2
 2657 0406 DA030000 		.4byte	0x3da
 2658 040a 0B       		.uleb128 0xb
 2659 040b 08       		.byte	0x8
 2660 040c 06       		.byte	0x6
 2661 040d BE01     		.2byte	0x1be
 2662 040f 3B040000 		.4byte	0x43b
 2663 0413 10       		.uleb128 0x10
 2664 0414 76616C00 		.ascii	"val\000"
 2665 0418 06       		.byte	0x6
 2666 0419 C101     		.2byte	0x1c1
 2667 041b B8030000 		.4byte	0x3b8
 2668 041f 00       		.byte	0
 2669 0420 10       		.uleb128 0x10
 2670 0421 6C656E00 		.ascii	"len\000"
 2671 0425 06       		.byte	0x6
 2672 0426 C401     		.2byte	0x1c4
 2673 0428 8D000000 		.4byte	0x8d
 2674 042c 04       		.byte	0x4
 2675 042d 0C       		.uleb128 0xc
ARM GAS  C:\Users\sergio\AppData\Local\Temp\ccZ8BvM2.s 			page 66


 2676 042e 36030000 		.4byte	.LASF133
 2677 0432 06       		.byte	0x6
 2678 0433 CB01     		.2byte	0x1cb
 2679 0435 8D000000 		.4byte	0x8d
 2680 0439 06       		.byte	0x6
 2681 043a 00       		.byte	0
 2682 043b 05       		.uleb128 0x5
 2683 043c 93010000 		.4byte	.LASF134
 2684 0440 06       		.byte	0x6
 2685 0441 CD01     		.2byte	0x1cd
 2686 0443 0A040000 		.4byte	0x40a
 2687 0447 0B       		.uleb128 0xb
 2688 0448 0C       		.byte	0xc
 2689 0449 06       		.byte	0x6
 2690 044a D001     		.2byte	0x1d0
 2691 044c 6B040000 		.4byte	0x46b
 2692 0450 0C       		.uleb128 0xc
 2693 0451 BB050000 		.4byte	.LASF135
 2694 0455 06       		.byte	0x6
 2695 0456 D301     		.2byte	0x1d3
 2696 0458 3B040000 		.4byte	0x43b
 2697 045c 00       		.byte	0
 2698 045d 0C       		.uleb128 0xc
 2699 045e 45050000 		.4byte	.LASF136
 2700 0462 06       		.byte	0x6
 2701 0463 D601     		.2byte	0x1d6
 2702 0465 CE030000 		.4byte	0x3ce
 2703 0469 08       		.byte	0x8
 2704 046a 00       		.byte	0
 2705 046b 05       		.uleb128 0x5
 2706 046c BF0B0000 		.4byte	.LASF137
 2707 0470 06       		.byte	0x6
 2708 0471 D801     		.2byte	0x1d8
 2709 0473 47040000 		.4byte	0x447
 2710 0477 03       		.uleb128 0x3
 2711 0478 B00A0000 		.4byte	.LASF138
 2712 047c 07       		.byte	0x7
 2713 047d 34       		.byte	0x34
 2714 047e 6B040000 		.4byte	0x46b
 2715 0482 11       		.uleb128 0x11
 2716 0483 10       		.byte	0x10
 2717 0484 07       		.byte	0x7
 2718 0485 8A       		.byte	0x8a
 2719 0486 A3040000 		.4byte	0x4a3
 2720 048a 12       		.uleb128 0x12
 2721 048b 81000000 		.4byte	.LASF139
 2722 048f 07       		.byte	0x7
 2723 0490 8D       		.byte	0x8d
 2724 0491 FE030000 		.4byte	0x3fe
 2725 0495 00       		.byte	0
 2726 0496 12       		.uleb128 0x12
 2727 0497 E9100000 		.4byte	.LASF140
 2728 049b 07       		.byte	0x7
 2729 049c 90       		.byte	0x90
 2730 049d 6B040000 		.4byte	0x46b
 2731 04a1 04       		.byte	0x4
 2732 04a2 00       		.byte	0
ARM GAS  C:\Users\sergio\AppData\Local\Temp\ccZ8BvM2.s 			page 67


 2733 04a3 03       		.uleb128 0x3
 2734 04a4 E4010000 		.4byte	.LASF141
 2735 04a8 07       		.byte	0x7
 2736 04a9 92       		.byte	0x92
 2737 04aa 82040000 		.4byte	0x482
 2738 04ae 08       		.uleb128 0x8
 2739 04af 01       		.byte	0x1
 2740 04b0 37000000 		.4byte	0x37
 2741 04b4 08       		.byte	0x8
 2742 04b5 A808     		.2byte	0x8a8
 2743 04b7 DA040000 		.4byte	0x4da
 2744 04bb 09       		.uleb128 0x9
 2745 04bc 3A000000 		.4byte	.LASF142
 2746 04c0 00       		.byte	0
 2747 04c1 09       		.uleb128 0x9
 2748 04c2 18120000 		.4byte	.LASF143
 2749 04c6 01       		.byte	0x1
 2750 04c7 09       		.uleb128 0x9
 2751 04c8 31120000 		.4byte	.LASF144
 2752 04cc 02       		.byte	0x2
 2753 04cd 09       		.uleb128 0x9
 2754 04ce 9C020000 		.4byte	.LASF145
 2755 04d2 03       		.byte	0x3
 2756 04d3 09       		.uleb128 0x9
 2757 04d4 C0030000 		.4byte	.LASF146
 2758 04d8 04       		.byte	0x4
 2759 04d9 00       		.byte	0
 2760 04da 05       		.uleb128 0x5
 2761 04db 92110000 		.4byte	.LASF147
 2762 04df 08       		.byte	0x8
 2763 04e0 B608     		.2byte	0x8b6
 2764 04e2 AE040000 		.4byte	0x4ae
 2765 04e6 11       		.uleb128 0x11
 2766 04e7 24       		.byte	0x24
 2767 04e8 01       		.byte	0x1
 2768 04e9 2A       		.byte	0x2a
 2769 04ea D3050000 		.4byte	0x5d3
 2770 04ee 12       		.uleb128 0x12
 2771 04ef FB040000 		.4byte	.LASF148
 2772 04f3 01       		.byte	0x1
 2773 04f4 2C       		.byte	0x2c
 2774 04f5 81000000 		.4byte	0x81
 2775 04f9 00       		.byte	0
 2776 04fa 12       		.uleb128 0x12
 2777 04fb DC070000 		.4byte	.LASF149
 2778 04ff 01       		.byte	0x1
 2779 0500 2D       		.byte	0x2d
 2780 0501 81000000 		.4byte	0x81
 2781 0505 01       		.byte	0x1
 2782 0506 12       		.uleb128 0x12
 2783 0507 90020000 		.4byte	.LASF150
 2784 050b 01       		.byte	0x1
 2785 050c 2E       		.byte	0x2e
 2786 050d 81000000 		.4byte	0x81
 2787 0511 02       		.byte	0x2
 2788 0512 12       		.uleb128 0x12
 2789 0513 840D0000 		.4byte	.LASF151
ARM GAS  C:\Users\sergio\AppData\Local\Temp\ccZ8BvM2.s 			page 68


 2790 0517 01       		.byte	0x1
 2791 0518 2F       		.byte	0x2f
 2792 0519 81000000 		.4byte	0x81
 2793 051d 03       		.byte	0x3
 2794 051e 12       		.uleb128 0x12
 2795 051f B4020000 		.4byte	.LASF152
 2796 0523 01       		.byte	0x1
 2797 0524 30       		.byte	0x30
 2798 0525 81000000 		.4byte	0x81
 2799 0529 04       		.byte	0x4
 2800 052a 12       		.uleb128 0x12
 2801 052b C0020000 		.4byte	.LASF153
 2802 052f 01       		.byte	0x1
 2803 0530 31       		.byte	0x31
 2804 0531 81000000 		.4byte	0x81
 2805 0535 05       		.byte	0x5
 2806 0536 12       		.uleb128 0x12
 2807 0537 030E0000 		.4byte	.LASF154
 2808 053b 01       		.byte	0x1
 2809 053c 33       		.byte	0x33
 2810 053d 8D000000 		.4byte	0x8d
 2811 0541 06       		.byte	0x6
 2812 0542 12       		.uleb128 0x12
 2813 0543 0E040000 		.4byte	.LASF155
 2814 0547 01       		.byte	0x1
 2815 0548 34       		.byte	0x34
 2816 0549 8D000000 		.4byte	0x8d
 2817 054d 08       		.byte	0x8
 2818 054e 12       		.uleb128 0x12
 2819 054f F2020000 		.4byte	.LASF156
 2820 0553 01       		.byte	0x1
 2821 0554 35       		.byte	0x35
 2822 0555 8D000000 		.4byte	0x8d
 2823 0559 0A       		.byte	0xa
 2824 055a 12       		.uleb128 0x12
 2825 055b 50050000 		.4byte	.LASF157
 2826 055f 01       		.byte	0x1
 2827 0560 37       		.byte	0x37
 2828 0561 99000000 		.4byte	0x99
 2829 0565 0C       		.byte	0xc
 2830 0566 12       		.uleb128 0x12
 2831 0567 CC110000 		.4byte	.LASF158
 2832 056b 01       		.byte	0x1
 2833 056c 38       		.byte	0x38
 2834 056d 99000000 		.4byte	0x99
 2835 0571 10       		.byte	0x10
 2836 0572 12       		.uleb128 0x12
 2837 0573 110C0000 		.4byte	.LASF159
 2838 0577 01       		.byte	0x1
 2839 0578 39       		.byte	0x39
 2840 0579 99000000 		.4byte	0x99
 2841 057d 14       		.byte	0x14
 2842 057e 12       		.uleb128 0x12
 2843 057f 840E0000 		.4byte	.LASF160
 2844 0583 01       		.byte	0x1
 2845 0584 3B       		.byte	0x3b
 2846 0585 8D000000 		.4byte	0x8d
ARM GAS  C:\Users\sergio\AppData\Local\Temp\ccZ8BvM2.s 			page 69


 2847 0589 18       		.byte	0x18
 2848 058a 12       		.uleb128 0x12
 2849 058b CF000000 		.4byte	.LASF161
 2850 058f 01       		.byte	0x1
 2851 0590 3C       		.byte	0x3c
 2852 0591 8D000000 		.4byte	0x8d
 2853 0595 1A       		.byte	0x1a
 2854 0596 12       		.uleb128 0x12
 2855 0597 5F0B0000 		.4byte	.LASF162
 2856 059b 01       		.byte	0x1
 2857 059c 3D       		.byte	0x3d
 2858 059d 8D000000 		.4byte	0x8d
 2859 05a1 1C       		.byte	0x1c
 2860 05a2 12       		.uleb128 0x12
 2861 05a3 530C0000 		.4byte	.LASF163
 2862 05a7 01       		.byte	0x1
 2863 05a8 40       		.byte	0x40
 2864 05a9 81000000 		.4byte	0x81
 2865 05ad 1E       		.byte	0x1e
 2866 05ae 12       		.uleb128 0x12
 2867 05af BB010000 		.4byte	.LASF164
 2868 05b3 01       		.byte	0x1
 2869 05b4 41       		.byte	0x41
 2870 05b5 81000000 		.4byte	0x81
 2871 05b9 1F       		.byte	0x1f
 2872 05ba 12       		.uleb128 0x12
 2873 05bb C0010000 		.4byte	.LASF165
 2874 05bf 01       		.byte	0x1
 2875 05c0 42       		.byte	0x42
 2876 05c1 81000000 		.4byte	0x81
 2877 05c5 20       		.byte	0x20
 2878 05c6 12       		.uleb128 0x12
 2879 05c7 450C0000 		.4byte	.LASF166
 2880 05cb 01       		.byte	0x1
 2881 05cc 44       		.byte	0x44
 2882 05cd 8D000000 		.4byte	0x8d
 2883 05d1 22       		.byte	0x22
 2884 05d2 00       		.byte	0
 2885 05d3 03       		.uleb128 0x3
 2886 05d4 56000000 		.4byte	.LASF167
 2887 05d8 01       		.byte	0x1
 2888 05d9 46       		.byte	0x46
 2889 05da E6040000 		.4byte	0x4e6
 2890 05de 11       		.uleb128 0x11
 2891 05df 07       		.byte	0x7
 2892 05e0 01       		.byte	0x1
 2893 05e1 4A       		.byte	0x4a
 2894 05e2 3B060000 		.4byte	0x63b
 2895 05e6 12       		.uleb128 0x12
 2896 05e7 5C010000 		.4byte	.LASF168
 2897 05eb 01       		.byte	0x1
 2898 05ec 4B       		.byte	0x4b
 2899 05ed 81000000 		.4byte	0x81
 2900 05f1 00       		.byte	0
 2901 05f2 12       		.uleb128 0x12
 2902 05f3 EB020000 		.4byte	.LASF169
 2903 05f7 01       		.byte	0x1
ARM GAS  C:\Users\sergio\AppData\Local\Temp\ccZ8BvM2.s 			page 70


 2904 05f8 4C       		.byte	0x4c
 2905 05f9 81000000 		.4byte	0x81
 2906 05fd 01       		.byte	0x1
 2907 05fe 12       		.uleb128 0x12
 2908 05ff A0110000 		.4byte	.LASF170
 2909 0603 01       		.byte	0x1
 2910 0604 4D       		.byte	0x4d
 2911 0605 81000000 		.4byte	0x81
 2912 0609 02       		.byte	0x2
 2913 060a 12       		.uleb128 0x12
 2914 060b 93030000 		.4byte	.LASF171
 2915 060f 01       		.byte	0x1
 2916 0610 4E       		.byte	0x4e
 2917 0611 81000000 		.4byte	0x81
 2918 0615 03       		.byte	0x3
 2919 0616 12       		.uleb128 0x12
 2920 0617 E90E0000 		.4byte	.LASF172
 2921 061b 01       		.byte	0x1
 2922 061c 4F       		.byte	0x4f
 2923 061d 81000000 		.4byte	0x81
 2924 0621 04       		.byte	0x4
 2925 0622 12       		.uleb128 0x12
 2926 0623 CD0C0000 		.4byte	.LASF173
 2927 0627 01       		.byte	0x1
 2928 0628 50       		.byte	0x50
 2929 0629 81000000 		.4byte	0x81
 2930 062d 05       		.byte	0x5
 2931 062e 12       		.uleb128 0x12
 2932 062f DC0F0000 		.4byte	.LASF174
 2933 0633 01       		.byte	0x1
 2934 0634 51       		.byte	0x51
 2935 0635 81000000 		.4byte	0x81
 2936 0639 06       		.byte	0x6
 2937 063a 00       		.byte	0
 2938 063b 03       		.uleb128 0x3
 2939 063c 30060000 		.4byte	.LASF175
 2940 0640 01       		.byte	0x1
 2941 0641 52       		.byte	0x52
 2942 0642 DE050000 		.4byte	0x5de
 2943 0646 13       		.uleb128 0x13
 2944 0647 67010000 		.4byte	.LASF176
 2945 064b 01       		.byte	0x1
 2946 064c 68       		.byte	0x68
 2947 064d 00000000 		.4byte	.LFB36
 2948 0651 78000000 		.4byte	.LFE36-.LFB36
 2949 0655 01       		.uleb128 0x1
 2950 0656 9C       		.byte	0x9c
 2951 0657 6A060000 		.4byte	0x66a
 2952 065b 14       		.uleb128 0x14
 2953 065c BA130000 		.4byte	.LASF180
 2954 0660 01       		.byte	0x1
 2955 0661 6B       		.byte	0x6b
 2956 0662 BE030000 		.4byte	0x3be
 2957 0666 02       		.uleb128 0x2
 2958 0667 91       		.byte	0x91
 2959 0668 70       		.sleb128 -16
 2960 0669 00       		.byte	0
ARM GAS  C:\Users\sergio\AppData\Local\Temp\ccZ8BvM2.s 			page 71


 2961 066a 13       		.uleb128 0x13
 2962 066b B6060000 		.4byte	.LASF177
 2963 066f 01       		.byte	0x1
 2964 0670 75       		.byte	0x75
 2965 0671 00000000 		.4byte	.LFB37
 2966 0675 74010000 		.4byte	.LFE37-.LFB37
 2967 0679 01       		.uleb128 0x1
 2968 067a 9C       		.byte	0x9c
 2969 067b C3060000 		.4byte	0x6c3
 2970 067f 15       		.uleb128 0x15
 2971 0680 6F070000 		.4byte	.LASF178
 2972 0684 01       		.byte	0x1
 2973 0685 75       		.byte	0x75
 2974 0686 99000000 		.4byte	0x99
 2975 068a 02       		.uleb128 0x2
 2976 068b 91       		.byte	0x91
 2977 068c 54       		.sleb128 -44
 2978 068d 15       		.uleb128 0x15
 2979 068e 5F110000 		.4byte	.LASF179
 2980 0692 01       		.byte	0x1
 2981 0693 75       		.byte	0x75
 2982 0694 CD000000 		.4byte	0xcd
 2983 0698 02       		.uleb128 0x2
 2984 0699 91       		.byte	0x91
 2985 069a 50       		.sleb128 -48
 2986 069b 14       		.uleb128 0x14
 2987 069c B90D0000 		.4byte	.LASF181
 2988 06a0 01       		.byte	0x1
 2989 06a1 77       		.byte	0x77
 2990 06a2 A3040000 		.4byte	0x4a3
 2991 06a6 02       		.uleb128 0x2
 2992 06a7 91       		.byte	0x91
 2993 06a8 60       		.sleb128 -32
 2994 06a9 16       		.uleb128 0x16
 2995 06aa 680B0000 		.4byte	.LASF237
 2996 06ae 01       		.byte	0x1
 2997 06af 78       		.byte	0x78
 2998 06b0 6C030000 		.4byte	0x36c
 2999 06b4 14       		.uleb128 0x14
 3000 06b5 580C0000 		.4byte	.LASF182
 3001 06b9 01       		.byte	0x1
 3002 06ba 79       		.byte	0x79
 3003 06bb AC030000 		.4byte	0x3ac
 3004 06bf 02       		.uleb128 0x2
 3005 06c0 91       		.byte	0x91
 3006 06c1 58       		.sleb128 -40
 3007 06c2 00       		.byte	0
 3008 06c3 17       		.uleb128 0x17
 3009 06c4 620C0000 		.4byte	.LASF185
 3010 06c8 01       		.byte	0x1
 3011 06c9 D1       		.byte	0xd1
 3012 06ca 00000000 		.4byte	.LFB38
 3013 06ce 74000000 		.4byte	.LFE38-.LFB38
 3014 06d2 01       		.uleb128 0x1
 3015 06d3 9C       		.byte	0x9c
 3016 06d4 F5060000 		.4byte	0x6f5
 3017 06d8 14       		.uleb128 0x14
ARM GAS  C:\Users\sergio\AppData\Local\Temp\ccZ8BvM2.s 			page 72


 3018 06d9 770C0000 		.4byte	.LASF183
 3019 06dd 01       		.byte	0x1
 3020 06de D2       		.byte	0xd2
 3021 06df 6B040000 		.4byte	0x46b
 3022 06e3 02       		.uleb128 0x2
 3023 06e4 91       		.byte	0x91
 3024 06e5 6C       		.sleb128 -20
 3025 06e6 14       		.uleb128 0x14
 3026 06e7 570F0000 		.4byte	.LASF184
 3027 06eb 01       		.byte	0x1
 3028 06ec D4       		.byte	0xd4
 3029 06ed BE030000 		.4byte	0x3be
 3030 06f1 02       		.uleb128 0x2
 3031 06f2 91       		.byte	0x91
 3032 06f3 64       		.sleb128 -28
 3033 06f4 00       		.byte	0
 3034 06f5 17       		.uleb128 0x17
 3035 06f6 81020000 		.4byte	.LASF186
 3036 06fa 01       		.byte	0x1
 3037 06fb E5       		.byte	0xe5
 3038 06fc 00000000 		.4byte	.LFB39
 3039 0700 98000000 		.4byte	.LFE39-.LFB39
 3040 0704 01       		.uleb128 0x1
 3041 0705 9C       		.byte	0x9c
 3042 0706 27070000 		.4byte	0x727
 3043 070a 14       		.uleb128 0x14
 3044 070b AE0D0000 		.4byte	.LASF187
 3045 070f 01       		.byte	0x1
 3046 0710 E6       		.byte	0xe6
 3047 0711 77040000 		.4byte	0x477
 3048 0715 02       		.uleb128 0x2
 3049 0716 91       		.byte	0x91
 3050 0717 6C       		.sleb128 -20
 3051 0718 14       		.uleb128 0x14
 3052 0719 C20C0000 		.4byte	.LASF188
 3053 071d 01       		.byte	0x1
 3054 071e E8       		.byte	0xe8
 3055 071f 27070000 		.4byte	0x727
 3056 0723 02       		.uleb128 0x2
 3057 0724 91       		.byte	0x91
 3058 0725 60       		.sleb128 -32
 3059 0726 00       		.byte	0
 3060 0727 0D       		.uleb128 0xd
 3061 0728 81000000 		.4byte	0x81
 3062 072c 37070000 		.4byte	0x737
 3063 0730 0E       		.uleb128 0xe
 3064 0731 C6000000 		.4byte	0xc6
 3065 0735 08       		.byte	0x8
 3066 0736 00       		.byte	0
 3067 0737 13       		.uleb128 0x13
 3068 0738 820C0000 		.4byte	.LASF189
 3069 073c 01       		.byte	0x1
 3070 073d F8       		.byte	0xf8
 3071 073e 00000000 		.4byte	.LFB40
 3072 0742 58000000 		.4byte	.LFE40-.LFB40
 3073 0746 01       		.uleb128 0x1
 3074 0747 9C       		.byte	0x9c
ARM GAS  C:\Users\sergio\AppData\Local\Temp\ccZ8BvM2.s 			page 73


 3075 0748 69070000 		.4byte	0x769
 3076 074c 14       		.uleb128 0x14
 3077 074d C80F0000 		.4byte	.LASF190
 3078 0751 01       		.byte	0x1
 3079 0752 F9       		.byte	0xf9
 3080 0753 6B040000 		.4byte	0x46b
 3081 0757 02       		.uleb128 0x2
 3082 0758 91       		.byte	0x91
 3083 0759 6C       		.sleb128 -20
 3084 075a 14       		.uleb128 0x14
 3085 075b 1C110000 		.4byte	.LASF191
 3086 075f 01       		.byte	0x1
 3087 0760 FB       		.byte	0xfb
 3088 0761 69070000 		.4byte	0x769
 3089 0765 02       		.uleb128 0x2
 3090 0766 91       		.byte	0x91
 3091 0767 68       		.sleb128 -24
 3092 0768 00       		.byte	0
 3093 0769 0D       		.uleb128 0xd
 3094 076a 81000000 		.4byte	0x81
 3095 076e 79070000 		.4byte	0x779
 3096 0772 0E       		.uleb128 0xe
 3097 0773 C6000000 		.4byte	0xc6
 3098 0777 01       		.byte	0x1
 3099 0778 00       		.byte	0
 3100 0779 18       		.uleb128 0x18
 3101 077a C8120000 		.4byte	.LASF194
 3102 077e 01       		.byte	0x1
 3103 077f 0D01     		.2byte	0x10d
 3104 0781 00000000 		.4byte	.LFB41
 3105 0785 2A000000 		.4byte	.LFE41-.LFB41
 3106 0789 01       		.uleb128 0x1
 3107 078a 9C       		.byte	0x9c
 3108 078b 19       		.uleb128 0x19
 3109 078c DE0B0000 		.4byte	.LASF192
 3110 0790 01       		.byte	0x1
 3111 0791 1401     		.2byte	0x114
 3112 0793 81000000 		.4byte	0x81
 3113 0797 00000000 		.4byte	.LFB42
 3114 079b 46000000 		.4byte	.LFE42-.LFB42
 3115 079f 01       		.uleb128 0x1
 3116 07a0 9C       		.byte	0x9c
 3117 07a1 B5070000 		.4byte	0x7b5
 3118 07a5 1A       		.uleb128 0x1a
 3119 07a6 4F110000 		.4byte	.LASF193
 3120 07aa 01       		.byte	0x1
 3121 07ab 1601     		.2byte	0x116
 3122 07ad 81000000 		.4byte	0x81
 3123 07b1 02       		.uleb128 0x2
 3124 07b2 91       		.byte	0x91
 3125 07b3 77       		.sleb128 -9
 3126 07b4 00       		.byte	0
 3127 07b5 18       		.uleb128 0x18
 3128 07b6 CB100000 		.4byte	.LASF195
 3129 07ba 01       		.byte	0x1
 3130 07bb 2101     		.2byte	0x121
 3131 07bd 00000000 		.4byte	.LFB43
ARM GAS  C:\Users\sergio\AppData\Local\Temp\ccZ8BvM2.s 			page 74


 3132 07c1 4A000000 		.4byte	.LFE43-.LFB43
 3133 07c5 01       		.uleb128 0x1
 3134 07c6 9C       		.byte	0x9c
 3135 07c7 18       		.uleb128 0x18
 3136 07c8 AD100000 		.4byte	.LASF196
 3137 07cc 01       		.byte	0x1
 3138 07cd 2E01     		.2byte	0x12e
 3139 07cf 00000000 		.4byte	.LFB44
 3140 07d3 4A000000 		.4byte	.LFE44-.LFB44
 3141 07d7 01       		.uleb128 0x1
 3142 07d8 9C       		.byte	0x9c
 3143 07d9 1B       		.uleb128 0x1b
 3144 07da 4A020000 		.4byte	.LASF197
 3145 07de 01       		.byte	0x1
 3146 07df 3A01     		.2byte	0x13a
 3147 07e1 00000000 		.4byte	.LFB45
 3148 07e5 50000000 		.4byte	.LFE45-.LFB45
 3149 07e9 01       		.uleb128 0x1
 3150 07ea 9C       		.byte	0x9c
 3151 07eb 16080000 		.4byte	0x816
 3152 07ef 1A       		.uleb128 0x1a
 3153 07f0 450C0000 		.4byte	.LASF166
 3154 07f4 01       		.byte	0x1
 3155 07f5 3B01     		.2byte	0x13b
 3156 07f7 8D000000 		.4byte	0x8d
 3157 07fb 02       		.uleb128 0x2
 3158 07fc 91       		.byte	0x91
 3159 07fd 76       		.sleb128 -10
 3160 07fe 1C       		.uleb128 0x1c
 3161 07ff 0C000000 		.4byte	.LBB2
 3162 0803 30000000 		.4byte	.LBE2-.LBB2
 3163 0807 1D       		.uleb128 0x1d
 3164 0808 6900     		.ascii	"i\000"
 3165 080a 01       		.byte	0x1
 3166 080b 3C01     		.2byte	0x13c
 3167 080d 68000000 		.4byte	0x68
 3168 0811 02       		.uleb128 0x2
 3169 0812 91       		.byte	0x91
 3170 0813 70       		.sleb128 -16
 3171 0814 00       		.byte	0
 3172 0815 00       		.byte	0
 3173 0816 18       		.uleb128 0x18
 3174 0817 DB0A0000 		.4byte	.LASF198
 3175 081b 01       		.byte	0x1
 3176 081c 4301     		.2byte	0x143
 3177 081e 00000000 		.4byte	.LFB46
 3178 0822 20000000 		.4byte	.LFE46-.LFB46
 3179 0826 01       		.uleb128 0x1
 3180 0827 9C       		.byte	0x9c
 3181 0828 1E       		.uleb128 0x1e
 3182 0829 0E130000 		.4byte	.LASF238
 3183 082d 01       		.byte	0x1
 3184 082e 4A01     		.2byte	0x14a
 3185 0830 68000000 		.4byte	0x68
 3186 0834 00000000 		.4byte	.LFB47
 3187 0838 D4070000 		.4byte	.LFE47-.LFB47
 3188 083c 01       		.uleb128 0x1
ARM GAS  C:\Users\sergio\AppData\Local\Temp\ccZ8BvM2.s 			page 75


 3189 083d 9C       		.byte	0x9c
 3190 083e 88090000 		.4byte	0x988
 3191 0842 1A       		.uleb128 0x1a
 3192 0843 A20D0000 		.4byte	.LASF199
 3193 0847 01       		.byte	0x1
 3194 0848 6C01     		.2byte	0x16c
 3195 084a 81000000 		.4byte	0x81
 3196 084e 02       		.uleb128 0x2
 3197 084f 91       		.byte	0x91
 3198 0850 5F       		.sleb128 -33
 3199 0851 1A       		.uleb128 0x1a
 3200 0852 91040000 		.4byte	.LASF200
 3201 0856 01       		.byte	0x1
 3202 0857 6D01     		.2byte	0x16d
 3203 0859 81000000 		.4byte	0x81
 3204 085d 02       		.uleb128 0x2
 3205 085e 91       		.byte	0x91
 3206 085f 5E       		.sleb128 -34
 3207 0860 1A       		.uleb128 0x1a
 3208 0861 98040000 		.4byte	.LASF201
 3209 0865 01       		.byte	0x1
 3210 0866 6E01     		.2byte	0x16e
 3211 0868 81000000 		.4byte	0x81
 3212 086c 02       		.uleb128 0x2
 3213 086d 91       		.byte	0x91
 3214 086e 5D       		.sleb128 -35
 3215 086f 1A       		.uleb128 0x1a
 3216 0870 A80D0000 		.4byte	.LASF202
 3217 0874 01       		.byte	0x1
 3218 0875 6F01     		.2byte	0x16f
 3219 0877 76000000 		.4byte	0x76
 3220 087b 02       		.uleb128 0x2
 3221 087c 91       		.byte	0x91
 3222 087d 51       		.sleb128 -47
 3223 087e 1A       		.uleb128 0x1a
 3224 087f F90A0000 		.4byte	.LASF203
 3225 0883 01       		.byte	0x1
 3226 0884 7001     		.2byte	0x170
 3227 0886 76000000 		.4byte	0x76
 3228 088a 02       		.uleb128 0x2
 3229 088b 91       		.byte	0x91
 3230 088c 5C       		.sleb128 -36
 3231 088d 1A       		.uleb128 0x1a
 3232 088e 660D0000 		.4byte	.LASF204
 3233 0892 01       		.byte	0x1
 3234 0893 7101     		.2byte	0x171
 3235 0895 76000000 		.4byte	0x76
 3236 0899 02       		.uleb128 0x2
 3237 089a 91       		.byte	0x91
 3238 089b 5B       		.sleb128 -37
 3239 089c 1A       		.uleb128 0x1a
 3240 089d 3C010000 		.4byte	.LASF205
 3241 08a1 01       		.byte	0x1
 3242 08a2 7601     		.2byte	0x176
 3243 08a4 68000000 		.4byte	0x68
 3244 08a8 02       		.uleb128 0x2
 3245 08a9 91       		.byte	0x91
ARM GAS  C:\Users\sergio\AppData\Local\Temp\ccZ8BvM2.s 			page 76


 3246 08aa 6C       		.sleb128 -20
 3247 08ab 1A       		.uleb128 0x1a
 3248 08ac 5E060000 		.4byte	.LASF206
 3249 08b0 01       		.byte	0x1
 3250 08b1 7701     		.2byte	0x177
 3251 08b3 68000000 		.4byte	0x68
 3252 08b7 02       		.uleb128 0x2
 3253 08b8 91       		.byte	0x91
 3254 08b9 68       		.sleb128 -24
 3255 08ba 1A       		.uleb128 0x1a
 3256 08bb 0D060000 		.4byte	.LASF207
 3257 08bf 01       		.byte	0x1
 3258 08c0 7801     		.2byte	0x178
 3259 08c2 68000000 		.4byte	0x68
 3260 08c6 02       		.uleb128 0x2
 3261 08c7 91       		.byte	0x91
 3262 08c8 64       		.sleb128 -28
 3263 08c9 1A       		.uleb128 0x1a
 3264 08ca 9A0D0000 		.4byte	.LASF208
 3265 08ce 01       		.byte	0x1
 3266 08cf 7A01     		.2byte	0x17a
 3267 08d1 68000000 		.4byte	0x68
 3268 08d5 02       		.uleb128 0x2
 3269 08d6 91       		.byte	0x91
 3270 08d7 60       		.sleb128 -32
 3271 08d8 1C       		.uleb128 0x1c
 3272 08d9 C0000000 		.4byte	.LBB3
 3273 08dd 94040000 		.4byte	.LBE3-.LBB3
 3274 08e1 1A       		.uleb128 0x1a
 3275 08e2 B7090000 		.4byte	.LASF209
 3276 08e6 01       		.byte	0x1
 3277 08e7 8F01     		.2byte	0x18f
 3278 08e9 98090000 		.4byte	0x998
 3279 08ed 02       		.uleb128 0x2
 3280 08ee 91       		.byte	0x91
 3281 08ef 4C       		.sleb128 -52
 3282 08f0 1D       		.uleb128 0x1d
 3283 08f1 73747200 		.ascii	"str\000"
 3284 08f5 01       		.byte	0x1
 3285 08f6 9201     		.2byte	0x192
 3286 08f8 9D090000 		.4byte	0x99d
 3287 08fc 03       		.uleb128 0x3
 3288 08fd 91       		.byte	0x91
 3289 08fe 907F     		.sleb128 -112
 3290 0900 1A       		.uleb128 0x1a
 3291 0901 1D0A0000 		.4byte	.LASF210
 3292 0905 01       		.byte	0x1
 3293 0906 9301     		.2byte	0x193
 3294 0908 69070000 		.4byte	0x769
 3295 090c 02       		.uleb128 0x2
 3296 090d 91       		.byte	0x91
 3297 090e 48       		.sleb128 -56
 3298 090f 1A       		.uleb128 0x1a
 3299 0910 08130000 		.4byte	.LASF211
 3300 0914 01       		.byte	0x1
 3301 0915 9401     		.2byte	0x194
 3302 0917 AD090000 		.4byte	0x9ad
ARM GAS  C:\Users\sergio\AppData\Local\Temp\ccZ8BvM2.s 			page 77


 3303 091b 02       		.uleb128 0x2
 3304 091c 91       		.byte	0x91
 3305 091d 44       		.sleb128 -60
 3306 091e 1A       		.uleb128 0x1a
 3307 091f 6A110000 		.4byte	.LASF212
 3308 0923 01       		.byte	0x1
 3309 0924 F801     		.2byte	0x1f8
 3310 0926 81000000 		.4byte	0x81
 3311 092a 02       		.uleb128 0x2
 3312 092b 91       		.byte	0x91
 3313 092c 57       		.sleb128 -41
 3314 092d 1A       		.uleb128 0x1a
 3315 092e EB0D0000 		.4byte	.LASF213
 3316 0932 01       		.byte	0x1
 3317 0933 F901     		.2byte	0x1f9
 3318 0935 81000000 		.4byte	0x81
 3319 0939 02       		.uleb128 0x2
 3320 093a 91       		.byte	0x91
 3321 093b 5A       		.sleb128 -38
 3322 093c 1A       		.uleb128 0x1a
 3323 093d 450F0000 		.4byte	.LASF214
 3324 0941 01       		.byte	0x1
 3325 0942 FA01     		.2byte	0x1fa
 3326 0944 81000000 		.4byte	0x81
 3327 0948 02       		.uleb128 0x2
 3328 0949 91       		.byte	0x91
 3329 094a 56       		.sleb128 -42
 3330 094b 1A       		.uleb128 0x1a
 3331 094c 190C0000 		.4byte	.LASF215
 3332 0950 01       		.byte	0x1
 3333 0951 FB01     		.2byte	0x1fb
 3334 0953 81000000 		.4byte	0x81
 3335 0957 02       		.uleb128 0x2
 3336 0958 91       		.byte	0x91
 3337 0959 59       		.sleb128 -39
 3338 095a 1A       		.uleb128 0x1a
 3339 095b 6E0D0000 		.4byte	.LASF216
 3340 095f 01       		.byte	0x1
 3341 0960 FC01     		.2byte	0x1fc
 3342 0962 81000000 		.4byte	0x81
 3343 0966 02       		.uleb128 0x2
 3344 0967 91       		.byte	0x91
 3345 0968 55       		.sleb128 -43
 3346 0969 1A       		.uleb128 0x1a
 3347 096a 180A0000 		.4byte	.LASF217
 3348 096e 01       		.byte	0x1
 3349 096f FD01     		.2byte	0x1fd
 3350 0971 81000000 		.4byte	0x81
 3351 0975 02       		.uleb128 0x2
 3352 0976 91       		.byte	0x91
 3353 0977 58       		.sleb128 -40
 3354 0978 1D       		.uleb128 0x1d
 3355 0979 726800   		.ascii	"rh\000"
 3356 097c 01       		.byte	0x1
 3357 097d 3902     		.2byte	0x239
 3358 097f 8D000000 		.4byte	0x8d
 3359 0983 02       		.uleb128 0x2
ARM GAS  C:\Users\sergio\AppData\Local\Temp\ccZ8BvM2.s 			page 78


 3360 0984 91       		.byte	0x91
 3361 0985 52       		.sleb128 -46
 3362 0986 00       		.byte	0
 3363 0987 00       		.byte	0
 3364 0988 0D       		.uleb128 0xd
 3365 0989 BA000000 		.4byte	0xba
 3366 098d 98090000 		.4byte	0x998
 3367 0991 0E       		.uleb128 0xe
 3368 0992 C6000000 		.4byte	0xc6
 3369 0996 01       		.byte	0x1
 3370 0997 00       		.byte	0
 3371 0998 06       		.uleb128 0x6
 3372 0999 88090000 		.4byte	0x988
 3373 099d 0D       		.uleb128 0xd
 3374 099e B3000000 		.4byte	0xb3
 3375 09a2 AD090000 		.4byte	0x9ad
 3376 09a6 0E       		.uleb128 0xe
 3377 09a7 C6000000 		.4byte	0xc6
 3378 09ab 31       		.byte	0x31
 3379 09ac 00       		.byte	0
 3380 09ad 06       		.uleb128 0x6
 3381 09ae 88090000 		.4byte	0x988
 3382 09b2 1F       		.uleb128 0x1f
 3383 09b3 F5080000 		.4byte	.LASF218
 3384 09b7 08       		.byte	0x8
 3385 09b8 160B     		.2byte	0xb16
 3386 09ba DA040000 		.4byte	0x4da
 3387 09be 1F       		.uleb128 0x1f
 3388 09bf E80A0000 		.4byte	.LASF219
 3389 09c3 08       		.byte	0x8
 3390 09c4 170B     		.2byte	0xb17
 3391 09c6 FE030000 		.4byte	0x3fe
 3392 09ca 1F       		.uleb128 0x1f
 3393 09cb 730D0000 		.4byte	.LASF220
 3394 09cf 08       		.byte	0x8
 3395 09d0 180B     		.2byte	0xb18
 3396 09d2 BA000000 		.4byte	0xba
 3397 09d6 20       		.uleb128 0x20
 3398 09d7 8F090000 		.4byte	.LASF221
 3399 09db 01       		.byte	0x1
 3400 09dc 11       		.byte	0x11
 3401 09dd 6B040000 		.4byte	0x46b
 3402 09e1 05       		.uleb128 0x5
 3403 09e2 03       		.byte	0x3
 3404 09e3 00000000 		.4byte	thermoHandle
 3405 09e7 20       		.uleb128 0x20
 3406 09e8 CA090000 		.4byte	.LASF222
 3407 09ec 01       		.byte	0x1
 3408 09ed 20       		.byte	0x20
 3409 09ee 68000000 		.4byte	0x68
 3410 09f2 05       		.uleb128 0x5
 3411 09f3 03       		.byte	0x3
 3412 09f4 00000000 		.4byte	interruptFlag
 3413 09f8 20       		.uleb128 0x20
 3414 09f9 53130000 		.4byte	.LASF223
 3415 09fd 01       		.byte	0x1
 3416 09fe 21       		.byte	0x21
ARM GAS  C:\Users\sergio\AppData\Local\Temp\ccZ8BvM2.s 			page 79


 3417 09ff 81000000 		.4byte	0x81
 3418 0a03 05       		.uleb128 0x5
 3419 0a04 03       		.byte	0x3
 3420 0a05 00000000 		.4byte	isNotify
 3421 0a09 20       		.uleb128 0x20
 3422 0a0a 96100000 		.4byte	.LASF224
 3423 0a0e 01       		.byte	0x1
 3424 0a0f 22       		.byte	0x22
 3425 0a10 81000000 		.4byte	0x81
 3426 0a14 05       		.uleb128 0x5
 3427 0a15 03       		.byte	0x3
 3428 0a16 00000000 		.4byte	updateIsNotifyCCCDAttr
 3429 0a1a 20       		.uleb128 0x20
 3430 0a1b D9030000 		.4byte	.LASF225
 3431 0a1f 01       		.byte	0x1
 3432 0a20 23       		.byte	0x23
 3433 0a21 81000000 		.4byte	0x81
 3434 0a25 05       		.uleb128 0x5
 3435 0a26 03       		.byte	0x3
 3436 0a27 00000000 		.4byte	bleConnected
 3437 0a2b 20       		.uleb128 0x20
 3438 0a2c 310E0000 		.4byte	.LASF226
 3439 0a30 01       		.byte	0x1
 3440 0a31 24       		.byte	0x24
 3441 0a32 9D090000 		.4byte	0x99d
 3442 0a36 05       		.uleb128 0x5
 3443 0a37 03       		.byte	0x3
 3444 0a38 00000000 		.4byte	uartStr
 3445 0a3c 20       		.uleb128 0x20
 3446 0a3d F50E0000 		.4byte	.LASF227
 3447 0a41 01       		.byte	0x1
 3448 0a42 26       		.byte	0x26
 3449 0a43 81000000 		.4byte	0x81
 3450 0a47 05       		.uleb128 0x5
 3451 0a48 03       		.byte	0x3
 3452 0a49 00000000 		.4byte	gpioPins
 3453 0a4d 20       		.uleb128 0x20
 3454 0a4e 4E000000 		.4byte	.LASF228
 3455 0a52 01       		.byte	0x1
 3456 0a53 27       		.byte	0x27
 3457 0a54 8D000000 		.4byte	0x8d
 3458 0a58 05       		.uleb128 0x5
 3459 0a59 03       		.byte	0x3
 3460 0a5a 00000000 		.4byte	adcRead
 3461 0a5e 20       		.uleb128 0x20
 3462 0a5f 54110000 		.4byte	.LASF229
 3463 0a63 01       		.byte	0x1
 3464 0a64 48       		.byte	0x48
 3465 0a65 D3050000 		.4byte	0x5d3
 3466 0a69 05       		.uleb128 0x5
 3467 0a6a 03       		.byte	0x3
 3468 0a6b 00000000 		.4byte	sensorData
 3469 0a6f 20       		.uleb128 0x20
 3470 0a70 E4050000 		.4byte	.LASF230
 3471 0a74 01       		.byte	0x1
 3472 0a75 56       		.byte	0x56
 3473 0a76 3B060000 		.4byte	0x63b
ARM GAS  C:\Users\sergio\AppData\Local\Temp\ccZ8BvM2.s 			page 80


 3474 0a7a 05       		.uleb128 0x5
 3475 0a7b 03       		.byte	0x3
 3476 0a7c 00000000 		.4byte	thermo
 3477 0a80 20       		.uleb128 0x20
 3478 0a81 93030000 		.4byte	.LASF171
 3479 0a85 01       		.byte	0x1
 3480 0a86 60       		.byte	0x60
 3481 0a87 81000000 		.4byte	0x81
 3482 0a8b 05       		.uleb128 0x5
 3483 0a8c 03       		.byte	0x3
 3484 0a8d 00000000 		.4byte	setTemperature
 3485 0a91 20       		.uleb128 0x20
 3486 0a92 70030000 		.4byte	.LASF231
 3487 0a96 01       		.byte	0x1
 3488 0a97 62       		.byte	0x62
 3489 0a98 81000000 		.4byte	0x81
 3490 0a9c 05       		.uleb128 0x5
 3491 0a9d 03       		.byte	0x3
 3492 0a9e 00000000 		.4byte	prevComp
 3493 0aa2 20       		.uleb128 0x20
 3494 0aa3 78000000 		.4byte	.LASF232
 3495 0aa7 01       		.byte	0x1
 3496 0aa8 63       		.byte	0x63
 3497 0aa9 81000000 		.4byte	0x81
 3498 0aad 05       		.uleb128 0x5
 3499 0aae 03       		.byte	0x3
 3500 0aaf 00000000 		.4byte	prevLFan
 3501 0ab3 20       		.uleb128 0x20
 3502 0ab4 C1090000 		.4byte	.LASF233
 3503 0ab8 01       		.byte	0x1
 3504 0ab9 64       		.byte	0x64
 3505 0aba 81000000 		.4byte	0x81
 3506 0abe 05       		.uleb128 0x5
 3507 0abf 03       		.byte	0x3
 3508 0ac0 00000000 		.4byte	prevHFan
 3509 0ac4 00       		.byte	0
 3510              		.section	.debug_abbrev,"",%progbits
 3511              	.Ldebug_abbrev0:
 3512 0000 01       		.uleb128 0x1
 3513 0001 11       		.uleb128 0x11
 3514 0002 01       		.byte	0x1
 3515 0003 25       		.uleb128 0x25
 3516 0004 0E       		.uleb128 0xe
 3517 0005 13       		.uleb128 0x13
 3518 0006 0B       		.uleb128 0xb
 3519 0007 03       		.uleb128 0x3
 3520 0008 0E       		.uleb128 0xe
 3521 0009 1B       		.uleb128 0x1b
 3522 000a 0E       		.uleb128 0xe
 3523 000b 55       		.uleb128 0x55
 3524 000c 17       		.uleb128 0x17
 3525 000d 11       		.uleb128 0x11
 3526 000e 01       		.uleb128 0x1
 3527 000f 10       		.uleb128 0x10
 3528 0010 17       		.uleb128 0x17
 3529 0011 00       		.byte	0
 3530 0012 00       		.byte	0
ARM GAS  C:\Users\sergio\AppData\Local\Temp\ccZ8BvM2.s 			page 81


 3531 0013 02       		.uleb128 0x2
 3532 0014 24       		.uleb128 0x24
 3533 0015 00       		.byte	0
 3534 0016 0B       		.uleb128 0xb
 3535 0017 0B       		.uleb128 0xb
 3536 0018 3E       		.uleb128 0x3e
 3537 0019 0B       		.uleb128 0xb
 3538 001a 03       		.uleb128 0x3
 3539 001b 0E       		.uleb128 0xe
 3540 001c 00       		.byte	0
 3541 001d 00       		.byte	0
 3542 001e 03       		.uleb128 0x3
 3543 001f 16       		.uleb128 0x16
 3544 0020 00       		.byte	0
 3545 0021 03       		.uleb128 0x3
 3546 0022 0E       		.uleb128 0xe
 3547 0023 3A       		.uleb128 0x3a
 3548 0024 0B       		.uleb128 0xb
 3549 0025 3B       		.uleb128 0x3b
 3550 0026 0B       		.uleb128 0xb
 3551 0027 49       		.uleb128 0x49
 3552 0028 13       		.uleb128 0x13
 3553 0029 00       		.byte	0
 3554 002a 00       		.byte	0
 3555 002b 04       		.uleb128 0x4
 3556 002c 24       		.uleb128 0x24
 3557 002d 00       		.byte	0
 3558 002e 0B       		.uleb128 0xb
 3559 002f 0B       		.uleb128 0xb
 3560 0030 3E       		.uleb128 0x3e
 3561 0031 0B       		.uleb128 0xb
 3562 0032 03       		.uleb128 0x3
 3563 0033 08       		.uleb128 0x8
 3564 0034 00       		.byte	0
 3565 0035 00       		.byte	0
 3566 0036 05       		.uleb128 0x5
 3567 0037 16       		.uleb128 0x16
 3568 0038 00       		.byte	0
 3569 0039 03       		.uleb128 0x3
 3570 003a 0E       		.uleb128 0xe
 3571 003b 3A       		.uleb128 0x3a
 3572 003c 0B       		.uleb128 0xb
 3573 003d 3B       		.uleb128 0x3b
 3574 003e 05       		.uleb128 0x5
 3575 003f 49       		.uleb128 0x49
 3576 0040 13       		.uleb128 0x13
 3577 0041 00       		.byte	0
 3578 0042 00       		.byte	0
 3579 0043 06       		.uleb128 0x6
 3580 0044 35       		.uleb128 0x35
 3581 0045 00       		.byte	0
 3582 0046 49       		.uleb128 0x49
 3583 0047 13       		.uleb128 0x13
 3584 0048 00       		.byte	0
 3585 0049 00       		.byte	0
 3586 004a 07       		.uleb128 0x7
 3587 004b 0F       		.uleb128 0xf
ARM GAS  C:\Users\sergio\AppData\Local\Temp\ccZ8BvM2.s 			page 82


 3588 004c 00       		.byte	0
 3589 004d 0B       		.uleb128 0xb
 3590 004e 0B       		.uleb128 0xb
 3591 004f 00       		.byte	0
 3592 0050 00       		.byte	0
 3593 0051 08       		.uleb128 0x8
 3594 0052 04       		.uleb128 0x4
 3595 0053 01       		.byte	0x1
 3596 0054 0B       		.uleb128 0xb
 3597 0055 0B       		.uleb128 0xb
 3598 0056 49       		.uleb128 0x49
 3599 0057 13       		.uleb128 0x13
 3600 0058 3A       		.uleb128 0x3a
 3601 0059 0B       		.uleb128 0xb
 3602 005a 3B       		.uleb128 0x3b
 3603 005b 05       		.uleb128 0x5
 3604 005c 01       		.uleb128 0x1
 3605 005d 13       		.uleb128 0x13
 3606 005e 00       		.byte	0
 3607 005f 00       		.byte	0
 3608 0060 09       		.uleb128 0x9
 3609 0061 28       		.uleb128 0x28
 3610 0062 00       		.byte	0
 3611 0063 03       		.uleb128 0x3
 3612 0064 0E       		.uleb128 0xe
 3613 0065 1C       		.uleb128 0x1c
 3614 0066 0B       		.uleb128 0xb
 3615 0067 00       		.byte	0
 3616 0068 00       		.byte	0
 3617 0069 0A       		.uleb128 0xa
 3618 006a 28       		.uleb128 0x28
 3619 006b 00       		.byte	0
 3620 006c 03       		.uleb128 0x3
 3621 006d 0E       		.uleb128 0xe
 3622 006e 1C       		.uleb128 0x1c
 3623 006f 05       		.uleb128 0x5
 3624 0070 00       		.byte	0
 3625 0071 00       		.byte	0
 3626 0072 0B       		.uleb128 0xb
 3627 0073 13       		.uleb128 0x13
 3628 0074 01       		.byte	0x1
 3629 0075 0B       		.uleb128 0xb
 3630 0076 0B       		.uleb128 0xb
 3631 0077 3A       		.uleb128 0x3a
 3632 0078 0B       		.uleb128 0xb
 3633 0079 3B       		.uleb128 0x3b
 3634 007a 05       		.uleb128 0x5
 3635 007b 01       		.uleb128 0x1
 3636 007c 13       		.uleb128 0x13
 3637 007d 00       		.byte	0
 3638 007e 00       		.byte	0
 3639 007f 0C       		.uleb128 0xc
 3640 0080 0D       		.uleb128 0xd
 3641 0081 00       		.byte	0
 3642 0082 03       		.uleb128 0x3
 3643 0083 0E       		.uleb128 0xe
 3644 0084 3A       		.uleb128 0x3a
ARM GAS  C:\Users\sergio\AppData\Local\Temp\ccZ8BvM2.s 			page 83


 3645 0085 0B       		.uleb128 0xb
 3646 0086 3B       		.uleb128 0x3b
 3647 0087 05       		.uleb128 0x5
 3648 0088 49       		.uleb128 0x49
 3649 0089 13       		.uleb128 0x13
 3650 008a 38       		.uleb128 0x38
 3651 008b 0B       		.uleb128 0xb
 3652 008c 00       		.byte	0
 3653 008d 00       		.byte	0
 3654 008e 0D       		.uleb128 0xd
 3655 008f 01       		.uleb128 0x1
 3656 0090 01       		.byte	0x1
 3657 0091 49       		.uleb128 0x49
 3658 0092 13       		.uleb128 0x13
 3659 0093 01       		.uleb128 0x1
 3660 0094 13       		.uleb128 0x13
 3661 0095 00       		.byte	0
 3662 0096 00       		.byte	0
 3663 0097 0E       		.uleb128 0xe
 3664 0098 21       		.uleb128 0x21
 3665 0099 00       		.byte	0
 3666 009a 49       		.uleb128 0x49
 3667 009b 13       		.uleb128 0x13
 3668 009c 2F       		.uleb128 0x2f
 3669 009d 0B       		.uleb128 0xb
 3670 009e 00       		.byte	0
 3671 009f 00       		.byte	0
 3672 00a0 0F       		.uleb128 0xf
 3673 00a1 0F       		.uleb128 0xf
 3674 00a2 00       		.byte	0
 3675 00a3 0B       		.uleb128 0xb
 3676 00a4 0B       		.uleb128 0xb
 3677 00a5 49       		.uleb128 0x49
 3678 00a6 13       		.uleb128 0x13
 3679 00a7 00       		.byte	0
 3680 00a8 00       		.byte	0
 3681 00a9 10       		.uleb128 0x10
 3682 00aa 0D       		.uleb128 0xd
 3683 00ab 00       		.byte	0
 3684 00ac 03       		.uleb128 0x3
 3685 00ad 08       		.uleb128 0x8
 3686 00ae 3A       		.uleb128 0x3a
 3687 00af 0B       		.uleb128 0xb
 3688 00b0 3B       		.uleb128 0x3b
 3689 00b1 05       		.uleb128 0x5
 3690 00b2 49       		.uleb128 0x49
 3691 00b3 13       		.uleb128 0x13
 3692 00b4 38       		.uleb128 0x38
 3693 00b5 0B       		.uleb128 0xb
 3694 00b6 00       		.byte	0
 3695 00b7 00       		.byte	0
 3696 00b8 11       		.uleb128 0x11
 3697 00b9 13       		.uleb128 0x13
 3698 00ba 01       		.byte	0x1
 3699 00bb 0B       		.uleb128 0xb
 3700 00bc 0B       		.uleb128 0xb
 3701 00bd 3A       		.uleb128 0x3a
ARM GAS  C:\Users\sergio\AppData\Local\Temp\ccZ8BvM2.s 			page 84


 3702 00be 0B       		.uleb128 0xb
 3703 00bf 3B       		.uleb128 0x3b
 3704 00c0 0B       		.uleb128 0xb
 3705 00c1 01       		.uleb128 0x1
 3706 00c2 13       		.uleb128 0x13
 3707 00c3 00       		.byte	0
 3708 00c4 00       		.byte	0
 3709 00c5 12       		.uleb128 0x12
 3710 00c6 0D       		.uleb128 0xd
 3711 00c7 00       		.byte	0
 3712 00c8 03       		.uleb128 0x3
 3713 00c9 0E       		.uleb128 0xe
 3714 00ca 3A       		.uleb128 0x3a
 3715 00cb 0B       		.uleb128 0xb
 3716 00cc 3B       		.uleb128 0x3b
 3717 00cd 0B       		.uleb128 0xb
 3718 00ce 49       		.uleb128 0x49
 3719 00cf 13       		.uleb128 0x13
 3720 00d0 38       		.uleb128 0x38
 3721 00d1 0B       		.uleb128 0xb
 3722 00d2 00       		.byte	0
 3723 00d3 00       		.byte	0
 3724 00d4 13       		.uleb128 0x13
 3725 00d5 2E       		.uleb128 0x2e
 3726 00d6 01       		.byte	0x1
 3727 00d7 3F       		.uleb128 0x3f
 3728 00d8 19       		.uleb128 0x19
 3729 00d9 03       		.uleb128 0x3
 3730 00da 0E       		.uleb128 0xe
 3731 00db 3A       		.uleb128 0x3a
 3732 00dc 0B       		.uleb128 0xb
 3733 00dd 3B       		.uleb128 0x3b
 3734 00de 0B       		.uleb128 0xb
 3735 00df 27       		.uleb128 0x27
 3736 00e0 19       		.uleb128 0x19
 3737 00e1 11       		.uleb128 0x11
 3738 00e2 01       		.uleb128 0x1
 3739 00e3 12       		.uleb128 0x12
 3740 00e4 06       		.uleb128 0x6
 3741 00e5 40       		.uleb128 0x40
 3742 00e6 18       		.uleb128 0x18
 3743 00e7 9642     		.uleb128 0x2116
 3744 00e9 19       		.uleb128 0x19
 3745 00ea 01       		.uleb128 0x1
 3746 00eb 13       		.uleb128 0x13
 3747 00ec 00       		.byte	0
 3748 00ed 00       		.byte	0
 3749 00ee 14       		.uleb128 0x14
 3750 00ef 34       		.uleb128 0x34
 3751 00f0 00       		.byte	0
 3752 00f1 03       		.uleb128 0x3
 3753 00f2 0E       		.uleb128 0xe
 3754 00f3 3A       		.uleb128 0x3a
 3755 00f4 0B       		.uleb128 0xb
 3756 00f5 3B       		.uleb128 0x3b
 3757 00f6 0B       		.uleb128 0xb
 3758 00f7 49       		.uleb128 0x49
ARM GAS  C:\Users\sergio\AppData\Local\Temp\ccZ8BvM2.s 			page 85


 3759 00f8 13       		.uleb128 0x13
 3760 00f9 02       		.uleb128 0x2
 3761 00fa 18       		.uleb128 0x18
 3762 00fb 00       		.byte	0
 3763 00fc 00       		.byte	0
 3764 00fd 15       		.uleb128 0x15
 3765 00fe 05       		.uleb128 0x5
 3766 00ff 00       		.byte	0
 3767 0100 03       		.uleb128 0x3
 3768 0101 0E       		.uleb128 0xe
 3769 0102 3A       		.uleb128 0x3a
 3770 0103 0B       		.uleb128 0xb
 3771 0104 3B       		.uleb128 0x3b
 3772 0105 0B       		.uleb128 0xb
 3773 0106 49       		.uleb128 0x49
 3774 0107 13       		.uleb128 0x13
 3775 0108 02       		.uleb128 0x2
 3776 0109 18       		.uleb128 0x18
 3777 010a 00       		.byte	0
 3778 010b 00       		.byte	0
 3779 010c 16       		.uleb128 0x16
 3780 010d 34       		.uleb128 0x34
 3781 010e 00       		.byte	0
 3782 010f 03       		.uleb128 0x3
 3783 0110 0E       		.uleb128 0xe
 3784 0111 3A       		.uleb128 0x3a
 3785 0112 0B       		.uleb128 0xb
 3786 0113 3B       		.uleb128 0x3b
 3787 0114 0B       		.uleb128 0xb
 3788 0115 49       		.uleb128 0x49
 3789 0116 13       		.uleb128 0x13
 3790 0117 00       		.byte	0
 3791 0118 00       		.byte	0
 3792 0119 17       		.uleb128 0x17
 3793 011a 2E       		.uleb128 0x2e
 3794 011b 01       		.byte	0x1
 3795 011c 3F       		.uleb128 0x3f
 3796 011d 19       		.uleb128 0x19
 3797 011e 03       		.uleb128 0x3
 3798 011f 0E       		.uleb128 0xe
 3799 0120 3A       		.uleb128 0x3a
 3800 0121 0B       		.uleb128 0xb
 3801 0122 3B       		.uleb128 0x3b
 3802 0123 0B       		.uleb128 0xb
 3803 0124 11       		.uleb128 0x11
 3804 0125 01       		.uleb128 0x1
 3805 0126 12       		.uleb128 0x12
 3806 0127 06       		.uleb128 0x6
 3807 0128 40       		.uleb128 0x40
 3808 0129 18       		.uleb128 0x18
 3809 012a 9642     		.uleb128 0x2116
 3810 012c 19       		.uleb128 0x19
 3811 012d 01       		.uleb128 0x1
 3812 012e 13       		.uleb128 0x13
 3813 012f 00       		.byte	0
 3814 0130 00       		.byte	0
 3815 0131 18       		.uleb128 0x18
ARM GAS  C:\Users\sergio\AppData\Local\Temp\ccZ8BvM2.s 			page 86


 3816 0132 2E       		.uleb128 0x2e
 3817 0133 00       		.byte	0
 3818 0134 3F       		.uleb128 0x3f
 3819 0135 19       		.uleb128 0x19
 3820 0136 03       		.uleb128 0x3
 3821 0137 0E       		.uleb128 0xe
 3822 0138 3A       		.uleb128 0x3a
 3823 0139 0B       		.uleb128 0xb
 3824 013a 3B       		.uleb128 0x3b
 3825 013b 05       		.uleb128 0x5
 3826 013c 11       		.uleb128 0x11
 3827 013d 01       		.uleb128 0x1
 3828 013e 12       		.uleb128 0x12
 3829 013f 06       		.uleb128 0x6
 3830 0140 40       		.uleb128 0x40
 3831 0141 18       		.uleb128 0x18
 3832 0142 9642     		.uleb128 0x2116
 3833 0144 19       		.uleb128 0x19
 3834 0145 00       		.byte	0
 3835 0146 00       		.byte	0
 3836 0147 19       		.uleb128 0x19
 3837 0148 2E       		.uleb128 0x2e
 3838 0149 01       		.byte	0x1
 3839 014a 3F       		.uleb128 0x3f
 3840 014b 19       		.uleb128 0x19
 3841 014c 03       		.uleb128 0x3
 3842 014d 0E       		.uleb128 0xe
 3843 014e 3A       		.uleb128 0x3a
 3844 014f 0B       		.uleb128 0xb
 3845 0150 3B       		.uleb128 0x3b
 3846 0151 05       		.uleb128 0x5
 3847 0152 49       		.uleb128 0x49
 3848 0153 13       		.uleb128 0x13
 3849 0154 11       		.uleb128 0x11
 3850 0155 01       		.uleb128 0x1
 3851 0156 12       		.uleb128 0x12
 3852 0157 06       		.uleb128 0x6
 3853 0158 40       		.uleb128 0x40
 3854 0159 18       		.uleb128 0x18
 3855 015a 9642     		.uleb128 0x2116
 3856 015c 19       		.uleb128 0x19
 3857 015d 01       		.uleb128 0x1
 3858 015e 13       		.uleb128 0x13
 3859 015f 00       		.byte	0
 3860 0160 00       		.byte	0
 3861 0161 1A       		.uleb128 0x1a
 3862 0162 34       		.uleb128 0x34
 3863 0163 00       		.byte	0
 3864 0164 03       		.uleb128 0x3
 3865 0165 0E       		.uleb128 0xe
 3866 0166 3A       		.uleb128 0x3a
 3867 0167 0B       		.uleb128 0xb
 3868 0168 3B       		.uleb128 0x3b
 3869 0169 05       		.uleb128 0x5
 3870 016a 49       		.uleb128 0x49
 3871 016b 13       		.uleb128 0x13
 3872 016c 02       		.uleb128 0x2
ARM GAS  C:\Users\sergio\AppData\Local\Temp\ccZ8BvM2.s 			page 87


 3873 016d 18       		.uleb128 0x18
 3874 016e 00       		.byte	0
 3875 016f 00       		.byte	0
 3876 0170 1B       		.uleb128 0x1b
 3877 0171 2E       		.uleb128 0x2e
 3878 0172 01       		.byte	0x1
 3879 0173 3F       		.uleb128 0x3f
 3880 0174 19       		.uleb128 0x19
 3881 0175 03       		.uleb128 0x3
 3882 0176 0E       		.uleb128 0xe
 3883 0177 3A       		.uleb128 0x3a
 3884 0178 0B       		.uleb128 0xb
 3885 0179 3B       		.uleb128 0x3b
 3886 017a 05       		.uleb128 0x5
 3887 017b 11       		.uleb128 0x11
 3888 017c 01       		.uleb128 0x1
 3889 017d 12       		.uleb128 0x12
 3890 017e 06       		.uleb128 0x6
 3891 017f 40       		.uleb128 0x40
 3892 0180 18       		.uleb128 0x18
 3893 0181 9642     		.uleb128 0x2116
 3894 0183 19       		.uleb128 0x19
 3895 0184 01       		.uleb128 0x1
 3896 0185 13       		.uleb128 0x13
 3897 0186 00       		.byte	0
 3898 0187 00       		.byte	0
 3899 0188 1C       		.uleb128 0x1c
 3900 0189 0B       		.uleb128 0xb
 3901 018a 01       		.byte	0x1
 3902 018b 11       		.uleb128 0x11
 3903 018c 01       		.uleb128 0x1
 3904 018d 12       		.uleb128 0x12
 3905 018e 06       		.uleb128 0x6
 3906 018f 00       		.byte	0
 3907 0190 00       		.byte	0
 3908 0191 1D       		.uleb128 0x1d
 3909 0192 34       		.uleb128 0x34
 3910 0193 00       		.byte	0
 3911 0194 03       		.uleb128 0x3
 3912 0195 08       		.uleb128 0x8
 3913 0196 3A       		.uleb128 0x3a
 3914 0197 0B       		.uleb128 0xb
 3915 0198 3B       		.uleb128 0x3b
 3916 0199 05       		.uleb128 0x5
 3917 019a 49       		.uleb128 0x49
 3918 019b 13       		.uleb128 0x13
 3919 019c 02       		.uleb128 0x2
 3920 019d 18       		.uleb128 0x18
 3921 019e 00       		.byte	0
 3922 019f 00       		.byte	0
 3923 01a0 1E       		.uleb128 0x1e
 3924 01a1 2E       		.uleb128 0x2e
 3925 01a2 01       		.byte	0x1
 3926 01a3 3F       		.uleb128 0x3f
 3927 01a4 19       		.uleb128 0x19
 3928 01a5 03       		.uleb128 0x3
 3929 01a6 0E       		.uleb128 0xe
ARM GAS  C:\Users\sergio\AppData\Local\Temp\ccZ8BvM2.s 			page 88


 3930 01a7 3A       		.uleb128 0x3a
 3931 01a8 0B       		.uleb128 0xb
 3932 01a9 3B       		.uleb128 0x3b
 3933 01aa 05       		.uleb128 0x5
 3934 01ab 27       		.uleb128 0x27
 3935 01ac 19       		.uleb128 0x19
 3936 01ad 49       		.uleb128 0x49
 3937 01ae 13       		.uleb128 0x13
 3938 01af 11       		.uleb128 0x11
 3939 01b0 01       		.uleb128 0x1
 3940 01b1 12       		.uleb128 0x12
 3941 01b2 06       		.uleb128 0x6
 3942 01b3 40       		.uleb128 0x40
 3943 01b4 18       		.uleb128 0x18
 3944 01b5 9642     		.uleb128 0x2116
 3945 01b7 19       		.uleb128 0x19
 3946 01b8 01       		.uleb128 0x1
 3947 01b9 13       		.uleb128 0x13
 3948 01ba 00       		.byte	0
 3949 01bb 00       		.byte	0
 3950 01bc 1F       		.uleb128 0x1f
 3951 01bd 34       		.uleb128 0x34
 3952 01be 00       		.byte	0
 3953 01bf 03       		.uleb128 0x3
 3954 01c0 0E       		.uleb128 0xe
 3955 01c1 3A       		.uleb128 0x3a
 3956 01c2 0B       		.uleb128 0xb
 3957 01c3 3B       		.uleb128 0x3b
 3958 01c4 05       		.uleb128 0x5
 3959 01c5 49       		.uleb128 0x49
 3960 01c6 13       		.uleb128 0x13
 3961 01c7 3F       		.uleb128 0x3f
 3962 01c8 19       		.uleb128 0x19
 3963 01c9 3C       		.uleb128 0x3c
 3964 01ca 19       		.uleb128 0x19
 3965 01cb 00       		.byte	0
 3966 01cc 00       		.byte	0
 3967 01cd 20       		.uleb128 0x20
 3968 01ce 34       		.uleb128 0x34
 3969 01cf 00       		.byte	0
 3970 01d0 03       		.uleb128 0x3
 3971 01d1 0E       		.uleb128 0xe
 3972 01d2 3A       		.uleb128 0x3a
 3973 01d3 0B       		.uleb128 0xb
 3974 01d4 3B       		.uleb128 0x3b
 3975 01d5 0B       		.uleb128 0xb
 3976 01d6 49       		.uleb128 0x49
 3977 01d7 13       		.uleb128 0x13
 3978 01d8 3F       		.uleb128 0x3f
 3979 01d9 19       		.uleb128 0x19
 3980 01da 02       		.uleb128 0x2
 3981 01db 18       		.uleb128 0x18
 3982 01dc 00       		.byte	0
 3983 01dd 00       		.byte	0
 3984 01de 00       		.byte	0
 3985              		.section	.debug_aranges,"",%progbits
 3986 0000 74000000 		.4byte	0x74
ARM GAS  C:\Users\sergio\AppData\Local\Temp\ccZ8BvM2.s 			page 89


 3987 0004 0200     		.2byte	0x2
 3988 0006 00000000 		.4byte	.Ldebug_info0
 3989 000a 04       		.byte	0x4
 3990 000b 00       		.byte	0
 3991 000c 0000     		.2byte	0
 3992 000e 0000     		.2byte	0
 3993 0010 00000000 		.4byte	.LFB36
 3994 0014 78000000 		.4byte	.LFE36-.LFB36
 3995 0018 00000000 		.4byte	.LFB37
 3996 001c 74010000 		.4byte	.LFE37-.LFB37
 3997 0020 00000000 		.4byte	.LFB38
 3998 0024 74000000 		.4byte	.LFE38-.LFB38
 3999 0028 00000000 		.4byte	.LFB39
 4000 002c 98000000 		.4byte	.LFE39-.LFB39
 4001 0030 00000000 		.4byte	.LFB40
 4002 0034 58000000 		.4byte	.LFE40-.LFB40
 4003 0038 00000000 		.4byte	.LFB41
 4004 003c 2A000000 		.4byte	.LFE41-.LFB41
 4005 0040 00000000 		.4byte	.LFB42
 4006 0044 46000000 		.4byte	.LFE42-.LFB42
 4007 0048 00000000 		.4byte	.LFB43
 4008 004c 4A000000 		.4byte	.LFE43-.LFB43
 4009 0050 00000000 		.4byte	.LFB44
 4010 0054 4A000000 		.4byte	.LFE44-.LFB44
 4011 0058 00000000 		.4byte	.LFB45
 4012 005c 50000000 		.4byte	.LFE45-.LFB45
 4013 0060 00000000 		.4byte	.LFB46
 4014 0064 20000000 		.4byte	.LFE46-.LFB46
 4015 0068 00000000 		.4byte	.LFB47
 4016 006c D4070000 		.4byte	.LFE47-.LFB47
 4017 0070 00000000 		.4byte	0
 4018 0074 00000000 		.4byte	0
 4019              		.section	.debug_ranges,"",%progbits
 4020              	.Ldebug_ranges0:
 4021 0000 00000000 		.4byte	.LFB36
 4022 0004 78000000 		.4byte	.LFE36
 4023 0008 00000000 		.4byte	.LFB37
 4024 000c 74010000 		.4byte	.LFE37
 4025 0010 00000000 		.4byte	.LFB38
 4026 0014 74000000 		.4byte	.LFE38
 4027 0018 00000000 		.4byte	.LFB39
 4028 001c 98000000 		.4byte	.LFE39
 4029 0020 00000000 		.4byte	.LFB40
 4030 0024 58000000 		.4byte	.LFE40
 4031 0028 00000000 		.4byte	.LFB41
 4032 002c 2A000000 		.4byte	.LFE41
 4033 0030 00000000 		.4byte	.LFB42
 4034 0034 46000000 		.4byte	.LFE42
 4035 0038 00000000 		.4byte	.LFB43
 4036 003c 4A000000 		.4byte	.LFE43
 4037 0040 00000000 		.4byte	.LFB44
 4038 0044 4A000000 		.4byte	.LFE44
 4039 0048 00000000 		.4byte	.LFB45
 4040 004c 50000000 		.4byte	.LFE45
 4041 0050 00000000 		.4byte	.LFB46
 4042 0054 20000000 		.4byte	.LFE46
 4043 0058 00000000 		.4byte	.LFB47
ARM GAS  C:\Users\sergio\AppData\Local\Temp\ccZ8BvM2.s 			page 90


 4044 005c D4070000 		.4byte	.LFE47
 4045 0060 00000000 		.4byte	0
 4046 0064 00000000 		.4byte	0
 4047              		.section	.debug_line,"",%progbits
 4048              	.Ldebug_line0:
 4049 0000 D4030000 		.section	.debug_str,"MS",%progbits,1
 4049      02009701 
 4049      00000201 
 4049      FB0E0D00 
 4049      01010101 
 4050              	.LASF60:
 4051 0000 4359424C 		.ascii	"CYBLE_EVT_GATTC_READ_BLOB_RSP\000"
 4051      455F4556 
 4051      545F4741 
 4051      5454435F 
 4051      52454144 
 4052              	.LASF24:
 4053 001e 4359424C 		.ascii	"CYBLE_EVT_STACK_BUSY_STATUS\000"
 4053      455F4556 
 4053      545F5354 
 4053      41434B5F 
 4053      42555359 
 4054              	.LASF142:
 4055 003a 4359424C 		.ascii	"CYBLE_STATE_STOPPED\000"
 4055      455F5354 
 4055      4154455F 
 4055      53544F50 
 4055      50454400 
 4056              	.LASF228:
 4057 004e 61646352 		.ascii	"adcRead\000"
 4057      65616400 
 4058              	.LASF167:
 4059 0056 64617461 		.ascii	"dataCollected\000"
 4059      436F6C6C 
 4059      65637465 
 4059      6400
 4060              	.LASF132:
 4061 0064 4359424C 		.ascii	"CYBLE_CONN_HANDLE_T\000"
 4061      455F434F 
 4061      4E4E5F48 
 4061      414E444C 
 4061      455F5400 
 4062              	.LASF232:
 4063 0078 70726576 		.ascii	"prevLFan\000"
 4063      4C46616E 
 4063      00
 4064              	.LASF139:
 4065 0081 636F6E6E 		.ascii	"connHandle\000"
 4065      48616E64 
 4065      6C6500
 4066              	.LASF94:
 4067 008c 4359424C 		.ascii	"CYBLE_ERROR_MEMORY_ALLOCATION_FAILED\000"
 4067      455F4552 
 4067      524F525F 
 4067      4D454D4F 
 4067      52595F41 
 4068              	.LASF86:
ARM GAS  C:\Users\sergio\AppData\Local\Temp\ccZ8BvM2.s 			page 91


 4069 00b1 4359424C 		.ascii	"CYBLE_EVT_PENDING_FLASH_WRITE\000"
 4069      455F4556 
 4069      545F5045 
 4069      4E44494E 
 4069      475F464C 
 4070              	.LASF161:
 4071 00cf 6C696E65 		.ascii	"lineFreqFan\000"
 4071      46726571 
 4071      46616E00 
 4072              	.LASF115:
 4073 00db 4359424C 		.ascii	"CYBLE_ERROR_UNSUPPORTED_FEATURE_OR_PARAMETER_VALUE\000"
 4073      455F4552 
 4073      524F525F 
 4073      554E5355 
 4073      50504F52 
 4074              	.LASF61:
 4075 010e 4359424C 		.ascii	"CYBLE_EVT_GATTC_READ_MULTI_RSP\000"
 4075      455F4556 
 4075      545F4741 
 4075      5454435F 
 4075      52454144 
 4076              	.LASF9:
 4077 012d 5F5F7569 		.ascii	"__uint8_t\000"
 4077      6E74385F 
 4077      7400
 4078              	.LASF127:
 4079 0137 74797065 		.ascii	"type\000"
 4079      00
 4080              	.LASF205:
 4081 013c 636F6D70 		.ascii	"comp\000"
 4081      00
 4082              	.LASF21:
 4083 0141 4359424C 		.ascii	"CYBLE_EVT_TIMEOUT\000"
 4083      455F4556 
 4083      545F5449 
 4083      4D454F55 
 4083      5400
 4084              	.LASF4:
 4085 0153 6C6F6E67 		.ascii	"long int\000"
 4085      20696E74 
 4085      00
 4086              	.LASF168:
 4087 015c 636F6D70 		.ascii	"compressor\000"
 4087      72657373 
 4087      6F7200
 4088              	.LASF176:
 4089 0167 75706461 		.ascii	"updateThermostatData\000"
 4089      74655468 
 4089      65726D6F 
 4089      73746174 
 4089      44617461 
 4090              	.LASF7:
 4091 017c 6C6F6E67 		.ascii	"long long unsigned int\000"
 4091      206C6F6E 
 4091      6720756E 
 4091      7369676E 
 4091      65642069 
ARM GAS  C:\Users\sergio\AppData\Local\Temp\ccZ8BvM2.s 			page 92


 4092              	.LASF134:
 4093 0193 4359424C 		.ascii	"CYBLE_GATT_VALUE_T\000"
 4093      455F4741 
 4093      54545F56 
 4093      414C5545 
 4093      5F5400
 4094              	.LASF23:
 4095 01a6 4359424C 		.ascii	"CYBLE_EVT_HCI_STATUS\000"
 4095      455F4556 
 4095      545F4843 
 4095      495F5354 
 4095      41545553 
 4096              	.LASF164:
 4097 01bb 61636359 		.ascii	"accY\000"
 4097      00
 4098              	.LASF165:
 4099 01c0 6163635A 		.ascii	"accZ\000"
 4099      00
 4100              	.LASF37:
 4101 01c5 4359424C 		.ascii	"CYBLE_EVT_GAPC_SCAN_START_STOP\000"
 4101      455F4556 
 4101      545F4741 
 4101      50435F53 
 4101      43414E5F 
 4102              	.LASF141:
 4103 01e4 4359424C 		.ascii	"CYBLE_GATTS_WRITE_REQ_PARAM_T\000"
 4103      455F4741 
 4103      5454535F 
 4103      57524954 
 4103      455F5245 
 4104              	.LASF128:
 4105 0202 4359424C 		.ascii	"CYBLE_GAP_BD_ADDR_T\000"
 4105      455F4741 
 4105      505F4244 
 4105      5F414444 
 4105      525F5400 
 4106              	.LASF103:
 4107 0216 4359424C 		.ascii	"CYBLE_ERROR_SEC_FAILED\000"
 4107      455F4552 
 4107      524F525F 
 4107      5345435F 
 4107      4641494C 
 4108              	.LASF35:
 4109 022d 4359424C 		.ascii	"CYBLE_EVT_GAP_ENCRYPT_CHANGE\000"
 4109      455F4556 
 4109      545F4741 
 4109      505F454E 
 4109      43525950 
 4110              	.LASF197:
 4111 024a 72656164 		.ascii	"read_Air_Flow\000"
 4111      5F416972 
 4111      5F466C6F 
 4111      7700
 4112              	.LASF39:
 4113 0258 4359424C 		.ascii	"CYBLE_EVT_GAP_NUMERIC_COMPARISON_REQUEST\000"
 4113      455F4556 
 4113      545F4741 
ARM GAS  C:\Users\sergio\AppData\Local\Temp\ccZ8BvM2.s 			page 93


 4113      505F4E55 
 4113      4D455249 
 4114              	.LASF186:
 4115 0281 53656E64 		.ascii	"SendDataNotify\000"
 4115      44617461 
 4115      4E6F7469 
 4115      667900
 4116              	.LASF150:
 4117 0290 72656D6F 		.ascii	"remoteTemp1\000"
 4117      74655465 
 4117      6D703100 
 4118              	.LASF145:
 4119 029c 4359424C 		.ascii	"CYBLE_STATE_ADVERTISING\000"
 4119      455F5354 
 4119      4154455F 
 4119      41445645 
 4119      52544953 
 4120              	.LASF152:
 4121 02b4 72656D6F 		.ascii	"remoteTemp3\000"
 4121      74655465 
 4121      6D703300 
 4122              	.LASF153:
 4123 02c0 72656D6F 		.ascii	"remoteTemp4\000"
 4123      74655465 
 4123      6D703400 
 4124              	.LASF0:
 4125 02cc 7369676E 		.ascii	"signed char\000"
 4125      65642063 
 4125      68617200 
 4126              	.LASF20:
 4127 02d8 4359424C 		.ascii	"CYBLE_EVT_STACK_ON\000"
 4127      455F4556 
 4127      545F5354 
 4127      41434B5F 
 4127      4F4E00
 4128              	.LASF169:
 4129 02eb 66616E4C 		.ascii	"fanLow\000"
 4129      6F7700
 4130              	.LASF156:
 4131 02f2 766F6C74 		.ascii	"volt\000"
 4131      00
 4132              	.LASF111:
 4133 02f7 4359424C 		.ascii	"CYBLE_ERROR_DEVICE_ALREADY_EXISTS\000"
 4133      455F4552 
 4133      524F525F 
 4133      44455649 
 4133      43455F41 
 4134              	.LASF98:
 4135 0319 4359424C 		.ascii	"CYBLE_ERROR_NO_DEVICE_ENTITY\000"
 4135      455F4552 
 4135      524F525F 
 4135      4E4F5F44 
 4135      45564943 
 4136              	.LASF133:
 4137 0336 61637475 		.ascii	"actualLen\000"
 4137      616C4C65 
 4137      6E00
ARM GAS  C:\Users\sergio\AppData\Local\Temp\ccZ8BvM2.s 			page 94


 4138              	.LASF27:
 4139 0340 4359424C 		.ascii	"CYBLE_EVT_GAP_AUTH_REQ\000"
 4139      455F4556 
 4139      545F4741 
 4139      505F4155 
 4139      54485F52 
 4140              	.LASF59:
 4141 0357 4359424C 		.ascii	"CYBLE_EVT_GATTC_READ_RSP\000"
 4141      455F4556 
 4141      545F4741 
 4141      5454435F 
 4141      52454144 
 4142              	.LASF231:
 4143 0370 70726576 		.ascii	"prevComp\000"
 4143      436F6D70 
 4143      00
 4144              	.LASF123:
 4145 0379 4359424C 		.ascii	"CYBLE_ERROR_INVALID_STATE\000"
 4145      455F4552 
 4145      524F525F 
 4145      494E5641 
 4145      4C49445F 
 4146              	.LASF171:
 4147 0393 73657454 		.ascii	"setTemperature\000"
 4147      656D7065 
 4147      72617475 
 4147      726500
 4148              	.LASF64:
 4149 03a2 4359424C 		.ascii	"CYBLE_EVT_GATTS_WRITE_CMD_REQ\000"
 4149      455F4556 
 4149      545F4741 
 4149      5454535F 
 4149      57524954 
 4150              	.LASF146:
 4151 03c0 4359424C 		.ascii	"CYBLE_STATE_DISCONNECTED\000"
 4151      455F5354 
 4151      4154455F 
 4151      44495343 
 4151      4F4E4E45 
 4152              	.LASF225:
 4153 03d9 626C6543 		.ascii	"bleConnected\000"
 4153      6F6E6E65 
 4153      63746564 
 4153      00
 4154              	.LASF32:
 4155 03e6 4359424C 		.ascii	"CYBLE_EVT_GAPP_ADVERTISEMENT_START_STOP\000"
 4155      455F4556 
 4155      545F4741 
 4155      50505F41 
 4155      44564552 
 4156              	.LASF155:
 4157 040e 766F6C74 		.ascii	"voltFan\000"
 4157      46616E00 
 4158              	.LASF109:
 4159 0416 4359424C 		.ascii	"CYBLE_ERROR_L2CAP_PSM_NOT_IN_RANGE\000"
 4159      455F4552 
 4159      524F525F 
ARM GAS  C:\Users\sergio\AppData\Local\Temp\ccZ8BvM2.s 			page 95


 4159      4C324341 
 4159      505F5053 
 4160              	.LASF53:
 4161 0439 4359424C 		.ascii	"CYBLE_EVT_GATTS_XCNHG_MTU_REQ\000"
 4161      455F4556 
 4161      545F4741 
 4161      5454535F 
 4161      58434E48 
 4162              	.LASF11:
 4163 0457 75696E74 		.ascii	"uint8\000"
 4163      3800
 4164              	.LASF15:
 4165 045d 646F7562 		.ascii	"double\000"
 4165      6C6500
 4166              	.LASF6:
 4167 0464 6C6F6E67 		.ascii	"long long int\000"
 4167      206C6F6E 
 4167      6720696E 
 4167      7400
 4168              	.LASF67:
 4169 0472 4359424C 		.ascii	"CYBLE_EVT_GATTC_EXEC_WRITE_RSP\000"
 4169      455F4556 
 4169      545F4741 
 4169      5454435F 
 4169      45584543 
 4170              	.LASF200:
 4171 0491 74656D70 		.ascii	"tempR1\000"
 4171      523100
 4172              	.LASF201:
 4173 0498 74656D70 		.ascii	"tempR2\000"
 4173      523200
 4174              	.LASF92:
 4175 049f 4359424C 		.ascii	"CYBLE_ERROR_INVALID_PARAMETER\000"
 4175      455F4552 
 4175      524F525F 
 4175      494E5641 
 4175      4C49445F 
 4176              	.LASF236:
 4177 04bd 433A5C55 		.ascii	"C:\\Users\\sergio\\Documents\\GitHub\\thermostat\\t"
 4177      73657273 
 4177      5C736572 
 4177      67696F5C 
 4177      446F6375 
 4178 04ea 6573742E 		.ascii	"est.cydsn\000"
 4178      63796473 
 4178      6E00
 4179              	.LASF13:
 4180 04f4 75696E74 		.ascii	"uint32\000"
 4180      333200
 4181              	.LASF148:
 4182 04fb 6C6F6361 		.ascii	"localTemp\000"
 4182      6C54656D 
 4182      7000
 4183              	.LASF90:
 4184 0505 4359424C 		.ascii	"CYBLE_EVT_MAX\000"
 4184      455F4556 
 4184      545F4D41 
ARM GAS  C:\Users\sergio\AppData\Local\Temp\ccZ8BvM2.s 			page 96


 4184      5800
 4185              	.LASF91:
 4186 0513 4359424C 		.ascii	"CYBLE_ERROR_OK\000"
 4186      455F4552 
 4186      524F525F 
 4186      4F4B00
 4187              	.LASF50:
 4188 0522 4359424C 		.ascii	"CYBLE_EVT_GATTC_ERROR_RSP\000"
 4188      455F4556 
 4188      545F4741 
 4188      5454435F 
 4188      4552524F 
 4189              	.LASF130:
 4190 053c 62644861 		.ascii	"bdHandle\000"
 4190      6E646C65 
 4190      00
 4191              	.LASF136:
 4192 0545 61747472 		.ascii	"attrHandle\000"
 4192      48616E64 
 4192      6C6500
 4193              	.LASF157:
 4194 0550 63757272 		.ascii	"currentCompressor\000"
 4194      656E7443 
 4194      6F6D7072 
 4194      6573736F 
 4194      7200
 4195              	.LASF85:
 4196 0562 4359424C 		.ascii	"CYBLE_EVT_L2CAP_CBFC_DATA_WRITE_IND\000"
 4196      455F4556 
 4196      545F4C32 
 4196      4341505F 
 4196      43424643 
 4197              	.LASF116:
 4198 0586 4359424C 		.ascii	"CYBLE_ERROR_FLASH_WRITE\000"
 4198      455F4552 
 4198      524F525F 
 4198      464C4153 
 4198      485F5752 
 4199              	.LASF47:
 4200 059e 4359424C 		.ascii	"CYBLE_EVT_GAP_SCAN_REQ_RECVD\000"
 4200      455F4556 
 4200      545F4741 
 4200      505F5343 
 4200      414E5F52 
 4201              	.LASF135:
 4202 05bb 76616C75 		.ascii	"value\000"
 4202      6500
 4203              	.LASF74:
 4204 05c1 4359424C 		.ascii	"CYBLE_EVT_GATTC_LONG_PROCEDURE_END\000"
 4204      455F4556 
 4204      545F4741 
 4204      5454435F 
 4204      4C4F4E47 
 4205              	.LASF230:
 4206 05e4 74686572 		.ascii	"thermo\000"
 4206      6D6F00
 4207              	.LASF72:
ARM GAS  C:\Users\sergio\AppData\Local\Temp\ccZ8BvM2.s 			page 97


 4208 05eb 4359424C 		.ascii	"CYBLE_EVT_GATTC_STOP_CMD_COMPLETE\000"
 4208      455F4556 
 4208      545F4741 
 4208      5454435F 
 4208      53544F50 
 4209              	.LASF207:
 4210 060d 66616E48 		.ascii	"fanH\000"
 4210      00
 4211              	.LASF96:
 4212 0612 4359424C 		.ascii	"CYBLE_ERROR_OOB_NOT_AVAILABLE\000"
 4212      455F4552 
 4212      524F525F 
 4212      4F4F425F 
 4212      4E4F545F 
 4213              	.LASF175:
 4214 0630 74686572 		.ascii	"thermostatData\000"
 4214      6D6F7374 
 4214      61744461 
 4214      746100
 4215              	.LASF87:
 4216 063f 4359424C 		.ascii	"CYBLE_EVT_LE_PING_AUTH_TIMEOUT\000"
 4216      455F4556 
 4216      545F4C45 
 4216      5F50494E 
 4216      475F4155 
 4217              	.LASF206:
 4218 065e 66616E4C 		.ascii	"fanL\000"
 4218      00
 4219              	.LASF105:
 4220 0663 4359424C 		.ascii	"CYBLE_ERROR_L2CAP_PSM_ALREADY_REGISTERED\000"
 4220      455F4552 
 4220      524F525F 
 4220      4C324341 
 4220      505F5053 
 4221              	.LASF5:
 4222 068c 6C6F6E67 		.ascii	"long unsigned int\000"
 4222      20756E73 
 4222      69676E65 
 4222      6420696E 
 4222      7400
 4223              	.LASF46:
 4224 069e 4359424C 		.ascii	"CYBLE_EVT_GAP_CONN_ESTB\000"
 4224      455F4556 
 4224      545F4741 
 4224      505F434F 
 4224      4E4E5F45 
 4225              	.LASF177:
 4226 06b6 626C6553 		.ascii	"bleStack\000"
 4226      7461636B 
 4226      00
 4227              	.LASF36:
 4228 06bf 4359424C 		.ascii	"CYBLE_EVT_GAP_CONNECTION_UPDATE_COMPLETE\000"
 4228      455F4556 
 4228      545F4741 
 4228      505F434F 
 4228      4E4E4543 
 4229              	.LASF54:
ARM GAS  C:\Users\sergio\AppData\Local\Temp\ccZ8BvM2.s 			page 98


 4230 06e8 4359424C 		.ascii	"CYBLE_EVT_GATTC_XCHNG_MTU_RSP\000"
 4230      455F4556 
 4230      545F4741 
 4230      5454435F 
 4230      5843484E 
 4231              	.LASF71:
 4232 0706 4359424C 		.ascii	"CYBLE_EVT_GATTS_DATA_SIGNED_CMD_REQ\000"
 4232      455F4556 
 4232      545F4741 
 4232      5454535F 
 4232      44415441 
 4233              	.LASF81:
 4234 072a 4359424C 		.ascii	"CYBLE_EVT_L2CAP_CBFC_DISCONN_CNF\000"
 4234      455F4556 
 4234      545F4C32 
 4234      4341505F 
 4234      43424643 
 4235              	.LASF108:
 4236 074b 4359424C 		.ascii	"CYBLE_ERROR_L2CAP_CHANNEL_NOT_FOUND\000"
 4236      455F4552 
 4236      524F525F 
 4236      4C324341 
 4236      505F4348 
 4237              	.LASF178:
 4238 076f 6576656E 		.ascii	"event\000"
 4238      7400
 4239              	.LASF120:
 4240 0775 4359424C 		.ascii	"CYBLE_ERROR_NTF_DISABLED\000"
 4240      455F4552 
 4240      524F525F 
 4240      4E54465F 
 4240      44495341 
 4241              	.LASF19:
 4242 078e 4359424C 		.ascii	"CYBLE_EVT_HOST_INVALID\000"
 4242      455F4556 
 4242      545F484F 
 4242      53545F49 
 4242      4E56414C 
 4243              	.LASF57:
 4244 07a5 4359424C 		.ascii	"CYBLE_EVT_GATTC_FIND_INFO_RSP\000"
 4244      455F4556 
 4244      545F4741 
 4244      5454435F 
 4244      46494E44 
 4245              	.LASF25:
 4246 07c3 4359424C 		.ascii	"CYBLE_EVT_MEMORY_REQUEST\000"
 4246      455F4556 
 4246      545F4D45 
 4246      4D4F5259 
 4246      5F524551 
 4247              	.LASF149:
 4248 07dc 68756D69 		.ascii	"humidity\000"
 4248      64697479 
 4248      00
 4249              	.LASF66:
 4250 07e5 4359424C 		.ascii	"CYBLE_EVT_GATTS_EXEC_WRITE_REQ\000"
 4250      455F4556 
ARM GAS  C:\Users\sergio\AppData\Local\Temp\ccZ8BvM2.s 			page 99


 4250      545F4741 
 4250      5454535F 
 4250      45584543 
 4251              	.LASF126:
 4252 0804 62644164 		.ascii	"bdAddr\000"
 4252      647200
 4253              	.LASF82:
 4254 080b 4359424C 		.ascii	"CYBLE_EVT_L2CAP_CBFC_DATA_READ\000"
 4254      455F4556 
 4254      545F4C32 
 4254      4341505F 
 4254      43424643 
 4255              	.LASF28:
 4256 082a 4359424C 		.ascii	"CYBLE_EVT_GAP_PASSKEY_ENTRY_REQUEST\000"
 4256      455F4556 
 4256      545F4741 
 4256      505F5041 
 4256      53534B45 
 4257              	.LASF33:
 4258 084e 4359424C 		.ascii	"CYBLE_EVT_GAP_DEVICE_CONNECTED\000"
 4258      455F4556 
 4258      545F4741 
 4258      505F4445 
 4258      56494345 
 4259              	.LASF69:
 4260 086d 4359424C 		.ascii	"CYBLE_EVT_GATTC_HANDLE_VALUE_IND\000"
 4260      455F4556 
 4260      545F4741 
 4260      5454435F 
 4260      48414E44 
 4261              	.LASF62:
 4262 088e 4359424C 		.ascii	"CYBLE_EVT_GATTS_WRITE_REQ\000"
 4262      455F4556 
 4262      545F4741 
 4262      5454535F 
 4262      57524954 
 4263              	.LASF48:
 4264 08a8 4359424C 		.ascii	"CYBLE_EVT_GAP_AUTH_REQ_REPLY_ERR\000"
 4264      455F4556 
 4264      545F4741 
 4264      505F4155 
 4264      54485F52 
 4265              	.LASF131:
 4266 08c9 61747449 		.ascii	"attId\000"
 4266      6400
 4267              	.LASF75:
 4268 08cf 4359424C 		.ascii	"CYBLE_EVT_L2CAP_CONN_PARAM_UPDATE_REQ\000"
 4268      455F4556 
 4268      545F4C32 
 4268      4341505F 
 4268      434F4E4E 
 4269              	.LASF218:
 4270 08f5 6379426C 		.ascii	"cyBle_state\000"
 4270      655F7374 
 4270      61746500 
 4271              	.LASF234:
 4272 0901 474E5520 		.ascii	"GNU C11 5.4.1 20160609 (release) [ARM/embedded-5-br"
ARM GAS  C:\Users\sergio\AppData\Local\Temp\ccZ8BvM2.s 			page 100


 4272      43313120 
 4272      352E342E 
 4272      31203230 
 4272      31363036 
 4273 0934 616E6368 		.ascii	"anch revision 237715] -mcpu=cortex-m0 -mthumb -g -O"
 4273      20726576 
 4273      6973696F 
 4273      6E203233 
 4273      37373135 
 4274 0967 30202D66 		.ascii	"0 -ffunction-sections -ffat-lto-objects\000"
 4274      66756E63 
 4274      74696F6E 
 4274      2D736563 
 4274      74696F6E 
 4275              	.LASF221:
 4276 098f 74686572 		.ascii	"thermoHandle\000"
 4276      6D6F4861 
 4276      6E646C65 
 4276      00
 4277              	.LASF51:
 4278 099c 4359424C 		.ascii	"CYBLE_EVT_GATT_CONNECT_IND\000"
 4278      455F4556 
 4278      545F4741 
 4278      54545F43 
 4278      4F4E4E45 
 4279              	.LASF209:
 4280 09b7 72656164 		.ascii	"read_buff\000"
 4280      5F627566 
 4280      6600
 4281              	.LASF233:
 4282 09c1 70726576 		.ascii	"prevHFan\000"
 4282      4846616E 
 4282      00
 4283              	.LASF222:
 4284 09ca 696E7465 		.ascii	"interruptFlag\000"
 4284      72727570 
 4284      74466C61 
 4284      6700
 4285              	.LASF77:
 4286 09d8 4359424C 		.ascii	"CYBLE_EVT_L2CAP_COMMAND_REJ\000"
 4286      455F4556 
 4286      545F4C32 
 4286      4341505F 
 4286      434F4D4D 
 4287              	.LASF26:
 4288 09f4 4359424C 		.ascii	"CYBLE_EVT_GAPC_SCAN_PROGRESS_RESULT\000"
 4288      455F4556 
 4288      545F4741 
 4288      50435F53 
 4288      43414E5F 
 4289              	.LASF217:
 4290 0a18 7A4D5342 		.ascii	"zMSB\000"
 4290      00
 4291              	.LASF210:
 4292 0a1d 77427566 		.ascii	"wBuff\000"
 4292      6600
 4293              	.LASF49:
ARM GAS  C:\Users\sergio\AppData\Local\Temp\ccZ8BvM2.s 			page 101


 4294 0a23 4359424C 		.ascii	"CYBLE_EVT_GAP_SMP_LOC_P256_KEYS_GEN_AND_SET_COMPLET"
 4294      455F4556 
 4294      545F4741 
 4294      505F534D 
 4294      505F4C4F 
 4295 0a56 4500     		.ascii	"E\000"
 4296              	.LASF119:
 4297 0a58 4359424C 		.ascii	"CYBLE_ERROR_MAX\000"
 4297      455F4552 
 4297      524F525F 
 4297      4D415800 
 4298              	.LASF78:
 4299 0a68 4359424C 		.ascii	"CYBLE_EVT_L2CAP_CBFC_CONN_IND\000"
 4299      455F4556 
 4299      545F4C32 
 4299      4341505F 
 4299      43424643 
 4300              	.LASF56:
 4301 0a86 4359424C 		.ascii	"CYBLE_EVT_GATTC_READ_BY_TYPE_RSP\000"
 4301      455F4556 
 4301      545F4741 
 4301      5454435F 
 4301      52454144 
 4302              	.LASF18:
 4303 0aa7 73697A65 		.ascii	"sizetype\000"
 4303      74797065 
 4303      00
 4304              	.LASF138:
 4305 0ab0 4359424C 		.ascii	"CYBLE_GATTS_HANDLE_VALUE_NTF_T\000"
 4305      455F4741 
 4305      5454535F 
 4305      48414E44 
 4305      4C455F56 
 4306              	.LASF17:
 4307 0acf 6C6F6E67 		.ascii	"long double\000"
 4307      20646F75 
 4307      626C6500 
 4308              	.LASF198:
 4309 0adb 6D795F69 		.ascii	"my_interrupt\000"
 4309      6E746572 
 4309      72757074 
 4309      00
 4310              	.LASF219:
 4311 0ae8 6379426C 		.ascii	"cyBle_connHandle\000"
 4311      655F636F 
 4311      6E6E4861 
 4311      6E646C65 
 4311      00
 4312              	.LASF203:
 4313 0af9 74656D70 		.ascii	"tempR12\000"
 4313      52313200 
 4314              	.LASF44:
 4315 0b01 4359424C 		.ascii	"CYBLE_EVT_GAPC_DIRECT_ADV_REPORT\000"
 4315      455F4556 
 4315      545F4741 
 4315      50435F44 
 4315      49524543 
ARM GAS  C:\Users\sergio\AppData\Local\Temp\ccZ8BvM2.s 			page 102


 4316              	.LASF42:
 4317 0b22 4359424C 		.ascii	"CYBLE_EVT_GAP_DATA_LENGTH_CHANGE\000"
 4317      455F4556 
 4317      545F4741 
 4317      505F4441 
 4317      54415F4C 
 4318              	.LASF30:
 4319 0b43 4359424C 		.ascii	"CYBLE_EVT_GAP_AUTH_COMPLETE\000"
 4319      455F4556 
 4319      545F4741 
 4319      505F4155 
 4319      54485F43 
 4320              	.LASF162:
 4321 0b5f 6C696E65 		.ascii	"lineFreq\000"
 4321      46726571 
 4321      00
 4322              	.LASF237:
 4323 0b68 61706952 		.ascii	"apiResult\000"
 4323      6573756C 
 4323      7400
 4324              	.LASF125:
 4325 0b72 4359424C 		.ascii	"CYBLE_API_RESULT_T\000"
 4325      455F4150 
 4325      495F5245 
 4325      53554C54 
 4325      5F5400
 4326              	.LASF68:
 4327 0b85 4359424C 		.ascii	"CYBLE_EVT_GATTC_HANDLE_VALUE_NTF\000"
 4327      455F4556 
 4327      545F4741 
 4327      5454435F 
 4327      48414E44 
 4328              	.LASF121:
 4329 0ba6 4359424C 		.ascii	"CYBLE_ERROR_IND_DISABLED\000"
 4329      455F4552 
 4329      524F525F 
 4329      494E445F 
 4329      44495341 
 4330              	.LASF137:
 4331 0bbf 4359424C 		.ascii	"CYBLE_GATT_HANDLE_VALUE_PAIR_T\000"
 4331      455F4741 
 4331      54545F48 
 4331      414E444C 
 4331      455F5641 
 4332              	.LASF192:
 4333 0bde 72656164 		.ascii	"read_thermostat_pins\000"
 4333      5F746865 
 4333      726D6F73 
 4333      7461745F 
 4333      70696E73 
 4334              	.LASF79:
 4335 0bf3 4359424C 		.ascii	"CYBLE_EVT_L2CAP_CBFC_CONN_CNF\000"
 4335      455F4556 
 4335      545F4C32 
 4335      4341505F 
 4335      43424643 
 4336              	.LASF159:
ARM GAS  C:\Users\sergio\AppData\Local\Temp\ccZ8BvM2.s 			page 103


 4337 0c11 63757272 		.ascii	"current\000"
 4337      656E7400 
 4338              	.LASF215:
 4339 0c19 794D5342 		.ascii	"yMSB\000"
 4339      00
 4340              	.LASF55:
 4341 0c1e 4359424C 		.ascii	"CYBLE_EVT_GATTC_READ_BY_GROUP_TYPE_RSP\000"
 4341      455F4556 
 4341      545F4741 
 4341      5454435F 
 4341      52454144 
 4342              	.LASF166:
 4343 0c45 61697246 		.ascii	"airFlow\000"
 4343      6C6F7700 
 4344              	.LASF14:
 4345 0c4d 666C6F61 		.ascii	"float\000"
 4345      7400
 4346              	.LASF163:
 4347 0c53 61636358 		.ascii	"accX\000"
 4347      00
 4348              	.LASF182:
 4349 0c58 6C6F6361 		.ascii	"localAddr\000"
 4349      6C416464 
 4349      7200
 4350              	.LASF185:
 4351 0c62 73656E64 		.ascii	"send_Thermo_to_phone\000"
 4351      5F546865 
 4351      726D6F5F 
 4351      746F5F70 
 4351      686F6E65 
 4352              	.LASF183:
 4353 0c77 74686572 		.ascii	"thermoRead\000"
 4353      6D6F5265 
 4353      616400
 4354              	.LASF189:
 4355 0c82 75706461 		.ascii	"updateNotificationCCCD\000"
 4355      74654E6F 
 4355      74696669 
 4355      63617469 
 4355      6F6E4343 
 4356              	.LASF41:
 4357 0c99 4359424C 		.ascii	"CYBLE_EVT_GAP_OOB_GENERATED_NOTIFICATION\000"
 4357      455F4556 
 4357      545F4741 
 4357      505F4F4F 
 4357      425F4745 
 4358              	.LASF188:
 4359 0cc2 64617461 		.ascii	"dataForBLE\000"
 4359      466F7242 
 4359      4C4500
 4360              	.LASF173:
 4361 0ccd 706F7765 		.ascii	"power\000"
 4361      7200
 4362              	.LASF114:
 4363 0cd3 4359424C 		.ascii	"CYBLE_ERROR_HARDWARE_FAILURE\000"
 4363      455F4552 
 4363      524F525F 
ARM GAS  C:\Users\sergio\AppData\Local\Temp\ccZ8BvM2.s 			page 104


 4363      48415244 
 4363      57415245 
 4364              	.LASF101:
 4365 0cf0 4359424C 		.ascii	"CYBLE_ERROR_TX_POWER_READ\000"
 4365      455F4552 
 4365      524F525F 
 4365      54585F50 
 4365      4F574552 
 4366              	.LASF122:
 4367 0d0a 4359424C 		.ascii	"CYBLE_ERROR_CHAR_IS_NOT_DISCOVERED\000"
 4367      455F4552 
 4367      524F525F 
 4367      43484152 
 4367      5F49535F 
 4368              	.LASF1:
 4369 0d2d 756E7369 		.ascii	"unsigned char\000"
 4369      676E6564 
 4369      20636861 
 4369      7200
 4370              	.LASF12:
 4371 0d3b 75696E74 		.ascii	"uint16\000"
 4371      313600
 4372              	.LASF40:
 4373 0d42 4359424C 		.ascii	"CYBLE_EVT_GAP_KEYPRESS_NOTIFICATION\000"
 4373      455F4556 
 4373      545F4741 
 4373      505F4B45 
 4373      59505245 
 4374              	.LASF204:
 4375 0d66 74656D70 		.ascii	"tempR22\000"
 4375      52323200 
 4376              	.LASF216:
 4377 0d6e 7A4C5342 		.ascii	"zLSB\000"
 4377      00
 4378              	.LASF220:
 4379 0d73 6379426C 		.ascii	"cyBle_busyStatus\000"
 4379      655F6275 
 4379      73795374 
 4379      61747573 
 4379      00
 4380              	.LASF151:
 4381 0d84 72656D6F 		.ascii	"remoteTemp2\000"
 4381      74655465 
 4381      6D703200 
 4382              	.LASF2:
 4383 0d90 73686F72 		.ascii	"short int\000"
 4383      7420696E 
 4383      7400
 4384              	.LASF208:
 4385 0d9a 636F756E 		.ascii	"counter\000"
 4385      74657200 
 4386              	.LASF199:
 4387 0da2 74656D70 		.ascii	"temp1\000"
 4387      3100
 4388              	.LASF202:
 4389 0da8 74656D70 		.ascii	"temp2\000"
 4389      3200
ARM GAS  C:\Users\sergio\AppData\Local\Temp\ccZ8BvM2.s 			page 105


 4390              	.LASF187:
 4391 0dae 6E6F7469 		.ascii	"notiHandle\000"
 4391      48616E64 
 4391      6C6500
 4392              	.LASF181:
 4393 0db9 77725265 		.ascii	"wrReq\000"
 4393      7100
 4394              	.LASF88:
 4395 0dbf 4359424C 		.ascii	"CYBLE_EVT_HCI_PKT\000"
 4395      455F4556 
 4395      545F4843 
 4395      495F504B 
 4395      5400
 4396              	.LASF97:
 4397 0dd1 4359424C 		.ascii	"CYBLE_ERROR_NO_CONNECTION\000"
 4397      455F4552 
 4397      524F525F 
 4397      4E4F5F43 
 4397      4F4E4E45 
 4398              	.LASF213:
 4399 0deb 784D5342 		.ascii	"xMSB\000"
 4399      00
 4400              	.LASF3:
 4401 0df0 73686F72 		.ascii	"short unsigned int\000"
 4401      7420756E 
 4401      7369676E 
 4401      65642069 
 4401      6E7400
 4402              	.LASF154:
 4403 0e03 766F6C74 		.ascii	"voltCompressor\000"
 4403      436F6D70 
 4403      72657373 
 4403      6F7200
 4404              	.LASF65:
 4405 0e12 4359424C 		.ascii	"CYBLE_EVT_GATTS_PREP_WRITE_REQ\000"
 4405      455F4556 
 4405      545F4741 
 4405      5454535F 
 4405      50524550 
 4406              	.LASF226:
 4407 0e31 75617274 		.ascii	"uartStr\000"
 4407      53747200 
 4408              	.LASF117:
 4409 0e39 4359424C 		.ascii	"CYBLE_ERROR_LL_SAME_TRANSACTION_COLLISION\000"
 4409      455F4552 
 4409      524F525F 
 4409      4C4C5F53 
 4409      414D455F 
 4410              	.LASF70:
 4411 0e63 4359424C 		.ascii	"CYBLE_EVT_GATTS_HANDLE_VALUE_CNF\000"
 4411      455F4556 
 4411      545F4741 
 4411      5454535F 
 4411      48414E44 
 4412              	.LASF160:
 4413 0e84 6C696E65 		.ascii	"lineFreqComp\000"
 4413      46726571 
ARM GAS  C:\Users\sergio\AppData\Local\Temp\ccZ8BvM2.s 			page 106


 4413      436F6D70 
 4413      00
 4414              	.LASF31:
 4415 0e91 4359424C 		.ascii	"CYBLE_EVT_GAP_AUTH_FAILED\000"
 4415      455F4556 
 4415      545F4741 
 4415      505F4155 
 4415      54485F46 
 4416              	.LASF45:
 4417 0eab 4359424C 		.ascii	"CYBLE_EVT_GAP_SMP_NEGOTIATED_AUTH_INFO\000"
 4417      455F4556 
 4417      545F4741 
 4417      505F534D 
 4417      505F4E45 
 4418              	.LASF124:
 4419 0ed2 4359424C 		.ascii	"CYBLE_ERROR_STACK_BUSY\000"
 4419      455F4552 
 4419      524F525F 
 4419      53544143 
 4419      4B5F4255 
 4420              	.LASF172:
 4421 0ee9 616D6269 		.ascii	"ambientTemp\000"
 4421      656E7454 
 4421      656D7000 
 4422              	.LASF227:
 4423 0ef5 6770696F 		.ascii	"gpioPins\000"
 4423      50696E73 
 4423      00
 4424              	.LASF16:
 4425 0efe 63686172 		.ascii	"char\000"
 4425      00
 4426              	.LASF102:
 4427 0f03 4359424C 		.ascii	"CYBLE_ERROR_BT_ON_NOT_COMPLETED\000"
 4427      455F4552 
 4427      524F525F 
 4427      42545F4F 
 4427      4E5F4E4F 
 4428              	.LASF34:
 4429 0f23 4359424C 		.ascii	"CYBLE_EVT_GAP_DEVICE_DISCONNECTED\000"
 4429      455F4556 
 4429      545F4741 
 4429      505F4445 
 4429      56494345 
 4430              	.LASF214:
 4431 0f45 794C5342 		.ascii	"yLSB\000"
 4431      00
 4432              	.LASF8:
 4433 0f4a 756E7369 		.ascii	"unsigned int\000"
 4433      676E6564 
 4433      20696E74 
 4433      00
 4434              	.LASF184:
 4435 0f57 72656164 		.ascii	"readThermo\000"
 4435      54686572 
 4435      6D6F00
 4436              	.LASF73:
 4437 0f62 4359424C 		.ascii	"CYBLE_EVT_GATTS_READ_CHAR_VAL_ACCESS_REQ\000"
ARM GAS  C:\Users\sergio\AppData\Local\Temp\ccZ8BvM2.s 			page 107


 4437      455F4556 
 4437      545F4741 
 4437      5454535F 
 4437      52454144 
 4438              	.LASF63:
 4439 0f8b 4359424C 		.ascii	"CYBLE_EVT_GATTC_WRITE_RSP\000"
 4439      455F4556 
 4439      545F4741 
 4439      5454435F 
 4439      57524954 
 4440              	.LASF83:
 4441 0fa5 4359424C 		.ascii	"CYBLE_EVT_L2CAP_CBFC_RX_CREDIT_IND\000"
 4441      455F4556 
 4441      545F4C32 
 4441      4341505F 
 4441      43424643 
 4442              	.LASF190:
 4443 0fc8 73656E73 		.ascii	"sensorNotCCCDHandle\000"
 4443      6F724E6F 
 4443      74434343 
 4443      4448616E 
 4443      646C6500 
 4444              	.LASF174:
 4445 0fdc 74657374 		.ascii	"test\000"
 4445      00
 4446              	.LASF84:
 4447 0fe1 4359424C 		.ascii	"CYBLE_EVT_L2CAP_CBFC_TX_CREDIT_IND\000"
 4447      455F4556 
 4447      545F4C32 
 4447      4341505F 
 4447      43424643 
 4448              	.LASF112:
 4449 1004 4359424C 		.ascii	"CYBLE_ERROR_FLASH_WRITE_NOT_PERMITED\000"
 4449      455F4552 
 4449      524F525F 
 4449      464C4153 
 4449      485F5752 
 4450              	.LASF107:
 4451 1029 4359424C 		.ascii	"CYBLE_ERROR_L2CAP_CONNECTION_ENTITY_NOT_FOUND\000"
 4451      455F4552 
 4451      524F525F 
 4451      4C324341 
 4451      505F434F 
 4452              	.LASF29:
 4453 1057 4359424C 		.ascii	"CYBLE_EVT_GAP_PASSKEY_DISPLAY_REQUEST\000"
 4453      455F4556 
 4453      545F4741 
 4453      505F5041 
 4453      53534B45 
 4454              	.LASF22:
 4455 107d 4359424C 		.ascii	"CYBLE_EVT_HARDWARE_ERROR\000"
 4455      455F4556 
 4455      545F4841 
 4455      52445741 
 4455      52455F45 
 4456              	.LASF224:
 4457 1096 75706461 		.ascii	"updateIsNotifyCCCDAttr\000"
ARM GAS  C:\Users\sergio\AppData\Local\Temp\ccZ8BvM2.s 			page 108


 4457      74654973 
 4457      4E6F7469 
 4457      66794343 
 4457      43444174 
 4458              	.LASF196:
 4459 10ad 636F6E66 		.ascii	"configure_temperature_sensor1\000"
 4459      69677572 
 4459      655F7465 
 4459      6D706572 
 4459      61747572 
 4460              	.LASF195:
 4461 10cb 636F6E66 		.ascii	"configure_temperature_sensor2\000"
 4461      69677572 
 4461      655F7465 
 4461      6D706572 
 4461      61747572 
 4462              	.LASF140:
 4463 10e9 68616E64 		.ascii	"handleValPair\000"
 4463      6C655661 
 4463      6C506169 
 4463      7200
 4464              	.LASF104:
 4465 10f7 4359424C 		.ascii	"CYBLE_ERROR_L2CAP_PSM_WRONG_ENCODING\000"
 4465      455F4552 
 4465      524F525F 
 4465      4C324341 
 4465      505F5053 
 4466              	.LASF191:
 4467 111c 73656E73 		.ascii	"sensorCCCDVal\000"
 4467      6F724343 
 4467      43445661 
 4467      6C00
 4468              	.LASF93:
 4469 112a 4359424C 		.ascii	"CYBLE_ERROR_INVALID_OPERATION\000"
 4469      455F4552 
 4469      524F525F 
 4469      494E5641 
 4469      4C49445F 
 4470              	.LASF235:
 4471 1148 6D61696E 		.ascii	"main.c\000"
 4471      2E6300
 4472              	.LASF193:
 4473 114f 70696E73 		.ascii	"pins\000"
 4473      00
 4474              	.LASF229:
 4475 1154 73656E73 		.ascii	"sensorData\000"
 4475      6F724461 
 4475      746100
 4476              	.LASF179:
 4477 115f 6576656E 		.ascii	"eventParam\000"
 4477      74506172 
 4477      616D00
 4478              	.LASF212:
 4479 116a 784C5342 		.ascii	"xLSB\000"
 4479      00
 4480              	.LASF95:
 4481 116f 4359424C 		.ascii	"CYBLE_ERROR_INSUFFICIENT_RESOURCES\000"
ARM GAS  C:\Users\sergio\AppData\Local\Temp\ccZ8BvM2.s 			page 109


 4481      455F4552 
 4481      524F525F 
 4481      494E5355 
 4481      46464943 
 4482              	.LASF147:
 4483 1192 4359424C 		.ascii	"CYBLE_STATE_T\000"
 4483      455F5354 
 4483      4154455F 
 4483      5400
 4484              	.LASF170:
 4485 11a0 66616E48 		.ascii	"fanHigh\000"
 4485      69676800 
 4486              	.LASF10:
 4487 11a8 75696E74 		.ascii	"uint8_t\000"
 4487      385F7400 
 4488              	.LASF118:
 4489 11b0 4359424C 		.ascii	"CYBLE_ERROR_CONTROLLER_BUSY\000"
 4489      455F4552 
 4489      524F525F 
 4489      434F4E54 
 4489      524F4C4C 
 4490              	.LASF158:
 4491 11cc 63757272 		.ascii	"currentFan\000"
 4491      656E7446 
 4491      616E00
 4492              	.LASF113:
 4493 11d7 4359424C 		.ascii	"CYBLE_ERROR_MIC_AUTH_FAILED\000"
 4493      455F4552 
 4493      524F525F 
 4493      4D49435F 
 4493      41555448 
 4494              	.LASF106:
 4495 11f3 4359424C 		.ascii	"CYBLE_ERROR_L2CAP_PSM_NOT_REGISTERED\000"
 4495      455F4552 
 4495      524F525F 
 4495      4C324341 
 4495      505F5053 
 4496              	.LASF143:
 4497 1218 4359424C 		.ascii	"CYBLE_STATE_INITIALIZING\000"
 4497      455F5354 
 4497      4154455F 
 4497      494E4954 
 4497      49414C49 
 4498              	.LASF144:
 4499 1231 4359424C 		.ascii	"CYBLE_STATE_CONNECTED\000"
 4499      455F5354 
 4499      4154455F 
 4499      434F4E4E 
 4499      45435445 
 4500              	.LASF58:
 4501 1247 4359424C 		.ascii	"CYBLE_EVT_GATTC_FIND_BY_TYPE_VALUE_RSP\000"
 4501      455F4556 
 4501      545F4741 
 4501      5454435F 
 4501      46494E44 
 4502              	.LASF100:
 4503 126e 4359424C 		.ascii	"CYBLE_ERROR_GAP_ROLE\000"
ARM GAS  C:\Users\sergio\AppData\Local\Temp\ccZ8BvM2.s 			page 110


 4503      455F4552 
 4503      524F525F 
 4503      4741505F 
 4503      524F4C45 
 4504              	.LASF38:
 4505 1283 4359424C 		.ascii	"CYBLE_EVT_GAP_KEYINFO_EXCHNGE_CMPLT\000"
 4505      455F4556 
 4505      545F4741 
 4505      505F4B45 
 4505      59494E46 
 4506              	.LASF80:
 4507 12a7 4359424C 		.ascii	"CYBLE_EVT_L2CAP_CBFC_DISCONN_IND\000"
 4507      455F4556 
 4507      545F4C32 
 4507      4341505F 
 4507      43424643 
 4508              	.LASF194:
 4509 12c8 696E6974 		.ascii	"initialized_input_gpioExp\000"
 4509      69616C69 
 4509      7A65645F 
 4509      696E7075 
 4509      745F6770 
 4510              	.LASF76:
 4511 12e2 4359424C 		.ascii	"CYBLE_EVT_L2CAP_CONN_PARAM_UPDATE_RSP\000"
 4511      455F4556 
 4511      545F4C32 
 4511      4341505F 
 4511      434F4E4E 
 4512              	.LASF211:
 4513 1308 72427566 		.ascii	"rBuff\000"
 4513      6600
 4514              	.LASF238:
 4515 130e 6D61696E 		.ascii	"main\000"
 4515      00
 4516              	.LASF43:
 4517 1313 4359424C 		.ascii	"CYBLE_EVT_GAP_ENHANCE_CONN_COMPLETE\000"
 4517      455F4556 
 4517      545F4741 
 4517      505F454E 
 4517      48414E43 
 4518              	.LASF129:
 4519 1337 4359424C 		.ascii	"CYBLE_GATT_DB_ATTR_HANDLE_T\000"
 4519      455F4741 
 4519      54545F44 
 4519      425F4154 
 4519      54525F48 
 4520              	.LASF223:
 4521 1353 69734E6F 		.ascii	"isNotify\000"
 4521      74696679 
 4521      00
 4522              	.LASF52:
 4523 135c 4359424C 		.ascii	"CYBLE_EVT_GATT_DISCONNECT_IND\000"
 4523      455F4556 
 4523      545F4741 
 4523      54545F44 
 4523      4953434F 
 4524              	.LASF110:
ARM GAS  C:\Users\sergio\AppData\Local\Temp\ccZ8BvM2.s 			page 111


 4525 137a 4359424C 		.ascii	"CYBLE_ERROR_GATT_DB_INVALID_ATTR_HANDLE\000"
 4525      455F4552 
 4525      524F525F 
 4525      47415454 
 4525      5F44425F 
 4526              	.LASF89:
 4527 13a2 4359424C 		.ascii	"CYBLE_EVT_FLASH_CORRUPT\000"
 4527      455F4556 
 4527      545F464C 
 4527      4153485F 
 4527      434F5252 
 4528              	.LASF180:
 4529 13ba 74686572 		.ascii	"thermoTemp\000"
 4529      6D6F5465 
 4529      6D7000
 4530              	.LASF99:
 4531 13c5 4359424C 		.ascii	"CYBLE_ERROR_REPEATED_ATTEMPTS\000"
 4531      455F4552 
 4531      524F525F 
 4531      52455045 
 4531      41544544 
 4532              		.ident	"GCC: (GNU Tools for ARM Embedded Processors) 5.4.1 20160609 (release) [ARM/embedded-5-bran
