ARM GAS  C:\Users\sergio\AppData\Local\Temp\ccqEDlrG.s 			page 1


   1              		.syntax unified
   2              		.cpu cortex-m0
   3              		.fpu softvfp
   4              		.eabi_attribute 20, 1
   5              		.eabi_attribute 21, 1
   6              		.eabi_attribute 23, 3
   7              		.eabi_attribute 24, 1
   8              		.eabi_attribute 25, 1
   9              		.eabi_attribute 26, 1
  10              		.eabi_attribute 30, 6
  11              		.eabi_attribute 34, 0
  12              		.eabi_attribute 18, 4
  13              		.thumb
  14              		.syntax unified
  15              		.file	"main.c"
  16              		.text
  17              	.Ltext0:
  18              		.cfi_sections	.debug_frame
  19              		.comm	thermoHandle,12,4
  20              		.global	interruptFlag
  21              		.bss
  22              		.align	2
  23              		.type	interruptFlag, %object
  24              		.size	interruptFlag, 4
  25              	interruptFlag:
  26 0000 00000000 		.space	4
  27              		.global	isNotify
  28              		.type	isNotify, %object
  29              		.size	isNotify, 1
  30              	isNotify:
  31 0004 00       		.space	1
  32              		.global	updateIsNotifyCCCDAttr
  33              		.type	updateIsNotifyCCCDAttr, %object
  34              		.size	updateIsNotifyCCCDAttr, 1
  35              	updateIsNotifyCCCDAttr:
  36 0005 00       		.space	1
  37              		.global	bleConnected
  38              		.type	bleConnected, %object
  39              		.size	bleConnected, 1
  40              	bleConnected:
  41 0006 00       		.space	1
  42              		.comm	uartStr,50,4
  43              		.global	gpioPins
  44              		.type	gpioPins, %object
  45              		.size	gpioPins, 1
  46              	gpioPins:
  47 0007 00       		.space	1
  48              		.global	adcRead
  49              		.align	1
  50              		.type	adcRead, %object
  51              		.size	adcRead, 2
  52              	adcRead:
  53 0008 0000     		.space	2
  54              		.comm	sensorData,36,4
  55              		.comm	thermo,7,4
  56              		.comm	errorPower,6,4
  57              		.global	setTemperature
ARM GAS  C:\Users\sergio\AppData\Local\Temp\ccqEDlrG.s 			page 2


  58              		.type	setTemperature, %object
  59              		.size	setTemperature, 1
  60              	setTemperature:
  61 000a 00       		.space	1
  62              		.global	prevComp
  63              		.type	prevComp, %object
  64              		.size	prevComp, 1
  65              	prevComp:
  66 000b 00       		.space	1
  67              		.global	prevLFan
  68              		.type	prevLFan, %object
  69              		.size	prevLFan, 1
  70              	prevLFan:
  71 000c 00       		.space	1
  72              		.global	prevHFan
  73              		.type	prevHFan, %object
  74              		.size	prevHFan, 1
  75              	prevHFan:
  76 000d 00       		.space	1
  77              		.section	.text.updateThermostatData,"ax",%progbits
  78              		.align	2
  79              		.global	updateThermostatData
  80              		.code	16
  81              		.thumb_func
  82              		.type	updateThermostatData, %function
  83              	updateThermostatData:
  84              	.LFB36:
  85              		.file 1 "main.c"
   1:main.c        **** /* ========================================
   2:main.c        ****  *
   3:main.c        ****  * Copyright YOUR COMPANY, THE YEAR
   4:main.c        ****  * All Rights Reserved
   5:main.c        ****  * UNPUBLISHED, LICENSED SOFTWARE.
   6:main.c        ****  *
   7:main.c        ****  * CONFIDENTIAL AND PROPRIETARY INFORMATION
   8:main.c        ****  * WHICH IS THE PROPERTY OF your company.
   9:main.c        ****  *
  10:main.c        ****  * ========================================
  11:main.c        **** */
  12:main.c        **** #include <project.h>
  13:main.c        **** 
  14:main.c        **** #include <stdio.h>
  15:main.c        **** #include <stdlib.h>
  16:main.c        **** 
  17:main.c        **** CYBLE_GATT_HANDLE_VALUE_PAIR_T thermoHandle;
  18:main.c        **** 
  19:main.c        **** // These are for the gpio exp.
  20:main.c        **** #define ADDR (0x70)
  21:main.c        **** #define REG_READ (0x00)
  22:main.c        **** #define REG_WRITE (0x01)
  23:main.c        **** #define REG_CONFIG (0x03)
  24:main.c        **** 
  25:main.c        **** #define ADDR_POWER1 (0x74) // compressor
  26:main.c        **** #define ADDR_POWER2 (0x75) // High Fan
  27:main.c        **** #define ADDR_POWER3 (0x76) // Low Fan
  28:main.c        **** #define REG_POWER_VERSION (0x04)
  29:main.c        **** 
ARM GAS  C:\Users\sergio\AppData\Local\Temp\ccqEDlrG.s 			page 3


  30:main.c        **** // the address fro the temp sensor are 0x4C for A model and 0x4D for B model.
  31:main.c        **** 
  32:main.c        **** int interruptFlag = 0;
  33:main.c        **** uint8 isNotify = 0;
  34:main.c        **** uint8 updateIsNotifyCCCDAttr = 0;
  35:main.c        **** uint8 bleConnected = 0;
  36:main.c        **** char uartStr[50];
  37:main.c        **** 
  38:main.c        **** uint8 gpioPins = 0u;
  39:main.c        **** uint16 adcRead = 0u;
  40:main.c        **** 
  41:main.c        **** 
  42:main.c        **** typedef struct{
  43:main.c        ****     
  44:main.c        ****     uint8 localTemp;
  45:main.c        ****     uint8 humidity;
  46:main.c        ****     uint8 remoteTemp1;
  47:main.c        ****     uint8 remoteTemp2; 
  48:main.c        ****     uint8 remoteTemp3;
  49:main.c        ****     uint8 remoteTemp4;
  50:main.c        ****     
  51:main.c        ****     uint16 voltCompressor;
  52:main.c        ****     uint16 voltFan;
  53:main.c        ****     uint16 volt;
  54:main.c        ****     
  55:main.c        ****     uint32 currentCompressor;
  56:main.c        ****     uint32 currentFan; 
  57:main.c        ****     uint32 current;
  58:main.c        ****     
  59:main.c        ****     uint16 lineFreqComp;
  60:main.c        ****     uint16 lineFreqFan;
  61:main.c        ****     uint16 lineFreq;
  62:main.c        ****     
  63:main.c        ****     
  64:main.c        ****     uint8 accX;
  65:main.c        ****     uint8 accY;
  66:main.c        ****     uint8 accZ;
  67:main.c        ****     
  68:main.c        ****     uint16 airFlow;
  69:main.c        ****     
  70:main.c        **** }dataCollected;
  71:main.c        **** 
  72:main.c        ****  dataCollected sensorData;
  73:main.c        **** // 5 bytes
  74:main.c        **** typedef struct{
  75:main.c        ****     uint8 compressor;
  76:main.c        ****     uint8 fanLow;
  77:main.c        ****     uint8 fanHigh;
  78:main.c        ****     uint8 setTemperature;
  79:main.c        ****     uint8 ambientTemp;
  80:main.c        ****     uint8 power;
  81:main.c        ****     uint8 test;
  82:main.c        **** } thermostatData ;
  83:main.c        **** 
  84:main.c        **** 
  85:main.c        **** 
  86:main.c        ****  thermostatData thermo;
ARM GAS  C:\Users\sergio\AppData\Local\Temp\ccqEDlrG.s 			page 4


  87:main.c        **** 
  88:main.c        **** typedef struct{
  89:main.c        ****     int8 err_Comp_volt;
  90:main.c        ****     int8 err_Comp_curr;
  91:main.c        ****     int8 err_LFan_volt;
  92:main.c        ****     int8 err_LFan_curr;
  93:main.c        ****     int8 err_HFan_volt;
  94:main.c        ****     int8 err_HFan_curr;
  95:main.c        ****     
  96:main.c        **** }errorCode;
  97:main.c        **** 
  98:main.c        **** errorCode errorPower;
  99:main.c        **** 
 100:main.c        **** uint8 setTemperature = 0;
 101:main.c        **** 
 102:main.c        **** uint8 prevComp = 0;
 103:main.c        **** uint8 prevLFan = 0;
 104:main.c        **** uint8 prevHFan = 0;
 105:main.c        **** 
 106:main.c        **** 
 107:main.c        **** 
 108:main.c        **** void updateThermostatData(void){
  86              		.loc 1 108 0
  87              		.cfi_startproc
  88              		@ args = 0, pretend = 0, frame = 8
  89              		@ frame_needed = 1, uses_anonymous_args = 0
  90 0000 80B5     		push	{r7, lr}
  91              		.cfi_def_cfa_offset 8
  92              		.cfi_offset 7, -8
  93              		.cfi_offset 14, -4
  94 0002 82B0     		sub	sp, sp, #8
  95              		.cfi_def_cfa_offset 16
  96 0004 00AF     		add	r7, sp, #0
  97              		.cfi_def_cfa_register 7
 109:main.c        ****     
 110:main.c        ****     
 111:main.c        ****     uint8 thermoTemp[] = {thermo.compressor, thermo.fanLow, thermo.fanHigh,
  98              		.loc 1 111 0
  99 0006 194B     		ldr	r3, .L2
 100 0008 1A78     		ldrb	r2, [r3]
 101 000a 3B00     		movs	r3, r7
 102 000c 1A70     		strb	r2, [r3]
 103 000e 174B     		ldr	r3, .L2
 104 0010 5A78     		ldrb	r2, [r3, #1]
 105 0012 3B00     		movs	r3, r7
 106 0014 5A70     		strb	r2, [r3, #1]
 107 0016 154B     		ldr	r3, .L2
 108 0018 9A78     		ldrb	r2, [r3, #2]
 109 001a 3B00     		movs	r3, r7
 110 001c 9A70     		strb	r2, [r3, #2]
 112:main.c        ****     thermo.setTemperature, thermo.ambientTemp, thermo.power, thermo.test};
 111              		.loc 1 112 0
 112 001e 134B     		ldr	r3, .L2
 113 0020 DA78     		ldrb	r2, [r3, #3]
 111:main.c        ****     thermo.setTemperature, thermo.ambientTemp, thermo.power, thermo.test};
 114              		.loc 1 111 0
 115 0022 3B00     		movs	r3, r7
ARM GAS  C:\Users\sergio\AppData\Local\Temp\ccqEDlrG.s 			page 5


 116 0024 DA70     		strb	r2, [r3, #3]
 117              		.loc 1 112 0
 118 0026 114B     		ldr	r3, .L2
 119 0028 1A79     		ldrb	r2, [r3, #4]
 111:main.c        ****     thermo.setTemperature, thermo.ambientTemp, thermo.power, thermo.test};
 120              		.loc 1 111 0
 121 002a 3B00     		movs	r3, r7
 122 002c 1A71     		strb	r2, [r3, #4]
 123              		.loc 1 112 0
 124 002e 0F4B     		ldr	r3, .L2
 125 0030 5A79     		ldrb	r2, [r3, #5]
 111:main.c        ****     thermo.setTemperature, thermo.ambientTemp, thermo.power, thermo.test};
 126              		.loc 1 111 0
 127 0032 3B00     		movs	r3, r7
 128 0034 5A71     		strb	r2, [r3, #5]
 129              		.loc 1 112 0
 130 0036 0D4B     		ldr	r3, .L2
 131 0038 9A79     		ldrb	r2, [r3, #6]
 111:main.c        ****     thermo.setTemperature, thermo.ambientTemp, thermo.power, thermo.test};
 132              		.loc 1 111 0
 133 003a 3B00     		movs	r3, r7
 134 003c 9A71     		strb	r2, [r3, #6]
 113:main.c        ****     thermoHandle.attrHandle = CYBLE_RVAC_THERMOSTAT_THERMOCCCD_DESC_HANDLE;
 135              		.loc 1 113 0
 136 003e 0C4B     		ldr	r3, .L2+4
 137 0040 1722     		movs	r2, #23
 138 0042 1A81     		strh	r2, [r3, #8]
 114:main.c        ****     thermoHandle.value.val = (uint8 *) thermoTemp;
 139              		.loc 1 114 0
 140 0044 0A4B     		ldr	r3, .L2+4
 141 0046 3A00     		movs	r2, r7
 142 0048 1A60     		str	r2, [r3]
 115:main.c        ****     thermoHandle.value.len = 7; 
 143              		.loc 1 115 0
 144 004a 094B     		ldr	r3, .L2+4
 145 004c 0722     		movs	r2, #7
 146 004e 9A80     		strh	r2, [r3, #4]
 116:main.c        ****     thermoHandle.value.actualLen = 7; 
 147              		.loc 1 116 0
 148 0050 074B     		ldr	r3, .L2+4
 149 0052 0722     		movs	r2, #7
 150 0054 DA80     		strh	r2, [r3, #6]
 117:main.c        ****     
 118:main.c        ****     CyBle_GattsWriteAttributeValue(&thermoHandle, 0, &cyBle_connHandle, 0);
 151              		.loc 1 118 0
 152 0056 074A     		ldr	r2, .L2+8
 153 0058 0548     		ldr	r0, .L2+4
 154 005a 0023     		movs	r3, #0
 155 005c 0021     		movs	r1, #0
 156 005e FFF7FEFF 		bl	CyBle_GattsWriteAttributeValue
 119:main.c        **** }
 157              		.loc 1 119 0
 158 0062 C046     		nop
 159 0064 BD46     		mov	sp, r7
 160 0066 02B0     		add	sp, sp, #8
 161              		@ sp needed
 162 0068 80BD     		pop	{r7, pc}
ARM GAS  C:\Users\sergio\AppData\Local\Temp\ccqEDlrG.s 			page 6


 163              	.L3:
 164 006a C046     		.align	2
 165              	.L2:
 166 006c 00000000 		.word	thermo
 167 0070 00000000 		.word	thermoHandle
 168 0074 00000000 		.word	cyBle_connHandle
 169              		.cfi_endproc
 170              	.LFE36:
 171              		.size	updateThermostatData, .-updateThermostatData
 172              		.section	.rodata
 173              		.align	2
 174              	.LC8:
 175 0000 2D2D2D2D 		.ascii	"-----------------    comp %d   flow %d   dhigh %d p"
 175      2D2D2D2D 
 175      2D2D2D2D 
 175      2D2D2D2D 
 175      2D202020 
 176 0033 6F776572 		.ascii	"ower %d\012\000"
 176      2025640A 
 176      00
 177              		.section	.text.bleStack,"ax",%progbits
 178              		.align	2
 179              		.global	bleStack
 180              		.code	16
 181              		.thumb_func
 182              		.type	bleStack, %function
 183              	bleStack:
 184              	.LFB37:
 120:main.c        **** 
 121:main.c        **** void bleStack(uint32 event, void *eventParam){
 185              		.loc 1 121 0
 186              		.cfi_startproc
 187              		@ args = 0, pretend = 0, frame = 24
 188              		@ frame_needed = 1, uses_anonymous_args = 0
 189 0000 B0B5     		push	{r4, r5, r7, lr}
 190              		.cfi_def_cfa_offset 16
 191              		.cfi_offset 4, -16
 192              		.cfi_offset 5, -12
 193              		.cfi_offset 7, -8
 194              		.cfi_offset 14, -4
 195 0002 88B0     		sub	sp, sp, #32
 196              		.cfi_def_cfa_offset 48
 197 0004 02AF     		add	r7, sp, #8
 198              		.cfi_def_cfa 7, 40
 199 0006 7860     		str	r0, [r7, #4]
 200 0008 3960     		str	r1, [r7]
 122:main.c        ****     
 123:main.c        ****     CYBLE_GATTS_WRITE_REQ_PARAM_T wrReq;
 124:main.c        **** 
 125:main.c        ****     
 126:main.c        ****     switch(event){
 201              		.loc 1 126 0
 202 000a 7B68     		ldr	r3, [r7, #4]
 203 000c 282B     		cmp	r3, #40
 204 000e 14D0     		beq	.L6
 205 0010 05D8     		bhi	.L7
 206 0012 262B     		cmp	r3, #38
ARM GAS  C:\Users\sergio\AppData\Local\Temp\ccqEDlrG.s 			page 7


 207 0014 1BD0     		beq	.L8
 208 0016 0DD8     		bhi	.L9
 209 0018 012B     		cmp	r3, #1
 210 001a 07D0     		beq	.L10
 127:main.c        ****     
 128:main.c        ****      
 129:main.c        ****         case CYBLE_EVT_STACK_ON:
 130:main.c        ****           CyBle_GappStartAdvertisement(CYBLE_ADVERTISING_FAST);
 131:main.c        **** //            if(apiResult != CYBLE_ERROR_OK){
 132:main.c        **** //            // DBG_PRINTF("Start Advertisement API Error: %d \r\n",apiResult);   
 133:main.c        **** //            }
 134:main.c        ****             //DBG_PRINTF("Bluetooth On, StartAdvertisement with addr: ");
 135:main.c        **** //            localAddr.type = 0u;
 136:main.c        **** //            CyBle_GetDeviceAddress(&localAddr);
 137:main.c        **** //            for(uint i = CYBLE_GAP_BD_ADDR_SIZE; i > 0u; i--)
 138:main.c        **** //            {
 139:main.c        **** //                DBG_PRINTF("%2.2x", localAddr.bdAddr[i-1]);
 140:main.c        **** //            }
 141:main.c        **** //            DBG_PRINTF("\r\n");
 142:main.c        ****             break; //(Claudio Modified) Is there a reason why we didn't have a break expression in 
 143:main.c        ****         case CYBLE_EVT_GAP_DEVICE_CONNECTED:
 144:main.c        ****             CyBle_GappStopAdvertisement(); 
 145:main.c        ****             break;
 146:main.c        ****         case CYBLE_EVT_GAP_DEVICE_DISCONNECTED:
 147:main.c        ****             CyBle_GappStartAdvertisement(CYBLE_ADVERTISING_FAST);
 148:main.c        ****             isNotify = 0;
 149:main.c        ****             bleConnected = 0; // test this
 150:main.c        ****             break;
 151:main.c        ****         case CYBLE_EVT_GAPP_ADVERTISEMENT_START_STOP:
 152:main.c        ****              if(CyBle_GetState() == CYBLE_STATE_DISCONNECTED){
 153:main.c        ****                  CyBle_GappStartAdvertisement(CYBLE_SCANNING_FAST);
 154:main.c        ****             }
 155:main.c        ****             break;
 156:main.c        ****         case CYBLE_EVT_GATT_CONNECT_IND:
 157:main.c        ****             bleConnected = 1;
 158:main.c        ****             CyBle_GappStopAdvertisement();
 159:main.c        ****             break;
 160:main.c        ****         case CYBLE_EVT_GATT_DISCONNECT_IND:
 161:main.c        ****             isNotify = 0;
 162:main.c        ****             bleConnected = 0;
 163:main.c        ****             // Update the notifications CCCD
 164:main.c        ****             updateIsNotifyCCCDAttr = 1;
 165:main.c        ****             
 166:main.c        ****             // update the thermostat array with the thermosstat info.
 167:main.c        ****             // ex. themostat[0] = readSensor();
 168:main.c        ****             // update the data in the thermostat attibute
 169:main.c        ****             updateThermostatData();
 170:main.c        ****             
 171:main.c        ****            break;
 172:main.c        ****         case CYBLE_EVT_GATTS_WRITE_REQ:
 173:main.c        ****             wrReq = *(CYBLE_GATTS_WRITE_REQ_PARAM_T *)eventParam; //CYBLE_DAC_SERVICE_VOLT_VOLTCCCD
 174:main.c        ****            
 175:main.c        ****             // This handle the notifications
 176:main.c        ****             if(wrReq.handleValPair.attrHandle == CYBLE_RVAC_SENSORS_SENSORCCCD_DESC_HANDLE){
 177:main.c        ****                 
 178:main.c        ****                // CyBle_GattsWriteAttributeValue( &wrReq->handleValPair, 0, &connHandle, CYBLE_GATT
 179:main.c        ****                 isNotify = wrReq.handleValPair.value.val[0];//CYBLE_RVAC_SENSOR_SENSORCCCD_DESC_IND
ARM GAS  C:\Users\sergio\AppData\Local\Temp\ccqEDlrG.s 			page 8


 180:main.c        ****                 
 181:main.c        ****                 updateIsNotifyCCCDAttr = 1;
 182:main.c        ****             }
 183:main.c        ****             
 184:main.c        ****             // This handle data incoming
 185:main.c        ****             if(wrReq.handleValPair.attrHandle == CYBLE_RVAC_THERMOSTAT_CHAR_HANDLE){
 186:main.c        ****             
 187:main.c        ****                 thermo.compressor = wrReq.handleValPair.value.val[0];
 188:main.c        ****                 thermo.fanLow= wrReq.handleValPair.value.val[1];
 189:main.c        ****                 thermo.fanHigh = wrReq.handleValPair.value.val[2];
 190:main.c        ****                 thermo.setTemperature = wrReq.handleValPair.value.val[3];
 191:main.c        ****                 thermo.power = wrReq.handleValPair.value.val[5];
 192:main.c        ****                 thermo.test = wrReq.handleValPair.value.val[6];
 193:main.c        ****                 
 194:main.c        ****                 sprintf(uartStr, "-----------------    comp %d   flow %d   dhigh %d power %d\n", th
 195:main.c        ****                 MyUART_PutString(uartStr);
 196:main.c        ****                // thermostat[0] = thermo.compressor;
 197:main.c        ****                
 198:main.c        ****                 updateThermostatData();
 199:main.c        ****                 
 200:main.c        ****             }
 201:main.c        **** 
 202:main.c        ****             CyBle_GattsWriteRsp(cyBle_connHandle);
 203:main.c        ****             
 204:main.c        ****             break; 
 205:main.c        ****         
 206:main.c        ****      default:
 207:main.c        ****         break;
 211              		.loc 1 207 0
 212 001c 99E0     		b	.L14
 213              	.L7:
 126:main.c        ****     
 214              		.loc 1 126 0
 215 001e 422B     		cmp	r3, #66
 216 0020 24D0     		beq	.L11
 217 0022 4C2B     		cmp	r3, #76
 218 0024 2ED0     		beq	.L12
 219 0026 412B     		cmp	r3, #65
 220 0028 1AD0     		beq	.L13
 221              		.loc 1 207 0
 222 002a 92E0     		b	.L14
 223              	.L10:
 130:main.c        **** //            if(apiResult != CYBLE_ERROR_OK){
 224              		.loc 1 130 0
 225 002c 0020     		movs	r0, #0
 226 002e FFF7FEFF 		bl	CyBle_GappStartAdvertisement
 142:main.c        ****         case CYBLE_EVT_GAP_DEVICE_CONNECTED:
 227              		.loc 1 142 0
 228 0032 8EE0     		b	.L14
 229              	.L9:
 144:main.c        ****             break;
 230              		.loc 1 144 0
 231 0034 FFF7FEFF 		bl	CyBle_GappStopAdvertisement
 145:main.c        ****         case CYBLE_EVT_GAP_DEVICE_DISCONNECTED:
 232              		.loc 1 145 0
 233 0038 8BE0     		b	.L14
 234              	.L6:
ARM GAS  C:\Users\sergio\AppData\Local\Temp\ccqEDlrG.s 			page 9


 147:main.c        ****             isNotify = 0;
 235              		.loc 1 147 0
 236 003a 0020     		movs	r0, #0
 237 003c FFF7FEFF 		bl	CyBle_GappStartAdvertisement
 148:main.c        ****             bleConnected = 0; // test this
 238              		.loc 1 148 0
 239 0040 464B     		ldr	r3, .L19
 240 0042 0022     		movs	r2, #0
 241 0044 1A70     		strb	r2, [r3]
 149:main.c        ****             break;
 242              		.loc 1 149 0
 243 0046 464B     		ldr	r3, .L19+4
 244 0048 0022     		movs	r2, #0
 245 004a 1A70     		strb	r2, [r3]
 150:main.c        ****         case CYBLE_EVT_GAPP_ADVERTISEMENT_START_STOP:
 246              		.loc 1 150 0
 247 004c 81E0     		b	.L14
 248              	.L8:
 152:main.c        ****                  CyBle_GappStartAdvertisement(CYBLE_SCANNING_FAST);
 249              		.loc 1 152 0
 250 004e 454B     		ldr	r3, .L19+8
 251 0050 1B78     		ldrb	r3, [r3]
 252 0052 042B     		cmp	r3, #4
 253 0054 00D0     		beq	.LCB142
 254 0056 7BE0     		b	.L18	@long jump
 255              	.LCB142:
 153:main.c        ****             }
 256              		.loc 1 153 0
 257 0058 0020     		movs	r0, #0
 258 005a FFF7FEFF 		bl	CyBle_GappStartAdvertisement
 155:main.c        ****         case CYBLE_EVT_GATT_CONNECT_IND:
 259              		.loc 1 155 0
 260 005e 77E0     		b	.L18
 261              	.L13:
 157:main.c        ****             CyBle_GappStopAdvertisement();
 262              		.loc 1 157 0
 263 0060 3F4B     		ldr	r3, .L19+4
 264 0062 0122     		movs	r2, #1
 265 0064 1A70     		strb	r2, [r3]
 158:main.c        ****             break;
 266              		.loc 1 158 0
 267 0066 FFF7FEFF 		bl	CyBle_GappStopAdvertisement
 159:main.c        ****         case CYBLE_EVT_GATT_DISCONNECT_IND:
 268              		.loc 1 159 0
 269 006a 72E0     		b	.L14
 270              	.L11:
 161:main.c        ****             bleConnected = 0;
 271              		.loc 1 161 0
 272 006c 3B4B     		ldr	r3, .L19
 273 006e 0022     		movs	r2, #0
 274 0070 1A70     		strb	r2, [r3]
 162:main.c        ****             // Update the notifications CCCD
 275              		.loc 1 162 0
 276 0072 3B4B     		ldr	r3, .L19+4
 277 0074 0022     		movs	r2, #0
 278 0076 1A70     		strb	r2, [r3]
 164:main.c        ****             
ARM GAS  C:\Users\sergio\AppData\Local\Temp\ccqEDlrG.s 			page 10


 279              		.loc 1 164 0
 280 0078 3B4B     		ldr	r3, .L19+12
 281 007a 0122     		movs	r2, #1
 282 007c 1A70     		strb	r2, [r3]
 169:main.c        ****             
 283              		.loc 1 169 0
 284 007e FFF7FEFF 		bl	updateThermostatData
 171:main.c        ****         case CYBLE_EVT_GATTS_WRITE_REQ:
 285              		.loc 1 171 0
 286 0082 66E0     		b	.L14
 287              	.L12:
 173:main.c        ****            
 288              		.loc 1 173 0
 289 0084 0823     		movs	r3, #8
 290 0086 FB18     		adds	r3, r7, r3
 291 0088 3A68     		ldr	r2, [r7]
 292 008a 13CA     		ldmia	r2!, {r0, r1, r4}
 293 008c 13C3     		stmia	r3!, {r0, r1, r4}
 294 008e 1268     		ldr	r2, [r2]
 295 0090 1A60     		str	r2, [r3]
 176:main.c        ****                 
 296              		.loc 1 176 0
 297 0092 0823     		movs	r3, #8
 298 0094 FB18     		adds	r3, r7, r3
 299 0096 9B89     		ldrh	r3, [r3, #12]
 300 0098 142B     		cmp	r3, #20
 301 009a 08D1     		bne	.L16
 179:main.c        ****                 
 302              		.loc 1 179 0
 303 009c 0823     		movs	r3, #8
 304 009e FB18     		adds	r3, r7, r3
 305 00a0 5B68     		ldr	r3, [r3, #4]
 306 00a2 1A78     		ldrb	r2, [r3]
 307 00a4 2D4B     		ldr	r3, .L19
 308 00a6 1A70     		strb	r2, [r3]
 181:main.c        ****             }
 309              		.loc 1 181 0
 310 00a8 2F4B     		ldr	r3, .L19+12
 311 00aa 0122     		movs	r2, #1
 312 00ac 1A70     		strb	r2, [r3]
 313              	.L16:
 185:main.c        ****             
 314              		.loc 1 185 0
 315 00ae 0823     		movs	r3, #8
 316 00b0 FB18     		adds	r3, r7, r3
 317 00b2 9B89     		ldrh	r3, [r3, #12]
 318 00b4 162B     		cmp	r3, #22
 319 00b6 3CD1     		bne	.L17
 187:main.c        ****                 thermo.fanLow= wrReq.handleValPair.value.val[1];
 320              		.loc 1 187 0
 321 00b8 0823     		movs	r3, #8
 322 00ba FB18     		adds	r3, r7, r3
 323 00bc 5B68     		ldr	r3, [r3, #4]
 324 00be 1A78     		ldrb	r2, [r3]
 325 00c0 2A4B     		ldr	r3, .L19+16
 326 00c2 1A70     		strb	r2, [r3]
 188:main.c        ****                 thermo.fanHigh = wrReq.handleValPair.value.val[2];
ARM GAS  C:\Users\sergio\AppData\Local\Temp\ccqEDlrG.s 			page 11


 327              		.loc 1 188 0
 328 00c4 0823     		movs	r3, #8
 329 00c6 FB18     		adds	r3, r7, r3
 330 00c8 5B68     		ldr	r3, [r3, #4]
 331 00ca 5A78     		ldrb	r2, [r3, #1]
 332 00cc 274B     		ldr	r3, .L19+16
 333 00ce 5A70     		strb	r2, [r3, #1]
 189:main.c        ****                 thermo.setTemperature = wrReq.handleValPair.value.val[3];
 334              		.loc 1 189 0
 335 00d0 0823     		movs	r3, #8
 336 00d2 FB18     		adds	r3, r7, r3
 337 00d4 5B68     		ldr	r3, [r3, #4]
 338 00d6 9A78     		ldrb	r2, [r3, #2]
 339 00d8 244B     		ldr	r3, .L19+16
 340 00da 9A70     		strb	r2, [r3, #2]
 190:main.c        ****                 thermo.power = wrReq.handleValPair.value.val[5];
 341              		.loc 1 190 0
 342 00dc 0823     		movs	r3, #8
 343 00de FB18     		adds	r3, r7, r3
 344 00e0 5B68     		ldr	r3, [r3, #4]
 345 00e2 DA78     		ldrb	r2, [r3, #3]
 346 00e4 214B     		ldr	r3, .L19+16
 347 00e6 DA70     		strb	r2, [r3, #3]
 191:main.c        ****                 thermo.test = wrReq.handleValPair.value.val[6];
 348              		.loc 1 191 0
 349 00e8 0823     		movs	r3, #8
 350 00ea FB18     		adds	r3, r7, r3
 351 00ec 5B68     		ldr	r3, [r3, #4]
 352 00ee 5A79     		ldrb	r2, [r3, #5]
 353 00f0 1E4B     		ldr	r3, .L19+16
 354 00f2 5A71     		strb	r2, [r3, #5]
 192:main.c        ****                 
 355              		.loc 1 192 0
 356 00f4 0823     		movs	r3, #8
 357 00f6 FB18     		adds	r3, r7, r3
 358 00f8 5B68     		ldr	r3, [r3, #4]
 359 00fa 9A79     		ldrb	r2, [r3, #6]
 360 00fc 1B4B     		ldr	r3, .L19+16
 361 00fe 9A71     		strb	r2, [r3, #6]
 194:main.c        ****                 MyUART_PutString(uartStr);
 362              		.loc 1 194 0
 363 0100 1A4B     		ldr	r3, .L19+16
 364 0102 1B78     		ldrb	r3, [r3]
 365 0104 1C00     		movs	r4, r3
 366 0106 194B     		ldr	r3, .L19+16
 367 0108 5B78     		ldrb	r3, [r3, #1]
 368 010a 1D00     		movs	r5, r3
 369 010c 174B     		ldr	r3, .L19+16
 370 010e 9B78     		ldrb	r3, [r3, #2]
 371 0110 1A00     		movs	r2, r3
 372 0112 164B     		ldr	r3, .L19+16
 373 0114 5B79     		ldrb	r3, [r3, #5]
 374 0116 1649     		ldr	r1, .L19+20
 375 0118 1648     		ldr	r0, .L19+24
 376 011a 0193     		str	r3, [sp, #4]
 377 011c 0092     		str	r2, [sp]
 378 011e 2B00     		movs	r3, r5
ARM GAS  C:\Users\sergio\AppData\Local\Temp\ccqEDlrG.s 			page 12


 379 0120 2200     		movs	r2, r4
 380 0122 FFF7FEFF 		bl	sprintf
 195:main.c        ****                // thermostat[0] = thermo.compressor;
 381              		.loc 1 195 0
 382 0126 134B     		ldr	r3, .L19+24
 383 0128 1800     		movs	r0, r3
 384 012a FFF7FEFF 		bl	MyUART_PutString
 198:main.c        ****                 
 385              		.loc 1 198 0
 386 012e FFF7FEFF 		bl	updateThermostatData
 387              	.L17:
 202:main.c        ****             
 388              		.loc 1 202 0
 389 0132 114B     		ldr	r3, .L19+28
 390 0134 1A78     		ldrb	r2, [r3]
 391 0136 5B78     		ldrb	r3, [r3, #1]
 392 0138 1B02     		lsls	r3, r3, #8
 393 013a 1A43     		orrs	r2, r3
 394 013c 0023     		movs	r3, #0
 395 013e 1204     		lsls	r2, r2, #16
 396 0140 120C     		lsrs	r2, r2, #16
 397 0142 1B0C     		lsrs	r3, r3, #16
 398 0144 1B04     		lsls	r3, r3, #16
 399 0146 1343     		orrs	r3, r2
 400 0148 1800     		movs	r0, r3
 401 014a FFF7FEFF 		bl	CyBle_GattsWriteRsp
 204:main.c        ****         
 402              		.loc 1 204 0
 403 014e 00E0     		b	.L14
 404              	.L18:
 155:main.c        ****         case CYBLE_EVT_GATT_CONNECT_IND:
 405              		.loc 1 155 0
 406 0150 C046     		nop
 407              	.L14:
 208:main.c        ****     }
 209:main.c        ****     
 210:main.c        **** }
 408              		.loc 1 210 0 discriminator 1
 409 0152 C046     		nop
 410 0154 BD46     		mov	sp, r7
 411 0156 06B0     		add	sp, sp, #24
 412              		@ sp needed
 413 0158 B0BD     		pop	{r4, r5, r7, pc}
 414              	.L20:
 415 015a C046     		.align	2
 416              	.L19:
 417 015c 00000000 		.word	isNotify
 418 0160 00000000 		.word	bleConnected
 419 0164 00000000 		.word	cyBle_state
 420 0168 00000000 		.word	updateIsNotifyCCCDAttr
 421 016c 00000000 		.word	thermo
 422 0170 00000000 		.word	.LC8
 423 0174 00000000 		.word	uartStr
 424 0178 00000000 		.word	cyBle_connHandle
 425              		.cfi_endproc
 426              	.LFE37:
 427              		.size	bleStack, .-bleStack
ARM GAS  C:\Users\sergio\AppData\Local\Temp\ccqEDlrG.s 			page 13


 428              		.section	.text.send_Error_Power_to_Phone,"ax",%progbits
 429              		.align	2
 430              		.global	send_Error_Power_to_Phone
 431              		.code	16
 432              		.thumb_func
 433              		.type	send_Error_Power_to_Phone, %function
 434              	send_Error_Power_to_Phone:
 435              	.LFB38:
 211:main.c        **** // function to read error data on the phone
 212:main.c        **** void send_Error_Power_to_Phone(){
 436              		.loc 1 212 0
 437              		.cfi_startproc
 438              		@ args = 0, pretend = 0, frame = 24
 439              		@ frame_needed = 1, uses_anonymous_args = 0
 440 0000 80B5     		push	{r7, lr}
 441              		.cfi_def_cfa_offset 8
 442              		.cfi_offset 7, -8
 443              		.cfi_offset 14, -4
 444 0002 86B0     		sub	sp, sp, #24
 445              		.cfi_def_cfa_offset 32
 446 0004 00AF     		add	r7, sp, #0
 447              		.cfi_def_cfa_register 7
 213:main.c        ****     CYBLE_GATT_HANDLE_VALUE_PAIR_T errorRead;
 214:main.c        ****     
 215:main.c        ****     uint8 err[] = {errorPower.err_Comp_volt, errorPower.err_Comp_curr, errorPower.err_LFan_volt,
 448              		.loc 1 215 0
 449 0006 1D4B     		ldr	r3, .L22
 450 0008 1B78     		ldrb	r3, [r3]
 451 000a 5BB2     		sxtb	r3, r3
 452 000c DAB2     		uxtb	r2, r3
 453 000e 3B1D     		adds	r3, r7, #4
 454 0010 1A70     		strb	r2, [r3]
 455 0012 1A4B     		ldr	r3, .L22
 456 0014 5B78     		ldrb	r3, [r3, #1]
 457 0016 5BB2     		sxtb	r3, r3
 458 0018 DAB2     		uxtb	r2, r3
 459 001a 3B1D     		adds	r3, r7, #4
 460 001c 5A70     		strb	r2, [r3, #1]
 461 001e 174B     		ldr	r3, .L22
 462 0020 9B78     		ldrb	r3, [r3, #2]
 463 0022 5BB2     		sxtb	r3, r3
 464 0024 DAB2     		uxtb	r2, r3
 465 0026 3B1D     		adds	r3, r7, #4
 466 0028 9A70     		strb	r2, [r3, #2]
 216:main.c        ****         errorPower.err_LFan_curr, errorPower.err_HFan_volt, errorPower.err_HFan_curr};
 467              		.loc 1 216 0
 468 002a 144B     		ldr	r3, .L22
 469 002c DB78     		ldrb	r3, [r3, #3]
 470 002e 5BB2     		sxtb	r3, r3
 215:main.c        ****         errorPower.err_LFan_curr, errorPower.err_HFan_volt, errorPower.err_HFan_curr};
 471              		.loc 1 215 0
 472 0030 DAB2     		uxtb	r2, r3
 473 0032 3B1D     		adds	r3, r7, #4
 474 0034 DA70     		strb	r2, [r3, #3]
 475              		.loc 1 216 0
 476 0036 114B     		ldr	r3, .L22
 477 0038 1B79     		ldrb	r3, [r3, #4]
ARM GAS  C:\Users\sergio\AppData\Local\Temp\ccqEDlrG.s 			page 14


 478 003a 5BB2     		sxtb	r3, r3
 215:main.c        ****         errorPower.err_LFan_curr, errorPower.err_HFan_volt, errorPower.err_HFan_curr};
 479              		.loc 1 215 0
 480 003c DAB2     		uxtb	r2, r3
 481 003e 3B1D     		adds	r3, r7, #4
 482 0040 1A71     		strb	r2, [r3, #4]
 483              		.loc 1 216 0
 484 0042 0E4B     		ldr	r3, .L22
 485 0044 5B79     		ldrb	r3, [r3, #5]
 486 0046 5BB2     		sxtb	r3, r3
 215:main.c        ****         errorPower.err_LFan_curr, errorPower.err_HFan_volt, errorPower.err_HFan_curr};
 487              		.loc 1 215 0
 488 0048 DAB2     		uxtb	r2, r3
 489 004a 3B1D     		adds	r3, r7, #4
 490 004c 5A71     		strb	r2, [r3, #5]
 217:main.c        ****     
 218:main.c        ****     errorRead.attrHandle = CYBLE_RVAC_ERROR_CODES_CHAR_HANDLE;
 491              		.loc 1 218 0
 492 004e 0C23     		movs	r3, #12
 493 0050 FB18     		adds	r3, r7, r3
 494 0052 1A22     		movs	r2, #26
 495 0054 1A81     		strh	r2, [r3, #8]
 219:main.c        ****     errorRead.value.val = (uint8 *) &err;
 496              		.loc 1 219 0
 497 0056 0C23     		movs	r3, #12
 498 0058 FB18     		adds	r3, r7, r3
 499 005a 3A1D     		adds	r2, r7, #4
 500 005c 1A60     		str	r2, [r3]
 220:main.c        ****     errorRead.value.len = 6;
 501              		.loc 1 220 0
 502 005e 0C23     		movs	r3, #12
 503 0060 FB18     		adds	r3, r7, r3
 504 0062 0622     		movs	r2, #6
 505 0064 9A80     		strh	r2, [r3, #4]
 221:main.c        ****     
 222:main.c        ****     CyBle_GattsWriteAttributeValue(&errorRead, 0, &cyBle_connHandle, CYBLE_GATT_DB_PEER_INITIATED);
 506              		.loc 1 222 0
 507 0066 064A     		ldr	r2, .L22+4
 508 0068 0C23     		movs	r3, #12
 509 006a F818     		adds	r0, r7, r3
 510 006c 4023     		movs	r3, #64
 511 006e 0021     		movs	r1, #0
 512 0070 FFF7FEFF 		bl	CyBle_GattsWriteAttributeValue
 223:main.c        **** }
 513              		.loc 1 223 0
 514 0074 C046     		nop
 515 0076 BD46     		mov	sp, r7
 516 0078 06B0     		add	sp, sp, #24
 517              		@ sp needed
 518 007a 80BD     		pop	{r7, pc}
 519              	.L23:
 520              		.align	2
 521              	.L22:
 522 007c 00000000 		.word	errorPower
 523 0080 00000000 		.word	cyBle_connHandle
 524              		.cfi_endproc
 525              	.LFE38:
ARM GAS  C:\Users\sergio\AppData\Local\Temp\ccqEDlrG.s 			page 15


 526              		.size	send_Error_Power_to_Phone, .-send_Error_Power_to_Phone
 527              		.section	.text.send_Thermo_to_phone,"ax",%progbits
 528              		.align	2
 529              		.global	send_Thermo_to_phone
 530              		.code	16
 531              		.thumb_func
 532              		.type	send_Thermo_to_phone, %function
 533              	send_Thermo_to_phone:
 534              	.LFB39:
 224:main.c        **** 
 225:main.c        **** // function to read thermostat data on the phone
 226:main.c        **** void send_Thermo_to_phone(){
 535              		.loc 1 226 0
 536              		.cfi_startproc
 537              		@ args = 0, pretend = 0, frame = 24
 538              		@ frame_needed = 1, uses_anonymous_args = 0
 539 0000 80B5     		push	{r7, lr}
 540              		.cfi_def_cfa_offset 8
 541              		.cfi_offset 7, -8
 542              		.cfi_offset 14, -4
 543 0002 86B0     		sub	sp, sp, #24
 544              		.cfi_def_cfa_offset 32
 545 0004 00AF     		add	r7, sp, #0
 546              		.cfi_def_cfa_register 7
 227:main.c        ****     CYBLE_GATT_HANDLE_VALUE_PAIR_T thermoRead;
 228:main.c        ****     
 229:main.c        ****     uint8 readThermo[7]; 
 230:main.c        ****     readThermo[0] = thermo.compressor;
 547              		.loc 1 230 0
 548 0006 194B     		ldr	r3, .L25
 549 0008 1A78     		ldrb	r2, [r3]
 550 000a 3B1D     		adds	r3, r7, #4
 551 000c 1A70     		strb	r2, [r3]
 231:main.c        ****     readThermo[1] = thermo.fanLow;
 552              		.loc 1 231 0
 553 000e 174B     		ldr	r3, .L25
 554 0010 5A78     		ldrb	r2, [r3, #1]
 555 0012 3B1D     		adds	r3, r7, #4
 556 0014 5A70     		strb	r2, [r3, #1]
 232:main.c        ****     readThermo[2] = thermo.fanHigh;
 557              		.loc 1 232 0
 558 0016 154B     		ldr	r3, .L25
 559 0018 9A78     		ldrb	r2, [r3, #2]
 560 001a 3B1D     		adds	r3, r7, #4
 561 001c 9A70     		strb	r2, [r3, #2]
 233:main.c        ****     readThermo[3] = thermo.setTemperature;
 562              		.loc 1 233 0
 563 001e 134B     		ldr	r3, .L25
 564 0020 DA78     		ldrb	r2, [r3, #3]
 565 0022 3B1D     		adds	r3, r7, #4
 566 0024 DA70     		strb	r2, [r3, #3]
 234:main.c        ****     readThermo[4] = thermo.ambientTemp;
 567              		.loc 1 234 0
 568 0026 114B     		ldr	r3, .L25
 569 0028 1A79     		ldrb	r2, [r3, #4]
 570 002a 3B1D     		adds	r3, r7, #4
 571 002c 1A71     		strb	r2, [r3, #4]
ARM GAS  C:\Users\sergio\AppData\Local\Temp\ccqEDlrG.s 			page 16


 235:main.c        ****     readThermo[5] = thermo.power;
 572              		.loc 1 235 0
 573 002e 0F4B     		ldr	r3, .L25
 574 0030 5A79     		ldrb	r2, [r3, #5]
 575 0032 3B1D     		adds	r3, r7, #4
 576 0034 5A71     		strb	r2, [r3, #5]
 236:main.c        ****     readThermo[6] = thermo.test;
 577              		.loc 1 236 0
 578 0036 0D4B     		ldr	r3, .L25
 579 0038 9A79     		ldrb	r2, [r3, #6]
 580 003a 3B1D     		adds	r3, r7, #4
 581 003c 9A71     		strb	r2, [r3, #6]
 237:main.c        ****    
 238:main.c        ****     
 239:main.c        ****      thermoRead.attrHandle = CYBLE_RVAC_THERMOSTAT_CHAR_HANDLE;
 582              		.loc 1 239 0
 583 003e 0C23     		movs	r3, #12
 584 0040 FB18     		adds	r3, r7, r3
 585 0042 1622     		movs	r2, #22
 586 0044 1A81     		strh	r2, [r3, #8]
 240:main.c        ****         thermoRead.value.val = (uint8 *) &readThermo;
 587              		.loc 1 240 0
 588 0046 0C23     		movs	r3, #12
 589 0048 FB18     		adds	r3, r7, r3
 590 004a 3A1D     		adds	r2, r7, #4
 591 004c 1A60     		str	r2, [r3]
 241:main.c        ****         thermoRead.value.len = 7;
 592              		.loc 1 241 0
 593 004e 0C23     		movs	r3, #12
 594 0050 FB18     		adds	r3, r7, r3
 595 0052 0722     		movs	r2, #7
 596 0054 9A80     		strh	r2, [r3, #4]
 242:main.c        ****     
 243:main.c        ****    CyBle_GattsWriteAttributeValue(&thermoRead, 0, &cyBle_connHandle, CYBLE_GATT_DB_PEER_INITIATED);
 597              		.loc 1 243 0
 598 0056 064A     		ldr	r2, .L25+4
 599 0058 0C23     		movs	r3, #12
 600 005a F818     		adds	r0, r7, r3
 601 005c 4023     		movs	r3, #64
 602 005e 0021     		movs	r1, #0
 603 0060 FFF7FEFF 		bl	CyBle_GattsWriteAttributeValue
 244:main.c        **** }
 604              		.loc 1 244 0
 605 0064 C046     		nop
 606 0066 BD46     		mov	sp, r7
 607 0068 06B0     		add	sp, sp, #24
 608              		@ sp needed
 609 006a 80BD     		pop	{r7, pc}
 610              	.L26:
 611              		.align	2
 612              	.L25:
 613 006c 00000000 		.word	thermo
 614 0070 00000000 		.word	cyBle_connHandle
 615              		.cfi_endproc
 616              	.LFE39:
 617              		.size	send_Thermo_to_phone, .-send_Thermo_to_phone
 618              		.global	__aeabi_uidiv
ARM GAS  C:\Users\sergio\AppData\Local\Temp\ccqEDlrG.s 			page 17


 619              		.global	__aeabi_uidivmod
 620              		.section	.text.SendDataNotify,"ax",%progbits
 621              		.align	2
 622              		.global	SendDataNotify
 623              		.code	16
 624              		.thumb_func
 625              		.type	SendDataNotify, %function
 626              	SendDataNotify:
 627              	.LFB40:
 245:main.c        **** 
 246:main.c        **** void SendDataNotify( ){
 628              		.loc 1 246 0
 629              		.cfi_startproc
 630              		@ args = 0, pretend = 0, frame = 48
 631              		@ frame_needed = 1, uses_anonymous_args = 0
 632 0000 80B5     		push	{r7, lr}
 633              		.cfi_def_cfa_offset 8
 634              		.cfi_offset 7, -8
 635              		.cfi_offset 14, -4
 636 0002 8CB0     		sub	sp, sp, #48
 637              		.cfi_def_cfa_offset 56
 638 0004 00AF     		add	r7, sp, #0
 639              		.cfi_def_cfa_register 7
 247:main.c        ****     CYBLE_GATTS_HANDLE_VALUE_NTF_T notiHandle;
 248:main.c        ****     
 249:main.c        ****       uint8 dataForBLE[] = {sensorData.localTemp, sensorData.humidity, sensorData.remoteTemp1, sens
 640              		.loc 1 249 0
 641 0006 A54B     		ldr	r3, .L28
 642 0008 1A78     		ldrb	r2, [r3]
 643 000a 3B00     		movs	r3, r7
 644 000c 1A70     		strb	r2, [r3]
 645 000e A34B     		ldr	r3, .L28
 646 0010 5A78     		ldrb	r2, [r3, #1]
 647 0012 3B00     		movs	r3, r7
 648 0014 5A70     		strb	r2, [r3, #1]
 649 0016 A14B     		ldr	r3, .L28
 650 0018 9A78     		ldrb	r2, [r3, #2]
 651 001a 3B00     		movs	r3, r7
 652 001c 9A70     		strb	r2, [r3, #2]
 653 001e 9F4B     		ldr	r3, .L28
 654 0020 DA78     		ldrb	r2, [r3, #3]
 655 0022 3B00     		movs	r3, r7
 656 0024 DA70     		strb	r2, [r3, #3]
 657 0026 9D4B     		ldr	r3, .L28
 658 0028 1A79     		ldrb	r2, [r3, #4]
 659 002a 3B00     		movs	r3, r7
 660 002c 1A71     		strb	r2, [r3, #4]
 661 002e 9B4B     		ldr	r3, .L28
 662 0030 5A79     		ldrb	r2, [r3, #5]
 663 0032 3B00     		movs	r3, r7
 664 0034 5A71     		strb	r2, [r3, #5]
 250:main.c        ****         (sensorData.voltCompressor/10), (sensorData.voltCompressor%10), (sensorData.voltFan/10), (s
 665              		.loc 1 250 0
 666 0036 994B     		ldr	r3, .L28
 667 0038 DB88     		ldrh	r3, [r3, #6]
 249:main.c        ****         (sensorData.voltCompressor/10), (sensorData.voltCompressor%10), (sensorData.voltFan/10), (s
 668              		.loc 1 249 0
ARM GAS  C:\Users\sergio\AppData\Local\Temp\ccqEDlrG.s 			page 18


 669 003a 0A21     		movs	r1, #10
 670 003c 1800     		movs	r0, r3
 671 003e FFF7FEFF 		bl	__aeabi_uidiv
 672 0042 0300     		movs	r3, r0
 673 0044 9BB2     		uxth	r3, r3
 674 0046 DAB2     		uxtb	r2, r3
 675 0048 3B00     		movs	r3, r7
 676 004a 9A71     		strb	r2, [r3, #6]
 677              		.loc 1 250 0
 678 004c 934B     		ldr	r3, .L28
 679 004e DB88     		ldrh	r3, [r3, #6]
 249:main.c        ****         (sensorData.voltCompressor/10), (sensorData.voltCompressor%10), (sensorData.voltFan/10), (s
 680              		.loc 1 249 0
 681 0050 0A21     		movs	r1, #10
 682 0052 1800     		movs	r0, r3
 683 0054 FFF7FEFF 		bl	__aeabi_uidivmod
 684 0058 0B00     		movs	r3, r1
 685 005a 9BB2     		uxth	r3, r3
 686 005c DAB2     		uxtb	r2, r3
 687 005e 3B00     		movs	r3, r7
 688 0060 DA71     		strb	r2, [r3, #7]
 689              		.loc 1 250 0
 690 0062 8E4B     		ldr	r3, .L28
 691 0064 1B89     		ldrh	r3, [r3, #8]
 249:main.c        ****         (sensorData.voltCompressor/10), (sensorData.voltCompressor%10), (sensorData.voltFan/10), (s
 692              		.loc 1 249 0
 693 0066 0A21     		movs	r1, #10
 694 0068 1800     		movs	r0, r3
 695 006a FFF7FEFF 		bl	__aeabi_uidiv
 696 006e 0300     		movs	r3, r0
 697 0070 9BB2     		uxth	r3, r3
 698 0072 DAB2     		uxtb	r2, r3
 699 0074 3B00     		movs	r3, r7
 700 0076 1A72     		strb	r2, [r3, #8]
 701              		.loc 1 250 0
 702 0078 884B     		ldr	r3, .L28
 703 007a 1B89     		ldrh	r3, [r3, #8]
 249:main.c        ****         (sensorData.voltCompressor/10), (sensorData.voltCompressor%10), (sensorData.voltFan/10), (s
 704              		.loc 1 249 0
 705 007c 0A21     		movs	r1, #10
 706 007e 1800     		movs	r0, r3
 707 0080 FFF7FEFF 		bl	__aeabi_uidivmod
 708 0084 0B00     		movs	r3, r1
 709 0086 9BB2     		uxth	r3, r3
 710 0088 DAB2     		uxtb	r2, r3
 711 008a 3B00     		movs	r3, r7
 712 008c 5A72     		strb	r2, [r3, #9]
 251:main.c        ****         (sensorData.volt/10), (sensorData.volt%10), (sensorData.currentCompressor/1000), (sensorDat
 713              		.loc 1 251 0
 714 008e 834B     		ldr	r3, .L28
 715 0090 5B89     		ldrh	r3, [r3, #10]
 249:main.c        ****         (sensorData.voltCompressor/10), (sensorData.voltCompressor%10), (sensorData.voltFan/10), (s
 716              		.loc 1 249 0
 717 0092 0A21     		movs	r1, #10
 718 0094 1800     		movs	r0, r3
 719 0096 FFF7FEFF 		bl	__aeabi_uidiv
 720 009a 0300     		movs	r3, r0
ARM GAS  C:\Users\sergio\AppData\Local\Temp\ccqEDlrG.s 			page 19


 721 009c 9BB2     		uxth	r3, r3
 722 009e DAB2     		uxtb	r2, r3
 723 00a0 3B00     		movs	r3, r7
 724 00a2 9A72     		strb	r2, [r3, #10]
 725              		.loc 1 251 0
 726 00a4 7D4B     		ldr	r3, .L28
 727 00a6 5B89     		ldrh	r3, [r3, #10]
 249:main.c        ****         (sensorData.voltCompressor/10), (sensorData.voltCompressor%10), (sensorData.voltFan/10), (s
 728              		.loc 1 249 0
 729 00a8 0A21     		movs	r1, #10
 730 00aa 1800     		movs	r0, r3
 731 00ac FFF7FEFF 		bl	__aeabi_uidivmod
 732 00b0 0B00     		movs	r3, r1
 733 00b2 9BB2     		uxth	r3, r3
 734 00b4 DAB2     		uxtb	r2, r3
 735 00b6 3B00     		movs	r3, r7
 736 00b8 DA72     		strb	r2, [r3, #11]
 737              		.loc 1 251 0
 738 00ba 784B     		ldr	r3, .L28
 739 00bc DA68     		ldr	r2, [r3, #12]
 740 00be FA23     		movs	r3, #250
 741 00c0 9900     		lsls	r1, r3, #2
 742 00c2 1000     		movs	r0, r2
 743 00c4 FFF7FEFF 		bl	__aeabi_uidiv
 744 00c8 0300     		movs	r3, r0
 249:main.c        ****         (sensorData.voltCompressor/10), (sensorData.voltCompressor%10), (sensorData.voltFan/10), (s
 745              		.loc 1 249 0
 746 00ca DAB2     		uxtb	r2, r3
 747 00cc 3B00     		movs	r3, r7
 748 00ce 1A73     		strb	r2, [r3, #12]
 749              		.loc 1 251 0
 750 00d0 724B     		ldr	r3, .L28
 751 00d2 DB68     		ldr	r3, [r3, #12]
 752 00d4 6421     		movs	r1, #100
 753 00d6 1800     		movs	r0, r3
 754 00d8 FFF7FEFF 		bl	__aeabi_uidiv
 755 00dc 0300     		movs	r3, r0
 249:main.c        ****         (sensorData.voltCompressor/10), (sensorData.voltCompressor%10), (sensorData.voltFan/10), (s
 756              		.loc 1 249 0
 757 00de DAB2     		uxtb	r2, r3
 758 00e0 3B00     		movs	r3, r7
 759 00e2 5A73     		strb	r2, [r3, #13]
 252:main.c        ****         (sensorData.currentCompressor/10), (sensorData.currentCompressor%10), (sensorData.currentFa
 760              		.loc 1 252 0
 761 00e4 6D4B     		ldr	r3, .L28
 762 00e6 DB68     		ldr	r3, [r3, #12]
 763 00e8 0A21     		movs	r1, #10
 764 00ea 1800     		movs	r0, r3
 765 00ec FFF7FEFF 		bl	__aeabi_uidiv
 766 00f0 0300     		movs	r3, r0
 249:main.c        ****         (sensorData.voltCompressor/10), (sensorData.voltCompressor%10), (sensorData.voltFan/10), (s
 767              		.loc 1 249 0
 768 00f2 DAB2     		uxtb	r2, r3
 769 00f4 3B00     		movs	r3, r7
 770 00f6 9A73     		strb	r2, [r3, #14]
 771              		.loc 1 252 0
 772 00f8 684B     		ldr	r3, .L28
ARM GAS  C:\Users\sergio\AppData\Local\Temp\ccqEDlrG.s 			page 20


 773 00fa DB68     		ldr	r3, [r3, #12]
 774 00fc 0A21     		movs	r1, #10
 775 00fe 1800     		movs	r0, r3
 776 0100 FFF7FEFF 		bl	__aeabi_uidivmod
 777 0104 0B00     		movs	r3, r1
 249:main.c        ****         (sensorData.voltCompressor/10), (sensorData.voltCompressor%10), (sensorData.voltFan/10), (s
 778              		.loc 1 249 0
 779 0106 DAB2     		uxtb	r2, r3
 780 0108 3B00     		movs	r3, r7
 781 010a DA73     		strb	r2, [r3, #15]
 782              		.loc 1 252 0
 783 010c 634B     		ldr	r3, .L28
 784 010e 1A69     		ldr	r2, [r3, #16]
 785 0110 FA23     		movs	r3, #250
 786 0112 9900     		lsls	r1, r3, #2
 787 0114 1000     		movs	r0, r2
 788 0116 FFF7FEFF 		bl	__aeabi_uidiv
 789 011a 0300     		movs	r3, r0
 249:main.c        ****         (sensorData.voltCompressor/10), (sensorData.voltCompressor%10), (sensorData.voltFan/10), (s
 790              		.loc 1 249 0
 791 011c DAB2     		uxtb	r2, r3
 792 011e 3B00     		movs	r3, r7
 793 0120 1A74     		strb	r2, [r3, #16]
 794              		.loc 1 252 0
 795 0122 5E4B     		ldr	r3, .L28
 796 0124 1B69     		ldr	r3, [r3, #16]
 797 0126 6421     		movs	r1, #100
 798 0128 1800     		movs	r0, r3
 799 012a FFF7FEFF 		bl	__aeabi_uidiv
 800 012e 0300     		movs	r3, r0
 249:main.c        ****         (sensorData.voltCompressor/10), (sensorData.voltCompressor%10), (sensorData.voltFan/10), (s
 801              		.loc 1 249 0
 802 0130 DAB2     		uxtb	r2, r3
 803 0132 3B00     		movs	r3, r7
 804 0134 5A74     		strb	r2, [r3, #17]
 253:main.c        ****         (sensorData.currentFan/10),(sensorData.currentFan%10),(sensorData.current/1000), (sensorDat
 805              		.loc 1 253 0
 806 0136 594B     		ldr	r3, .L28
 807 0138 1B69     		ldr	r3, [r3, #16]
 808 013a 0A21     		movs	r1, #10
 809 013c 1800     		movs	r0, r3
 810 013e FFF7FEFF 		bl	__aeabi_uidiv
 811 0142 0300     		movs	r3, r0
 249:main.c        ****         (sensorData.voltCompressor/10), (sensorData.voltCompressor%10), (sensorData.voltFan/10), (s
 812              		.loc 1 249 0
 813 0144 DAB2     		uxtb	r2, r3
 814 0146 3B00     		movs	r3, r7
 815 0148 9A74     		strb	r2, [r3, #18]
 816              		.loc 1 253 0
 817 014a 544B     		ldr	r3, .L28
 818 014c 1B69     		ldr	r3, [r3, #16]
 819 014e 0A21     		movs	r1, #10
 820 0150 1800     		movs	r0, r3
 821 0152 FFF7FEFF 		bl	__aeabi_uidivmod
 822 0156 0B00     		movs	r3, r1
 249:main.c        ****         (sensorData.voltCompressor/10), (sensorData.voltCompressor%10), (sensorData.voltFan/10), (s
 823              		.loc 1 249 0
ARM GAS  C:\Users\sergio\AppData\Local\Temp\ccqEDlrG.s 			page 21


 824 0158 DAB2     		uxtb	r2, r3
 825 015a 3B00     		movs	r3, r7
 826 015c DA74     		strb	r2, [r3, #19]
 827              		.loc 1 253 0
 828 015e 4F4B     		ldr	r3, .L28
 829 0160 5A69     		ldr	r2, [r3, #20]
 830 0162 FA23     		movs	r3, #250
 831 0164 9900     		lsls	r1, r3, #2
 832 0166 1000     		movs	r0, r2
 833 0168 FFF7FEFF 		bl	__aeabi_uidiv
 834 016c 0300     		movs	r3, r0
 249:main.c        ****         (sensorData.voltCompressor/10), (sensorData.voltCompressor%10), (sensorData.voltFan/10), (s
 835              		.loc 1 249 0
 836 016e DAB2     		uxtb	r2, r3
 837 0170 3B00     		movs	r3, r7
 838 0172 1A75     		strb	r2, [r3, #20]
 839              		.loc 1 253 0
 840 0174 494B     		ldr	r3, .L28
 841 0176 5B69     		ldr	r3, [r3, #20]
 842 0178 6421     		movs	r1, #100
 843 017a 1800     		movs	r0, r3
 844 017c FFF7FEFF 		bl	__aeabi_uidiv
 845 0180 0300     		movs	r3, r0
 249:main.c        ****         (sensorData.voltCompressor/10), (sensorData.voltCompressor%10), (sensorData.voltFan/10), (s
 846              		.loc 1 249 0
 847 0182 DAB2     		uxtb	r2, r3
 848 0184 3B00     		movs	r3, r7
 849 0186 5A75     		strb	r2, [r3, #21]
 850              		.loc 1 253 0
 851 0188 444B     		ldr	r3, .L28
 852 018a 5B69     		ldr	r3, [r3, #20]
 853 018c 0A21     		movs	r1, #10
 854 018e 1800     		movs	r0, r3
 855 0190 FFF7FEFF 		bl	__aeabi_uidiv
 856 0194 0300     		movs	r3, r0
 249:main.c        ****         (sensorData.voltCompressor/10), (sensorData.voltCompressor%10), (sensorData.voltFan/10), (s
 857              		.loc 1 249 0
 858 0196 DAB2     		uxtb	r2, r3
 859 0198 3B00     		movs	r3, r7
 860 019a 9A75     		strb	r2, [r3, #22]
 254:main.c        ****         (sensorData.current%10),(sensorData.lineFreqComp/10), (sensorData.lineFreqComp%10), (sensor
 861              		.loc 1 254 0
 862 019c 3F4B     		ldr	r3, .L28
 863 019e 5B69     		ldr	r3, [r3, #20]
 864 01a0 0A21     		movs	r1, #10
 865 01a2 1800     		movs	r0, r3
 866 01a4 FFF7FEFF 		bl	__aeabi_uidivmod
 867 01a8 0B00     		movs	r3, r1
 249:main.c        ****         (sensorData.voltCompressor/10), (sensorData.voltCompressor%10), (sensorData.voltFan/10), (s
 868              		.loc 1 249 0
 869 01aa DAB2     		uxtb	r2, r3
 870 01ac 3B00     		movs	r3, r7
 871 01ae DA75     		strb	r2, [r3, #23]
 872              		.loc 1 254 0
 873 01b0 3A4B     		ldr	r3, .L28
 874 01b2 1B8B     		ldrh	r3, [r3, #24]
 249:main.c        ****         (sensorData.voltCompressor/10), (sensorData.voltCompressor%10), (sensorData.voltFan/10), (s
ARM GAS  C:\Users\sergio\AppData\Local\Temp\ccqEDlrG.s 			page 22


 875              		.loc 1 249 0
 876 01b4 0A21     		movs	r1, #10
 877 01b6 1800     		movs	r0, r3
 878 01b8 FFF7FEFF 		bl	__aeabi_uidiv
 879 01bc 0300     		movs	r3, r0
 880 01be 9BB2     		uxth	r3, r3
 881 01c0 DAB2     		uxtb	r2, r3
 882 01c2 3B00     		movs	r3, r7
 883 01c4 1A76     		strb	r2, [r3, #24]
 884              		.loc 1 254 0
 885 01c6 354B     		ldr	r3, .L28
 886 01c8 1B8B     		ldrh	r3, [r3, #24]
 249:main.c        ****         (sensorData.voltCompressor/10), (sensorData.voltCompressor%10), (sensorData.voltFan/10), (s
 887              		.loc 1 249 0
 888 01ca 0A21     		movs	r1, #10
 889 01cc 1800     		movs	r0, r3
 890 01ce FFF7FEFF 		bl	__aeabi_uidivmod
 891 01d2 0B00     		movs	r3, r1
 892 01d4 9BB2     		uxth	r3, r3
 893 01d6 DAB2     		uxtb	r2, r3
 894 01d8 3B00     		movs	r3, r7
 895 01da 5A76     		strb	r2, [r3, #25]
 896              		.loc 1 254 0
 897 01dc 2F4B     		ldr	r3, .L28
 898 01de 5B8B     		ldrh	r3, [r3, #26]
 249:main.c        ****         (sensorData.voltCompressor/10), (sensorData.voltCompressor%10), (sensorData.voltFan/10), (s
 899              		.loc 1 249 0
 900 01e0 0A21     		movs	r1, #10
 901 01e2 1800     		movs	r0, r3
 902 01e4 FFF7FEFF 		bl	__aeabi_uidiv
 903 01e8 0300     		movs	r3, r0
 904 01ea 9BB2     		uxth	r3, r3
 905 01ec DAB2     		uxtb	r2, r3
 906 01ee 3B00     		movs	r3, r7
 907 01f0 9A76     		strb	r2, [r3, #26]
 255:main.c        ****         (sensorData.lineFreqFan%10), (sensorData.lineFreq/10), (sensorData.lineFreq%10), sensorData
 908              		.loc 1 255 0
 909 01f2 2A4B     		ldr	r3, .L28
 910 01f4 5B8B     		ldrh	r3, [r3, #26]
 249:main.c        ****         (sensorData.voltCompressor/10), (sensorData.voltCompressor%10), (sensorData.voltFan/10), (s
 911              		.loc 1 249 0
 912 01f6 0A21     		movs	r1, #10
 913 01f8 1800     		movs	r0, r3
 914 01fa FFF7FEFF 		bl	__aeabi_uidivmod
 915 01fe 0B00     		movs	r3, r1
 916 0200 9BB2     		uxth	r3, r3
 917 0202 DAB2     		uxtb	r2, r3
 918 0204 3B00     		movs	r3, r7
 919 0206 DA76     		strb	r2, [r3, #27]
 920              		.loc 1 255 0
 921 0208 244B     		ldr	r3, .L28
 922 020a 9B8B     		ldrh	r3, [r3, #28]
 249:main.c        ****         (sensorData.voltCompressor/10), (sensorData.voltCompressor%10), (sensorData.voltFan/10), (s
 923              		.loc 1 249 0
 924 020c 0A21     		movs	r1, #10
 925 020e 1800     		movs	r0, r3
 926 0210 FFF7FEFF 		bl	__aeabi_uidiv
ARM GAS  C:\Users\sergio\AppData\Local\Temp\ccqEDlrG.s 			page 23


 927 0214 0300     		movs	r3, r0
 928 0216 9BB2     		uxth	r3, r3
 929 0218 DAB2     		uxtb	r2, r3
 930 021a 3B00     		movs	r3, r7
 931 021c 1A77     		strb	r2, [r3, #28]
 932              		.loc 1 255 0
 933 021e 1F4B     		ldr	r3, .L28
 934 0220 9B8B     		ldrh	r3, [r3, #28]
 249:main.c        ****         (sensorData.voltCompressor/10), (sensorData.voltCompressor%10), (sensorData.voltFan/10), (s
 935              		.loc 1 249 0
 936 0222 0A21     		movs	r1, #10
 937 0224 1800     		movs	r0, r3
 938 0226 FFF7FEFF 		bl	__aeabi_uidivmod
 939 022a 0B00     		movs	r3, r1
 940 022c 9BB2     		uxth	r3, r3
 941 022e DAB2     		uxtb	r2, r3
 942 0230 3B00     		movs	r3, r7
 943 0232 5A77     		strb	r2, [r3, #29]
 944              		.loc 1 255 0
 945 0234 194B     		ldr	r3, .L28
 946 0236 9A7F     		ldrb	r2, [r3, #30]
 249:main.c        ****         (sensorData.voltCompressor/10), (sensorData.voltCompressor%10), (sensorData.voltFan/10), (s
 947              		.loc 1 249 0
 948 0238 3B00     		movs	r3, r7
 949 023a 9A77     		strb	r2, [r3, #30]
 950              		.loc 1 255 0
 951 023c 174B     		ldr	r3, .L28
 952 023e DA7F     		ldrb	r2, [r3, #31]
 249:main.c        ****         (sensorData.voltCompressor/10), (sensorData.voltCompressor%10), (sensorData.voltFan/10), (s
 953              		.loc 1 249 0
 954 0240 3B00     		movs	r3, r7
 955 0242 DA77     		strb	r2, [r3, #31]
 956              		.loc 1 255 0
 957 0244 154B     		ldr	r3, .L28
 958 0246 2022     		movs	r2, #32
 959 0248 995C     		ldrb	r1, [r3, r2]
 249:main.c        ****         (sensorData.voltCompressor/10), (sensorData.voltCompressor%10), (sensorData.voltFan/10), (s
 960              		.loc 1 249 0
 961 024a 3B00     		movs	r3, r7
 962 024c 2022     		movs	r2, #32
 963 024e 9954     		strb	r1, [r3, r2]
 964              		.loc 1 255 0
 965 0250 124B     		ldr	r3, .L28
 966 0252 5B8C     		ldrh	r3, [r3, #34]
 249:main.c        ****         (sensorData.voltCompressor/10), (sensorData.voltCompressor%10), (sensorData.voltFan/10), (s
 967              		.loc 1 249 0
 968 0254 D9B2     		uxtb	r1, r3
 969 0256 3B00     		movs	r3, r7
 970 0258 2122     		movs	r2, #33
 971 025a 9954     		strb	r1, [r3, r2]
 256:main.c        ****     
 257:main.c        **** 
 258:main.c        ****      notiHandle.attrHandle = CYBLE_RVAC_SENSORS_CHAR_HANDLE;
 972              		.loc 1 258 0
 973 025c 2423     		movs	r3, #36
 974 025e FB18     		adds	r3, r7, r3
 975 0260 1222     		movs	r2, #18
ARM GAS  C:\Users\sergio\AppData\Local\Temp\ccqEDlrG.s 			page 24


 976 0262 1A81     		strh	r2, [r3, #8]
 259:main.c        ****      notiHandle.value.val = (uint8 *) &dataForBLE;     //(uint8 *) dataForBLE; // collectedData; //
 977              		.loc 1 259 0
 978 0264 2423     		movs	r3, #36
 979 0266 FB18     		adds	r3, r7, r3
 980 0268 3A00     		movs	r2, r7
 981 026a 1A60     		str	r2, [r3]
 260:main.c        ****      notiHandle.value.len = 34;
 982              		.loc 1 260 0
 983 026c 2423     		movs	r3, #36
 984 026e FB18     		adds	r3, r7, r3
 985 0270 2222     		movs	r2, #34
 986 0272 9A80     		strh	r2, [r3, #4]
 261:main.c        ****         
 262:main.c        ****         CyBle_GattsNotification(cyBle_connHandle, &notiHandle);
 987              		.loc 1 262 0
 988 0274 2423     		movs	r3, #36
 989 0276 F918     		adds	r1, r7, r3
 990 0278 094B     		ldr	r3, .L28+4
 991 027a 1A78     		ldrb	r2, [r3]
 992 027c 5B78     		ldrb	r3, [r3, #1]
 993 027e 1B02     		lsls	r3, r3, #8
 994 0280 1A43     		orrs	r2, r3
 995 0282 0023     		movs	r3, #0
 996 0284 1204     		lsls	r2, r2, #16
 997 0286 120C     		lsrs	r2, r2, #16
 998 0288 1B0C     		lsrs	r3, r3, #16
 999 028a 1B04     		lsls	r3, r3, #16
 1000 028c 1343     		orrs	r3, r2
 1001 028e 1800     		movs	r0, r3
 1002 0290 FFF7FEFF 		bl	CyBle_GattsNotification
 263:main.c        **** 
 264:main.c        **** }
 1003              		.loc 1 264 0
 1004 0294 C046     		nop
 1005 0296 BD46     		mov	sp, r7
 1006 0298 0CB0     		add	sp, sp, #48
 1007              		@ sp needed
 1008 029a 80BD     		pop	{r7, pc}
 1009              	.L29:
 1010              		.align	2
 1011              	.L28:
 1012 029c 00000000 		.word	sensorData
 1013 02a0 00000000 		.word	cyBle_connHandle
 1014              		.cfi_endproc
 1015              	.LFE40:
 1016              		.size	SendDataNotify, .-SendDataNotify
 1017              		.section	.text.updateNotificationCCCD,"ax",%progbits
 1018              		.align	2
 1019              		.global	updateNotificationCCCD
 1020              		.code	16
 1021              		.thumb_func
 1022              		.type	updateNotificationCCCD, %function
 1023              	updateNotificationCCCD:
 1024              	.LFB41:
 265:main.c        **** 
 266:main.c        **** void updateNotificationCCCD(void){
ARM GAS  C:\Users\sergio\AppData\Local\Temp\ccqEDlrG.s 			page 25


 1025              		.loc 1 266 0
 1026              		.cfi_startproc
 1027              		@ args = 0, pretend = 0, frame = 16
 1028              		@ frame_needed = 1, uses_anonymous_args = 0
 1029 0000 80B5     		push	{r7, lr}
 1030              		.cfi_def_cfa_offset 8
 1031              		.cfi_offset 7, -8
 1032              		.cfi_offset 14, -4
 1033 0002 84B0     		sub	sp, sp, #16
 1034              		.cfi_def_cfa_offset 24
 1035 0004 00AF     		add	r7, sp, #0
 1036              		.cfi_def_cfa_register 7
 267:main.c        ****     CYBLE_GATT_HANDLE_VALUE_PAIR_T sensorNotCCCDHandle;
 268:main.c        ****     
 269:main.c        ****     uint8 sensorCCCDVal[2];
 270:main.c        ****     
 271:main.c        ****     if(updateIsNotifyCCCDAttr == 1){
 1037              		.loc 1 271 0
 1038 0006 114B     		ldr	r3, .L33
 1039 0008 1B78     		ldrb	r3, [r3]
 1040 000a 012B     		cmp	r3, #1
 1041 000c 1AD1     		bne	.L32
 272:main.c        ****         
 273:main.c        ****      updateIsNotifyCCCDAttr = 0;
 1042              		.loc 1 273 0
 1043 000e 0F4B     		ldr	r3, .L33
 1044 0010 0022     		movs	r2, #0
 1045 0012 1A70     		strb	r2, [r3]
 274:main.c        ****         sensorCCCDVal[0] = isNotify;
 1046              		.loc 1 274 0
 1047 0014 0E4B     		ldr	r3, .L33+4
 1048 0016 1A78     		ldrb	r2, [r3]
 1049 0018 3B00     		movs	r3, r7
 1050 001a 1A70     		strb	r2, [r3]
 275:main.c        ****         sensorCCCDVal[1] = 0x00;
 1051              		.loc 1 275 0
 1052 001c 3B00     		movs	r3, r7
 1053 001e 0022     		movs	r2, #0
 1054 0020 5A70     		strb	r2, [r3, #1]
 276:main.c        ****         
 277:main.c        ****         sensorNotCCCDHandle.attrHandle = CYBLE_RVAC_SENSORS_SENSORCCCD_DESC_HANDLE;
 1055              		.loc 1 277 0
 1056 0022 3B1D     		adds	r3, r7, #4
 1057 0024 1422     		movs	r2, #20
 1058 0026 1A81     		strh	r2, [r3, #8]
 278:main.c        ****         sensorNotCCCDHandle.value.val = sensorCCCDVal;
 1059              		.loc 1 278 0
 1060 0028 3B1D     		adds	r3, r7, #4
 1061 002a 3A00     		movs	r2, r7
 1062 002c 1A60     		str	r2, [r3]
 279:main.c        ****         sensorNotCCCDHandle.value.len = 2;
 1063              		.loc 1 279 0
 1064 002e 3B1D     		adds	r3, r7, #4
 1065 0030 0222     		movs	r2, #2
 1066 0032 9A80     		strh	r2, [r3, #4]
 280:main.c        ****         
 281:main.c        ****         CyBle_GattsWriteAttributeValue(&sensorNotCCCDHandle, 0, &cyBle_connHandle, CYBLE_GATT_DB_PE
ARM GAS  C:\Users\sergio\AppData\Local\Temp\ccqEDlrG.s 			page 26


 1067              		.loc 1 281 0
 1068 0034 074A     		ldr	r2, .L33+8
 1069 0036 381D     		adds	r0, r7, #4
 1070 0038 4023     		movs	r3, #64
 1071 003a 0021     		movs	r1, #0
 1072 003c FFF7FEFF 		bl	CyBle_GattsWriteAttributeValue
 282:main.c        ****         CyBle_ProcessEvents();
 1073              		.loc 1 282 0
 1074 0040 FFF7FEFF 		bl	CyBle_ProcessEvents
 1075              	.L32:
 283:main.c        ****     }
 284:main.c        **** }
 1076              		.loc 1 284 0
 1077 0044 C046     		nop
 1078 0046 BD46     		mov	sp, r7
 1079 0048 04B0     		add	sp, sp, #16
 1080              		@ sp needed
 1081 004a 80BD     		pop	{r7, pc}
 1082              	.L34:
 1083              		.align	2
 1084              	.L33:
 1085 004c 00000000 		.word	updateIsNotifyCCCDAttr
 1086 0050 00000000 		.word	isNotify
 1087 0054 00000000 		.word	cyBle_connHandle
 1088              		.cfi_endproc
 1089              	.LFE41:
 1090              		.size	updateNotificationCCCD, .-updateNotificationCCCD
 1091              		.section	.text.initialized_input_gpioExp,"ax",%progbits
 1092              		.align	2
 1093              		.global	initialized_input_gpioExp
 1094              		.code	16
 1095              		.thumb_func
 1096              		.type	initialized_input_gpioExp, %function
 1097              	initialized_input_gpioExp:
 1098              	.LFB42:
 285:main.c        **** 
 286:main.c        **** 
 287:main.c        **** void initialized_input_gpioExp(){
 1099              		.loc 1 287 0
 1100              		.cfi_startproc
 1101              		@ args = 0, pretend = 0, frame = 0
 1102              		@ frame_needed = 1, uses_anonymous_args = 0
 1103 0000 80B5     		push	{r7, lr}
 1104              		.cfi_def_cfa_offset 8
 1105              		.cfi_offset 7, -8
 1106              		.cfi_offset 14, -4
 1107 0002 00AF     		add	r7, sp, #0
 1108              		.cfi_def_cfa_register 7
 288:main.c        ****    I2C_1_I2CMasterSendStart(ADDR,I2C_1_I2C_WRITE_XFER_MODE, 100u);
 1109              		.loc 1 288 0
 1110 0004 6422     		movs	r2, #100
 1111 0006 0021     		movs	r1, #0
 1112 0008 7020     		movs	r0, #112
 1113 000a FFF7FEFF 		bl	I2C_1_I2CMasterSendStart
 289:main.c        ****    I2C_1_I2CMasterWriteByte(REG_CONFIG, 100u);
 1114              		.loc 1 289 0
 1115 000e 6421     		movs	r1, #100
ARM GAS  C:\Users\sergio\AppData\Local\Temp\ccqEDlrG.s 			page 27


 1116 0010 0320     		movs	r0, #3
 1117 0012 FFF7FEFF 		bl	I2C_1_I2CMasterWriteByte
 290:main.c        ****    I2C_1_I2CMasterWriteByte(0xFF, 100u);
 1118              		.loc 1 290 0
 1119 0016 6421     		movs	r1, #100
 1120 0018 FF20     		movs	r0, #255
 1121 001a FFF7FEFF 		bl	I2C_1_I2CMasterWriteByte
 291:main.c        ****    I2C_1_I2CMasterSendStop(100u);
 1122              		.loc 1 291 0
 1123 001e 6420     		movs	r0, #100
 1124 0020 FFF7FEFF 		bl	I2C_1_I2CMasterSendStop
 292:main.c        ****     I2C_1_Sleep();
 1125              		.loc 1 292 0
 1126 0024 FFF7FEFF 		bl	I2C_1_Sleep
 293:main.c        ****     I2C_1_Wakeup();
 1127              		.loc 1 293 0
 1128 0028 FFF7FEFF 		bl	I2C_1_Wakeup
 294:main.c        **** 
 295:main.c        **** }
 1129              		.loc 1 295 0
 1130 002c C046     		nop
 1131 002e BD46     		mov	sp, r7
 1132              		@ sp needed
 1133 0030 80BD     		pop	{r7, pc}
 1134              		.cfi_endproc
 1135              	.LFE42:
 1136              		.size	initialized_input_gpioExp, .-initialized_input_gpioExp
 1137 0032 C046     		.section	.text.read_thermostat_pins,"ax",%progbits
 1138              		.align	2
 1139              		.global	read_thermostat_pins
 1140              		.code	16
 1141              		.thumb_func
 1142              		.type	read_thermostat_pins, %function
 1143              	read_thermostat_pins:
 1144              	.LFB43:
 296:main.c        **** 
 297:main.c        **** uint8 read_thermostat_pins(){
 1145              		.loc 1 297 0
 1146              		.cfi_startproc
 1147              		@ args = 0, pretend = 0, frame = 8
 1148              		@ frame_needed = 1, uses_anonymous_args = 0
 1149 0000 80B5     		push	{r7, lr}
 1150              		.cfi_def_cfa_offset 8
 1151              		.cfi_offset 7, -8
 1152              		.cfi_offset 14, -4
 1153 0002 82B0     		sub	sp, sp, #8
 1154              		.cfi_def_cfa_offset 16
 1155 0004 00AF     		add	r7, sp, #0
 1156              		.cfi_def_cfa_register 7
 298:main.c        ****    
 299:main.c        ****     uint8 pins = 0u;
 1157              		.loc 1 299 0
 1158 0006 FB1D     		adds	r3, r7, #7
 1159 0008 0022     		movs	r2, #0
 1160 000a 1A70     		strb	r2, [r3]
 300:main.c        **** 
 301:main.c        ****    I2C_1_I2CMasterSendStart(ADDR, I2C_1_I2C_WRITE_XFER_MODE, 100u);
ARM GAS  C:\Users\sergio\AppData\Local\Temp\ccqEDlrG.s 			page 28


 1161              		.loc 1 301 0
 1162 000c 6422     		movs	r2, #100
 1163 000e 0021     		movs	r1, #0
 1164 0010 7020     		movs	r0, #112
 1165 0012 FFF7FEFF 		bl	I2C_1_I2CMasterSendStart
 302:main.c        ****    I2C_1_I2CMasterWriteByte(REG_READ, 100u);
 1166              		.loc 1 302 0
 1167 0016 6421     		movs	r1, #100
 1168 0018 0020     		movs	r0, #0
 1169 001a FFF7FEFF 		bl	I2C_1_I2CMasterWriteByte
 303:main.c        ****    I2C_1_I2CMasterSendRestart(ADDR,I2C_1_I2C_READ_XFER_MODE, 100u);
 1170              		.loc 1 303 0
 1171 001e 6422     		movs	r2, #100
 1172 0020 0121     		movs	r1, #1
 1173 0022 7020     		movs	r0, #112
 1174 0024 FFF7FEFF 		bl	I2C_1_I2CMasterSendRestart
 304:main.c        ****    I2C_1_I2CMasterReadByte(I2C_1_I2C_NAK_DATA,(uint8 *) &pins,100u);
 1175              		.loc 1 304 0
 1176 0028 FB1D     		adds	r3, r7, #7
 1177 002a 6422     		movs	r2, #100
 1178 002c 1900     		movs	r1, r3
 1179 002e 0120     		movs	r0, #1
 1180 0030 FFF7FEFF 		bl	I2C_1_I2CMasterReadByte
 305:main.c        ****    I2C_1_I2CMasterSendStop(100u);
 1181              		.loc 1 305 0
 1182 0034 6420     		movs	r0, #100
 1183 0036 FFF7FEFF 		bl	I2C_1_I2CMasterSendStop
 306:main.c        ****     
 307:main.c        ****     return pins;
 1184              		.loc 1 307 0
 1185 003a FB1D     		adds	r3, r7, #7
 1186 003c 1B78     		ldrb	r3, [r3]
 308:main.c        **** }
 1187              		.loc 1 308 0
 1188 003e 1800     		movs	r0, r3
 1189 0040 BD46     		mov	sp, r7
 1190 0042 02B0     		add	sp, sp, #8
 1191              		@ sp needed
 1192 0044 80BD     		pop	{r7, pc}
 1193              		.cfi_endproc
 1194              	.LFE43:
 1195              		.size	read_thermostat_pins, .-read_thermostat_pins
 1196 0046 C046     		.section	.text.configure_temperature_sensor2,"ax",%progbits
 1197              		.align	2
 1198              		.global	configure_temperature_sensor2
 1199              		.code	16
 1200              		.thumb_func
 1201              		.type	configure_temperature_sensor2, %function
 1202              	configure_temperature_sensor2:
 1203              	.LFB44:
 309:main.c        **** 
 310:main.c        **** void configure_temperature_sensor2(){
 1204              		.loc 1 310 0
 1205              		.cfi_startproc
 1206              		@ args = 0, pretend = 0, frame = 0
 1207              		@ frame_needed = 1, uses_anonymous_args = 0
 1208 0000 80B5     		push	{r7, lr}
ARM GAS  C:\Users\sergio\AppData\Local\Temp\ccqEDlrG.s 			page 29


 1209              		.cfi_def_cfa_offset 8
 1210              		.cfi_offset 7, -8
 1211              		.cfi_offset 14, -4
 1212 0002 00AF     		add	r7, sp, #0
 1213              		.cfi_def_cfa_register 7
 311:main.c        ****         // Config register 1
 312:main.c        ****    I2C_1_I2CMasterSendStart(0x4C, I2C_1_I2C_WRITE_XFER_MODE, 100u);
 1214              		.loc 1 312 0
 1215 0004 6422     		movs	r2, #100
 1216 0006 0021     		movs	r1, #0
 1217 0008 4C20     		movs	r0, #76
 1218 000a FFF7FEFF 		bl	I2C_1_I2CMasterSendStart
 313:main.c        ****    I2C_1_I2CMasterWriteByte(0x09, 100u);
 1219              		.loc 1 313 0
 1220 000e 6421     		movs	r1, #100
 1221 0010 0920     		movs	r0, #9
 1222 0012 FFF7FEFF 		bl	I2C_1_I2CMasterWriteByte
 314:main.c        ****    I2C_1_I2CMasterWriteByte(0x84, 100u);
 1223              		.loc 1 314 0
 1224 0016 6421     		movs	r1, #100
 1225 0018 8420     		movs	r0, #132
 1226 001a FFF7FEFF 		bl	I2C_1_I2CMasterWriteByte
 315:main.c        ****    I2C_1_I2CMasterSendStop(100u);
 1227              		.loc 1 315 0
 1228 001e 6420     		movs	r0, #100
 1229 0020 FFF7FEFF 		bl	I2C_1_I2CMasterSendStop
 316:main.c        ****    //Config register 2
 317:main.c        ****    I2C_1_I2CMasterSendStart(0x4C, I2C_1_I2C_WRITE_XFER_MODE, 100u);
 1230              		.loc 1 317 0
 1231 0024 6422     		movs	r2, #100
 1232 0026 0021     		movs	r1, #0
 1233 0028 4C20     		movs	r0, #76
 1234 002a FFF7FEFF 		bl	I2C_1_I2CMasterSendStart
 318:main.c        ****    I2C_1_I2CMasterWriteByte(0x3F, 100u);
 1235              		.loc 1 318 0
 1236 002e 6421     		movs	r1, #100
 1237 0030 3F20     		movs	r0, #63
 1238 0032 FFF7FEFF 		bl	I2C_1_I2CMasterWriteByte
 319:main.c        ****    I2C_1_I2CMasterWriteByte(0x3C, 100u);
 1239              		.loc 1 319 0
 1240 0036 6421     		movs	r1, #100
 1241 0038 3C20     		movs	r0, #60
 1242 003a FFF7FEFF 		bl	I2C_1_I2CMasterWriteByte
 320:main.c        ****    I2C_1_I2CMasterSendStop(100u);   
 1243              		.loc 1 320 0
 1244 003e 6420     		movs	r0, #100
 1245 0040 FFF7FEFF 		bl	I2C_1_I2CMasterSendStop
 321:main.c        **** }
 1246              		.loc 1 321 0
 1247 0044 C046     		nop
 1248 0046 BD46     		mov	sp, r7
 1249              		@ sp needed
 1250 0048 80BD     		pop	{r7, pc}
 1251              		.cfi_endproc
 1252              	.LFE44:
 1253              		.size	configure_temperature_sensor2, .-configure_temperature_sensor2
 1254 004a C046     		.section	.text.configure_temperature_sensor1,"ax",%progbits
ARM GAS  C:\Users\sergio\AppData\Local\Temp\ccqEDlrG.s 			page 30


 1255              		.align	2
 1256              		.global	configure_temperature_sensor1
 1257              		.code	16
 1258              		.thumb_func
 1259              		.type	configure_temperature_sensor1, %function
 1260              	configure_temperature_sensor1:
 1261              	.LFB45:
 322:main.c        **** 
 323:main.c        **** void configure_temperature_sensor1(){
 1262              		.loc 1 323 0
 1263              		.cfi_startproc
 1264              		@ args = 0, pretend = 0, frame = 0
 1265              		@ frame_needed = 1, uses_anonymous_args = 0
 1266 0000 80B5     		push	{r7, lr}
 1267              		.cfi_def_cfa_offset 8
 1268              		.cfi_offset 7, -8
 1269              		.cfi_offset 14, -4
 1270 0002 00AF     		add	r7, sp, #0
 1271              		.cfi_def_cfa_register 7
 324:main.c        ****         // Config register 1
 325:main.c        ****    I2C_1_I2CMasterSendStart(0x4D, I2C_1_I2C_WRITE_XFER_MODE, 100u);
 1272              		.loc 1 325 0
 1273 0004 6422     		movs	r2, #100
 1274 0006 0021     		movs	r1, #0
 1275 0008 4D20     		movs	r0, #77
 1276 000a FFF7FEFF 		bl	I2C_1_I2CMasterSendStart
 326:main.c        ****    I2C_1_I2CMasterWriteByte(0x09, 100u);
 1277              		.loc 1 326 0
 1278 000e 6421     		movs	r1, #100
 1279 0010 0920     		movs	r0, #9
 1280 0012 FFF7FEFF 		bl	I2C_1_I2CMasterWriteByte
 327:main.c        ****    I2C_1_I2CMasterWriteByte(0x84, 100u);
 1281              		.loc 1 327 0
 1282 0016 6421     		movs	r1, #100
 1283 0018 8420     		movs	r0, #132
 1284 001a FFF7FEFF 		bl	I2C_1_I2CMasterWriteByte
 328:main.c        ****    I2C_1_I2CMasterSendStop(100u);
 1285              		.loc 1 328 0
 1286 001e 6420     		movs	r0, #100
 1287 0020 FFF7FEFF 		bl	I2C_1_I2CMasterSendStop
 329:main.c        ****    //Config register 2
 330:main.c        ****    I2C_1_I2CMasterSendStart(0x4D, I2C_1_I2C_WRITE_XFER_MODE, 100u);
 1288              		.loc 1 330 0
 1289 0024 6422     		movs	r2, #100
 1290 0026 0021     		movs	r1, #0
 1291 0028 4D20     		movs	r0, #77
 1292 002a FFF7FEFF 		bl	I2C_1_I2CMasterSendStart
 331:main.c        ****    I2C_1_I2CMasterWriteByte(0x3F, 100u);
 1293              		.loc 1 331 0
 1294 002e 6421     		movs	r1, #100
 1295 0030 3F20     		movs	r0, #63
 1296 0032 FFF7FEFF 		bl	I2C_1_I2CMasterWriteByte
 332:main.c        ****    I2C_1_I2CMasterWriteByte(0x3C, 100u);
 1297              		.loc 1 332 0
 1298 0036 6421     		movs	r1, #100
 1299 0038 3C20     		movs	r0, #60
 1300 003a FFF7FEFF 		bl	I2C_1_I2CMasterWriteByte
ARM GAS  C:\Users\sergio\AppData\Local\Temp\ccqEDlrG.s 			page 31


 333:main.c        ****    I2C_1_I2CMasterSendStop(100u);   
 1301              		.loc 1 333 0
 1302 003e 6420     		movs	r0, #100
 1303 0040 FFF7FEFF 		bl	I2C_1_I2CMasterSendStop
 334:main.c        **** }
 1304              		.loc 1 334 0
 1305 0044 C046     		nop
 1306 0046 BD46     		mov	sp, r7
 1307              		@ sp needed
 1308 0048 80BD     		pop	{r7, pc}
 1309              		.cfi_endproc
 1310              	.LFE45:
 1311              		.size	configure_temperature_sensor1, .-configure_temperature_sensor1
 1312 004a C046     		.section	.text.auto_calibrate_gain,"ax",%progbits
 1313              		.align	2
 1314              		.global	auto_calibrate_gain
 1315              		.code	16
 1316              		.thumb_func
 1317              		.type	auto_calibrate_gain, %function
 1318              	auto_calibrate_gain:
 1319              	.LFB46:
 335:main.c        **** 
 336:main.c        **** // fnc to calibrate the power chips
 337:main.c        **** void auto_calibrate_gain(uint32 address){
 1320              		.loc 1 337 0
 1321              		.cfi_startproc
 1322              		@ args = 0, pretend = 0, frame = 8
 1323              		@ frame_needed = 1, uses_anonymous_args = 0
 1324 0000 80B5     		push	{r7, lr}
 1325              		.cfi_def_cfa_offset 8
 1326              		.cfi_offset 7, -8
 1327              		.cfi_offset 14, -4
 1328 0002 82B0     		sub	sp, sp, #8
 1329              		.cfi_def_cfa_offset 16
 1330 0004 00AF     		add	r7, sp, #0
 1331              		.cfi_def_cfa_register 7
 1332 0006 7860     		str	r0, [r7, #4]
 338:main.c        ****     //current target
 339:main.c        ****     I2C_1_I2CMasterSendStart(address, I2C_1_I2C_WRITE_XFER_MODE, 2);
 1333              		.loc 1 339 0
 1334 0008 7B68     		ldr	r3, [r7, #4]
 1335 000a 0222     		movs	r2, #2
 1336 000c 0021     		movs	r1, #0
 1337 000e 1800     		movs	r0, r3
 1338 0010 FFF7FEFF 		bl	I2C_1_I2CMasterSendStart
 340:main.c        ****     I2C_1_I2CMasterWriteByte(0xA5, 10);
 1339              		.loc 1 340 0
 1340 0014 0A21     		movs	r1, #10
 1341 0016 A520     		movs	r0, #165
 1342 0018 FFF7FEFF 		bl	I2C_1_I2CMasterWriteByte
 341:main.c        ****     I2C_1_I2CMasterWriteByte(0x09, 10);
 1343              		.loc 1 341 0
 1344 001c 0A21     		movs	r1, #10
 1345 001e 0920     		movs	r0, #9
 1346 0020 FFF7FEFF 		bl	I2C_1_I2CMasterWriteByte
 342:main.c        ****     I2C_1_I2CMasterWriteByte(0x41, 10);
 1347              		.loc 1 342 0
ARM GAS  C:\Users\sergio\AppData\Local\Temp\ccqEDlrG.s 			page 32


 1348 0024 0A21     		movs	r1, #10
 1349 0026 4120     		movs	r0, #65
 1350 0028 FFF7FEFF 		bl	I2C_1_I2CMasterWriteByte
 343:main.c        ****     I2C_1_I2CMasterWriteByte(0x00, 10);
 1351              		.loc 1 343 0
 1352 002c 0A21     		movs	r1, #10
 1353 002e 0020     		movs	r0, #0
 1354 0030 FFF7FEFF 		bl	I2C_1_I2CMasterWriteByte
 344:main.c        ****     I2C_1_I2CMasterWriteByte(0x86, 10);
 1355              		.loc 1 344 0
 1356 0034 0A21     		movs	r1, #10
 1357 0036 8620     		movs	r0, #134
 1358 0038 FFF7FEFF 		bl	I2C_1_I2CMasterWriteByte
 345:main.c        ****     I2C_1_I2CMasterWriteByte(0x4D, 10);
 1359              		.loc 1 345 0
 1360 003c 0A21     		movs	r1, #10
 1361 003e 4D20     		movs	r0, #77
 1362 0040 FFF7FEFF 		bl	I2C_1_I2CMasterWriteByte
 346:main.c        ****     I2C_1_I2CMasterWriteByte(0x01, 10);
 1363              		.loc 1 346 0
 1364 0044 0A21     		movs	r1, #10
 1365 0046 0120     		movs	r0, #1
 1366 0048 FFF7FEFF 		bl	I2C_1_I2CMasterWriteByte
 347:main.c        ****     I2C_1_I2CMasterWriteByte(0x4B, 10);
 1367              		.loc 1 347 0
 1368 004c 0A21     		movs	r1, #10
 1369 004e 4B20     		movs	r0, #75
 1370 0050 FFF7FEFF 		bl	I2C_1_I2CMasterWriteByte
 348:main.c        ****     I2C_1_I2CMasterWriteByte(0x0E, 10);
 1371              		.loc 1 348 0
 1372 0054 0A21     		movs	r1, #10
 1373 0056 0E20     		movs	r0, #14
 1374 0058 FFF7FEFF 		bl	I2C_1_I2CMasterWriteByte
 349:main.c        ****     I2C_1_I2CMasterSendStop(10);
 1375              		.loc 1 349 0
 1376 005c 0A20     		movs	r0, #10
 1377 005e FFF7FEFF 		bl	I2C_1_I2CMasterSendStop
 350:main.c        ****     I2C_1_Sleep();
 1378              		.loc 1 350 0
 1379 0062 FFF7FEFF 		bl	I2C_1_Sleep
 351:main.c        ****     I2C_1_Wakeup();
 1380              		.loc 1 351 0
 1381 0066 FFF7FEFF 		bl	I2C_1_Wakeup
 352:main.c        ****     
 353:main.c        ****     // target voltage
 354:main.c        ****     I2C_1_I2CMasterSendStart(address, I2C_1_I2C_WRITE_XFER_MODE, 2);
 1382              		.loc 1 354 0
 1383 006a 7B68     		ldr	r3, [r7, #4]
 1384 006c 0222     		movs	r2, #2
 1385 006e 0021     		movs	r1, #0
 1386 0070 1800     		movs	r0, r3
 1387 0072 FFF7FEFF 		bl	I2C_1_I2CMasterSendStart
 355:main.c        ****     I2C_1_I2CMasterWriteByte(0xA5, 10);
 1388              		.loc 1 355 0
 1389 0076 0A21     		movs	r1, #10
 1390 0078 A520     		movs	r0, #165
 1391 007a FFF7FEFF 		bl	I2C_1_I2CMasterWriteByte
ARM GAS  C:\Users\sergio\AppData\Local\Temp\ccqEDlrG.s 			page 33


 356:main.c        ****     I2C_1_I2CMasterWriteByte(0x09, 10);
 1392              		.loc 1 356 0
 1393 007e 0A21     		movs	r1, #10
 1394 0080 0920     		movs	r0, #9
 1395 0082 FFF7FEFF 		bl	I2C_1_I2CMasterWriteByte
 357:main.c        ****     I2C_1_I2CMasterWriteByte(0x41, 10);
 1396              		.loc 1 357 0
 1397 0086 0A21     		movs	r1, #10
 1398 0088 4120     		movs	r0, #65
 1399 008a FFF7FEFF 		bl	I2C_1_I2CMasterWriteByte
 358:main.c        ****     I2C_1_I2CMasterWriteByte(0x00, 10);
 1400              		.loc 1 358 0
 1401 008e 0A21     		movs	r1, #10
 1402 0090 0020     		movs	r0, #0
 1403 0092 FFF7FEFF 		bl	I2C_1_I2CMasterWriteByte
 359:main.c        ****     I2C_1_I2CMasterWriteByte(0x8A, 10);
 1404              		.loc 1 359 0
 1405 0096 0A21     		movs	r1, #10
 1406 0098 8A20     		movs	r0, #138
 1407 009a FFF7FEFF 		bl	I2C_1_I2CMasterWriteByte
 360:main.c        ****     I2C_1_I2CMasterWriteByte(0x4D, 10);
 1408              		.loc 1 360 0
 1409 009e 0A21     		movs	r1, #10
 1410 00a0 4D20     		movs	r0, #77
 1411 00a2 FFF7FEFF 		bl	I2C_1_I2CMasterWriteByte
 361:main.c        ****     I2C_1_I2CMasterWriteByte(0x01, 10);
 1412              		.loc 1 361 0
 1413 00a6 0A21     		movs	r1, #10
 1414 00a8 0120     		movs	r0, #1
 1415 00aa FFF7FEFF 		bl	I2C_1_I2CMasterWriteByte
 362:main.c        ****     I2C_1_I2CMasterWriteByte(0x23, 10);
 1416              		.loc 1 362 0
 1417 00ae 0A21     		movs	r1, #10
 1418 00b0 2320     		movs	r0, #35
 1419 00b2 FFF7FEFF 		bl	I2C_1_I2CMasterWriteByte
 363:main.c        ****     I2C_1_I2CMasterWriteByte(0xEA, 10);
 1420              		.loc 1 363 0
 1421 00b6 0A21     		movs	r1, #10
 1422 00b8 EA20     		movs	r0, #234
 1423 00ba FFF7FEFF 		bl	I2C_1_I2CMasterWriteByte
 364:main.c        ****     I2C_1_I2CMasterSendStop(10);
 1424              		.loc 1 364 0
 1425 00be 0A20     		movs	r0, #10
 1426 00c0 FFF7FEFF 		bl	I2C_1_I2CMasterSendStop
 365:main.c        ****     I2C_1_Sleep();
 1427              		.loc 1 365 0
 1428 00c4 FFF7FEFF 		bl	I2C_1_Sleep
 366:main.c        ****     I2C_1_Wakeup();
 1429              		.loc 1 366 0
 1430 00c8 FFF7FEFF 		bl	I2C_1_Wakeup
 367:main.c        ****     
 368:main.c        ****     // target line freq
 369:main.c        ****     I2C_1_I2CMasterSendStart(address, I2C_1_I2C_WRITE_XFER_MODE, 2);
 1431              		.loc 1 369 0
 1432 00cc 7B68     		ldr	r3, [r7, #4]
 1433 00ce 0222     		movs	r2, #2
 1434 00d0 0021     		movs	r1, #0
ARM GAS  C:\Users\sergio\AppData\Local\Temp\ccqEDlrG.s 			page 34


 1435 00d2 1800     		movs	r0, r3
 1436 00d4 FFF7FEFF 		bl	I2C_1_I2CMasterSendStart
 370:main.c        ****     I2C_1_I2CMasterWriteByte(0xA5, 10);
 1437              		.loc 1 370 0
 1438 00d8 0A21     		movs	r1, #10
 1439 00da A520     		movs	r0, #165
 1440 00dc FFF7FEFF 		bl	I2C_1_I2CMasterWriteByte
 371:main.c        ****     I2C_1_I2CMasterWriteByte(0x0A, 10);
 1441              		.loc 1 371 0
 1442 00e0 0A21     		movs	r1, #10
 1443 00e2 0A20     		movs	r0, #10
 1444 00e4 FFF7FEFF 		bl	I2C_1_I2CMasterWriteByte
 372:main.c        ****     I2C_1_I2CMasterWriteByte(0x41, 10);
 1445              		.loc 1 372 0
 1446 00e8 0A21     		movs	r1, #10
 1447 00ea 4120     		movs	r0, #65
 1448 00ec FFF7FEFF 		bl	I2C_1_I2CMasterWriteByte
 373:main.c        ****     I2C_1_I2CMasterWriteByte(0x00, 10);
 1449              		.loc 1 373 0
 1450 00f0 0A21     		movs	r1, #10
 1451 00f2 0020     		movs	r0, #0
 1452 00f4 FFF7FEFF 		bl	I2C_1_I2CMasterWriteByte
 374:main.c        ****     I2C_1_I2CMasterWriteByte(0x94, 10);
 1453              		.loc 1 374 0
 1454 00f8 0A21     		movs	r1, #10
 1455 00fa 9420     		movs	r0, #148
 1456 00fc FFF7FEFF 		bl	I2C_1_I2CMasterWriteByte
 375:main.c        ****     I2C_1_I2CMasterWriteByte(0x4D, 10);
 1457              		.loc 1 375 0
 1458 0100 0A21     		movs	r1, #10
 1459 0102 4D20     		movs	r0, #77
 1460 0104 FFF7FEFF 		bl	I2C_1_I2CMasterWriteByte
 376:main.c        ****     I2C_1_I2CMasterWriteByte(0x02, 10);
 1461              		.loc 1 376 0
 1462 0108 0A21     		movs	r1, #10
 1463 010a 0220     		movs	r0, #2
 1464 010c FFF7FEFF 		bl	I2C_1_I2CMasterWriteByte
 377:main.c        ****     I2C_1_I2CMasterWriteByte(0xEA, 10);
 1465              		.loc 1 377 0
 1466 0110 0A21     		movs	r1, #10
 1467 0112 EA20     		movs	r0, #234
 1468 0114 FFF7FEFF 		bl	I2C_1_I2CMasterWriteByte
 378:main.c        ****     I2C_1_I2CMasterWriteByte(0x60, 10);
 1469              		.loc 1 378 0
 1470 0118 0A21     		movs	r1, #10
 1471 011a 6020     		movs	r0, #96
 1472 011c FFF7FEFF 		bl	I2C_1_I2CMasterWriteByte
 379:main.c        ****     I2C_1_I2CMasterWriteByte(0x1D, 10);
 1473              		.loc 1 379 0
 1474 0120 0A21     		movs	r1, #10
 1475 0122 1D20     		movs	r0, #29
 1476 0124 FFF7FEFF 		bl	I2C_1_I2CMasterWriteByte
 380:main.c        ****     I2C_1_I2CMasterSendStop(10);
 1477              		.loc 1 380 0
 1478 0128 0A20     		movs	r0, #10
 1479 012a FFF7FEFF 		bl	I2C_1_I2CMasterSendStop
 381:main.c        ****     I2C_1_Sleep();
ARM GAS  C:\Users\sergio\AppData\Local\Temp\ccqEDlrG.s 			page 35


 1480              		.loc 1 381 0
 1481 012e FFF7FEFF 		bl	I2C_1_Sleep
 382:main.c        ****     I2C_1_Wakeup();
 1482              		.loc 1 382 0
 1483 0132 FFF7FEFF 		bl	I2C_1_Wakeup
 383:main.c        ****     
 384:main.c        ****     I2C_1_I2CMasterSendStart(address, I2C_1_I2C_WRITE_XFER_MODE, 2);
 1484              		.loc 1 384 0
 1485 0136 7B68     		ldr	r3, [r7, #4]
 1486 0138 0222     		movs	r2, #2
 1487 013a 0021     		movs	r1, #0
 1488 013c 1800     		movs	r0, r3
 1489 013e FFF7FEFF 		bl	I2C_1_I2CMasterSendStart
 385:main.c        ****     I2C_1_I2CMasterWriteByte(0xA5, 10);
 1490              		.loc 1 385 0
 1491 0142 0A21     		movs	r1, #10
 1492 0144 A520     		movs	r0, #165
 1493 0146 FFF7FEFF 		bl	I2C_1_I2CMasterWriteByte
 386:main.c        ****     I2C_1_I2CMasterWriteByte(0xA4, 10);
 1494              		.loc 1 386 0
 1495 014a 0A21     		movs	r1, #10
 1496 014c A420     		movs	r0, #164
 1497 014e FFF7FEFF 		bl	I2C_1_I2CMasterWriteByte
 387:main.c        ****     I2C_1_I2CMasterWriteByte(0x5A, 10);
 1498              		.loc 1 387 0
 1499 0152 0A21     		movs	r1, #10
 1500 0154 5A20     		movs	r0, #90
 1501 0156 FFF7FEFF 		bl	I2C_1_I2CMasterWriteByte
 388:main.c        ****     I2C_1_I2CMasterWriteByte(0x03, 10);
 1502              		.loc 1 388 0
 1503 015a 0A21     		movs	r1, #10
 1504 015c 0320     		movs	r0, #3
 1505 015e FFF7FEFF 		bl	I2C_1_I2CMasterWriteByte
 389:main.c        ****     I2C_1_I2CMasterSendStop(10);
 1506              		.loc 1 389 0
 1507 0162 0A20     		movs	r0, #10
 1508 0164 FFF7FEFF 		bl	I2C_1_I2CMasterSendStop
 390:main.c        ****     I2C_1_Sleep();
 1509              		.loc 1 390 0
 1510 0168 FFF7FEFF 		bl	I2C_1_Sleep
 391:main.c        ****     I2C_1_Wakeup();
 1511              		.loc 1 391 0
 1512 016c FFF7FEFF 		bl	I2C_1_Wakeup
 392:main.c        ****     
 393:main.c        **** }
 1513              		.loc 1 393 0
 1514 0170 C046     		nop
 1515 0172 BD46     		mov	sp, r7
 1516 0174 02B0     		add	sp, sp, #8
 1517              		@ sp needed
 1518 0176 80BD     		pop	{r7, pc}
 1519              		.cfi_endproc
 1520              	.LFE46:
 1521              		.size	auto_calibrate_gain, .-auto_calibrate_gain
 1522              		.section	.text.read_power_chips,"ax",%progbits
 1523              		.align	2
 1524              		.global	read_power_chips
ARM GAS  C:\Users\sergio\AppData\Local\Temp\ccqEDlrG.s 			page 36


 1525              		.code	16
 1526              		.thumb_func
 1527              		.type	read_power_chips, %function
 1528              	read_power_chips:
 1529              	.LFB47:
 394:main.c        **** 
 395:main.c        **** void read_power_chips(uint32 address){
 1530              		.loc 1 395 0
 1531              		.cfi_startproc
 1532              		@ args = 0, pretend = 0, frame = 48
 1533              		@ frame_needed = 1, uses_anonymous_args = 0
 1534 0000 80B5     		push	{r7, lr}
 1535              		.cfi_def_cfa_offset 8
 1536              		.cfi_offset 7, -8
 1537              		.cfi_offset 14, -4
 1538 0002 8CB0     		sub	sp, sp, #48
 1539              		.cfi_def_cfa_offset 56
 1540 0004 00AF     		add	r7, sp, #0
 1541              		.cfi_def_cfa_register 7
 1542 0006 7860     		str	r0, [r7, #4]
 396:main.c        ****     
 397:main.c        ****     uint8 rBuff[35];
 398:main.c        ****     
 399:main.c        ****         I2C_1_I2CMasterSendStart(address,I2C_1_I2C_WRITE_XFER_MODE, 100u);
 1543              		.loc 1 399 0
 1544 0008 7B68     		ldr	r3, [r7, #4]
 1545 000a 6422     		movs	r2, #100
 1546 000c 0021     		movs	r1, #0
 1547 000e 1800     		movs	r0, r3
 1548 0010 FFF7FEFF 		bl	I2C_1_I2CMasterSendStart
 400:main.c        ****         I2C_1_I2CMasterWriteByte(0xA5, 10u);
 1549              		.loc 1 400 0
 1550 0014 0A21     		movs	r1, #10
 1551 0016 A520     		movs	r0, #165
 1552 0018 FFF7FEFF 		bl	I2C_1_I2CMasterWriteByte
 401:main.c        ****         I2C_1_I2CMasterWriteByte(0x08, 10u);
 1553              		.loc 1 401 0
 1554 001c 0A21     		movs	r1, #10
 1555 001e 0820     		movs	r0, #8
 1556 0020 FFF7FEFF 		bl	I2C_1_I2CMasterWriteByte
 402:main.c        ****         I2C_1_I2CMasterWriteByte(0x41, 10u);
 1557              		.loc 1 402 0
 1558 0024 0A21     		movs	r1, #10
 1559 0026 4120     		movs	r0, #65
 1560 0028 FFF7FEFF 		bl	I2C_1_I2CMasterWriteByte
 403:main.c        ****         I2C_1_I2CMasterWriteByte(0x00, 10u);
 1561              		.loc 1 403 0
 1562 002c 0A21     		movs	r1, #10
 1563 002e 0020     		movs	r0, #0
 1564 0030 FFF7FEFF 		bl	I2C_1_I2CMasterWriteByte
 404:main.c        ****         I2C_1_I2CMasterWriteByte(0x02, 10u);
 1565              		.loc 1 404 0
 1566 0034 0A21     		movs	r1, #10
 1567 0036 0220     		movs	r0, #2
 1568 0038 FFF7FEFF 		bl	I2C_1_I2CMasterWriteByte
 405:main.c        ****         I2C_1_I2CMasterWriteByte(0x4E, 10u);
 1569              		.loc 1 405 0
ARM GAS  C:\Users\sergio\AppData\Local\Temp\ccqEDlrG.s 			page 37


 1570 003c 0A21     		movs	r1, #10
 1571 003e 4E20     		movs	r0, #78
 1572 0040 FFF7FEFF 		bl	I2C_1_I2CMasterWriteByte
 406:main.c        ****         I2C_1_I2CMasterWriteByte(0x20, 10u);
 1573              		.loc 1 406 0
 1574 0044 0A21     		movs	r1, #10
 1575 0046 2020     		movs	r0, #32
 1576 0048 FFF7FEFF 		bl	I2C_1_I2CMasterWriteByte
 407:main.c        ****         I2C_1_I2CMasterWriteByte(0x5E, 10u);
 1577              		.loc 1 407 0
 1578 004c 0A21     		movs	r1, #10
 1579 004e 5E20     		movs	r0, #94
 1580 0050 FFF7FEFF 		bl	I2C_1_I2CMasterWriteByte
 408:main.c        ****         I2C_1_I2CMasterSendStop(0u);
 1581              		.loc 1 408 0
 1582 0054 0020     		movs	r0, #0
 1583 0056 FFF7FEFF 		bl	I2C_1_I2CMasterSendStop
 409:main.c        ****         
 410:main.c        ****         I2C_1_Sleep();
 1584              		.loc 1 410 0
 1585 005a FFF7FEFF 		bl	I2C_1_Sleep
 411:main.c        ****         I2C_1_Wakeup();
 1586              		.loc 1 411 0
 1587 005e FFF7FEFF 		bl	I2C_1_Wakeup
 412:main.c        ****   
 413:main.c        ****         I2C_1_I2CMasterSendStart(address, I2C_1_I2C_READ_XFER_MODE, 10u);
 1588              		.loc 1 413 0
 1589 0062 7B68     		ldr	r3, [r7, #4]
 1590 0064 0A22     		movs	r2, #10
 1591 0066 0121     		movs	r1, #1
 1592 0068 1800     		movs	r0, r3
 1593 006a FFF7FEFF 		bl	I2C_1_I2CMasterSendStart
 1594              	.LBB2:
 414:main.c        ****         for(int i =0; i<34; i++){
 1595              		.loc 1 414 0
 1596 006e 0023     		movs	r3, #0
 1597 0070 FB62     		str	r3, [r7, #44]
 1598 0072 0BE0     		b	.L42
 1599              	.L43:
 415:main.c        ****           I2C_1_I2CMasterReadByte(I2C_1_I2C_ACK_DATA,&rBuff[i],10u);
 1600              		.loc 1 415 0 discriminator 3
 1601 0074 0823     		movs	r3, #8
 1602 0076 FA18     		adds	r2, r7, r3
 1603 0078 FB6A     		ldr	r3, [r7, #44]
 1604 007a D318     		adds	r3, r2, r3
 1605 007c 0A22     		movs	r2, #10
 1606 007e 1900     		movs	r1, r3
 1607 0080 0020     		movs	r0, #0
 1608 0082 FFF7FEFF 		bl	I2C_1_I2CMasterReadByte
 414:main.c        ****         for(int i =0; i<34; i++){
 1609              		.loc 1 414 0 discriminator 3
 1610 0086 FB6A     		ldr	r3, [r7, #44]
 1611 0088 0133     		adds	r3, r3, #1
 1612 008a FB62     		str	r3, [r7, #44]
 1613              	.L42:
 414:main.c        ****         for(int i =0; i<34; i++){
 1614              		.loc 1 414 0 is_stmt 0 discriminator 1
ARM GAS  C:\Users\sergio\AppData\Local\Temp\ccqEDlrG.s 			page 38


 1615 008c FB6A     		ldr	r3, [r7, #44]
 1616 008e 212B     		cmp	r3, #33
 1617 0090 F0DD     		ble	.L43
 1618              	.LBE2:
 416:main.c        ****         }
 417:main.c        ****         I2C_1_I2CMasterReadByte(I2C_1_I2C_NAK_DATA,&rBuff[34],10u);
 1619              		.loc 1 417 0 is_stmt 1
 1620 0092 0823     		movs	r3, #8
 1621 0094 FB18     		adds	r3, r7, r3
 1622 0096 2233     		adds	r3, r3, #34
 1623 0098 0A22     		movs	r2, #10
 1624 009a 1900     		movs	r1, r3
 1625 009c 0120     		movs	r0, #1
 1626 009e FFF7FEFF 		bl	I2C_1_I2CMasterReadByte
 418:main.c        ****         I2C_1_I2CMasterSendStop(100u);
 1627              		.loc 1 418 0
 1628 00a2 6420     		movs	r0, #100
 1629 00a4 FFF7FEFF 		bl	I2C_1_I2CMasterSendStop
 419:main.c        ****         
 420:main.c        ****         switch(address){
 1630              		.loc 1 420 0
 1631 00a8 7B68     		ldr	r3, [r7, #4]
 1632 00aa 752B     		cmp	r3, #117
 1633 00ac 36D0     		beq	.L45
 1634 00ae 762B     		cmp	r3, #118
 1635 00b0 66D0     		beq	.L46
 1636 00b2 742B     		cmp	r3, #116
 1637 00b4 00D0     		beq	.L47
 421:main.c        ****             case 0x74:
 422:main.c        ****                 sensorData.voltCompressor = (rBuff[7] << 8) | rBuff[6];
 423:main.c        ****                 sensorData.lineFreqComp = (rBuff[9] << 8) | rBuff[8];
 424:main.c        ****                 sensorData.currentCompressor = (rBuff[17] << 24) | (rBuff[16] << 16) | (rBuff[15] <
 425:main.c        ****             break;
 426:main.c        ****             
 427:main.c        ****             case 0x75:
 428:main.c        ****                 sensorData.volt = (rBuff[7] << 8) | rBuff[6];
 429:main.c        ****                 sensorData.lineFreq = (rBuff[9] << 8) | rBuff[8];
 430:main.c        ****                 sensorData.current = (rBuff[17] << 24) | (rBuff[16] << 16) | (rBuff[15] << 8) | rBu
 431:main.c        ****             break;
 432:main.c        ****             
 433:main.c        ****             case 0x76:
 434:main.c        ****                 sensorData.voltFan = (rBuff[7] << 8) | rBuff[6];
 435:main.c        ****                 sensorData.lineFreqFan = (rBuff[9] << 8) | rBuff[8];
 436:main.c        ****                 sensorData.currentFan = (rBuff[17] << 24) | (rBuff[16] << 16) | (rBuff[15] << 8) | 
 437:main.c        ****             break;
 438:main.c        ****             
 439:main.c        ****             default:
 440:main.c        ****             break;
 1638              		.loc 1 440 0
 1639 00b6 95E0     		b	.L48
 1640              	.L47:
 422:main.c        ****                 sensorData.lineFreqComp = (rBuff[9] << 8) | rBuff[8];
 1641              		.loc 1 422 0
 1642 00b8 0823     		movs	r3, #8
 1643 00ba FB18     		adds	r3, r7, r3
 1644 00bc DB79     		ldrb	r3, [r3, #7]
 1645 00be 1B02     		lsls	r3, r3, #8
ARM GAS  C:\Users\sergio\AppData\Local\Temp\ccqEDlrG.s 			page 39


 1646 00c0 1AB2     		sxth	r2, r3
 1647 00c2 0823     		movs	r3, #8
 1648 00c4 FB18     		adds	r3, r7, r3
 1649 00c6 9B79     		ldrb	r3, [r3, #6]
 1650 00c8 1BB2     		sxth	r3, r3
 1651 00ca 1343     		orrs	r3, r2
 1652 00cc 1BB2     		sxth	r3, r3
 1653 00ce 9AB2     		uxth	r2, r3
 1654 00d0 464B     		ldr	r3, .L49
 1655 00d2 DA80     		strh	r2, [r3, #6]
 423:main.c        ****                 sensorData.currentCompressor = (rBuff[17] << 24) | (rBuff[16] << 16) | (rBuff[15] <
 1656              		.loc 1 423 0
 1657 00d4 0823     		movs	r3, #8
 1658 00d6 FB18     		adds	r3, r7, r3
 1659 00d8 5B7A     		ldrb	r3, [r3, #9]
 1660 00da 1B02     		lsls	r3, r3, #8
 1661 00dc 1AB2     		sxth	r2, r3
 1662 00de 0823     		movs	r3, #8
 1663 00e0 FB18     		adds	r3, r7, r3
 1664 00e2 1B7A     		ldrb	r3, [r3, #8]
 1665 00e4 1BB2     		sxth	r3, r3
 1666 00e6 1343     		orrs	r3, r2
 1667 00e8 1BB2     		sxth	r3, r3
 1668 00ea 9AB2     		uxth	r2, r3
 1669 00ec 3F4B     		ldr	r3, .L49
 1670 00ee 1A83     		strh	r2, [r3, #24]
 424:main.c        ****             break;
 1671              		.loc 1 424 0
 1672 00f0 0823     		movs	r3, #8
 1673 00f2 FB18     		adds	r3, r7, r3
 1674 00f4 5B7C     		ldrb	r3, [r3, #17]
 1675 00f6 1A06     		lsls	r2, r3, #24
 1676 00f8 0823     		movs	r3, #8
 1677 00fa FB18     		adds	r3, r7, r3
 1678 00fc 1B7C     		ldrb	r3, [r3, #16]
 1679 00fe 1B04     		lsls	r3, r3, #16
 1680 0100 1A43     		orrs	r2, r3
 1681 0102 0823     		movs	r3, #8
 1682 0104 FB18     		adds	r3, r7, r3
 1683 0106 DB7B     		ldrb	r3, [r3, #15]
 1684 0108 1B02     		lsls	r3, r3, #8
 1685 010a 1343     		orrs	r3, r2
 1686 010c 0822     		movs	r2, #8
 1687 010e BA18     		adds	r2, r7, r2
 1688 0110 927B     		ldrb	r2, [r2, #14]
 1689 0112 1343     		orrs	r3, r2
 1690 0114 1A00     		movs	r2, r3
 1691 0116 354B     		ldr	r3, .L49
 1692 0118 DA60     		str	r2, [r3, #12]
 425:main.c        ****             
 1693              		.loc 1 425 0
 1694 011a 63E0     		b	.L48
 1695              	.L45:
 428:main.c        ****                 sensorData.lineFreq = (rBuff[9] << 8) | rBuff[8];
 1696              		.loc 1 428 0
 1697 011c 0823     		movs	r3, #8
 1698 011e FB18     		adds	r3, r7, r3
ARM GAS  C:\Users\sergio\AppData\Local\Temp\ccqEDlrG.s 			page 40


 1699 0120 DB79     		ldrb	r3, [r3, #7]
 1700 0122 1B02     		lsls	r3, r3, #8
 1701 0124 1AB2     		sxth	r2, r3
 1702 0126 0823     		movs	r3, #8
 1703 0128 FB18     		adds	r3, r7, r3
 1704 012a 9B79     		ldrb	r3, [r3, #6]
 1705 012c 1BB2     		sxth	r3, r3
 1706 012e 1343     		orrs	r3, r2
 1707 0130 1BB2     		sxth	r3, r3
 1708 0132 9AB2     		uxth	r2, r3
 1709 0134 2D4B     		ldr	r3, .L49
 1710 0136 5A81     		strh	r2, [r3, #10]
 429:main.c        ****                 sensorData.current = (rBuff[17] << 24) | (rBuff[16] << 16) | (rBuff[15] << 8) | rBu
 1711              		.loc 1 429 0
 1712 0138 0823     		movs	r3, #8
 1713 013a FB18     		adds	r3, r7, r3
 1714 013c 5B7A     		ldrb	r3, [r3, #9]
 1715 013e 1B02     		lsls	r3, r3, #8
 1716 0140 1AB2     		sxth	r2, r3
 1717 0142 0823     		movs	r3, #8
 1718 0144 FB18     		adds	r3, r7, r3
 1719 0146 1B7A     		ldrb	r3, [r3, #8]
 1720 0148 1BB2     		sxth	r3, r3
 1721 014a 1343     		orrs	r3, r2
 1722 014c 1BB2     		sxth	r3, r3
 1723 014e 9AB2     		uxth	r2, r3
 1724 0150 264B     		ldr	r3, .L49
 1725 0152 9A83     		strh	r2, [r3, #28]
 430:main.c        ****             break;
 1726              		.loc 1 430 0
 1727 0154 0823     		movs	r3, #8
 1728 0156 FB18     		adds	r3, r7, r3
 1729 0158 5B7C     		ldrb	r3, [r3, #17]
 1730 015a 1A06     		lsls	r2, r3, #24
 1731 015c 0823     		movs	r3, #8
 1732 015e FB18     		adds	r3, r7, r3
 1733 0160 1B7C     		ldrb	r3, [r3, #16]
 1734 0162 1B04     		lsls	r3, r3, #16
 1735 0164 1A43     		orrs	r2, r3
 1736 0166 0823     		movs	r3, #8
 1737 0168 FB18     		adds	r3, r7, r3
 1738 016a DB7B     		ldrb	r3, [r3, #15]
 1739 016c 1B02     		lsls	r3, r3, #8
 1740 016e 1343     		orrs	r3, r2
 1741 0170 0822     		movs	r2, #8
 1742 0172 BA18     		adds	r2, r7, r2
 1743 0174 927B     		ldrb	r2, [r2, #14]
 1744 0176 1343     		orrs	r3, r2
 1745 0178 1A00     		movs	r2, r3
 1746 017a 1C4B     		ldr	r3, .L49
 1747 017c 5A61     		str	r2, [r3, #20]
 431:main.c        ****             
 1748              		.loc 1 431 0
 1749 017e 31E0     		b	.L48
 1750              	.L46:
 434:main.c        ****                 sensorData.lineFreqFan = (rBuff[9] << 8) | rBuff[8];
 1751              		.loc 1 434 0
ARM GAS  C:\Users\sergio\AppData\Local\Temp\ccqEDlrG.s 			page 41


 1752 0180 0823     		movs	r3, #8
 1753 0182 FB18     		adds	r3, r7, r3
 1754 0184 DB79     		ldrb	r3, [r3, #7]
 1755 0186 1B02     		lsls	r3, r3, #8
 1756 0188 1AB2     		sxth	r2, r3
 1757 018a 0823     		movs	r3, #8
 1758 018c FB18     		adds	r3, r7, r3
 1759 018e 9B79     		ldrb	r3, [r3, #6]
 1760 0190 1BB2     		sxth	r3, r3
 1761 0192 1343     		orrs	r3, r2
 1762 0194 1BB2     		sxth	r3, r3
 1763 0196 9AB2     		uxth	r2, r3
 1764 0198 144B     		ldr	r3, .L49
 1765 019a 1A81     		strh	r2, [r3, #8]
 435:main.c        ****                 sensorData.currentFan = (rBuff[17] << 24) | (rBuff[16] << 16) | (rBuff[15] << 8) | 
 1766              		.loc 1 435 0
 1767 019c 0823     		movs	r3, #8
 1768 019e FB18     		adds	r3, r7, r3
 1769 01a0 5B7A     		ldrb	r3, [r3, #9]
 1770 01a2 1B02     		lsls	r3, r3, #8
 1771 01a4 1AB2     		sxth	r2, r3
 1772 01a6 0823     		movs	r3, #8
 1773 01a8 FB18     		adds	r3, r7, r3
 1774 01aa 1B7A     		ldrb	r3, [r3, #8]
 1775 01ac 1BB2     		sxth	r3, r3
 1776 01ae 1343     		orrs	r3, r2
 1777 01b0 1BB2     		sxth	r3, r3
 1778 01b2 9AB2     		uxth	r2, r3
 1779 01b4 0D4B     		ldr	r3, .L49
 1780 01b6 5A83     		strh	r2, [r3, #26]
 436:main.c        ****             break;
 1781              		.loc 1 436 0
 1782 01b8 0823     		movs	r3, #8
 1783 01ba FB18     		adds	r3, r7, r3
 1784 01bc 5B7C     		ldrb	r3, [r3, #17]
 1785 01be 1A06     		lsls	r2, r3, #24
 1786 01c0 0823     		movs	r3, #8
 1787 01c2 FB18     		adds	r3, r7, r3
 1788 01c4 1B7C     		ldrb	r3, [r3, #16]
 1789 01c6 1B04     		lsls	r3, r3, #16
 1790 01c8 1A43     		orrs	r2, r3
 1791 01ca 0823     		movs	r3, #8
 1792 01cc FB18     		adds	r3, r7, r3
 1793 01ce DB7B     		ldrb	r3, [r3, #15]
 1794 01d0 1B02     		lsls	r3, r3, #8
 1795 01d2 1343     		orrs	r3, r2
 1796 01d4 0822     		movs	r2, #8
 1797 01d6 BA18     		adds	r2, r7, r2
 1798 01d8 927B     		ldrb	r2, [r2, #14]
 1799 01da 1343     		orrs	r3, r2
 1800 01dc 1A00     		movs	r2, r3
 1801 01de 034B     		ldr	r3, .L49
 1802 01e0 1A61     		str	r2, [r3, #16]
 437:main.c        ****             
 1803              		.loc 1 437 0
 1804 01e2 C046     		nop
 1805              	.L48:
ARM GAS  C:\Users\sergio\AppData\Local\Temp\ccqEDlrG.s 			page 42


 441:main.c        ****         }
 442:main.c        **** }
 1806              		.loc 1 442 0 discriminator 1
 1807 01e4 C046     		nop
 1808 01e6 BD46     		mov	sp, r7
 1809 01e8 0CB0     		add	sp, sp, #48
 1810              		@ sp needed
 1811 01ea 80BD     		pop	{r7, pc}
 1812              	.L50:
 1813              		.align	2
 1814              	.L49:
 1815 01ec 00000000 		.word	sensorData
 1816              		.cfi_endproc
 1817              	.LFE47:
 1818              		.size	read_power_chips, .-read_power_chips
 1819              		.section	.text.read_Air_Flow,"ax",%progbits
 1820              		.align	2
 1821              		.global	read_Air_Flow
 1822              		.code	16
 1823              		.thumb_func
 1824              		.type	read_Air_Flow, %function
 1825              	read_Air_Flow:
 1826              	.LFB48:
 443:main.c        **** 
 444:main.c        **** void read_Air_Flow(){
 1827              		.loc 1 444 0
 1828              		.cfi_startproc
 1829              		@ args = 0, pretend = 0, frame = 8
 1830              		@ frame_needed = 1, uses_anonymous_args = 0
 1831 0000 80B5     		push	{r7, lr}
 1832              		.cfi_def_cfa_offset 8
 1833              		.cfi_offset 7, -8
 1834              		.cfi_offset 14, -4
 1835 0002 82B0     		sub	sp, sp, #8
 1836              		.cfi_def_cfa_offset 16
 1837 0004 00AF     		add	r7, sp, #0
 1838              		.cfi_def_cfa_register 7
 445:main.c        ****     uint16 airFlow = 0;
 1839              		.loc 1 445 0
 1840 0006 BB1D     		adds	r3, r7, #6
 1841 0008 0022     		movs	r2, #0
 1842 000a 1A80     		strh	r2, [r3]
 1843              	.LBB3:
 446:main.c        ****     for(int i =0; i < 500; i++){
 1844              		.loc 1 446 0
 1845 000c 0023     		movs	r3, #0
 1846 000e 3B60     		str	r3, [r7]
 1847 0010 0FE0     		b	.L52
 1848              	.L53:
 447:main.c        ****         airFlow += (AF_Read() == 1)? 1 : 0;
 1849              		.loc 1 447 0 discriminator 3
 1850 0012 FFF7FEFF 		bl	AF_Read
 1851 0016 0300     		movs	r3, r0
 1852 0018 013B     		subs	r3, r3, #1
 1853 001a 5A42     		rsbs	r2, r3, #0
 1854 001c 5341     		adcs	r3, r3, r2
 1855 001e DBB2     		uxtb	r3, r3
ARM GAS  C:\Users\sergio\AppData\Local\Temp\ccqEDlrG.s 			page 43


 1856 0020 99B2     		uxth	r1, r3
 1857 0022 BB1D     		adds	r3, r7, #6
 1858 0024 BA1D     		adds	r2, r7, #6
 1859 0026 1288     		ldrh	r2, [r2]
 1860 0028 8A18     		adds	r2, r1, r2
 1861 002a 1A80     		strh	r2, [r3]
 446:main.c        ****     for(int i =0; i < 500; i++){
 1862              		.loc 1 446 0 discriminator 3
 1863 002c 3B68     		ldr	r3, [r7]
 1864 002e 0133     		adds	r3, r3, #1
 1865 0030 3B60     		str	r3, [r7]
 1866              	.L52:
 446:main.c        ****     for(int i =0; i < 500; i++){
 1867              		.loc 1 446 0 is_stmt 0 discriminator 1
 1868 0032 3A68     		ldr	r2, [r7]
 1869 0034 F423     		movs	r3, #244
 1870 0036 FF33     		adds	r3, r3, #255
 1871 0038 9A42     		cmp	r2, r3
 1872 003a EADD     		ble	.L53
 1873              	.LBE3:
 448:main.c        ****     }
 449:main.c        ****     sensorData.airFlow = airFlow;
 1874              		.loc 1 449 0 is_stmt 1
 1875 003c 034B     		ldr	r3, .L54
 1876 003e BA1D     		adds	r2, r7, #6
 1877 0040 1288     		ldrh	r2, [r2]
 1878 0042 5A84     		strh	r2, [r3, #34]
 450:main.c        **** }
 1879              		.loc 1 450 0
 1880 0044 C046     		nop
 1881 0046 BD46     		mov	sp, r7
 1882 0048 02B0     		add	sp, sp, #8
 1883              		@ sp needed
 1884 004a 80BD     		pop	{r7, pc}
 1885              	.L55:
 1886              		.align	2
 1887              	.L54:
 1888 004c 00000000 		.word	sensorData
 1889              		.cfi_endproc
 1890              	.LFE48:
 1891              		.size	read_Air_Flow, .-read_Air_Flow
 1892              		.section	.text.delay,"ax",%progbits
 1893              		.align	2
 1894              		.global	delay
 1895              		.code	16
 1896              		.thumb_func
 1897              		.type	delay, %function
 1898              	delay:
 1899              	.LFB49:
 451:main.c        **** 
 452:main.c        **** void delay(int d){
 1900              		.loc 1 452 0
 1901              		.cfi_startproc
 1902              		@ args = 0, pretend = 0, frame = 8
 1903              		@ frame_needed = 1, uses_anonymous_args = 0
 1904 0000 80B5     		push	{r7, lr}
 1905              		.cfi_def_cfa_offset 8
ARM GAS  C:\Users\sergio\AppData\Local\Temp\ccqEDlrG.s 			page 44


 1906              		.cfi_offset 7, -8
 1907              		.cfi_offset 14, -4
 1908 0002 82B0     		sub	sp, sp, #8
 1909              		.cfi_def_cfa_offset 16
 1910 0004 00AF     		add	r7, sp, #0
 1911              		.cfi_def_cfa_register 7
 1912 0006 7860     		str	r0, [r7, #4]
 453:main.c        ****     for(;d>0; d--);
 1913              		.loc 1 453 0
 1914 0008 02E0     		b	.L57
 1915              	.L58:
 1916              		.loc 1 453 0 is_stmt 0 discriminator 2
 1917 000a 7B68     		ldr	r3, [r7, #4]
 1918 000c 013B     		subs	r3, r3, #1
 1919 000e 7B60     		str	r3, [r7, #4]
 1920              	.L57:
 1921              		.loc 1 453 0 discriminator 1
 1922 0010 7B68     		ldr	r3, [r7, #4]
 1923 0012 002B     		cmp	r3, #0
 1924 0014 F9DC     		bgt	.L58
 454:main.c        **** }
 1925              		.loc 1 454 0 is_stmt 1
 1926 0016 C046     		nop
 1927 0018 BD46     		mov	sp, r7
 1928 001a 02B0     		add	sp, sp, #8
 1929              		@ sp needed
 1930 001c 80BD     		pop	{r7, pc}
 1931              		.cfi_endproc
 1932              	.LFE49:
 1933              		.size	delay, .-delay
 1934 001e C046     		.section	.text.my_interrupt,"ax",%progbits
 1935              		.align	2
 1936              		.global	my_interrupt
 1937              		.code	16
 1938              		.thumb_func
 1939              		.type	my_interrupt, %function
 1940              	my_interrupt:
 1941              	.LFB50:
 455:main.c        **** 
 456:main.c        **** 
 457:main.c        **** void my_interrupt(){
 1942              		.loc 1 457 0
 1943              		.cfi_startproc
 1944              		@ args = 0, pretend = 0, frame = 0
 1945              		@ frame_needed = 1, uses_anonymous_args = 0
 1946 0000 80B5     		push	{r7, lr}
 1947              		.cfi_def_cfa_offset 8
 1948              		.cfi_offset 7, -8
 1949              		.cfi_offset 14, -4
 1950 0002 00AF     		add	r7, sp, #0
 1951              		.cfi_def_cfa_register 7
 458:main.c        ****     
 459:main.c        ****     interruptFlag = 1;
 1952              		.loc 1 459 0
 1953 0004 054B     		ldr	r3, .L60
 1954 0006 0122     		movs	r2, #1
 1955 0008 1A60     		str	r2, [r3]
ARM GAS  C:\Users\sergio\AppData\Local\Temp\ccqEDlrG.s 			page 45


 460:main.c        ****    
 461:main.c        ****      CySysWdtClearInterrupt(CY_SYS_WDT_COUNTER2_INT);
 1956              		.loc 1 461 0
 1957 000a 8023     		movs	r3, #128
 1958 000c DB02     		lsls	r3, r3, #11
 1959 000e 1800     		movs	r0, r3
 1960 0010 FFF7FEFF 		bl	CySysWdtClearInterrupt
 462:main.c        **** }
 1961              		.loc 1 462 0
 1962 0014 C046     		nop
 1963 0016 BD46     		mov	sp, r7
 1964              		@ sp needed
 1965 0018 80BD     		pop	{r7, pc}
 1966              	.L61:
 1967 001a C046     		.align	2
 1968              	.L60:
 1969 001c 00000000 		.word	interruptFlag
 1970              		.cfi_endproc
 1971              	.LFE50:
 1972              		.size	my_interrupt, .-my_interrupt
 1973              		.section	.rodata
 1974              		.align	2
 1975              	.LC28:
 1976 003c 2A2D2A2D 		.ascii	"*-*-*-*-*-*-*-*-  ADC is: %d -*-*-*-*-*-*-*-*-\012\000"
 1976      2A2D2A2D 
 1976      2A2D2A2D 
 1976      2A2D2A2D 
 1976      20204144 
 1977              		.align	2
 1978              	.LC32:
 1979 006c 0A546865 		.ascii	"\012Thermostast pins are 0x%x com%x, Lf%x, Hf%x\012"
 1979      726D6F73 
 1979      74617374 
 1979      2070696E 
 1979      73206172 
 1980 0099 00       		.ascii	"\000"
 1981 009a 0000     		.align	2
 1982              	.LC39:
 1983 009c 72656164 		.ascii	"read pin switch comp: %d\012\000"
 1983      2070696E 
 1983      20737769 
 1983      74636820 
 1983      636F6D70 
 1984 00b6 0000     		.align	2
 1985              	.LC41:
 1986 00b8 72656164 		.ascii	"read pin switch low F: %d\012\000"
 1986      2070696E 
 1986      20737769 
 1986      74636820 
 1986      6C6F7720 
 1987 00d3 00       		.align	2
 1988              	.LC43:
 1989 00d4 72656164 		.ascii	"read pin switch high F: %d\012\000"
 1989      2070696E 
 1989      20737769 
 1989      74636820 
 1989      68696768 
ARM GAS  C:\Users\sergio\AppData\Local\Temp\ccqEDlrG.s 			page 46


 1990              		.section	.text.main,"ax",%progbits
 1991              		.align	2
 1992              		.global	main
 1993              		.code	16
 1994              		.thumb_func
 1995              		.type	main, %function
 1996              	main:
 1997              	.LFB51:
 463:main.c        **** 
 464:main.c        **** int main (void)
 465:main.c        **** {
 1998              		.loc 1 465 0
 1999              		.cfi_startproc
 2000              		@ args = 0, pretend = 0, frame = 72
 2001              		@ frame_needed = 1, uses_anonymous_args = 0
 2002 0000 B0B5     		push	{r4, r5, r7, lr}
 2003              		.cfi_def_cfa_offset 16
 2004              		.cfi_offset 4, -16
 2005              		.cfi_offset 5, -12
 2006              		.cfi_offset 7, -8
 2007              		.cfi_offset 14, -4
 2008 0002 94B0     		sub	sp, sp, #80
 2009              		.cfi_def_cfa_offset 96
 2010 0004 02AF     		add	r7, sp, #8
 2011              		.cfi_def_cfa 7, 88
 466:main.c        ****     /* Place your initialization/startup code here (e.g. MyInst_Start()) */
 467:main.c        **** 
 468:main.c        ****      CyGlobalIntEnable;  /* Uncomment this line to enable global interrupts. */
 2012              		.loc 1 468 0
 2013              		.syntax divided
 2014              	@ 468 "main.c" 1
 2015 0006 62B6     		CPSIE   i
 2016              	@ 0 "" 2
 469:main.c        ****             
 470:main.c        ****     CEPIN_Write(1);
 2017              		.loc 1 470 0
 2018              		.thumb
 2019              		.syntax unified
 2020 0008 0120     		movs	r0, #1
 2021 000a FFF7FEFF 		bl	CEPIN_Write
 471:main.c        ****     
 472:main.c        ****     
 473:main.c        ****     RED_Write(0);
 2022              		.loc 1 473 0
 2023 000e 0020     		movs	r0, #0
 2024 0010 FFF7FEFF 		bl	RED_Write
 474:main.c        ****     GREEN_Write(0);
 2025              		.loc 1 474 0
 2026 0014 0020     		movs	r0, #0
 2027 0016 FFF7FEFF 		bl	GREEN_Write
 475:main.c        ****     BLUE_Write(0);
 2028              		.loc 1 475 0
 2029 001a 0020     		movs	r0, #0
 2030 001c FFF7FEFF 		bl	BLUE_Write
 476:main.c        ****     CyDelay(500);
 2031              		.loc 1 476 0
 2032 0020 FA23     		movs	r3, #250
ARM GAS  C:\Users\sergio\AppData\Local\Temp\ccqEDlrG.s 			page 47


 2033 0022 5B00     		lsls	r3, r3, #1
 2034 0024 1800     		movs	r0, r3
 2035 0026 FFF7FEFF 		bl	CyDelay
 477:main.c        ****     RED_Write(1);
 2036              		.loc 1 477 0
 2037 002a 0120     		movs	r0, #1
 2038 002c FFF7FEFF 		bl	RED_Write
 478:main.c        ****     GREEN_Write(1);
 2039              		.loc 1 478 0
 2040 0030 0120     		movs	r0, #1
 2041 0032 FFF7FEFF 		bl	GREEN_Write
 479:main.c        ****     BLUE_Write(1);
 2042              		.loc 1 479 0
 2043 0036 0120     		movs	r0, #1
 2044 0038 FFF7FEFF 		bl	BLUE_Write
 480:main.c        ****     
 481:main.c        ****     I2C_1_Start();
 2045              		.loc 1 481 0
 2046 003c FFF7FEFF 		bl	I2C_1_Start
 482:main.c        ****     
 483:main.c        ****     MyUART_Start();
 2047              		.loc 1 483 0
 2048 0040 FFF7FEFF 		bl	MyUART_Start
 484:main.c        ****     
 485:main.c        ****     MyADC_Start();
 2049              		.loc 1 485 0
 2050 0044 FFF7FEFF 		bl	MyADC_Start
 486:main.c        ****     
 487:main.c        ****     MyADC_StartConvert();
 2051              		.loc 1 487 0
 2052 0048 FFF7FEFF 		bl	MyADC_StartConvert
 488:main.c        ****     
 489:main.c        ****     // call after I2C have been initiated
 490:main.c        **** //    configure_temperature_sensor2();
 491:main.c        **** //    configure_temperature_sensor1();
 492:main.c        ****     initialized_input_gpioExp();
 2053              		.loc 1 492 0
 2054 004c FFF7FEFF 		bl	initialized_input_gpioExp
 493:main.c        ****     
 494:main.c        ****     // only need to calibrate the firt time the board is ever used
 495:main.c        **** //   auto_calibrate_gain(ADDR_POWER1);
 496:main.c        **** //    auto_calibrate_gain(ADDR_POWER2);
 497:main.c        **** //    auto_calibrate_gain(ADDR_POWER3);
 498:main.c        ****     
 499:main.c        ****     // start BLE
 500:main.c        ****    // CyBle_Start(bleStack);
 501:main.c        ****     
 502:main.c        ****     // 1sec interrupt
 503:main.c        ****     CySysWdtEnable(CY_SYS_WDT_COUNTER2);
 2055              		.loc 1 503 0
 2056 0050 0220     		movs	r0, #2
 2057 0052 FFF7FEFF 		bl	CySysWdtEnable
 504:main.c        ****     int_1_StartEx(my_interrupt);
 2058              		.loc 1 504 0
 2059 0056 CE4B     		ldr	r3, .L100
 2060 0058 1800     		movs	r0, r3
 2061 005a FFF7FEFF 		bl	int_1_StartEx
ARM GAS  C:\Users\sergio\AppData\Local\Temp\ccqEDlrG.s 			page 48


 505:main.c        **** 
 506:main.c        ****     
 507:main.c        **** //uint8 temp1 = 0;
 508:main.c        **** //uint8 tempR1 = 0;
 509:main.c        **** //uint8 tempR2 = 0;
 510:main.c        ****  uint8_t temp2 = 0;
 2062              		.loc 1 510 0
 2063 005e 4423     		movs	r3, #68
 2064 0060 FB18     		adds	r3, r7, r3
 2065 0062 0022     		movs	r2, #0
 2066 0064 1A70     		strb	r2, [r3]
 511:main.c        **** //uint8_t tempR12 = 0;    
 512:main.c        **** //uint8_t tempR22 = 0;
 513:main.c        ****    // volatile thermostatData thermo;
 514:main.c        ****    // volatile dataCollected sensorData;
 515:main.c        **** thermo.setTemperature = 0;
 2067              		.loc 1 515 0
 2068 0066 CB4B     		ldr	r3, .L100+4
 2069 0068 0022     		movs	r2, #0
 2070 006a DA70     		strb	r2, [r3, #3]
 516:main.c        **** thermo.ambientTemp = 0;
 2071              		.loc 1 516 0
 2072 006c C94B     		ldr	r3, .L100+4
 2073 006e 0022     		movs	r2, #0
 2074 0070 1A71     		strb	r2, [r3, #4]
 517:main.c        ****  uint8 comp = 0u;
 2075              		.loc 1 517 0
 2076 0072 4723     		movs	r3, #71
 2077 0074 FB18     		adds	r3, r7, r3
 2078 0076 0022     		movs	r2, #0
 2079 0078 1A70     		strb	r2, [r3]
 518:main.c        ****  uint8 fanL = 0u;
 2080              		.loc 1 518 0
 2081 007a 4623     		movs	r3, #70
 2082 007c FB18     		adds	r3, r7, r3
 2083 007e 0022     		movs	r2, #0
 2084 0080 1A70     		strb	r2, [r3]
 519:main.c        ****  uint8 fanH = 0u;
 2085              		.loc 1 519 0
 2086 0082 4523     		movs	r3, #69
 2087 0084 FB18     		adds	r3, r7, r3
 2088 0086 0022     		movs	r2, #0
 2089 0088 1A70     		strb	r2, [r3]
 520:main.c        ****     
 521:main.c        ****     int counter =0;
 2090              		.loc 1 521 0
 2091 008a 0023     		movs	r3, #0
 2092 008c 3B64     		str	r3, [r7, #64]
 2093              	.L99:
 522:main.c        ****     
 523:main.c        ****     for(;;){
 524:main.c        **** 
 525:main.c        ****  if(interruptFlag == 1){
 2094              		.loc 1 525 0
 2095 008e C24B     		ldr	r3, .L100+8
 2096 0090 1B68     		ldr	r3, [r3]
 2097 0092 012B     		cmp	r3, #1
ARM GAS  C:\Users\sergio\AppData\Local\Temp\ccqEDlrG.s 			page 49


 2098 0094 00D0     		beq	.LCB1642
 2099 0096 9BE0     		b	.L63	@long jump
 2100              	.LCB1642:
 2101              	.LBB4:
 526:main.c        ****     
 527:main.c        ****     if(MyADC_IsEndConversion(MyADC_RETURN_STATUS)){
 2102              		.loc 1 527 0
 2103 0098 0120     		movs	r0, #1
 2104 009a FFF7FEFF 		bl	MyADC_IsEndConversion
 2105 009e 031E     		subs	r3, r0, #0
 2106 00a0 12D0     		beq	.L64
 528:main.c        ****         adcRead = MyADC_GetResult16(0);
 2107              		.loc 1 528 0
 2108 00a2 0020     		movs	r0, #0
 2109 00a4 FFF7FEFF 		bl	MyADC_GetResult16
 2110 00a8 0300     		movs	r3, r0
 2111 00aa 9AB2     		uxth	r2, r3
 2112 00ac BB4B     		ldr	r3, .L100+12
 2113 00ae 1A80     		strh	r2, [r3]
 529:main.c        **** //    
 530:main.c        ****     sprintf(uartStr, "*-*-*-*-*-*-*-*-  ADC is: %d -*-*-*-*-*-*-*-*-\n", adcRead);
 2114              		.loc 1 530 0
 2115 00b0 BA4B     		ldr	r3, .L100+12
 2116 00b2 1B88     		ldrh	r3, [r3]
 2117 00b4 1A00     		movs	r2, r3
 2118 00b6 BA49     		ldr	r1, .L100+16
 2119 00b8 BA4B     		ldr	r3, .L100+20
 2120 00ba 1800     		movs	r0, r3
 2121 00bc FFF7FEFF 		bl	sprintf
 531:main.c        ****     MyUART_PutString(uartStr);
 2122              		.loc 1 531 0
 2123 00c0 B84B     		ldr	r3, .L100+20
 2124 00c2 1800     		movs	r0, r3
 2125 00c4 FFF7FEFF 		bl	MyUART_PutString
 2126              	.L64:
 532:main.c        ****     }
 533:main.c        **** //    
 534:main.c        ****   // if(adcRead < 1300){
 535:main.c        ****    // if(adcRead < 1501){
 536:main.c        ****        //CEPIN_Write(0);
 537:main.c        ****     // }
 538:main.c        ****   // }
 539:main.c        ****     //else if(adcRead > 1500){
 540:main.c        ****      //  CEPIN_Write(1);
 541:main.c        ****        
 542:main.c        ****     volatile uint8 read_buff[2] = {0,0};
 2127              		.loc 1 542 0
 2128 00c8 3823     		movs	r3, #56
 2129 00ca FB18     		adds	r3, r7, r3
 2130 00cc 0022     		movs	r2, #0
 2131 00ce 1A70     		strb	r2, [r3]
 2132 00d0 3823     		movs	r3, #56
 2133 00d2 FB18     		adds	r3, r7, r3
 2134 00d4 0022     		movs	r2, #0
 2135 00d6 5A70     		strb	r2, [r3, #1]
 543:main.c        ****     
 544:main.c        ****         int statusStart = 0;
ARM GAS  C:\Users\sergio\AppData\Local\Temp\ccqEDlrG.s 			page 50


 2136              		.loc 1 544 0
 2137 00d8 0023     		movs	r3, #0
 2138 00da FB63     		str	r3, [r7, #60]
 545:main.c        **** 
 546:main.c        ****         
 547:main.c        ****     // -----------------------read temperatures--------------------------------------
 548:main.c        ****     char str[50];
 549:main.c        ****     
 550:main.c        **** //   ID  TMP432A
 551:main.c        **** 
 552:main.c        **** //  I2C_1_I2CMasterSendStart(0x4C, I2C_1_I2C_WRITE_XFER_MODE, 0);
 553:main.c        **** //if ((I2C_1_I2CMasterStatus() & I2C_1_I2C_MSTAT_ERR_ADDR_NAK)==1){ MyUART_PutString("slave NACK ad
 554:main.c        **** //   I2C_1_I2CMasterWriteByte(0xFD, 0); // check ID 
 555:main.c        **** //if ((I2C_1_I2CMasterStatus() & I2C_1_I2C_MSTAT_WR_CMPLT)==1){ MyUART_PutString("writing error\n")
 556:main.c        **** //   I2C_1_I2CMasterSendRestart(0x4C,I2C_1_I2C_READ_XFER_MODE, 0);
 557:main.c        **** //
 558:main.c        **** //   I2C_1_I2CMasterReadByte(I2C_1_I2C_NAK_DATA,(uint8 *) &thermo.ambientTemp, 0);
 559:main.c        **** //if ((I2C_1_I2CMasterStatus() & I2C_1_I2C_MSTAT_RD_CMPLT)==1){ MyUART_PutString("reading error\n")
 560:main.c        **** //   I2C_1_I2CMasterSendStop(0);
 561:main.c        **** //
 562:main.c        **** //
 563:main.c        **** //  sprintf(str, "counter: %d\n\n status start: %d\n ID: %x\n", counter,statusStart, thermo.ambient
 564:main.c        **** //    MyUART_PutString(str);
 565:main.c        **** //    counter +=1;
 566:main.c        **** //    
 567:main.c        **** ////  READ local sensor  TMP432A
 568:main.c        **** //    I2C_1_I2CMasterSendStart(0x4C, I2C_1_I2C_WRITE_XFER_MODE, 0u);
 569:main.c        **** //   I2C_1_I2CMasterWriteByte(0x00, 0u);
 570:main.c        **** //   I2C_1_I2CMasterSendRestart(0x4C,I2C_1_I2C_READ_XFER_MODE, 0u);
 571:main.c        **** //   //I2C_1_I2CMasterReadByte(I2C_1_I2C_ACK_DATA,(uint8 *) &read_buff[0],100u);
 572:main.c        **** //   I2C_1_I2CMasterReadByte(I2C_1_I2C_NAK_DATA,(uint8 *) &sensorData.localTemp,0u);
 573:main.c        **** //   I2C_1_I2CMasterSendStop(0u);
 574:main.c        **** //    
 575:main.c        **** //////  READ remote sensor 1 TMP432A
 576:main.c        **** //  I2C_1_I2CMasterSendStart(0x4C, I2C_1_I2C_WRITE_XFER_MODE, 0u);
 577:main.c        **** //   I2C_1_I2CMasterWriteByte(0x01, 0u);
 578:main.c        **** //   I2C_1_I2CMasterSendRestart(0x4C,I2C_1_I2C_READ_XFER_MODE, 0u);
 579:main.c        **** //   //I2C_1_I2CMasterReadByte(I2C_1_I2C_ACK_DATA,(uint8 *) &read_buff[0],100u);
 580:main.c        **** //   I2C_1_I2CMasterReadByte(I2C_1_I2C_NAK_DATA,(uint8 *) &sensorData.remoteTemp1,0u);
 581:main.c        **** //   I2C_1_I2CMasterSendStop(0u);
 582:main.c        **** ////
 583:main.c        **** ////
 584:main.c        **** //////  READ remote sensor 2   TMP432A
 585:main.c        **** //  I2C_1_I2CMasterSendStart(0x4C, I2C_1_I2C_WRITE_XFER_MODE, 0u);
 586:main.c        **** //   I2C_1_I2CMasterWriteByte(0x23, 0u);
 587:main.c        **** //   I2C_1_I2CMasterSendRestart(0x4C,I2C_1_I2C_READ_XFER_MODE, 0u);
 588:main.c        **** //   //I2C_1_I2CMasterReadByte(I2C_1_I2C_ACK_DATA,(uint8 *) &read_buff[0],100u);
 589:main.c        **** //   I2C_1_I2CMasterReadByte(I2C_1_I2C_NAK_DATA,(uint8 *) &sensorData.remoteTemp2,0u);
 590:main.c        **** //   I2C_1_I2CMasterSendStop(0u);
 591:main.c        **** ////
 592:main.c        **** ////
 593:main.c        **** ////
 594:main.c        **** ////
 595:main.c        **** //sprintf(str, "Sensor 1 temperature is %d\n", sensorData.localTemp-64);
 596:main.c        **** //MyUART_PutString(str);
 597:main.c        **** //
 598:main.c        **** //sprintf(str, "Sensor 1 Remote temperature 1 is %d \n", (sensorData.remoteTemp1-64));
ARM GAS  C:\Users\sergio\AppData\Local\Temp\ccqEDlrG.s 			page 51


 599:main.c        **** //MyUART_PutString(str);
 600:main.c        **** //
 601:main.c        **** //
 602:main.c        **** //sprintf(str, "Sensor 1 Remote temperature 2 is %d \n", (sensorData.remoteTemp2-64));
 603:main.c        **** //MyUART_PutString(str);
 604:main.c        **** //
 605:main.c        **** //
 606:main.c        **** ////
 607:main.c        **** //////   ID  TMP432B
 608:main.c        **** //   I2C_1_I2CMasterSendStart(0x4D, I2C_1_I2C_WRITE_XFER_MODE, 0u);
 609:main.c        **** //if ((I2C_1_I2CMasterStatus() & I2C_1_I2C_MSTAT_ERR_ADDR_NAK)==1){ MyUART_PutString("slave NACK ad
 610:main.c        **** //   I2C_1_I2CMasterWriteByte(0xFD, 0u); // check ID 
 611:main.c        **** //if ((I2C_1_I2CMasterStatus() & I2C_1_I2C_MSTAT_WR_CMPLT)==1){ MyUART_PutString("writing error\n")
 612:main.c        **** //   I2C_1_I2CMasterSendRestart(0x4D,I2C_1_I2C_READ_XFER_MODE, 0u);
 613:main.c        **** //temp2 =0;
 614:main.c        **** //   I2C_1_I2CMasterReadByte(I2C_1_I2C_NAK_DATA,(uint8 *) &temp2, 0u);
 615:main.c        **** //if ((I2C_1_I2CMasterStatus() & I2C_1_I2C_MSTAT_RD_CMPLT)==1){ MyUART_PutString("reading error\n")
 616:main.c        **** //   I2C_1_I2CMasterSendStop(0);
 617:main.c        **** //
 618:main.c        **** //
 619:main.c        **** //  sprintf(str, "\n\nTMP432B           ID: %x\n", temp2);
 620:main.c        **** //    MyUART_PutString(str);
 621:main.c        **** //
 622:main.c        **** ////temp = tempR1 = tempR2 = 0;
 623:main.c        **** //  //READ local sensor  2  TMP432B
 624:main.c        **** //   I2C_1_I2CMasterSendStart(0x4D, I2C_1_I2C_WRITE_XFER_MODE, 0u);
 625:main.c        **** //   I2C_1_I2CMasterWriteByte(0x00, 0u);
 626:main.c        **** //   I2C_1_I2CMasterSendRestart(0x4D,I2C_1_I2C_READ_XFER_MODE, 0u);
 627:main.c        **** //   //I2C_1_I2CMasterReadByte(I2C_1_I2C_ACK_DATA,(uint8 *) &read_buff[0],100u);
 628:main.c        **** //   I2C_1_I2CMasterReadByte(I2C_1_I2C_NAK_DATA,(uint8 *) &temp2,0u);
 629:main.c        **** //   I2C_1_I2CMasterSendStop(0u);
 630:main.c        **** //
 631:main.c        **** ////  READ remote 2 sensor 1 TMP432B
 632:main.c        **** //  I2C_1_I2CMasterSendStart(0x4D, I2C_1_I2C_WRITE_XFER_MODE, 0u);
 633:main.c        **** //   I2C_1_I2CMasterWriteByte(0x01, 0u);
 634:main.c        **** //   I2C_1_I2CMasterSendRestart(0x4D,I2C_1_I2C_READ_XFER_MODE, 0u);
 635:main.c        **** //   //I2C_1_I2CMasterReadByte(I2C_1_I2C_ACK_DATA,(uint8 *) &read_buff[0],100u);
 636:main.c        **** //   I2C_1_I2CMasterReadByte(I2C_1_I2C_NAK_DATA,(uint8 *) &sensorData.remoteTemp3,0u);
 637:main.c        **** //   I2C_1_I2CMasterSendStop(0u);
 638:main.c        **** //
 639:main.c        **** //
 640:main.c        **** ////  READ remote 2 sensor 2  TMP432B
 641:main.c        **** //  I2C_1_I2CMasterSendStart(0x4D, I2C_1_I2C_WRITE_XFER_MODE, 0u);
 642:main.c        **** //   I2C_1_I2CMasterWriteByte(0x23, 0u);
 643:main.c        **** //   I2C_1_I2CMasterSendRestart(0x4D,I2C_1_I2C_READ_XFER_MODE, 0u);
 644:main.c        **** //   //I2C_1_I2CMasterReadByte(I2C_1_I2C_ACK_DATA,(uint8 *) &read_buff[0],100u);
 645:main.c        **** //   I2C_1_I2CMasterReadByte(I2C_1_I2C_NAK_DATA,(uint8 *) &sensorData.remoteTemp4,0u);
 646:main.c        **** //   I2C_1_I2CMasterSendStop(0u);
 647:main.c        **** //
 648:main.c        **** //
 649:main.c        **** ////sensorData.localTemp = (sensorData.localTemp+temp2)/2;
 650:main.c        **** //
 651:main.c        **** //sprintf(str, "Sensor 2 temperature is %d\n", (temp2-64));
 652:main.c        **** //MyUART_PutString(str);
 653:main.c        **** //
 654:main.c        **** //sprintf(str, "Sensor 2 Remote temperature 1 is %d \n", (sensorData.remoteTemp3-64));
 655:main.c        **** //MyUART_PutString(str);
ARM GAS  C:\Users\sergio\AppData\Local\Temp\ccqEDlrG.s 			page 52


 656:main.c        **** //
 657:main.c        **** //
 658:main.c        **** //sprintf(str, "Sensor 2 Remote temperature 2 is %d \n\n\n\n", (sensorData.remoteTemp4-64));
 659:main.c        **** //MyUART_PutString(str);
 660:main.c        **** //
 661:main.c        **** //
 662:main.c        **** //
 663:main.c        **** ///*  ---------------------------- ACCELEROMETER -----------------------------------   */
 664:main.c        **** //
 665:main.c        **** //uint8 xLSB;
 666:main.c        **** //uint8 xMSB;
 667:main.c        **** //uint8 yLSB;
 668:main.c        **** //uint8 yMSB;
 669:main.c        **** //uint8 zLSB;
 670:main.c        **** //uint8 zMSB;
 671:main.c        **** //
 672:main.c        **** //I2C_1_I2CMasterSendStart(0x18,I2C_1_I2C_WRITE_XFER_MODE, 100u);
 673:main.c        **** //I2C_1_I2CMasterWriteByte(0x02, 100u);
 674:main.c        **** //I2C_1_I2CMasterSendRestart(0x18, I2C_1_I2C_READ_XFER_MODE, 100u);
 675:main.c        **** //I2C_1_I2CMasterReadByte(I2C_1_I2C_NAK_DATA,(uint8 *) &xLSB ,100u);
 676:main.c        **** //I2C_1_I2CMasterSendStop(100u);
 677:main.c        **** //
 678:main.c        **** //I2C_1_I2CMasterSendStart(0x18,I2C_1_I2C_WRITE_XFER_MODE, 100u);
 679:main.c        **** //I2C_1_I2CMasterWriteByte(0x03, 100u);
 680:main.c        **** //I2C_1_I2CMasterSendRestart(0x18, I2C_1_I2C_READ_XFER_MODE, 100u);
 681:main.c        **** //I2C_1_I2CMasterReadByte(I2C_1_I2C_NAK_DATA,(uint8 *) &xMSB ,100u);
 682:main.c        **** //I2C_1_I2CMasterSendStop(100u);
 683:main.c        **** //
 684:main.c        **** //I2C_1_I2CMasterSendStart(0x18,I2C_1_I2C_WRITE_XFER_MODE, 100u);
 685:main.c        **** //I2C_1_I2CMasterWriteByte(0x04, 100u);
 686:main.c        **** //I2C_1_I2CMasterSendRestart(0x18, I2C_1_I2C_READ_XFER_MODE, 100u);
 687:main.c        **** //I2C_1_I2CMasterReadByte(I2C_1_I2C_NAK_DATA,(uint8 *) &yLSB ,100u);
 688:main.c        **** //I2C_1_I2CMasterSendStop(100u);
 689:main.c        **** //
 690:main.c        **** //I2C_1_I2CMasterSendStart(0x18,I2C_1_I2C_WRITE_XFER_MODE, 100u);
 691:main.c        **** //I2C_1_I2CMasterWriteByte(0x05, 100u);
 692:main.c        **** //I2C_1_I2CMasterSendRestart(0x18, I2C_1_I2C_READ_XFER_MODE, 100u);
 693:main.c        **** //I2C_1_I2CMasterReadByte(I2C_1_I2C_NAK_DATA,(uint8 *) &yMSB ,100u);
 694:main.c        **** //I2C_1_I2CMasterSendStop(100u);
 695:main.c        **** //
 696:main.c        **** //I2C_1_I2CMasterSendStart(0x18,I2C_1_I2C_WRITE_XFER_MODE, 100u);
 697:main.c        **** //I2C_1_I2CMasterWriteByte(0x06, 100u);
 698:main.c        **** //I2C_1_I2CMasterSendRestart(0x18, I2C_1_I2C_READ_XFER_MODE, 100u);
 699:main.c        **** //I2C_1_I2CMasterReadByte(I2C_1_I2C_NAK_DATA,(uint8 *) &zLSB ,100u);
 700:main.c        **** //I2C_1_I2CMasterSendStop(100u);
 701:main.c        **** //
 702:main.c        **** //I2C_1_I2CMasterSendStart(0x18,I2C_1_I2C_WRITE_XFER_MODE, 100u);
 703:main.c        **** //I2C_1_I2CMasterWriteByte(0x07, 100u);
 704:main.c        **** //I2C_1_I2CMasterSendRestart(0x18, I2C_1_I2C_READ_XFER_MODE, 100u);
 705:main.c        **** //I2C_1_I2CMasterReadByte(I2C_1_I2C_NAK_DATA,(uint8 *) &zMSB ,100u);
 706:main.c        **** //I2C_1_I2CMasterSendStop(100u);
 707:main.c        **** //
 708:main.c        **** //sensorData.accX = (xMSB );
 709:main.c        **** //sensorData.accY = (yMSB );
 710:main.c        **** //sensorData.accZ = (zMSB );
 711:main.c        **** //
 712:main.c        **** //
ARM GAS  C:\Users\sergio\AppData\Local\Temp\ccqEDlrG.s 			page 53


 713:main.c        **** //
 714:main.c        **** //sprintf(str,"\nX: %d %d    12 bit x: %d\n", xMSB, xLSB, sensorData.accX);
 715:main.c        **** //MyUART_PutString(str);
 716:main.c        **** //sprintf(str,"y: %d %d      12 bit y: %d\n", yMSB, yLSB, sensorData.accY);
 717:main.c        **** //MyUART_PutString(str);
 718:main.c        **** //sprintf(str,"Z: %d %d      12 bit z: %d\n\n\n", zMSB, zLSB, sensorData.accZ);
 719:main.c        **** //MyUART_PutString(str);
 720:main.c        **** //
 721:main.c        **** //// ---------------  Read humidity ---------------
 722:main.c        **** //read_buff[0]=0;
 723:main.c        **** //read_buff[1]=0;
 724:main.c        **** //I2C_1_I2CMasterSendStart(0x18,I2C_1_I2C_WRITE_XFER_MODE, 0u);
 725:main.c        **** //I2C_1_I2CMasterWriteByte(0x07, 0u);
 726:main.c        **** //I2C_1_I2CMasterSendRestart(0x18, I2C_1_I2C_READ_XFER_MODE, 0u);
 727:main.c        **** //I2C_1_I2CMasterReadByte(I2C_1_I2C_ACK_DATA,(uint8 *) &read_buff[0] ,0u);
 728:main.c        **** //I2C_1_I2CMasterReadByte(I2C_1_I2C_NAK_DATA,(uint8 *) &read_buff[1] ,0u);
 729:main.c        **** //I2C_1_I2CMasterSendStop(0u);
 730:main.c        **** //
 731:main.c        **** //uint16 rh = ((read_buff[0] << 8) | read_buff[1]);
 732:main.c        **** //
 733:main.c        **** //sensorData.humidity = ((125 * rh)/65536)-6; 
 734:main.c        **** //
 735:main.c        **** //sprintf(str, "\nThe humidity is %d\n", sensorData.humidity);
 736:main.c        **** //MyUART_PutString(str);
 737:main.c        **** 
 738:main.c        **** // ---------------------  Read thermostat pins ---------------------
 739:main.c        **** 
 740:main.c        ****  gpioPins = read_thermostat_pins();
 2139              		.loc 1 740 0
 2140 00dc FFF7FEFF 		bl	read_thermostat_pins
 2141 00e0 0300     		movs	r3, r0
 2142 00e2 1A00     		movs	r2, r3
 2143 00e4 B04B     		ldr	r3, .L100+24
 2144 00e6 1A70     		strb	r2, [r3]
 741:main.c        ****  comp = (gpioPins & 0x04)== 0x04? 1:0;
 2145              		.loc 1 741 0
 2146 00e8 AF4B     		ldr	r3, .L100+24
 2147 00ea 1B78     		ldrb	r3, [r3]
 2148 00ec 1A00     		movs	r2, r3
 2149 00ee 0423     		movs	r3, #4
 2150 00f0 1340     		ands	r3, r2
 2151 00f2 5A1E     		subs	r2, r3, #1
 2152 00f4 9341     		sbcs	r3, r3, r2
 2153 00f6 DAB2     		uxtb	r2, r3
 2154 00f8 4723     		movs	r3, #71
 2155 00fa FB18     		adds	r3, r7, r3
 2156 00fc 1A70     		strb	r2, [r3]
 742:main.c        ****  fanH = (gpioPins & 0x08) == 0x08? 1:0;
 2157              		.loc 1 742 0
 2158 00fe AA4B     		ldr	r3, .L100+24
 2159 0100 1B78     		ldrb	r3, [r3]
 2160 0102 1A00     		movs	r2, r3
 2161 0104 0823     		movs	r3, #8
 2162 0106 1340     		ands	r3, r2
 2163 0108 5A1E     		subs	r2, r3, #1
 2164 010a 9341     		sbcs	r3, r3, r2
 2165 010c DAB2     		uxtb	r2, r3
ARM GAS  C:\Users\sergio\AppData\Local\Temp\ccqEDlrG.s 			page 54


 2166 010e 4523     		movs	r3, #69
 2167 0110 FB18     		adds	r3, r7, r3
 2168 0112 1A70     		strb	r2, [r3]
 743:main.c        ****  fanL = (gpioPins & 0x10) == 0x10? 1:0;
 2169              		.loc 1 743 0
 2170 0114 A44B     		ldr	r3, .L100+24
 2171 0116 1B78     		ldrb	r3, [r3]
 2172 0118 1A00     		movs	r2, r3
 2173 011a 1023     		movs	r3, #16
 2174 011c 1340     		ands	r3, r2
 2175 011e 5A1E     		subs	r2, r3, #1
 2176 0120 9341     		sbcs	r3, r3, r2
 2177 0122 DAB2     		uxtb	r2, r3
 2178 0124 4623     		movs	r3, #70
 2179 0126 FB18     		adds	r3, r7, r3
 2180 0128 1A70     		strb	r2, [r3]
 744:main.c        **** 
 745:main.c        **** 
 746:main.c        **** sprintf(str, "\nThermostast pins are 0x%x com%x, Lf%x, Hf%x\n", gpioPins, comp, fanL, fanH);
 2181              		.loc 1 746 0
 2182 012a 9F4B     		ldr	r3, .L100+24
 2183 012c 1B78     		ldrb	r3, [r3]
 2184 012e 1D00     		movs	r5, r3
 2185 0130 4723     		movs	r3, #71
 2186 0132 FB18     		adds	r3, r7, r3
 2187 0134 1C78     		ldrb	r4, [r3]
 2188 0136 4623     		movs	r3, #70
 2189 0138 FB18     		adds	r3, r7, r3
 2190 013a 1B78     		ldrb	r3, [r3]
 2191 013c 4522     		movs	r2, #69
 2192 013e BA18     		adds	r2, r7, r2
 2193 0140 1278     		ldrb	r2, [r2]
 2194 0142 9A49     		ldr	r1, .L100+28
 2195 0144 381D     		adds	r0, r7, #4
 2196 0146 0192     		str	r2, [sp, #4]
 2197 0148 0093     		str	r3, [sp]
 2198 014a 2300     		movs	r3, r4
 2199 014c 2A00     		movs	r2, r5
 2200 014e FFF7FEFF 		bl	sprintf
 747:main.c        **** MyUART_PutString(str);
 2201              		.loc 1 747 0
 2202 0152 3B1D     		adds	r3, r7, #4
 2203 0154 1800     		movs	r0, r3
 2204 0156 FFF7FEFF 		bl	MyUART_PutString
 748:main.c        **** 
 749:main.c        **** 
 750:main.c        **** //// ------------------------------- power sensors check version  -----------------------
 751:main.c        **** 
 752:main.c        **** //        read_power_chips(ADDR_POWER1);
 753:main.c        **** //        sprintf(str, "\nComp volt: %d  freq: %d  current: %lu\n", sensorData.voltCompressor, sens
 754:main.c        **** //        MyUART_PutString(str);
 755:main.c        **** //        
 756:main.c        **** //        read_power_chips(ADDR_POWER2);
 757:main.c        **** //        sprintf(str, "\nLow Fan volt: %d  freq: %d  current: %lu\n", sensorData.volt, sensorData.
 758:main.c        **** //        MyUART_PutString(str);
 759:main.c        **** //        
 760:main.c        **** //        read_power_chips(ADDR_POWER3);
ARM GAS  C:\Users\sergio\AppData\Local\Temp\ccqEDlrG.s 			page 55


 761:main.c        **** //        sprintf(str, "\nLow Fan volt: %d  freq: %d  current: %lu\n", sensorData.voltFan, sensorDa
 762:main.c        **** //        MyUART_PutString(str);
 763:main.c        **** 
 764:main.c        ****   // } //end of  if adc result is > 1500 turn regulator
 765:main.c        **** 
 766:main.c        **** // --------------- AIR FLOW ------------
 767:main.c        **** 
 768:main.c        ****     //read_Air_Flow();
 769:main.c        **** 
 770:main.c        **** // ----- BLE CODE ----------
 771:main.c        **** 
 772:main.c        **** 
 773:main.c        ****      if(bleConnected == 1){ ///
 2205              		.loc 1 773 0
 2206 015a 954B     		ldr	r3, .L100+32
 2207 015c 1B78     		ldrb	r3, [r3]
 2208 015e 012B     		cmp	r3, #1
 2209 0160 24D1     		bne	.L65
 774:main.c        ****                 RED_Write(1);
 2210              		.loc 1 774 0
 2211 0162 0120     		movs	r0, #1
 2212 0164 FFF7FEFF 		bl	RED_Write
 775:main.c        ****                 
 776:main.c        ****             updateNotificationCCCD();
 2213              		.loc 1 776 0
 2214 0168 FFF7FEFF 		bl	updateNotificationCCCD
 777:main.c        ****             
 778:main.c        ****             if(isNotify == 1){
 2215              		.loc 1 778 0
 2216 016c 914B     		ldr	r3, .L100+36
 2217 016e 1B78     		ldrb	r3, [r3]
 2218 0170 012B     		cmp	r3, #1
 2219 0172 13D1     		bne	.L66
 779:main.c        ****                 GREEN_Write(1);
 2220              		.loc 1 779 0
 2221 0174 0120     		movs	r0, #1
 2222 0176 FFF7FEFF 		bl	GREEN_Write
 780:main.c        ****                 if(CyBle_GattGetBusStatus() == CYBLE_STACK_STATE_FREE){
 2223              		.loc 1 780 0
 2224 017a 8F4B     		ldr	r3, .L100+40
 2225 017c 1B78     		ldrb	r3, [r3]
 2226 017e DBB2     		uxtb	r3, r3
 2227 0180 002B     		cmp	r3, #0
 2228 0182 22D1     		bne	.L69
 781:main.c        ****                  BLUE_Write(!BLUE_Read());
 2229              		.loc 1 781 0
 2230 0184 FFF7FEFF 		bl	BLUE_Read
 2231 0188 0300     		movs	r3, r0
 2232 018a 5A42     		rsbs	r2, r3, #0
 2233 018c 5341     		adcs	r3, r3, r2
 2234 018e DBB2     		uxtb	r3, r3
 2235 0190 1800     		movs	r0, r3
 2236 0192 FFF7FEFF 		bl	BLUE_Write
 782:main.c        ****                     SendDataNotify();
 2237              		.loc 1 782 0
 2238 0196 FFF7FEFF 		bl	SendDataNotify
 2239 019a 16E0     		b	.L69
ARM GAS  C:\Users\sergio\AppData\Local\Temp\ccqEDlrG.s 			page 56


 2240              	.L66:
 783:main.c        ****                  //BLUE_Write(1);
 784:main.c        ****                }
 785:main.c        ****             } // end of notification
 786:main.c        ****             else{
 787:main.c        ****                 thermo.ambientTemp = sensorData.localTemp;
 2241              		.loc 1 787 0
 2242 019c 874B     		ldr	r3, .L100+44
 2243 019e 1A78     		ldrb	r2, [r3]
 2244 01a0 7C4B     		ldr	r3, .L100+4
 2245 01a2 1A71     		strb	r2, [r3, #4]
 788:main.c        ****                 
 789:main.c        ****                 GREEN_Write(0);
 2246              		.loc 1 789 0
 2247 01a4 0020     		movs	r0, #0
 2248 01a6 FFF7FEFF 		bl	GREEN_Write
 2249 01aa 0EE0     		b	.L69
 2250              	.L65:
 790:main.c        ****                 
 791:main.c        ****             } //end of read/write 
 792:main.c        ****         } // end ble connected if  
 793:main.c        ****     else{
 794:main.c        ****         RED_Write(!RED_Read());
 2251              		.loc 1 794 0
 2252 01ac FFF7FEFF 		bl	RED_Read
 2253 01b0 0300     		movs	r3, r0
 2254 01b2 5A42     		rsbs	r2, r3, #0
 2255 01b4 5341     		adcs	r3, r3, r2
 2256 01b6 DBB2     		uxtb	r3, r3
 2257 01b8 1800     		movs	r0, r3
 2258 01ba FFF7FEFF 		bl	RED_Write
 795:main.c        ****         GREEN_Write(1);
 2259              		.loc 1 795 0
 2260 01be 0120     		movs	r0, #1
 2261 01c0 FFF7FEFF 		bl	GREEN_Write
 796:main.c        ****         BLUE_Write(1);
 2262              		.loc 1 796 0
 2263 01c4 0120     		movs	r0, #1
 2264 01c6 FFF7FEFF 		bl	BLUE_Write
 2265              	.L69:
 797:main.c        ****     }
 798:main.c        ****     interruptFlag = 0;
 2266              		.loc 1 798 0 discriminator 2
 2267 01ca 734B     		ldr	r3, .L100+8
 2268 01cc 0022     		movs	r2, #0
 2269 01ce 1A60     		str	r2, [r3]
 2270              	.L63:
 2271              	.LBE4:
 799:main.c        ****     }// end if int flag
 800:main.c        **** 
 801:main.c        **** // --------------------   control relays and high switch  -----------------
 802:main.c        **** //  0x04 comp  0x08 low fan   0x10 high  fan  gipo masks for checking pins
 803:main.c        **** 
 804:main.c        **** if (bleConnected == 1){
 2272              		.loc 1 804 0
 2273 01d0 774B     		ldr	r3, .L100+32
 2274 01d2 1B78     		ldrb	r3, [r3]
ARM GAS  C:\Users\sergio\AppData\Local\Temp\ccqEDlrG.s 			page 57


 2275 01d4 012B     		cmp	r3, #1
 2276 01d6 00D0     		beq	.LCB1794
 2277 01d8 2FE1     		b	.L70	@long jump
 2278              	.LCB1794:
 805:main.c        **** 
 806:main.c        ****         if(thermo.power == 1){
 2279              		.loc 1 806 0
 2280 01da 6E4B     		ldr	r3, .L100+4
 2281 01dc 5B79     		ldrb	r3, [r3, #5]
 2282 01de 012B     		cmp	r3, #1
 2283 01e0 4ED1     		bne	.L71
 807:main.c        ****             if(thermo.compressor == 1){
 2284              		.loc 1 807 0
 2285 01e2 6C4B     		ldr	r3, .L100+4
 2286 01e4 1B78     		ldrb	r3, [r3]
 2287 01e6 012B     		cmp	r3, #1
 2288 01e8 29D1     		bne	.L72
 808:main.c        ****                 //if the temperature of ambient is higher than the temprature set turn on the compr
 809:main.c        ****                 if(sensorData.localTemp > (thermo.setTemperature+2)){
 2289              		.loc 1 809 0
 2290 01ea 744B     		ldr	r3, .L100+44
 2291 01ec 1B78     		ldrb	r3, [r3]
 2292 01ee 1A00     		movs	r2, r3
 2293 01f0 684B     		ldr	r3, .L100+4
 2294 01f2 DB78     		ldrb	r3, [r3, #3]
 2295 01f4 0233     		adds	r3, r3, #2
 2296 01f6 9A42     		cmp	r2, r3
 2297 01f8 0CDD     		ble	.L73
 810:main.c        ****                     if(sensorData.localTemp > thermo.setTemperature){
 2298              		.loc 1 810 0
 2299 01fa 704B     		ldr	r3, .L100+44
 2300 01fc 1A78     		ldrb	r2, [r3]
 2301 01fe 654B     		ldr	r3, .L100+4
 2302 0200 DB78     		ldrb	r3, [r3, #3]
 2303 0202 9A42     		cmp	r2, r3
 2304 0204 21D9     		bls	.L76
 811:main.c        ****                        RelayC_3_Write(0);
 2305              		.loc 1 811 0
 2306 0206 0020     		movs	r0, #0
 2307 0208 FFF7FEFF 		bl	RelayC_3_Write
 812:main.c        ****                        Comp_out_Write(1);
 2308              		.loc 1 812 0
 2309 020c 0120     		movs	r0, #1
 2310 020e FFF7FEFF 		bl	Comp_out_Write
 2311 0212 1AE0     		b	.L76
 2312              	.L73:
 813:main.c        ****                     }
 814:main.c        ****                 }
 815:main.c        ****                 // if the ambient temperature is equal or less to the set temperature turn off the 
 816:main.c        ****                 else if(sensorData.localTemp <= (thermo.setTemperature-2)){
 2313              		.loc 1 816 0
 2314 0214 694B     		ldr	r3, .L100+44
 2315 0216 1B78     		ldrb	r3, [r3]
 2316 0218 1A00     		movs	r2, r3
 2317 021a 5E4B     		ldr	r3, .L100+4
 2318 021c DB78     		ldrb	r3, [r3, #3]
 2319 021e 023B     		subs	r3, r3, #2
ARM GAS  C:\Users\sergio\AppData\Local\Temp\ccqEDlrG.s 			page 58


 2320 0220 9A42     		cmp	r2, r3
 2321 0222 12DC     		bgt	.L76
 817:main.c        ****                     if(sensorData.localTemp <= thermo.setTemperature){
 2322              		.loc 1 817 0
 2323 0224 654B     		ldr	r3, .L100+44
 2324 0226 1A78     		ldrb	r2, [r3]
 2325 0228 5A4B     		ldr	r3, .L100+4
 2326 022a DB78     		ldrb	r3, [r3, #3]
 2327 022c 9A42     		cmp	r2, r3
 2328 022e 0CD8     		bhi	.L76
 818:main.c        ****                       RelayC_3_Write(1);
 2329              		.loc 1 818 0
 2330 0230 0120     		movs	r0, #1
 2331 0232 FFF7FEFF 		bl	RelayC_3_Write
 819:main.c        ****                       Comp_out_Write(0);
 2332              		.loc 1 819 0
 2333 0236 0020     		movs	r0, #0
 2334 0238 FFF7FEFF 		bl	Comp_out_Write
 2335 023c 05E0     		b	.L76
 2336              	.L72:
 820:main.c        ****                     }
 821:main.c        ****                 }
 822:main.c        ****              } // end comp on
 823:main.c        ****            else{
 824:main.c        ****              RelayC_3_Write(1);
 2337              		.loc 1 824 0
 2338 023e 0120     		movs	r0, #1
 2339 0240 FFF7FEFF 		bl	RelayC_3_Write
 825:main.c        ****              Comp_out_Write(0);
 2340              		.loc 1 825 0
 2341 0244 0020     		movs	r0, #0
 2342 0246 FFF7FEFF 		bl	Comp_out_Write
 2343              	.L76:
 826:main.c        ****            }
 827:main.c        ****             
 828:main.c        ****             RelayLF_1_Write(!thermo.fanLow);
 2344              		.loc 1 828 0
 2345 024a 524B     		ldr	r3, .L100+4
 2346 024c 5B78     		ldrb	r3, [r3, #1]
 2347 024e 5A42     		rsbs	r2, r3, #0
 2348 0250 5341     		adcs	r3, r3, r2
 2349 0252 DBB2     		uxtb	r3, r3
 2350 0254 1800     		movs	r0, r3
 2351 0256 FFF7FEFF 		bl	RelayLF_1_Write
 829:main.c        ****             LowF_out_Write(thermo.fanLow);
 2352              		.loc 1 829 0
 2353 025a 4E4B     		ldr	r3, .L100+4
 2354 025c 5B78     		ldrb	r3, [r3, #1]
 2355 025e 1800     		movs	r0, r3
 2356 0260 FFF7FEFF 		bl	LowF_out_Write
 830:main.c        ****             
 831:main.c        ****             RelayHF_2_Write(!thermo.fanHigh);
 2357              		.loc 1 831 0
 2358 0264 4B4B     		ldr	r3, .L100+4
 2359 0266 9B78     		ldrb	r3, [r3, #2]
 2360 0268 5A42     		rsbs	r2, r3, #0
 2361 026a 5341     		adcs	r3, r3, r2
ARM GAS  C:\Users\sergio\AppData\Local\Temp\ccqEDlrG.s 			page 59


 2362 026c DBB2     		uxtb	r3, r3
 2363 026e 1800     		movs	r0, r3
 2364 0270 FFF7FEFF 		bl	RelayHF_2_Write
 832:main.c        ****             LowF_out_Write(thermo.fanHigh);
 2365              		.loc 1 832 0
 2366 0274 474B     		ldr	r3, .L100+4
 2367 0276 9B78     		ldrb	r3, [r3, #2]
 2368 0278 1800     		movs	r0, r3
 2369 027a FFF7FEFF 		bl	LowF_out_Write
 2370 027e 06E7     		b	.L99
 2371              	.L71:
 833:main.c        ****         }
 834:main.c        ****         else if(thermo.power == 0){
 2372              		.loc 1 834 0
 2373 0280 444B     		ldr	r3, .L100+4
 2374 0282 5B79     		ldrb	r3, [r3, #5]
 2375 0284 002B     		cmp	r3, #0
 2376 0286 12D1     		bne	.L78
 835:main.c        ****             RelayC_3_Write(1);
 2377              		.loc 1 835 0
 2378 0288 0120     		movs	r0, #1
 2379 028a FFF7FEFF 		bl	RelayC_3_Write
 836:main.c        ****             Comp_out_Write(0);
 2380              		.loc 1 836 0
 2381 028e 0020     		movs	r0, #0
 2382 0290 FFF7FEFF 		bl	Comp_out_Write
 837:main.c        ****             
 838:main.c        ****             RelayLF_1_Write(1);
 2383              		.loc 1 838 0
 2384 0294 0120     		movs	r0, #1
 2385 0296 FFF7FEFF 		bl	RelayLF_1_Write
 839:main.c        ****             LowF_out_Write(0);
 2386              		.loc 1 839 0
 2387 029a 0020     		movs	r0, #0
 2388 029c FFF7FEFF 		bl	LowF_out_Write
 840:main.c        ****             
 841:main.c        ****             RelayHF_2_Write(1);
 2389              		.loc 1 841 0
 2390 02a0 0120     		movs	r0, #1
 2391 02a2 FFF7FEFF 		bl	RelayHF_2_Write
 842:main.c        ****             LowF_out_Write(0);
 2392              		.loc 1 842 0
 2393 02a6 0020     		movs	r0, #0
 2394 02a8 FFF7FEFF 		bl	LowF_out_Write
 2395 02ac EFE6     		b	.L99
 2396              	.L78:
 843:main.c        ****         }
 844:main.c        ****         
 845:main.c        ****         else if(thermo.test ==1){
 2397              		.loc 1 845 0
 2398 02ae 394B     		ldr	r3, .L100+4
 2399 02b0 9B79     		ldrb	r3, [r3, #6]
 2400 02b2 012B     		cmp	r3, #1
 2401 02b4 00D0     		beq	.LCB1900
 2402 02b6 EAE6     		b	.L99	@long jump
 2403              	.LCB1900:
 846:main.c        ****             if(thermo.power == 0){
ARM GAS  C:\Users\sergio\AppData\Local\Temp\ccqEDlrG.s 			page 60


 2404              		.loc 1 846 0
 2405 02b8 364B     		ldr	r3, .L100+4
 2406 02ba 5B79     		ldrb	r3, [r3, #5]
 2407 02bc 002B     		cmp	r3, #0
 2408 02be 12D1     		bne	.L79
 847:main.c        ****                  RelayC_3_Write(1);
 2409              		.loc 1 847 0
 2410 02c0 0120     		movs	r0, #1
 2411 02c2 FFF7FEFF 		bl	RelayC_3_Write
 848:main.c        ****                  Comp_out_Write(0);
 2412              		.loc 1 848 0
 2413 02c6 0020     		movs	r0, #0
 2414 02c8 FFF7FEFF 		bl	Comp_out_Write
 849:main.c        ****                 
 850:main.c        ****                  RelayLF_1_Write(1);
 2415              		.loc 1 850 0
 2416 02cc 0120     		movs	r0, #1
 2417 02ce FFF7FEFF 		bl	RelayLF_1_Write
 851:main.c        ****                  LowF_out_Write(0);
 2418              		.loc 1 851 0
 2419 02d2 0020     		movs	r0, #0
 2420 02d4 FFF7FEFF 		bl	LowF_out_Write
 852:main.c        ****             
 853:main.c        ****                  RelayHF_2_Write(1);
 2421              		.loc 1 853 0
 2422 02d8 0120     		movs	r0, #1
 2423 02da FFF7FEFF 		bl	RelayHF_2_Write
 854:main.c        ****                  LowF_out_Write(0);
 2424              		.loc 1 854 0
 2425 02de 0020     		movs	r0, #0
 2426 02e0 FFF7FEFF 		bl	LowF_out_Write
 2427 02e4 D3E6     		b	.L99
 2428              	.L79:
 855:main.c        ****             }
 856:main.c        ****                 
 857:main.c        ****             else if(thermo.power == 1){
 2429              		.loc 1 857 0
 2430 02e6 2B4B     		ldr	r3, .L100+4
 2431 02e8 5B79     		ldrb	r3, [r3, #5]
 2432 02ea 012B     		cmp	r3, #1
 2433 02ec 00D0     		beq	.LCB1924
 2434 02ee CEE6     		b	.L99	@long jump
 2435              	.LCB1924:
 858:main.c        ****                 if(thermo.compressor == 1){
 2436              		.loc 1 858 0
 2437 02f0 284B     		ldr	r3, .L100+4
 2438 02f2 1B78     		ldrb	r3, [r3]
 2439 02f4 012B     		cmp	r3, #1
 2440 02f6 1ED1     		bne	.L80
 859:main.c        ****                     if(sensorData.voltCompressor < 2){
 2441              		.loc 1 859 0
 2442 02f8 304B     		ldr	r3, .L100+44
 2443 02fa DB88     		ldrh	r3, [r3, #6]
 2444 02fc 012B     		cmp	r3, #1
 2445 02fe 16D8     		bhi	.L81
 860:main.c        ****                         if(sensorData.currentCompressor < 1000){
 2446              		.loc 1 860 0
ARM GAS  C:\Users\sergio\AppData\Local\Temp\ccqEDlrG.s 			page 61


 2447 0300 2E4B     		ldr	r3, .L100+44
 2448 0302 DB68     		ldr	r3, [r3, #12]
 2449 0304 2E4A     		ldr	r2, .L100+48
 2450 0306 9342     		cmp	r3, r2
 2451 0308 0DD8     		bhi	.L82
 861:main.c        ****                             RelayC_3_Write(!thermo.compressor);
 2452              		.loc 1 861 0
 2453 030a 224B     		ldr	r3, .L100+4
 2454 030c 1B78     		ldrb	r3, [r3]
 2455 030e 5A42     		rsbs	r2, r3, #0
 2456 0310 5341     		adcs	r3, r3, r2
 2457 0312 DBB2     		uxtb	r3, r3
 2458 0314 1800     		movs	r0, r3
 2459 0316 FFF7FEFF 		bl	RelayC_3_Write
 862:main.c        ****                             Comp_out_Write(thermo.compressor);
 2460              		.loc 1 862 0
 2461 031a 1E4B     		ldr	r3, .L100+4
 2462 031c 1B78     		ldrb	r3, [r3]
 2463 031e 1800     		movs	r0, r3
 2464 0320 FFF7FEFF 		bl	Comp_out_Write
 2465 0324 11E0     		b	.L85
 2466              	.L82:
 863:main.c        ****                         }
 864:main.c        ****                         else{
 865:main.c        ****                             errorPower.err_Comp_curr = 1;
 2467              		.loc 1 865 0
 2468 0326 274B     		ldr	r3, .L100+52
 2469 0328 0122     		movs	r2, #1
 2470 032a 5A70     		strb	r2, [r3, #1]
 2471 032c 0DE0     		b	.L85
 2472              	.L81:
 866:main.c        ****                         }
 867:main.c        ****                     }
 868:main.c        ****                     else{
 869:main.c        ****                         errorPower.err_Comp_volt = 1; 
 2473              		.loc 1 869 0
 2474 032e 254B     		ldr	r3, .L100+52
 2475 0330 0122     		movs	r2, #1
 2476 0332 1A70     		strb	r2, [r3]
 2477 0334 09E0     		b	.L85
 2478              	.L80:
 870:main.c        ****                     }
 871:main.c        ****                 }
 872:main.c        ****                 else if(thermo.compressor == 0){
 2479              		.loc 1 872 0
 2480 0336 174B     		ldr	r3, .L100+4
 2481 0338 1B78     		ldrb	r3, [r3]
 2482 033a 002B     		cmp	r3, #0
 2483 033c 05D1     		bne	.L85
 873:main.c        ****                        RelayC_3_Write(1);
 2484              		.loc 1 873 0
 2485 033e 0120     		movs	r0, #1
 2486 0340 FFF7FEFF 		bl	RelayC_3_Write
 874:main.c        ****                        Comp_out_Write(0);
 2487              		.loc 1 874 0
 2488 0344 0020     		movs	r0, #0
 2489 0346 FFF7FEFF 		bl	Comp_out_Write
ARM GAS  C:\Users\sergio\AppData\Local\Temp\ccqEDlrG.s 			page 62


 2490              	.L85:
 875:main.c        ****                 }
 876:main.c        ****                 
 877:main.c        ****                  if(thermo.fanLow == 1){
 2491              		.loc 1 877 0
 2492 034a 124B     		ldr	r3, .L100+4
 2493 034c 5B78     		ldrb	r3, [r3, #1]
 2494 034e 012B     		cmp	r3, #1
 2495 0350 3AD1     		bne	.L86
 878:main.c        ****                     if(sensorData.volt < 2){
 2496              		.loc 1 878 0
 2497 0352 1A4B     		ldr	r3, .L100+44
 2498 0354 5B89     		ldrh	r3, [r3, #10]
 2499 0356 012B     		cmp	r3, #1
 2500 0358 16D8     		bhi	.L87
 879:main.c        ****                         if(sensorData.current < 1000){
 2501              		.loc 1 879 0
 2502 035a 184B     		ldr	r3, .L100+44
 2503 035c 5B69     		ldr	r3, [r3, #20]
 2504 035e 184A     		ldr	r2, .L100+48
 2505 0360 9342     		cmp	r3, r2
 2506 0362 0DD8     		bhi	.L88
 880:main.c        ****               
 881:main.c        ****                             RelayLF_1_Write(!thermo.fanLow);
 2507              		.loc 1 881 0
 2508 0364 0B4B     		ldr	r3, .L100+4
 2509 0366 5B78     		ldrb	r3, [r3, #1]
 2510 0368 5A42     		rsbs	r2, r3, #0
 2511 036a 5341     		adcs	r3, r3, r2
 2512 036c DBB2     		uxtb	r3, r3
 2513 036e 1800     		movs	r0, r3
 2514 0370 FFF7FEFF 		bl	RelayLF_1_Write
 882:main.c        ****                             LowF_out_Write(thermo.fanLow);
 2515              		.loc 1 882 0
 2516 0374 074B     		ldr	r3, .L100+4
 2517 0376 5B78     		ldrb	r3, [r3, #1]
 2518 0378 1800     		movs	r0, r3
 2519 037a FFF7FEFF 		bl	LowF_out_Write
 2520 037e 2DE0     		b	.L91
 2521              	.L88:
 883:main.c        ****                         }
 884:main.c        ****                         else{
 885:main.c        ****                             errorPower.err_LFan_curr = 1;
 2522              		.loc 1 885 0
 2523 0380 104B     		ldr	r3, .L100+52
 2524 0382 0122     		movs	r2, #1
 2525 0384 DA70     		strb	r2, [r3, #3]
 2526 0386 29E0     		b	.L91
 2527              	.L87:
 886:main.c        ****                         }
 887:main.c        ****                     }
 888:main.c        ****                     else{
 889:main.c        ****                         errorPower.err_LFan_volt = 1; 
 2528              		.loc 1 889 0
 2529 0388 0E4B     		ldr	r3, .L100+52
 2530 038a 0122     		movs	r2, #1
 2531 038c 9A70     		strb	r2, [r3, #2]
ARM GAS  C:\Users\sergio\AppData\Local\Temp\ccqEDlrG.s 			page 63


 2532 038e 25E0     		b	.L91
 2533              	.L101:
 2534              		.align	2
 2535              	.L100:
 2536 0390 00000000 		.word	my_interrupt
 2537 0394 00000000 		.word	thermo
 2538 0398 00000000 		.word	interruptFlag
 2539 039c 00000000 		.word	adcRead
 2540 03a0 3C000000 		.word	.LC28
 2541 03a4 00000000 		.word	uartStr
 2542 03a8 00000000 		.word	gpioPins
 2543 03ac 6C000000 		.word	.LC32
 2544 03b0 00000000 		.word	bleConnected
 2545 03b4 00000000 		.word	isNotify
 2546 03b8 00000000 		.word	cyBle_busyStatus
 2547 03bc 00000000 		.word	sensorData
 2548 03c0 E7030000 		.word	999
 2549 03c4 00000000 		.word	errorPower
 2550              	.L86:
 890:main.c        ****                     }
 891:main.c        ****                 }
 892:main.c        ****                 else if(thermo.fanLow == 0){
 2551              		.loc 1 892 0
 2552 03c8 4C4B     		ldr	r3, .L102
 2553 03ca 5B78     		ldrb	r3, [r3, #1]
 2554 03cc 002B     		cmp	r3, #0
 2555 03ce 05D1     		bne	.L91
 893:main.c        ****                     RelayLF_1_Write(1);
 2556              		.loc 1 893 0
 2557 03d0 0120     		movs	r0, #1
 2558 03d2 FFF7FEFF 		bl	RelayLF_1_Write
 894:main.c        ****                     LowF_out_Write(0);
 2559              		.loc 1 894 0
 2560 03d6 0020     		movs	r0, #0
 2561 03d8 FFF7FEFF 		bl	LowF_out_Write
 2562              	.L91:
 895:main.c        ****                 }
 896:main.c        ****                 
 897:main.c        ****                 if(thermo.fanHigh == 1){
 2563              		.loc 1 897 0
 2564 03dc 474B     		ldr	r3, .L102
 2565 03de 9B78     		ldrb	r3, [r3, #2]
 2566 03e0 012B     		cmp	r3, #1
 2567 03e2 1ED1     		bne	.L92
 898:main.c        ****                  if(sensorData.voltFan < 2){
 2568              		.loc 1 898 0
 2569 03e4 464B     		ldr	r3, .L102+4
 2570 03e6 1B89     		ldrh	r3, [r3, #8]
 2571 03e8 012B     		cmp	r3, #1
 2572 03ea 16D8     		bhi	.L93
 899:main.c        ****                     if(sensorData.currentFan < 1000){
 2573              		.loc 1 899 0
 2574 03ec 444B     		ldr	r3, .L102+4
 2575 03ee 1B69     		ldr	r3, [r3, #16]
 2576 03f0 444A     		ldr	r2, .L102+8
 2577 03f2 9342     		cmp	r3, r2
 2578 03f4 0DD8     		bhi	.L94
ARM GAS  C:\Users\sergio\AppData\Local\Temp\ccqEDlrG.s 			page 64


 900:main.c        ****                     
 901:main.c        ****                     RelayHF_2_Write(!thermo.fanHigh);
 2579              		.loc 1 901 0
 2580 03f6 414B     		ldr	r3, .L102
 2581 03f8 9B78     		ldrb	r3, [r3, #2]
 2582 03fa 5A42     		rsbs	r2, r3, #0
 2583 03fc 5341     		adcs	r3, r3, r2
 2584 03fe DBB2     		uxtb	r3, r3
 2585 0400 1800     		movs	r0, r3
 2586 0402 FFF7FEFF 		bl	RelayHF_2_Write
 902:main.c        ****                     HighF_out_Write(thermo.fanHigh);
 2587              		.loc 1 902 0
 2588 0406 3D4B     		ldr	r3, .L102
 2589 0408 9B78     		ldrb	r3, [r3, #2]
 2590 040a 1800     		movs	r0, r3
 2591 040c FFF7FEFF 		bl	HighF_out_Write
 2592 0410 3DE6     		b	.L99
 2593              	.L94:
 903:main.c        ****                     }
 904:main.c        ****                     else{
 905:main.c        ****                             errorPower.err_HFan_curr = 1;
 2594              		.loc 1 905 0
 2595 0412 3D4B     		ldr	r3, .L102+12
 2596 0414 0122     		movs	r2, #1
 2597 0416 5A71     		strb	r2, [r3, #5]
 2598 0418 39E6     		b	.L99
 2599              	.L93:
 906:main.c        ****                         }
 907:main.c        ****                  }
 908:main.c        ****                   else{
 909:main.c        ****                      errorPower.err_HFan_volt = 1;
 2600              		.loc 1 909 0
 2601 041a 3B4B     		ldr	r3, .L102+12
 2602 041c 0122     		movs	r2, #1
 2603 041e 1A71     		strb	r2, [r3, #4]
 2604 0420 35E6     		b	.L99
 2605              	.L92:
 910:main.c        ****                   }
 911:main.c        ****                 }
 912:main.c        ****                  else if(thermo.fanHigh == 0){
 2606              		.loc 1 912 0
 2607 0422 364B     		ldr	r3, .L102
 2608 0424 9B78     		ldrb	r3, [r3, #2]
 2609 0426 002B     		cmp	r3, #0
 2610 0428 00D0     		beq	.LCB2090
 2611 042a 30E6     		b	.L99	@long jump
 2612              	.LCB2090:
 913:main.c        ****                     RelayHF_2_Write(1);
 2613              		.loc 1 913 0
 2614 042c 0120     		movs	r0, #1
 2615 042e FFF7FEFF 		bl	RelayHF_2_Write
 914:main.c        ****                     HighF_out_Write(0);
 2616              		.loc 1 914 0
 2617 0432 0020     		movs	r0, #0
 2618 0434 FFF7FEFF 		bl	HighF_out_Write
 2619 0438 29E6     		b	.L99
 2620              	.L70:
ARM GAS  C:\Users\sergio\AppData\Local\Temp\ccqEDlrG.s 			page 65


 915:main.c        ****                 }
 916:main.c        ****                 
 917:main.c        ****             } // end of power on
 918:main.c        ****         } // end of test
 919:main.c        ****   
 920:main.c        **** } // end of ble connected 
 921:main.c        **** else{
 922:main.c        ****    
 923:main.c        ****     
 924:main.c        ****     RelayC_3_Write(0);
 2621              		.loc 1 924 0
 2622 043a 0020     		movs	r0, #0
 2623 043c FFF7FEFF 		bl	RelayC_3_Write
 925:main.c        ****     Comp_out_Write(1);
 2624              		.loc 1 925 0
 2625 0440 0120     		movs	r0, #1
 2626 0442 FFF7FEFF 		bl	Comp_out_Write
 926:main.c        ****     thermo.compressor = comp;
 2627              		.loc 1 926 0
 2628 0446 2D4B     		ldr	r3, .L102
 2629 0448 4722     		movs	r2, #71
 2630 044a BA18     		adds	r2, r7, r2
 2631 044c 1278     		ldrb	r2, [r2]
 2632 044e 1A70     		strb	r2, [r3]
 927:main.c        ****     sprintf(uartStr,"read pin switch comp: %d\n", Comp_out_Read());
 2633              		.loc 1 927 0
 2634 0450 FFF7FEFF 		bl	Comp_out_Read
 2635 0454 0300     		movs	r3, r0
 2636 0456 1A00     		movs	r2, r3
 2637 0458 2C49     		ldr	r1, .L102+16
 2638 045a 2D4B     		ldr	r3, .L102+20
 2639 045c 1800     		movs	r0, r3
 2640 045e FFF7FEFF 		bl	sprintf
 928:main.c        ****     MyUART_PutString(uartStr);
 2641              		.loc 1 928 0
 2642 0462 2B4B     		ldr	r3, .L102+20
 2643 0464 1800     		movs	r0, r3
 2644 0466 FFF7FEFF 		bl	MyUART_PutString
 929:main.c        ****     
 930:main.c        ****     if((fanL == 1) && (fanH == 0)){
 2645              		.loc 1 930 0
 2646 046a 4623     		movs	r3, #70
 2647 046c FB18     		adds	r3, r7, r3
 2648 046e 1B78     		ldrb	r3, [r3]
 2649 0470 012B     		cmp	r3, #1
 2650 0472 1DD1     		bne	.L98
 2651              		.loc 1 930 0 is_stmt 0 discriminator 1
 2652 0474 4523     		movs	r3, #69
 2653 0476 FB18     		adds	r3, r7, r3
 2654 0478 1B78     		ldrb	r3, [r3]
 2655 047a 002B     		cmp	r3, #0
 2656 047c 18D1     		bne	.L98
 931:main.c        ****         RelayLF_1_Write(0);
 2657              		.loc 1 931 0 is_stmt 1
 2658 047e 0020     		movs	r0, #0
 2659 0480 FFF7FEFF 		bl	RelayLF_1_Write
 932:main.c        ****         LowF_out_Write(0);
ARM GAS  C:\Users\sergio\AppData\Local\Temp\ccqEDlrG.s 			page 66


 2660              		.loc 1 932 0
 2661 0484 0020     		movs	r0, #0
 2662 0486 FFF7FEFF 		bl	LowF_out_Write
 933:main.c        ****         thermo.fanLow = fanL;
 2663              		.loc 1 933 0
 2664 048a 1C4B     		ldr	r3, .L102
 2665 048c 4622     		movs	r2, #70
 2666 048e BA18     		adds	r2, r7, r2
 2667 0490 1278     		ldrb	r2, [r2]
 2668 0492 5A70     		strb	r2, [r3, #1]
 934:main.c        ****         sprintf(uartStr,"read pin switch low F: %d\n", LowF_out_Read());
 2669              		.loc 1 934 0
 2670 0494 FFF7FEFF 		bl	LowF_out_Read
 2671 0498 0300     		movs	r3, r0
 2672 049a 1A00     		movs	r2, r3
 2673 049c 1D49     		ldr	r1, .L102+24
 2674 049e 1C4B     		ldr	r3, .L102+20
 2675 04a0 1800     		movs	r0, r3
 2676 04a2 FFF7FEFF 		bl	sprintf
 935:main.c        ****         MyUART_PutString(uartStr);
 2677              		.loc 1 935 0
 2678 04a6 1A4B     		ldr	r3, .L102+20
 2679 04a8 1800     		movs	r0, r3
 2680 04aa FFF7FEFF 		bl	MyUART_PutString
 2681 04ae 23E0     		b	.L97
 2682              	.L98:
 936:main.c        ****     }
 937:main.c        ****     else if((fanL ==0) && (fanH == 1)){
 2683              		.loc 1 937 0
 2684 04b0 4623     		movs	r3, #70
 2685 04b2 FB18     		adds	r3, r7, r3
 2686 04b4 1B78     		ldrb	r3, [r3]
 2687 04b6 002B     		cmp	r3, #0
 2688 04b8 00D0     		beq	.LCB2155
 2689 04ba E8E5     		b	.L99	@long jump
 2690              	.LCB2155:
 2691              		.loc 1 937 0 is_stmt 0 discriminator 1
 2692 04bc 4523     		movs	r3, #69
 2693 04be FB18     		adds	r3, r7, r3
 2694 04c0 1B78     		ldrb	r3, [r3]
 2695 04c2 012B     		cmp	r3, #1
 2696 04c4 00D0     		beq	.LCB2160
 2697 04c6 E2E5     		b	.L99	@long jump
 2698              	.LCB2160:
 938:main.c        ****         RelayHF_2_Write(0);
 2699              		.loc 1 938 0 is_stmt 1
 2700 04c8 0020     		movs	r0, #0
 2701 04ca FFF7FEFF 		bl	RelayHF_2_Write
 939:main.c        ****         HighF_out_Write(1);//fanH);
 2702              		.loc 1 939 0
 2703 04ce 0120     		movs	r0, #1
 2704 04d0 FFF7FEFF 		bl	HighF_out_Write
 940:main.c        ****         thermo.fanHigh = fanH;
 2705              		.loc 1 940 0
 2706 04d4 094B     		ldr	r3, .L102
 2707 04d6 4522     		movs	r2, #69
 2708 04d8 BA18     		adds	r2, r7, r2
ARM GAS  C:\Users\sergio\AppData\Local\Temp\ccqEDlrG.s 			page 67


 2709 04da 1278     		ldrb	r2, [r2]
 2710 04dc 9A70     		strb	r2, [r3, #2]
 941:main.c        ****         sprintf(uartStr,"read pin switch high F: %d\n", HighF_out_Read());
 2711              		.loc 1 941 0
 2712 04de FFF7FEFF 		bl	HighF_out_Read
 2713 04e2 0300     		movs	r3, r0
 2714 04e4 1A00     		movs	r2, r3
 2715 04e6 0C49     		ldr	r1, .L102+28
 2716 04e8 094B     		ldr	r3, .L102+20
 2717 04ea 1800     		movs	r0, r3
 2718 04ec FFF7FEFF 		bl	sprintf
 942:main.c        ****         MyUART_PutString(uartStr);
 2719              		.loc 1 942 0
 2720 04f0 074B     		ldr	r3, .L102+20
 2721 04f2 1800     		movs	r0, r3
 2722 04f4 FFF7FEFF 		bl	MyUART_PutString
 2723              	.L97:
 943:main.c        ****     }
 944:main.c        ****    }
 945:main.c        **** 
 946:main.c        **** //        send_Error_Power_to_Phone();
 947:main.c        **** //        send_Thermo_to_phone();
 948:main.c        **** //        CyBle_ProcessEvents();
 949:main.c        ****    
 950:main.c        ****     } // end for loop
 2724              		.loc 1 950 0 discriminator 8
 2725 04f8 C9E5     		b	.L99
 2726              	.L103:
 2727 04fa C046     		.align	2
 2728              	.L102:
 2729 04fc 00000000 		.word	thermo
 2730 0500 00000000 		.word	sensorData
 2731 0504 E7030000 		.word	999
 2732 0508 00000000 		.word	errorPower
 2733 050c 9C000000 		.word	.LC39
 2734 0510 00000000 		.word	uartStr
 2735 0514 B8000000 		.word	.LC41
 2736 0518 D4000000 		.word	.LC43
 2737              		.cfi_endproc
 2738              	.LFE51:
 2739              		.size	main, .-main
 2740              		.text
 2741              	.Letext0:
 2742              		.file 2 "c:\\program files (x86)\\cypress\\psoc creator\\4.2\\psoc creator\\import\\gnu\\arm\\5.4.
 2743              		.file 3 "c:\\program files (x86)\\cypress\\psoc creator\\4.2\\psoc creator\\import\\gnu\\arm\\5.4.
 2744              		.file 4 "Generated_Source\\PSoC4/cytypes.h"
 2745              		.file 5 "Generated_Source\\PSoC4/BLE_1_StackGatt.h"
 2746              		.file 6 "Generated_Source\\PSoC4/BLE_1_StackGattServer.h"
 2747              		.file 7 "Generated_Source\\PSoC4/BLE_1_Stack.h"
 2748              		.file 8 "Generated_Source\\PSoC4/BLE_1_eventHandler.h"
 2749              		.section	.debug_info,"",%progbits
 2750              	.Ldebug_info0:
 2751 0000 1A0A0000 		.4byte	0xa1a
 2752 0004 0400     		.2byte	0x4
 2753 0006 00000000 		.4byte	.Ldebug_abbrev0
 2754 000a 04       		.byte	0x4
 2755 000b 01       		.uleb128 0x1
ARM GAS  C:\Users\sergio\AppData\Local\Temp\ccqEDlrG.s 			page 68


 2756 000c C9070000 		.4byte	.LASF199
 2757 0010 0C       		.byte	0xc
 2758 0011 2E0E0000 		.4byte	.LASF200
 2759 0015 EA030000 		.4byte	.LASF201
 2760 0019 00000000 		.4byte	.Ldebug_ranges0+0
 2761 001d 00000000 		.4byte	0
 2762 0021 00000000 		.4byte	.Ldebug_line0
 2763 0025 02       		.uleb128 0x2
 2764 0026 01       		.byte	0x1
 2765 0027 06       		.byte	0x6
 2766 0028 63020000 		.4byte	.LASF0
 2767 002c 03       		.uleb128 0x3
 2768 002d D2000000 		.4byte	.LASF9
 2769 0031 02       		.byte	0x2
 2770 0032 1D       		.byte	0x1d
 2771 0033 37000000 		.4byte	0x37
 2772 0037 02       		.uleb128 0x2
 2773 0038 01       		.byte	0x1
 2774 0039 08       		.byte	0x8
 2775 003a 560B0000 		.4byte	.LASF1
 2776 003e 02       		.uleb128 0x2
 2777 003f 02       		.byte	0x2
 2778 0040 05       		.byte	0x5
 2779 0041 B20B0000 		.4byte	.LASF2
 2780 0045 02       		.uleb128 0x2
 2781 0046 02       		.byte	0x2
 2782 0047 07       		.byte	0x7
 2783 0048 60060000 		.4byte	.LASF3
 2784 004c 02       		.uleb128 0x2
 2785 004d 04       		.byte	0x4
 2786 004e 05       		.byte	0x5
 2787 004f FF000000 		.4byte	.LASF4
 2788 0053 02       		.uleb128 0x2
 2789 0054 04       		.byte	0x4
 2790 0055 07       		.byte	0x7
 2791 0056 9B050000 		.4byte	.LASF5
 2792 005a 02       		.uleb128 0x2
 2793 005b 08       		.byte	0x8
 2794 005c 05       		.byte	0x5
 2795 005d B6030000 		.4byte	.LASF6
 2796 0061 02       		.uleb128 0x2
 2797 0062 08       		.byte	0x8
 2798 0063 07       		.byte	0x7
 2799 0064 28010000 		.4byte	.LASF7
 2800 0068 04       		.uleb128 0x4
 2801 0069 04       		.byte	0x4
 2802 006a 05       		.byte	0x5
 2803 006b 696E7400 		.ascii	"int\000"
 2804 006f 02       		.uleb128 0x2
 2805 0070 04       		.byte	0x4
 2806 0071 07       		.byte	0x7
 2807 0072 4A050000 		.4byte	.LASF8
 2808 0076 03       		.uleb128 0x3
 2809 0077 820E0000 		.4byte	.LASF10
 2810 007b 03       		.byte	0x3
 2811 007c 18       		.byte	0x18
 2812 007d 2C000000 		.4byte	0x2c
ARM GAS  C:\Users\sergio\AppData\Local\Temp\ccqEDlrG.s 			page 69


 2813 0081 05       		.uleb128 0x5
 2814 0082 B0030000 		.4byte	.LASF11
 2815 0086 04       		.byte	0x4
 2816 0087 E401     		.2byte	0x1e4
 2817 0089 37000000 		.4byte	0x37
 2818 008d 05       		.uleb128 0x5
 2819 008e 640B0000 		.4byte	.LASF12
 2820 0092 04       		.byte	0x4
 2821 0093 E501     		.2byte	0x1e5
 2822 0095 45000000 		.4byte	0x45
 2823 0099 05       		.uleb128 0x5
 2824 009a 21040000 		.4byte	.LASF13
 2825 009e 04       		.byte	0x4
 2826 009f E601     		.2byte	0x1e6
 2827 00a1 53000000 		.4byte	0x53
 2828 00a5 05       		.uleb128 0x5
 2829 00a6 D5060000 		.4byte	.LASF14
 2830 00aa 04       		.byte	0x4
 2831 00ab E701     		.2byte	0x1e7
 2832 00ad 25000000 		.4byte	0x25
 2833 00b1 02       		.uleb128 0x2
 2834 00b2 04       		.byte	0x4
 2835 00b3 04       		.byte	0x4
 2836 00b4 E90A0000 		.4byte	.LASF15
 2837 00b8 02       		.uleb128 0x2
 2838 00b9 08       		.byte	0x8
 2839 00ba 04       		.byte	0x4
 2840 00bb E3030000 		.4byte	.LASF16
 2841 00bf 02       		.uleb128 0x2
 2842 00c0 01       		.byte	0x1
 2843 00c1 08       		.byte	0x8
 2844 00c2 C00C0000 		.4byte	.LASF17
 2845 00c6 06       		.uleb128 0x6
 2846 00c7 81000000 		.4byte	0x81
 2847 00cb 02       		.uleb128 0x2
 2848 00cc 08       		.byte	0x8
 2849 00cd 04       		.byte	0x4
 2850 00ce 88090000 		.4byte	.LASF18
 2851 00d2 02       		.uleb128 0x2
 2852 00d3 04       		.byte	0x4
 2853 00d4 07       		.byte	0x7
 2854 00d5 60090000 		.4byte	.LASF19
 2855 00d9 07       		.uleb128 0x7
 2856 00da 04       		.byte	0x4
 2857 00db 08       		.uleb128 0x8
 2858 00dc 01       		.byte	0x1
 2859 00dd 37000000 		.4byte	0x37
 2860 00e1 07       		.byte	0x7
 2861 00e2 3501     		.2byte	0x135
 2862 00e4 99020000 		.4byte	0x299
 2863 00e8 09       		.uleb128 0x9
 2864 00e9 73060000 		.4byte	.LASF20
 2865 00ed 00       		.byte	0
 2866 00ee 09       		.uleb128 0x9
 2867 00ef 6F020000 		.4byte	.LASF21
 2868 00f3 01       		.byte	0x1
 2869 00f4 09       		.uleb128 0x9
ARM GAS  C:\Users\sergio\AppData\Local\Temp\ccqEDlrG.s 			page 70


 2870 00f5 ED000000 		.4byte	.LASF22
 2871 00f9 02       		.byte	0x2
 2872 00fa 09       		.uleb128 0x9
 2873 00fb B40D0000 		.4byte	.LASF23
 2874 00ff 03       		.byte	0x3
 2875 0100 09       		.uleb128 0x9
 2876 0101 52010000 		.4byte	.LASF24
 2877 0105 04       		.byte	0x4
 2878 0106 09       		.uleb128 0x9
 2879 0107 1E000000 		.4byte	.LASF25
 2880 010b 05       		.byte	0x5
 2881 010c 09       		.uleb128 0x9
 2882 010d A8060000 		.4byte	.LASF26
 2883 0111 06       		.byte	0x6
 2884 0112 09       		.uleb128 0x9
 2885 0113 CF040000 		.4byte	.LASF27
 2886 0117 20       		.byte	0x20
 2887 0118 09       		.uleb128 0x9
 2888 0119 B7020000 		.4byte	.LASF28
 2889 011d 21       		.byte	0x21
 2890 011e 09       		.uleb128 0x9
 2891 011f 18070000 		.4byte	.LASF29
 2892 0123 22       		.byte	0x22
 2893 0124 09       		.uleb128 0x9
 2894 0125 8E0D0000 		.4byte	.LASF30
 2895 0129 23       		.byte	0x23
 2896 012a 09       		.uleb128 0x9
 2897 012b 050A0000 		.4byte	.LASF31
 2898 012f 24       		.byte	0x24
 2899 0130 09       		.uleb128 0x9
 2900 0131 6A0C0000 		.4byte	.LASF32
 2901 0135 25       		.byte	0x25
 2902 0136 09       		.uleb128 0x9
 2903 0137 57030000 		.4byte	.LASF33
 2904 013b 26       		.byte	0x26
 2905 013c 09       		.uleb128 0x9
 2906 013d 3C070000 		.4byte	.LASF34
 2907 0141 27       		.byte	0x27
 2908 0142 09       		.uleb128 0x9
 2909 0143 E40C0000 		.4byte	.LASF35
 2910 0147 28       		.byte	0x28
 2911 0148 09       		.uleb128 0x9
 2912 0149 C4010000 		.4byte	.LASF36
 2913 014d 29       		.byte	0x29
 2914 014e 09       		.uleb128 0x9
 2915 014f CE050000 		.4byte	.LASF37
 2916 0153 2A       		.byte	0x2a
 2917 0154 09       		.uleb128 0x9
 2918 0155 8E020000 		.4byte	.LASF38
 2919 0159 2B       		.byte	0x2b
 2920 015a 09       		.uleb128 0x9
 2921 015b E00E0000 		.4byte	.LASF39
 2922 015f 2C       		.byte	0x2c
 2923 0160 09       		.uleb128 0x9
 2924 0161 EF010000 		.4byte	.LASF40
 2925 0165 2D       		.byte	0x2d
 2926 0166 09       		.uleb128 0x9
ARM GAS  C:\Users\sergio\AppData\Local\Temp\ccqEDlrG.s 			page 71


 2927 0167 6B0B0000 		.4byte	.LASF41
 2928 016b 2E       		.byte	0x2e
 2929 016c 09       		.uleb128 0x9
 2930 016d 1C0B0000 		.4byte	.LASF42
 2931 0171 2F       		.byte	0x2f
 2932 0172 09       		.uleb128 0x9
 2933 0173 E4090000 		.4byte	.LASF43
 2934 0177 30       		.byte	0x30
 2935 0178 09       		.uleb128 0x9
 2936 0179 780F0000 		.4byte	.LASF44
 2937 017d 31       		.byte	0x31
 2938 017e 09       		.uleb128 0x9
 2939 017f C3090000 		.4byte	.LASF45
 2940 0183 32       		.byte	0x32
 2941 0184 09       		.uleb128 0x9
 2942 0185 840C0000 		.4byte	.LASF46
 2943 0189 33       		.byte	0x33
 2944 018a 09       		.uleb128 0x9
 2945 018b AD050000 		.4byte	.LASF47
 2946 018f 34       		.byte	0x34
 2947 0190 09       		.uleb128 0x9
 2948 0191 B2040000 		.4byte	.LASF48
 2949 0195 35       		.byte	0x35
 2950 0196 09       		.uleb128 0x9
 2951 0197 96070000 		.4byte	.LASF49
 2952 019b 36       		.byte	0x36
 2953 019c 09       		.uleb128 0x9
 2954 019d D8080000 		.4byte	.LASF50
 2955 01a1 37       		.byte	0x37
 2956 01a2 09       		.uleb128 0x9
 2957 01a3 4E040000 		.4byte	.LASF51
 2958 01a7 40       		.byte	0x40
 2959 01a8 09       		.uleb128 0x9
 2960 01a9 64080000 		.4byte	.LASF52
 2961 01ad 41       		.byte	0x41
 2962 01ae 09       		.uleb128 0x9
 2963 01af C10F0000 		.4byte	.LASF53
 2964 01b3 42       		.byte	0x42
 2965 01b4 09       		.uleb128 0x9
 2966 01b5 92030000 		.4byte	.LASF54
 2967 01b9 43       		.byte	0x43
 2968 01ba 09       		.uleb128 0x9
 2969 01bb F7050000 		.4byte	.LASF55
 2970 01bf 44       		.byte	0x44
 2971 01c0 09       		.uleb128 0x9
 2972 01c1 BA0A0000 		.4byte	.LASF56
 2973 01c5 45       		.byte	0x45
 2974 01c6 09       		.uleb128 0x9
 2975 01c7 2B090000 		.4byte	.LASF57
 2976 01cb 46       		.byte	0x46
 2977 01cc 09       		.uleb128 0x9
 2978 01cd 8A060000 		.4byte	.LASF58
 2979 01d1 47       		.byte	0x47
 2980 01d2 09       		.uleb128 0x9
 2981 01d3 B90E0000 		.4byte	.LASF59
 2982 01d7 48       		.byte	0x48
 2983 01d8 09       		.uleb128 0x9
ARM GAS  C:\Users\sergio\AppData\Local\Temp\ccqEDlrG.s 			page 72


 2984 01d9 D8020000 		.4byte	.LASF60
 2985 01dd 49       		.byte	0x49
 2986 01de 09       		.uleb128 0x9
 2987 01df 00000000 		.4byte	.LASF61
 2988 01e3 4A       		.byte	0x4a
 2989 01e4 09       		.uleb128 0x9
 2990 01e5 C50C0000 		.4byte	.LASF62
 2991 01e9 4B       		.byte	0x4b
 2992 01ea 09       		.uleb128 0x9
 2993 01eb 7C070000 		.4byte	.LASF63
 2994 01ef 4C       		.byte	0x4c
 2995 01f0 09       		.uleb128 0x9
 2996 01f1 A9090000 		.4byte	.LASF64
 2997 01f5 4D       		.byte	0x4d
 2998 01f6 09       		.uleb128 0x9
 2999 01f7 13030000 		.4byte	.LASF65
 3000 01fb 4E       		.byte	0x4e
 3001 01fc 09       		.uleb128 0x9
 3002 01fd FB0B0000 		.4byte	.LASF66
 3003 0201 4F       		.byte	0x4f
 3004 0202 09       		.uleb128 0x9
 3005 0203 DA060000 		.4byte	.LASF67
 3006 0207 50       		.byte	0x50
 3007 0208 09       		.uleb128 0x9
 3008 0209 C4030000 		.4byte	.LASF68
 3009 020d 51       		.byte	0x51
 3010 020e 09       		.uleb128 0x9
 3011 020f 3F0A0000 		.4byte	.LASF69
 3012 0213 52       		.byte	0x52
 3013 0214 09       		.uleb128 0x9
 3014 0215 5B070000 		.4byte	.LASF70
 3015 0219 53       		.byte	0x53
 3016 021a 09       		.uleb128 0x9
 3017 021b 3C0C0000 		.4byte	.LASF71
 3018 021f 54       		.byte	0x54
 3019 0220 09       		.uleb128 0x9
 3020 0221 15060000 		.4byte	.LASF72
 3021 0225 55       		.byte	0x55
 3022 0226 09       		.uleb128 0x9
 3023 0227 23050000 		.4byte	.LASF73
 3024 022b 56       		.byte	0x56
 3025 022c 09       		.uleb128 0x9
 3026 022d 060D0000 		.4byte	.LASF74
 3027 0231 57       		.byte	0x57
 3028 0232 09       		.uleb128 0x9
 3029 0233 F9040000 		.4byte	.LASF75
 3030 0237 58       		.byte	0x58
 3031 0238 09       		.uleb128 0x9
 3032 0239 9E010000 		.4byte	.LASF76
 3033 023d 70       		.byte	0x70
 3034 023e 09       		.uleb128 0x9
 3035 023f 4D0F0000 		.4byte	.LASF77
 3036 0243 71       		.byte	0x71
 3037 0244 09       		.uleb128 0x9
 3038 0245 A0080000 		.4byte	.LASF78
 3039 0249 72       		.byte	0x72
 3040 024a 09       		.uleb128 0x9
ARM GAS  C:\Users\sergio\AppData\Local\Temp\ccqEDlrG.s 			page 73


 3041 024b 0D090000 		.4byte	.LASF79
 3042 024f 73       		.byte	0x73
 3043 0250 09       		.uleb128 0x9
 3044 0251 940A0000 		.4byte	.LASF80
 3045 0255 74       		.byte	0x74
 3046 0256 09       		.uleb128 0x9
 3047 0257 040F0000 		.4byte	.LASF81
 3048 025b 75       		.byte	0x75
 3049 025c 09       		.uleb128 0x9
 3050 025d 39060000 		.4byte	.LASF82
 3051 0261 76       		.byte	0x76
 3052 0262 09       		.uleb128 0x9
 3053 0263 F9060000 		.4byte	.LASF83
 3054 0267 77       		.byte	0x77
 3055 0268 09       		.uleb128 0x9
 3056 0269 2F0D0000 		.4byte	.LASF84
 3057 026d 78       		.byte	0x78
 3058 026e 09       		.uleb128 0x9
 3059 026f 6B0D0000 		.4byte	.LASF85
 3060 0273 79       		.byte	0x79
 3061 0274 09       		.uleb128 0x9
 3062 0275 8E040000 		.4byte	.LASF86
 3063 0279 7A       		.byte	0x7a
 3064 027a 09       		.uleb128 0x9
 3065 027b 97000000 		.4byte	.LASF87
 3066 027f FA       		.byte	0xfa
 3067 0280 09       		.uleb128 0x9
 3068 0281 66050000 		.4byte	.LASF88
 3069 0285 FB       		.byte	0xfb
 3070 0286 09       		.uleb128 0x9
 3071 0287 E90B0000 		.4byte	.LASF89
 3072 028b FC       		.byte	0xfc
 3073 028c 09       		.uleb128 0x9
 3074 028d DF0F0000 		.4byte	.LASF90
 3075 0291 FD       		.byte	0xfd
 3076 0292 09       		.uleb128 0x9
 3077 0293 40040000 		.4byte	.LASF91
 3078 0297 FF       		.byte	0xff
 3079 0298 00       		.byte	0
 3080 0299 0A       		.uleb128 0xa
 3081 029a 81000000 		.4byte	0x81
 3082 029e A9020000 		.4byte	0x2a9
 3083 02a2 0B       		.uleb128 0xb
 3084 02a3 D2000000 		.4byte	0xd2
 3085 02a7 05       		.byte	0x5
 3086 02a8 00       		.byte	0
 3087 02a9 0C       		.uleb128 0xc
 3088 02aa 04       		.byte	0x4
 3089 02ab 81000000 		.4byte	0x81
 3090 02af 0A       		.uleb128 0xa
 3091 02b0 81000000 		.4byte	0x81
 3092 02b4 BF020000 		.4byte	0x2bf
 3093 02b8 0B       		.uleb128 0xb
 3094 02b9 D2000000 		.4byte	0xd2
 3095 02bd 06       		.byte	0x6
 3096 02be 00       		.byte	0
 3097 02bf 05       		.uleb128 0x5
ARM GAS  C:\Users\sergio\AppData\Local\Temp\ccqEDlrG.s 			page 74


 3098 02c0 9C0F0000 		.4byte	.LASF92
 3099 02c4 05       		.byte	0x5
 3100 02c5 8901     		.2byte	0x189
 3101 02c7 8D000000 		.4byte	0x8d
 3102 02cb 0D       		.uleb128 0xd
 3103 02cc 02       		.byte	0x2
 3104 02cd 05       		.byte	0x5
 3105 02ce 9301     		.2byte	0x193
 3106 02d0 EF020000 		.4byte	0x2ef
 3107 02d4 0E       		.uleb128 0xe
 3108 02d5 68040000 		.4byte	.LASF93
 3109 02d9 05       		.byte	0x5
 3110 02da 9A01     		.2byte	0x19a
 3111 02dc 81000000 		.4byte	0x81
 3112 02e0 00       		.byte	0
 3113 02e1 0E       		.uleb128 0xe
 3114 02e2 B7070000 		.4byte	.LASF94
 3115 02e6 05       		.byte	0x5
 3116 02e7 A001     		.2byte	0x1a0
 3117 02e9 81000000 		.4byte	0x81
 3118 02ed 01       		.byte	0x1
 3119 02ee 00       		.byte	0
 3120 02ef 05       		.uleb128 0x5
 3121 02f0 6F000000 		.4byte	.LASF95
 3122 02f4 05       		.byte	0x5
 3123 02f5 A201     		.2byte	0x1a2
 3124 02f7 CB020000 		.4byte	0x2cb
 3125 02fb 0D       		.uleb128 0xd
 3126 02fc 08       		.byte	0x8
 3127 02fd 05       		.byte	0x5
 3128 02fe BE01     		.2byte	0x1be
 3129 0300 2C030000 		.4byte	0x32c
 3130 0304 0F       		.uleb128 0xf
 3131 0305 76616C00 		.ascii	"val\000"
 3132 0309 05       		.byte	0x5
 3133 030a C101     		.2byte	0x1c1
 3134 030c A9020000 		.4byte	0x2a9
 3135 0310 00       		.byte	0
 3136 0311 0F       		.uleb128 0xf
 3137 0312 6C656E00 		.ascii	"len\000"
 3138 0316 05       		.byte	0x5
 3139 0317 C401     		.2byte	0x1c4
 3140 0319 8D000000 		.4byte	0x8d
 3141 031d 04       		.byte	0x4
 3142 031e 0E       		.uleb128 0xe
 3143 031f AD020000 		.4byte	.LASF96
 3144 0323 05       		.byte	0x5
 3145 0324 CB01     		.2byte	0x1cb
 3146 0326 8D000000 		.4byte	0x8d
 3147 032a 06       		.byte	0x6
 3148 032b 00       		.byte	0
 3149 032c 05       		.uleb128 0x5
 3150 032d 3F010000 		.4byte	.LASF97
 3151 0331 05       		.byte	0x5
 3152 0332 CD01     		.2byte	0x1cd
 3153 0334 FB020000 		.4byte	0x2fb
 3154 0338 0D       		.uleb128 0xd
ARM GAS  C:\Users\sergio\AppData\Local\Temp\ccqEDlrG.s 			page 75


 3155 0339 0C       		.byte	0xc
 3156 033a 05       		.byte	0x5
 3157 033b D001     		.2byte	0x1d0
 3158 033d 5C030000 		.4byte	0x35c
 3159 0341 0E       		.uleb128 0xe
 3160 0342 F3040000 		.4byte	.LASF98
 3161 0346 05       		.byte	0x5
 3162 0347 D301     		.2byte	0x1d3
 3163 0349 2C030000 		.4byte	0x32c
 3164 034d 00       		.byte	0
 3165 034e 0E       		.uleb128 0xe
 3166 034f 71040000 		.4byte	.LASF99
 3167 0353 05       		.byte	0x5
 3168 0354 D601     		.2byte	0x1d6
 3169 0356 BF020000 		.4byte	0x2bf
 3170 035a 08       		.byte	0x8
 3171 035b 00       		.byte	0
 3172 035c 05       		.uleb128 0x5
 3173 035d 600A0000 		.4byte	.LASF100
 3174 0361 05       		.byte	0x5
 3175 0362 D801     		.2byte	0x1d8
 3176 0364 38030000 		.4byte	0x338
 3177 0368 03       		.uleb128 0x3
 3178 0369 69090000 		.4byte	.LASF101
 3179 036d 06       		.byte	0x6
 3180 036e 34       		.byte	0x34
 3181 036f 5C030000 		.4byte	0x35c
 3182 0373 10       		.uleb128 0x10
 3183 0374 10       		.byte	0x10
 3184 0375 06       		.byte	0x6
 3185 0376 8A       		.byte	0x8a
 3186 0377 94030000 		.4byte	0x394
 3187 037b 11       		.uleb128 0x11
 3188 037c 8C000000 		.4byte	.LASF102
 3189 0380 06       		.byte	0x6
 3190 0381 8D       		.byte	0x8d
 3191 0382 EF020000 		.4byte	0x2ef
 3192 0386 00       		.byte	0
 3193 0387 11       		.uleb128 0x11
 3194 0388 CA080000 		.4byte	.LASF103
 3195 038c 06       		.byte	0x6
 3196 038d 90       		.byte	0x90
 3197 038e 5C030000 		.4byte	0x35c
 3198 0392 04       		.byte	0x4
 3199 0393 00       		.byte	0
 3200 0394 03       		.uleb128 0x3
 3201 0395 71010000 		.4byte	.LASF104
 3202 0399 06       		.byte	0x6
 3203 039a 92       		.byte	0x92
 3204 039b 73030000 		.4byte	0x373
 3205 039f 08       		.uleb128 0x8
 3206 03a0 01       		.byte	0x1
 3207 03a1 37000000 		.4byte	0x37
 3208 03a5 08       		.byte	0x8
 3209 03a6 A808     		.2byte	0x8a8
 3210 03a8 CB030000 		.4byte	0x3cb
 3211 03ac 09       		.uleb128 0x9
ARM GAS  C:\Users\sergio\AppData\Local\Temp\ccqEDlrG.s 			page 76


 3212 03ad 45000000 		.4byte	.LASF105
 3213 03b1 00       		.byte	0
 3214 03b2 09       		.uleb128 0x9
 3215 03b3 8A0E0000 		.4byte	.LASF106
 3216 03b7 01       		.byte	0x1
 3217 03b8 09       		.uleb128 0x9
 3218 03b9 A30E0000 		.4byte	.LASF107
 3219 03bd 02       		.byte	0x2
 3220 03be 09       		.uleb128 0x9
 3221 03bf 33020000 		.4byte	.LASF108
 3222 03c3 03       		.byte	0x3
 3223 03c4 09       		.uleb128 0x9
 3224 03c5 31030000 		.4byte	.LASF109
 3225 03c9 04       		.byte	0x4
 3226 03ca 00       		.byte	0
 3227 03cb 05       		.uleb128 0x5
 3228 03cc 6C0E0000 		.4byte	.LASF110
 3229 03d0 08       		.byte	0x8
 3230 03d1 B608     		.2byte	0x8b6
 3231 03d3 9F030000 		.4byte	0x39f
 3232 03d7 10       		.uleb128 0x10
 3233 03d8 24       		.byte	0x24
 3234 03d9 01       		.byte	0x1
 3235 03da 2A       		.byte	0x2a
 3236 03db C4040000 		.4byte	0x4c4
 3237 03df 11       		.uleb128 0x11
 3238 03e0 36040000 		.4byte	.LASF111
 3239 03e4 01       		.byte	0x1
 3240 03e5 2C       		.byte	0x2c
 3241 03e6 81000000 		.4byte	0x81
 3242 03ea 00       		.byte	0
 3243 03eb 11       		.uleb128 0x11
 3244 03ec CC060000 		.4byte	.LASF112
 3245 03f0 01       		.byte	0x1
 3246 03f1 2D       		.byte	0x2d
 3247 03f2 81000000 		.4byte	0x81
 3248 03f6 01       		.byte	0x1
 3249 03f7 11       		.uleb128 0x11
 3250 03f8 27020000 		.4byte	.LASF113
 3251 03fc 01       		.byte	0x1
 3252 03fd 2E       		.byte	0x2e
 3253 03fe 81000000 		.4byte	0x81
 3254 0402 02       		.byte	0x2
 3255 0403 11       		.uleb128 0x11
 3256 0404 A60B0000 		.4byte	.LASF114
 3257 0408 01       		.byte	0x1
 3258 0409 2F       		.byte	0x2f
 3259 040a 81000000 		.4byte	0x81
 3260 040e 03       		.byte	0x3
 3261 040f 11       		.uleb128 0x11
 3262 0410 4B020000 		.4byte	.LASF115
 3263 0414 01       		.byte	0x1
 3264 0415 30       		.byte	0x30
 3265 0416 81000000 		.4byte	0x81
 3266 041a 04       		.byte	0x4
 3267 041b 11       		.uleb128 0x11
 3268 041c 57020000 		.4byte	.LASF116
ARM GAS  C:\Users\sergio\AppData\Local\Temp\ccqEDlrG.s 			page 77


 3269 0420 01       		.byte	0x1
 3270 0421 31       		.byte	0x31
 3271 0422 81000000 		.4byte	0x81
 3272 0426 05       		.byte	0x5
 3273 0427 11       		.uleb128 0x11
 3274 0428 8F010000 		.4byte	.LASF117
 3275 042c 01       		.byte	0x1
 3276 042d 33       		.byte	0x33
 3277 042e 8D000000 		.4byte	0x8d
 3278 0432 06       		.byte	0x6
 3279 0433 11       		.uleb128 0x11
 3280 0434 7F030000 		.4byte	.LASF118
 3281 0438 01       		.byte	0x1
 3282 0439 34       		.byte	0x34
 3283 043a 8D000000 		.4byte	0x8d
 3284 043e 08       		.byte	0x8
 3285 043f 11       		.uleb128 0x11
 3286 0440 89020000 		.4byte	.LASF119
 3287 0444 01       		.byte	0x1
 3288 0445 35       		.byte	0x35
 3289 0446 8D000000 		.4byte	0x8d
 3290 044a 0A       		.byte	0xa
 3291 044b 11       		.uleb128 0x11
 3292 044c 7C040000 		.4byte	.LASF120
 3293 0450 01       		.byte	0x1
 3294 0451 37       		.byte	0x37
 3295 0452 99000000 		.4byte	0x99
 3296 0456 0C       		.byte	0xc
 3297 0457 11       		.uleb128 0x11
 3298 0458 87030000 		.4byte	.LASF121
 3299 045c 01       		.byte	0x1
 3300 045d 38       		.byte	0x38
 3301 045e 99000000 		.4byte	0x99
 3302 0462 10       		.byte	0x10
 3303 0463 11       		.uleb128 0x11
 3304 0464 B20A0000 		.4byte	.LASF122
 3305 0468 01       		.byte	0x1
 3306 0469 39       		.byte	0x39
 3307 046a 99000000 		.4byte	0x99
 3308 046e 14       		.byte	0x14
 3309 046f 11       		.uleb128 0x11
 3310 0470 5D0C0000 		.4byte	.LASF123
 3311 0474 01       		.byte	0x1
 3312 0475 3B       		.byte	0x3b
 3313 0476 8D000000 		.4byte	0x8d
 3314 047a 18       		.byte	0x18
 3315 047b 11       		.uleb128 0x11
 3316 047c C6000000 		.4byte	.LASF124
 3317 0480 01       		.byte	0x1
 3318 0481 3C       		.byte	0x3c
 3319 0482 8D000000 		.4byte	0x8d
 3320 0486 1A       		.byte	0x1a
 3321 0487 11       		.uleb128 0x11
 3322 0488 210A0000 		.4byte	.LASF125
 3323 048c 01       		.byte	0x1
 3324 048d 3D       		.byte	0x3d
 3325 048e 8D000000 		.4byte	0x8d
ARM GAS  C:\Users\sergio\AppData\Local\Temp\ccqEDlrG.s 			page 78


 3326 0492 1C       		.byte	0x1c
 3327 0493 11       		.uleb128 0x11
 3328 0494 EF0A0000 		.4byte	.LASF126
 3329 0498 01       		.byte	0x1
 3330 0499 40       		.byte	0x40
 3331 049a 81000000 		.4byte	0x81
 3332 049e 1E       		.byte	0x1e
 3333 049f 11       		.uleb128 0x11
 3334 04a0 67010000 		.4byte	.LASF127
 3335 04a4 01       		.byte	0x1
 3336 04a5 41       		.byte	0x41
 3337 04a6 81000000 		.4byte	0x81
 3338 04aa 1F       		.byte	0x1f
 3339 04ab 11       		.uleb128 0x11
 3340 04ac 6C010000 		.4byte	.LASF128
 3341 04b0 01       		.byte	0x1
 3342 04b1 42       		.byte	0x42
 3343 04b2 81000000 		.4byte	0x81
 3344 04b6 20       		.byte	0x20
 3345 04b7 11       		.uleb128 0x11
 3346 04b8 E10A0000 		.4byte	.LASF129
 3347 04bc 01       		.byte	0x1
 3348 04bd 44       		.byte	0x44
 3349 04be 8D000000 		.4byte	0x8d
 3350 04c2 22       		.byte	0x22
 3351 04c3 00       		.byte	0
 3352 04c4 03       		.uleb128 0x3
 3353 04c5 61000000 		.4byte	.LASF130
 3354 04c9 01       		.byte	0x1
 3355 04ca 46       		.byte	0x46
 3356 04cb D7030000 		.4byte	0x3d7
 3357 04cf 10       		.uleb128 0x10
 3358 04d0 07       		.byte	0x7
 3359 04d1 01       		.byte	0x1
 3360 04d2 4A       		.byte	0x4a
 3361 04d3 2C050000 		.4byte	0x52c
 3362 04d7 11       		.uleb128 0x11
 3363 04d8 08010000 		.4byte	.LASF131
 3364 04dc 01       		.byte	0x1
 3365 04dd 4B       		.byte	0x4b
 3366 04de 81000000 		.4byte	0x81
 3367 04e2 00       		.byte	0
 3368 04e3 11       		.uleb128 0x11
 3369 04e4 82020000 		.4byte	.LASF132
 3370 04e8 01       		.byte	0x1
 3371 04e9 4C       		.byte	0x4c
 3372 04ea 81000000 		.4byte	0x81
 3373 04ee 01       		.byte	0x1
 3374 04ef 11       		.uleb128 0x11
 3375 04f0 7A0E0000 		.4byte	.LASF133
 3376 04f4 01       		.byte	0x1
 3377 04f5 4D       		.byte	0x4d
 3378 04f6 81000000 		.4byte	0x81
 3379 04fa 02       		.byte	0x2
 3380 04fb 11       		.uleb128 0x11
 3381 04fc 04030000 		.4byte	.LASF134
 3382 0500 01       		.byte	0x1
ARM GAS  C:\Users\sergio\AppData\Local\Temp\ccqEDlrG.s 			page 79


 3383 0501 4E       		.byte	0x4e
 3384 0502 81000000 		.4byte	0x81
 3385 0506 03       		.byte	0x3
 3386 0507 11       		.uleb128 0x11
 3387 0508 AB0C0000 		.4byte	.LASF135
 3388 050c 01       		.byte	0x1
 3389 050d 4F       		.byte	0x4f
 3390 050e 81000000 		.4byte	0x81
 3391 0512 04       		.byte	0x4
 3392 0513 11       		.uleb128 0x11
 3393 0514 500B0000 		.4byte	.LASF136
 3394 0518 01       		.byte	0x1
 3395 0519 50       		.byte	0x50
 3396 051a 81000000 		.4byte	0x81
 3397 051e 05       		.byte	0x5
 3398 051f 11       		.uleb128 0x11
 3399 0520 660D0000 		.4byte	.LASF137
 3400 0524 01       		.byte	0x1
 3401 0525 51       		.byte	0x51
 3402 0526 81000000 		.4byte	0x81
 3403 052a 06       		.byte	0x6
 3404 052b 00       		.byte	0
 3405 052c 03       		.uleb128 0x3
 3406 052d 57050000 		.4byte	.LASF138
 3407 0531 01       		.byte	0x1
 3408 0532 52       		.byte	0x52
 3409 0533 CF040000 		.4byte	0x4cf
 3410 0537 10       		.uleb128 0x10
 3411 0538 06       		.byte	0x6
 3412 0539 01       		.byte	0x1
 3413 053a 58       		.byte	0x58
 3414 053b 88050000 		.4byte	0x588
 3415 053f 11       		.uleb128 0x11
 3416 0540 3F0F0000 		.4byte	.LASF139
 3417 0544 01       		.byte	0x1
 3418 0545 59       		.byte	0x59
 3419 0546 A5000000 		.4byte	0xa5
 3420 054a 00       		.byte	0
 3421 054b 11       		.uleb128 0x11
 3422 054c 500E0000 		.4byte	.LASF140
 3423 0550 01       		.byte	0x1
 3424 0551 5A       		.byte	0x5a
 3425 0552 A5000000 		.4byte	0xa5
 3426 0556 01       		.byte	0x1
 3427 0557 11       		.uleb128 0x11
 3428 0558 BC080000 		.4byte	.LASF141
 3429 055c 01       		.byte	0x1
 3430 055d 5B       		.byte	0x5b
 3431 055e A5000000 		.4byte	0xa5
 3432 0562 02       		.byte	0x2
 3433 0563 11       		.uleb128 0x11
 3434 0564 28040000 		.4byte	.LASF142
 3435 0568 01       		.byte	0x1
 3436 0569 5C       		.byte	0x5c
 3437 056a A5000000 		.4byte	0xa5
 3438 056e 03       		.byte	0x3
 3439 056f 11       		.uleb128 0x11
ARM GAS  C:\Users\sergio\AppData\Local\Temp\ccqEDlrG.s 			page 80


 3440 0570 5E0E0000 		.4byte	.LASF143
 3441 0574 01       		.byte	0x1
 3442 0575 5D       		.byte	0x5d
 3443 0576 A5000000 		.4byte	0xa5
 3444 057a 04       		.byte	0x4
 3445 057b 11       		.uleb128 0x11
 3446 057c BC0B0000 		.4byte	.LASF144
 3447 0580 01       		.byte	0x1
 3448 0581 5E       		.byte	0x5e
 3449 0582 A5000000 		.4byte	0xa5
 3450 0586 05       		.byte	0x5
 3451 0587 00       		.byte	0
 3452 0588 03       		.uleb128 0x3
 3453 0589 FA020000 		.4byte	.LASF145
 3454 058d 01       		.byte	0x1
 3455 058e 60       		.byte	0x60
 3456 058f 37050000 		.4byte	0x537
 3457 0593 12       		.uleb128 0x12
 3458 0594 13010000 		.4byte	.LASF146
 3459 0598 01       		.byte	0x1
 3460 0599 6C       		.byte	0x6c
 3461 059a 00000000 		.4byte	.LFB36
 3462 059e 78000000 		.4byte	.LFE36-.LFB36
 3463 05a2 01       		.uleb128 0x1
 3464 05a3 9C       		.byte	0x9c
 3465 05a4 B7050000 		.4byte	0x5b7
 3466 05a8 13       		.uleb128 0x13
 3467 05a9 F70F0000 		.4byte	.LASF150
 3468 05ad 01       		.byte	0x1
 3469 05ae 6F       		.byte	0x6f
 3470 05af AF020000 		.4byte	0x2af
 3471 05b3 02       		.uleb128 0x2
 3472 05b4 91       		.byte	0x91
 3473 05b5 70       		.sleb128 -16
 3474 05b6 00       		.byte	0
 3475 05b7 12       		.uleb128 0x12
 3476 05b8 C5050000 		.4byte	.LASF147
 3477 05bc 01       		.byte	0x1
 3478 05bd 79       		.byte	0x79
 3479 05be 00000000 		.4byte	.LFB37
 3480 05c2 7C010000 		.4byte	.LFE37-.LFB37
 3481 05c6 01       		.uleb128 0x1
 3482 05c7 9C       		.byte	0x9c
 3483 05c8 F7050000 		.4byte	0x5f7
 3484 05cc 14       		.uleb128 0x14
 3485 05cd 5A060000 		.4byte	.LASF148
 3486 05d1 01       		.byte	0x1
 3487 05d2 79       		.byte	0x79
 3488 05d3 99000000 		.4byte	0x99
 3489 05d7 02       		.uleb128 0x2
 3490 05d8 91       		.byte	0x91
 3491 05d9 5C       		.sleb128 -36
 3492 05da 14       		.uleb128 0x14
 3493 05db 450E0000 		.4byte	.LASF149
 3494 05df 01       		.byte	0x1
 3495 05e0 79       		.byte	0x79
 3496 05e1 D9000000 		.4byte	0xd9
ARM GAS  C:\Users\sergio\AppData\Local\Temp\ccqEDlrG.s 			page 81


 3497 05e5 02       		.uleb128 0x2
 3498 05e6 91       		.byte	0x91
 3499 05e7 58       		.sleb128 -40
 3500 05e8 13       		.uleb128 0x13
 3501 05e9 E30B0000 		.4byte	.LASF151
 3502 05ed 01       		.byte	0x1
 3503 05ee 7B       		.byte	0x7b
 3504 05ef 94030000 		.4byte	0x394
 3505 05f3 02       		.uleb128 0x2
 3506 05f4 91       		.byte	0x91
 3507 05f5 60       		.sleb128 -32
 3508 05f6 00       		.byte	0
 3509 05f7 15       		.uleb128 0x15
 3510 05f8 1A0C0000 		.4byte	.LASF153
 3511 05fc 01       		.byte	0x1
 3512 05fd D4       		.byte	0xd4
 3513 05fe 00000000 		.4byte	.LFB38
 3514 0602 84000000 		.4byte	.LFE38-.LFB38
 3515 0606 01       		.uleb128 0x1
 3516 0607 9C       		.byte	0x9c
 3517 0608 29060000 		.4byte	0x629
 3518 060c 13       		.uleb128 0x13
 3519 060d CE020000 		.4byte	.LASF152
 3520 0611 01       		.byte	0x1
 3521 0612 D5       		.byte	0xd5
 3522 0613 5C030000 		.4byte	0x35c
 3523 0617 02       		.uleb128 0x2
 3524 0618 91       		.byte	0x91
 3525 0619 6C       		.sleb128 -20
 3526 061a 16       		.uleb128 0x16
 3527 061b 65727200 		.ascii	"err\000"
 3528 061f 01       		.byte	0x1
 3529 0620 D7       		.byte	0xd7
 3530 0621 99020000 		.4byte	0x299
 3531 0625 02       		.uleb128 0x2
 3532 0626 91       		.byte	0x91
 3533 0627 64       		.sleb128 -28
 3534 0628 00       		.byte	0
 3535 0629 15       		.uleb128 0x15
 3536 062a 2A0A0000 		.4byte	.LASF154
 3537 062e 01       		.byte	0x1
 3538 062f E2       		.byte	0xe2
 3539 0630 00000000 		.4byte	.LFB39
 3540 0634 74000000 		.4byte	.LFE39-.LFB39
 3541 0638 01       		.uleb128 0x1
 3542 0639 9C       		.byte	0x9c
 3543 063a 5B060000 		.4byte	0x65b
 3544 063e 13       		.uleb128 0x13
 3545 063f FA0A0000 		.4byte	.LASF155
 3546 0643 01       		.byte	0x1
 3547 0644 E3       		.byte	0xe3
 3548 0645 5C030000 		.4byte	0x35c
 3549 0649 02       		.uleb128 0x2
 3550 064a 91       		.byte	0x91
 3551 064b 6C       		.sleb128 -20
 3552 064c 13       		.uleb128 0x13
 3553 064d C1060000 		.4byte	.LASF156
ARM GAS  C:\Users\sergio\AppData\Local\Temp\ccqEDlrG.s 			page 82


 3554 0651 01       		.byte	0x1
 3555 0652 E5       		.byte	0xe5
 3556 0653 AF020000 		.4byte	0x2af
 3557 0657 02       		.uleb128 0x2
 3558 0658 91       		.byte	0x91
 3559 0659 64       		.sleb128 -28
 3560 065a 00       		.byte	0
 3561 065b 15       		.uleb128 0x15
 3562 065c 18020000 		.4byte	.LASF157
 3563 0660 01       		.byte	0x1
 3564 0661 F6       		.byte	0xf6
 3565 0662 00000000 		.4byte	.LFB40
 3566 0666 A4020000 		.4byte	.LFE40-.LFB40
 3567 066a 01       		.uleb128 0x1
 3568 066b 9C       		.byte	0x9c
 3569 066c 8D060000 		.4byte	0x68d
 3570 0670 13       		.uleb128 0x13
 3571 0671 D80B0000 		.4byte	.LASF158
 3572 0675 01       		.byte	0x1
 3573 0676 F7       		.byte	0xf7
 3574 0677 68030000 		.4byte	0x368
 3575 067b 02       		.uleb128 0x2
 3576 067c 91       		.byte	0x91
 3577 067d 6C       		.sleb128 -20
 3578 067e 13       		.uleb128 0x13
 3579 067f 450B0000 		.4byte	.LASF159
 3580 0683 01       		.byte	0x1
 3581 0684 F9       		.byte	0xf9
 3582 0685 8D060000 		.4byte	0x68d
 3583 0689 02       		.uleb128 0x2
 3584 068a 91       		.byte	0x91
 3585 068b 48       		.sleb128 -56
 3586 068c 00       		.byte	0
 3587 068d 0A       		.uleb128 0xa
 3588 068e 81000000 		.4byte	0x81
 3589 0692 9D060000 		.4byte	0x69d
 3590 0696 0B       		.uleb128 0xb
 3591 0697 D2000000 		.4byte	0xd2
 3592 069b 21       		.byte	0x21
 3593 069c 00       		.byte	0
 3594 069d 17       		.uleb128 0x17
 3595 069e 050B0000 		.4byte	.LASF160
 3596 06a2 01       		.byte	0x1
 3597 06a3 0A01     		.2byte	0x10a
 3598 06a5 00000000 		.4byte	.LFB41
 3599 06a9 58000000 		.4byte	.LFE41-.LFB41
 3600 06ad 01       		.uleb128 0x1
 3601 06ae 9C       		.byte	0x9c
 3602 06af D2060000 		.4byte	0x6d2
 3603 06b3 18       		.uleb128 0x18
 3604 06b4 520D0000 		.4byte	.LASF161
 3605 06b8 01       		.byte	0x1
 3606 06b9 0B01     		.2byte	0x10b
 3607 06bb 5C030000 		.4byte	0x35c
 3608 06bf 02       		.uleb128 0x2
 3609 06c0 91       		.byte	0x91
 3610 06c1 6C       		.sleb128 -20
ARM GAS  C:\Users\sergio\AppData\Local\Temp\ccqEDlrG.s 			page 83


 3611 06c2 18       		.uleb128 0x18
 3612 06c3 200E0000 		.4byte	.LASF162
 3613 06c7 01       		.byte	0x1
 3614 06c8 0D01     		.2byte	0x10d
 3615 06ca D2060000 		.4byte	0x6d2
 3616 06ce 02       		.uleb128 0x2
 3617 06cf 91       		.byte	0x91
 3618 06d0 68       		.sleb128 -24
 3619 06d1 00       		.byte	0
 3620 06d2 0A       		.uleb128 0xa
 3621 06d3 81000000 		.4byte	0x81
 3622 06d7 E2060000 		.4byte	0x6e2
 3623 06db 0B       		.uleb128 0xb
 3624 06dc D2000000 		.4byte	0xd2
 3625 06e0 01       		.byte	0x1
 3626 06e1 00       		.byte	0
 3627 06e2 19       		.uleb128 0x19
 3628 06e3 250F0000 		.4byte	.LASF165
 3629 06e7 01       		.byte	0x1
 3630 06e8 1F01     		.2byte	0x11f
 3631 06ea 00000000 		.4byte	.LFB42
 3632 06ee 32000000 		.4byte	.LFE42-.LFB42
 3633 06f2 01       		.uleb128 0x1
 3634 06f3 9C       		.byte	0x9c
 3635 06f4 1A       		.uleb128 0x1a
 3636 06f5 7F0A0000 		.4byte	.LASF163
 3637 06f9 01       		.byte	0x1
 3638 06fa 2901     		.2byte	0x129
 3639 06fc 81000000 		.4byte	0x81
 3640 0700 00000000 		.4byte	.LFB43
 3641 0704 46000000 		.4byte	.LFE43-.LFB43
 3642 0708 01       		.uleb128 0x1
 3643 0709 9C       		.byte	0x9c
 3644 070a 1E070000 		.4byte	0x71e
 3645 070e 18       		.uleb128 0x18
 3646 070f 350E0000 		.4byte	.LASF164
 3647 0713 01       		.byte	0x1
 3648 0714 2B01     		.2byte	0x12b
 3649 0716 81000000 		.4byte	0x81
 3650 071a 02       		.uleb128 0x2
 3651 071b 91       		.byte	0x91
 3652 071c 77       		.sleb128 -9
 3653 071d 00       		.byte	0
 3654 071e 19       		.uleb128 0x19
 3655 071f 020E0000 		.4byte	.LASF166
 3656 0723 01       		.byte	0x1
 3657 0724 3601     		.2byte	0x136
 3658 0726 00000000 		.4byte	.LFB44
 3659 072a 4A000000 		.4byte	.LFE44-.LFB44
 3660 072e 01       		.uleb128 0x1
 3661 072f 9C       		.byte	0x9c
 3662 0730 19       		.uleb128 0x19
 3663 0731 E40D0000 		.4byte	.LASF167
 3664 0735 01       		.byte	0x1
 3665 0736 4301     		.2byte	0x143
 3666 0738 00000000 		.4byte	.LFB45
 3667 073c 4A000000 		.4byte	.LFE45-.LFB45
ARM GAS  C:\Users\sergio\AppData\Local\Temp\ccqEDlrG.s 			page 84


 3668 0740 01       		.uleb128 0x1
 3669 0741 9C       		.byte	0x9c
 3670 0742 17       		.uleb128 0x17
 3671 0743 4C090000 		.4byte	.LASF168
 3672 0747 01       		.byte	0x1
 3673 0748 5101     		.2byte	0x151
 3674 074a 00000000 		.4byte	.LFB46
 3675 074e 78010000 		.4byte	.LFE46-.LFB46
 3676 0752 01       		.uleb128 0x1
 3677 0753 9C       		.byte	0x9c
 3678 0754 68070000 		.4byte	0x768
 3679 0758 1B       		.uleb128 0x1b
 3680 0759 A1090000 		.4byte	.LASF169
 3681 075d 01       		.byte	0x1
 3682 075e 5101     		.2byte	0x151
 3683 0760 99000000 		.4byte	0x99
 3684 0764 02       		.uleb128 0x2
 3685 0765 91       		.byte	0x91
 3686 0766 74       		.sleb128 -12
 3687 0767 00       		.byte	0
 3688 0768 17       		.uleb128 0x17
 3689 0769 B5000000 		.4byte	.LASF170
 3690 076d 01       		.byte	0x1
 3691 076e 8B01     		.2byte	0x18b
 3692 0770 00000000 		.4byte	.LFB47
 3693 0774 F0010000 		.4byte	.LFE47-.LFB47
 3694 0778 01       		.uleb128 0x1
 3695 0779 9C       		.byte	0x9c
 3696 077a B4070000 		.4byte	0x7b4
 3697 077e 1B       		.uleb128 0x1b
 3698 077f A1090000 		.4byte	.LASF169
 3699 0783 01       		.byte	0x1
 3700 0784 8B01     		.2byte	0x18b
 3701 0786 99000000 		.4byte	0x99
 3702 078a 02       		.uleb128 0x2
 3703 078b 91       		.byte	0x91
 3704 078c 4C       		.sleb128 -52
 3705 078d 18       		.uleb128 0x18
 3706 078e F40A0000 		.4byte	.LASF171
 3707 0792 01       		.byte	0x1
 3708 0793 8D01     		.2byte	0x18d
 3709 0795 B4070000 		.4byte	0x7b4
 3710 0799 02       		.uleb128 0x2
 3711 079a 91       		.byte	0x91
 3712 079b 50       		.sleb128 -48
 3713 079c 1C       		.uleb128 0x1c
 3714 079d 6E000000 		.4byte	.LBB2
 3715 07a1 24000000 		.4byte	.LBE2-.LBB2
 3716 07a5 1D       		.uleb128 0x1d
 3717 07a6 6900     		.ascii	"i\000"
 3718 07a8 01       		.byte	0x1
 3719 07a9 9E01     		.2byte	0x19e
 3720 07ab 68000000 		.4byte	0x68
 3721 07af 02       		.uleb128 0x2
 3722 07b0 91       		.byte	0x91
 3723 07b1 74       		.sleb128 -12
 3724 07b2 00       		.byte	0
ARM GAS  C:\Users\sergio\AppData\Local\Temp\ccqEDlrG.s 			page 85


 3725 07b3 00       		.byte	0
 3726 07b4 0A       		.uleb128 0xa
 3727 07b5 81000000 		.4byte	0x81
 3728 07b9 C4070000 		.4byte	0x7c4
 3729 07bd 0B       		.uleb128 0xb
 3730 07be D2000000 		.4byte	0xd2
 3731 07c2 22       		.byte	0x22
 3732 07c3 00       		.byte	0
 3733 07c4 1E       		.uleb128 0x1e
 3734 07c5 E1010000 		.4byte	.LASF172
 3735 07c9 01       		.byte	0x1
 3736 07ca BC01     		.2byte	0x1bc
 3737 07cc 00000000 		.4byte	.LFB48
 3738 07d0 50000000 		.4byte	.LFE48-.LFB48
 3739 07d4 01       		.uleb128 0x1
 3740 07d5 9C       		.byte	0x9c
 3741 07d6 01080000 		.4byte	0x801
 3742 07da 18       		.uleb128 0x18
 3743 07db E10A0000 		.4byte	.LASF129
 3744 07df 01       		.byte	0x1
 3745 07e0 BD01     		.2byte	0x1bd
 3746 07e2 8D000000 		.4byte	0x8d
 3747 07e6 02       		.uleb128 0x2
 3748 07e7 91       		.byte	0x91
 3749 07e8 76       		.sleb128 -10
 3750 07e9 1C       		.uleb128 0x1c
 3751 07ea 0C000000 		.4byte	.LBB3
 3752 07ee 30000000 		.4byte	.LBE3-.LBB3
 3753 07f2 1D       		.uleb128 0x1d
 3754 07f3 6900     		.ascii	"i\000"
 3755 07f5 01       		.byte	0x1
 3756 07f6 BE01     		.2byte	0x1be
 3757 07f8 68000000 		.4byte	0x68
 3758 07fc 02       		.uleb128 0x2
 3759 07fd 91       		.byte	0x91
 3760 07fe 70       		.sleb128 -16
 3761 07ff 00       		.byte	0
 3762 0800 00       		.byte	0
 3763 0801 1F       		.uleb128 0x1f
 3764 0802 8F0B0000 		.4byte	.LASF173
 3765 0806 01       		.byte	0x1
 3766 0807 C401     		.2byte	0x1c4
 3767 0809 00000000 		.4byte	.LFB49
 3768 080d 1E000000 		.4byte	.LFE49-.LFB49
 3769 0811 01       		.uleb128 0x1
 3770 0812 9C       		.byte	0x9c
 3771 0813 25080000 		.4byte	0x825
 3772 0817 20       		.uleb128 0x20
 3773 0818 6400     		.ascii	"d\000"
 3774 081a 01       		.byte	0x1
 3775 081b C401     		.2byte	0x1c4
 3776 081d 68000000 		.4byte	0x68
 3777 0821 02       		.uleb128 0x2
 3778 0822 91       		.byte	0x91
 3779 0823 74       		.sleb128 -12
 3780 0824 00       		.byte	0
 3781 0825 19       		.uleb128 0x19
ARM GAS  C:\Users\sergio\AppData\Local\Temp\ccqEDlrG.s 			page 86


 3782 0826 94090000 		.4byte	.LASF174
 3783 082a 01       		.byte	0x1
 3784 082b C901     		.2byte	0x1c9
 3785 082d 00000000 		.4byte	.LFB50
 3786 0831 20000000 		.4byte	.LFE50-.LFB50
 3787 0835 01       		.uleb128 0x1
 3788 0836 9C       		.byte	0x9c
 3789 0837 21       		.uleb128 0x21
 3790 0838 730F0000 		.4byte	.LASF202
 3791 083c 01       		.byte	0x1
 3792 083d D001     		.2byte	0x1d0
 3793 083f 68000000 		.4byte	0x68
 3794 0843 00000000 		.4byte	.LFB51
 3795 0847 1C050000 		.4byte	.LFE51-.LFB51
 3796 084b 01       		.uleb128 0x1
 3797 084c 9C       		.byte	0x9c
 3798 084d D5080000 		.4byte	0x8d5
 3799 0851 18       		.uleb128 0x18
 3800 0852 D20B0000 		.4byte	.LASF175
 3801 0856 01       		.byte	0x1
 3802 0857 FE01     		.2byte	0x1fe
 3803 0859 76000000 		.4byte	0x76
 3804 085d 02       		.uleb128 0x2
 3805 085e 91       		.byte	0x91
 3806 085f 6C       		.sleb128 -20
 3807 0860 18       		.uleb128 0x18
 3808 0861 E8000000 		.4byte	.LASF176
 3809 0865 01       		.byte	0x1
 3810 0866 0502     		.2byte	0x205
 3811 0868 81000000 		.4byte	0x81
 3812 086c 02       		.uleb128 0x2
 3813 086d 91       		.byte	0x91
 3814 086e 6F       		.sleb128 -17
 3815 086f 18       		.uleb128 0x18
 3816 0870 85050000 		.4byte	.LASF177
 3817 0874 01       		.byte	0x1
 3818 0875 0602     		.2byte	0x206
 3819 0877 81000000 		.4byte	0x81
 3820 087b 02       		.uleb128 0x2
 3821 087c 91       		.byte	0x91
 3822 087d 6E       		.sleb128 -18
 3823 087e 18       		.uleb128 0x18
 3824 087f 45050000 		.4byte	.LASF178
 3825 0883 01       		.byte	0x1
 3826 0884 0702     		.2byte	0x207
 3827 0886 81000000 		.4byte	0x81
 3828 088a 02       		.uleb128 0x2
 3829 088b 91       		.byte	0x91
 3830 088c 6D       		.sleb128 -19
 3831 088d 18       		.uleb128 0x18
 3832 088e CA0B0000 		.4byte	.LASF179
 3833 0892 01       		.byte	0x1
 3834 0893 0902     		.2byte	0x209
 3835 0895 68000000 		.4byte	0x68
 3836 0899 02       		.uleb128 0x2
 3837 089a 91       		.byte	0x91
 3838 089b 68       		.sleb128 -24
ARM GAS  C:\Users\sergio\AppData\Local\Temp\ccqEDlrG.s 			page 87


 3839 089c 1C       		.uleb128 0x1c
 3840 089d 98000000 		.4byte	.LBB4
 3841 08a1 38010000 		.4byte	.LBE4-.LBB4
 3842 08a5 18       		.uleb128 0x18
 3843 08a6 7F080000 		.4byte	.LASF180
 3844 08aa 01       		.byte	0x1
 3845 08ab 1E02     		.2byte	0x21e
 3846 08ad E5080000 		.4byte	0x8e5
 3847 08b1 02       		.uleb128 0x2
 3848 08b2 91       		.byte	0x91
 3849 08b3 60       		.sleb128 -32
 3850 08b4 18       		.uleb128 0x18
 3851 08b5 DC000000 		.4byte	.LASF181
 3852 08b9 01       		.byte	0x1
 3853 08ba 2002     		.2byte	0x220
 3854 08bc 68000000 		.4byte	0x68
 3855 08c0 02       		.uleb128 0x2
 3856 08c1 91       		.byte	0x91
 3857 08c2 64       		.sleb128 -28
 3858 08c3 1D       		.uleb128 0x1d
 3859 08c4 73747200 		.ascii	"str\000"
 3860 08c8 01       		.byte	0x1
 3861 08c9 2402     		.2byte	0x224
 3862 08cb EA080000 		.4byte	0x8ea
 3863 08cf 03       		.uleb128 0x3
 3864 08d0 91       		.byte	0x91
 3865 08d1 AC7F     		.sleb128 -84
 3866 08d3 00       		.byte	0
 3867 08d4 00       		.byte	0
 3868 08d5 0A       		.uleb128 0xa
 3869 08d6 C6000000 		.4byte	0xc6
 3870 08da E5080000 		.4byte	0x8e5
 3871 08de 0B       		.uleb128 0xb
 3872 08df D2000000 		.4byte	0xd2
 3873 08e3 01       		.byte	0x1
 3874 08e4 00       		.byte	0
 3875 08e5 06       		.uleb128 0x6
 3876 08e6 D5080000 		.4byte	0x8d5
 3877 08ea 0A       		.uleb128 0xa
 3878 08eb BF000000 		.4byte	0xbf
 3879 08ef FA080000 		.4byte	0x8fa
 3880 08f3 0B       		.uleb128 0xb
 3881 08f4 D2000000 		.4byte	0xd2
 3882 08f8 31       		.byte	0x31
 3883 08f9 00       		.byte	0
 3884 08fa 22       		.uleb128 0x22
 3885 08fb BD070000 		.4byte	.LASF182
 3886 08ff 08       		.byte	0x8
 3887 0900 160B     		.2byte	0xb16
 3888 0902 CB030000 		.4byte	0x3cb
 3889 0906 22       		.uleb128 0x22
 3890 0907 8A050000 		.4byte	.LASF183
 3891 090b 08       		.byte	0x8
 3892 090c 170B     		.2byte	0xb17
 3893 090e EF020000 		.4byte	0x2ef
 3894 0912 22       		.uleb128 0x22
 3895 0913 950B0000 		.4byte	.LASF184
ARM GAS  C:\Users\sergio\AppData\Local\Temp\ccqEDlrG.s 			page 88


 3896 0917 08       		.byte	0x8
 3897 0918 180B     		.2byte	0xb18
 3898 091a C6000000 		.4byte	0xc6
 3899 091e 23       		.uleb128 0x23
 3900 091f 57080000 		.4byte	.LASF185
 3901 0923 01       		.byte	0x1
 3902 0924 11       		.byte	0x11
 3903 0925 5C030000 		.4byte	0x35c
 3904 0929 05       		.uleb128 0x5
 3905 092a 03       		.byte	0x3
 3906 092b 00000000 		.4byte	thermoHandle
 3907 092f 23       		.uleb128 0x23
 3908 0930 92080000 		.4byte	.LASF186
 3909 0934 01       		.byte	0x1
 3910 0935 20       		.byte	0x20
 3911 0936 68000000 		.4byte	0x68
 3912 093a 05       		.uleb128 0x5
 3913 093b 03       		.byte	0x3
 3914 093c 00000000 		.4byte	interruptFlag
 3915 0940 23       		.uleb128 0x23
 3916 0941 B80F0000 		.4byte	.LASF187
 3917 0945 01       		.byte	0x1
 3918 0946 21       		.byte	0x21
 3919 0947 81000000 		.4byte	0x81
 3920 094b 05       		.uleb128 0x5
 3921 094c 03       		.byte	0x3
 3922 094d 00000000 		.4byte	isNotify
 3923 0951 23       		.uleb128 0x23
 3924 0952 CD0D0000 		.4byte	.LASF188
 3925 0956 01       		.byte	0x1
 3926 0957 22       		.byte	0x22
 3927 0958 81000000 		.4byte	0x81
 3928 095c 05       		.uleb128 0x5
 3929 095d 03       		.byte	0x3
 3930 095e 00000000 		.4byte	updateIsNotifyCCCDAttr
 3931 0962 23       		.uleb128 0x23
 3932 0963 4A030000 		.4byte	.LASF189
 3933 0967 01       		.byte	0x1
 3934 0968 23       		.byte	0x23
 3935 0969 81000000 		.4byte	0x81
 3936 096d 05       		.uleb128 0x5
 3937 096e 03       		.byte	0x3
 3938 096f 00000000 		.4byte	bleConnected
 3939 0973 23       		.uleb128 0x23
 3940 0974 340C0000 		.4byte	.LASF190
 3941 0978 01       		.byte	0x1
 3942 0979 24       		.byte	0x24
 3943 097a EA080000 		.4byte	0x8ea
 3944 097e 05       		.uleb128 0x5
 3945 097f 03       		.byte	0x3
 3946 0980 00000000 		.4byte	uartStr
 3947 0984 23       		.uleb128 0x23
 3948 0985 B70C0000 		.4byte	.LASF191
 3949 0989 01       		.byte	0x1
 3950 098a 26       		.byte	0x26
 3951 098b 81000000 		.4byte	0x81
 3952 098f 05       		.uleb128 0x5
ARM GAS  C:\Users\sergio\AppData\Local\Temp\ccqEDlrG.s 			page 89


 3953 0990 03       		.byte	0x3
 3954 0991 00000000 		.4byte	gpioPins
 3955 0995 23       		.uleb128 0x23
 3956 0996 59000000 		.4byte	.LASF192
 3957 099a 01       		.byte	0x1
 3958 099b 27       		.byte	0x27
 3959 099c 8D000000 		.4byte	0x8d
 3960 09a0 05       		.uleb128 0x5
 3961 09a1 03       		.byte	0x3
 3962 09a2 00000000 		.4byte	adcRead
 3963 09a6 23       		.uleb128 0x23
 3964 09a7 3A0E0000 		.4byte	.LASF193
 3965 09ab 01       		.byte	0x1
 3966 09ac 48       		.byte	0x48
 3967 09ad C4040000 		.4byte	0x4c4
 3968 09b1 05       		.uleb128 0x5
 3969 09b2 03       		.byte	0x3
 3970 09b3 00000000 		.4byte	sensorData
 3971 09b7 23       		.uleb128 0x23
 3972 09b8 1C050000 		.4byte	.LASF194
 3973 09bc 01       		.byte	0x1
 3974 09bd 56       		.byte	0x56
 3975 09be 2C050000 		.4byte	0x52c
 3976 09c2 05       		.uleb128 0x5
 3977 09c3 03       		.byte	0x3
 3978 09c4 00000000 		.4byte	thermo
 3979 09c8 23       		.uleb128 0x23
 3980 09c9 3A000000 		.4byte	.LASF195
 3981 09cd 01       		.byte	0x1
 3982 09ce 62       		.byte	0x62
 3983 09cf 88050000 		.4byte	0x588
 3984 09d3 05       		.uleb128 0x5
 3985 09d4 03       		.byte	0x3
 3986 09d5 00000000 		.4byte	errorPower
 3987 09d9 23       		.uleb128 0x23
 3988 09da 04030000 		.4byte	.LASF134
 3989 09de 01       		.byte	0x1
 3990 09df 64       		.byte	0x64
 3991 09e0 81000000 		.4byte	0x81
 3992 09e4 05       		.uleb128 0x5
 3993 09e5 03       		.byte	0x3
 3994 09e6 00000000 		.4byte	setTemperature
 3995 09ea 23       		.uleb128 0x23
 3996 09eb F1020000 		.4byte	.LASF196
 3997 09ef 01       		.byte	0x1
 3998 09f0 66       		.byte	0x66
 3999 09f1 81000000 		.4byte	0x81
 4000 09f5 05       		.uleb128 0x5
 4001 09f6 03       		.byte	0x3
 4002 09f7 00000000 		.4byte	prevComp
 4003 09fb 23       		.uleb128 0x23
 4004 09fc 83000000 		.4byte	.LASF197
 4005 0a00 01       		.byte	0x1
 4006 0a01 67       		.byte	0x67
 4007 0a02 81000000 		.4byte	0x81
 4008 0a06 05       		.uleb128 0x5
 4009 0a07 03       		.byte	0x3
ARM GAS  C:\Users\sergio\AppData\Local\Temp\ccqEDlrG.s 			page 90


 4010 0a08 00000000 		.4byte	prevLFan
 4011 0a0c 23       		.uleb128 0x23
 4012 0a0d 89080000 		.4byte	.LASF198
 4013 0a11 01       		.byte	0x1
 4014 0a12 68       		.byte	0x68
 4015 0a13 81000000 		.4byte	0x81
 4016 0a17 05       		.uleb128 0x5
 4017 0a18 03       		.byte	0x3
 4018 0a19 00000000 		.4byte	prevHFan
 4019 0a1d 00       		.byte	0
 4020              		.section	.debug_abbrev,"",%progbits
 4021              	.Ldebug_abbrev0:
 4022 0000 01       		.uleb128 0x1
 4023 0001 11       		.uleb128 0x11
 4024 0002 01       		.byte	0x1
 4025 0003 25       		.uleb128 0x25
 4026 0004 0E       		.uleb128 0xe
 4027 0005 13       		.uleb128 0x13
 4028 0006 0B       		.uleb128 0xb
 4029 0007 03       		.uleb128 0x3
 4030 0008 0E       		.uleb128 0xe
 4031 0009 1B       		.uleb128 0x1b
 4032 000a 0E       		.uleb128 0xe
 4033 000b 55       		.uleb128 0x55
 4034 000c 17       		.uleb128 0x17
 4035 000d 11       		.uleb128 0x11
 4036 000e 01       		.uleb128 0x1
 4037 000f 10       		.uleb128 0x10
 4038 0010 17       		.uleb128 0x17
 4039 0011 00       		.byte	0
 4040 0012 00       		.byte	0
 4041 0013 02       		.uleb128 0x2
 4042 0014 24       		.uleb128 0x24
 4043 0015 00       		.byte	0
 4044 0016 0B       		.uleb128 0xb
 4045 0017 0B       		.uleb128 0xb
 4046 0018 3E       		.uleb128 0x3e
 4047 0019 0B       		.uleb128 0xb
 4048 001a 03       		.uleb128 0x3
 4049 001b 0E       		.uleb128 0xe
 4050 001c 00       		.byte	0
 4051 001d 00       		.byte	0
 4052 001e 03       		.uleb128 0x3
 4053 001f 16       		.uleb128 0x16
 4054 0020 00       		.byte	0
 4055 0021 03       		.uleb128 0x3
 4056 0022 0E       		.uleb128 0xe
 4057 0023 3A       		.uleb128 0x3a
 4058 0024 0B       		.uleb128 0xb
 4059 0025 3B       		.uleb128 0x3b
 4060 0026 0B       		.uleb128 0xb
 4061 0027 49       		.uleb128 0x49
 4062 0028 13       		.uleb128 0x13
 4063 0029 00       		.byte	0
 4064 002a 00       		.byte	0
 4065 002b 04       		.uleb128 0x4
 4066 002c 24       		.uleb128 0x24
ARM GAS  C:\Users\sergio\AppData\Local\Temp\ccqEDlrG.s 			page 91


 4067 002d 00       		.byte	0
 4068 002e 0B       		.uleb128 0xb
 4069 002f 0B       		.uleb128 0xb
 4070 0030 3E       		.uleb128 0x3e
 4071 0031 0B       		.uleb128 0xb
 4072 0032 03       		.uleb128 0x3
 4073 0033 08       		.uleb128 0x8
 4074 0034 00       		.byte	0
 4075 0035 00       		.byte	0
 4076 0036 05       		.uleb128 0x5
 4077 0037 16       		.uleb128 0x16
 4078 0038 00       		.byte	0
 4079 0039 03       		.uleb128 0x3
 4080 003a 0E       		.uleb128 0xe
 4081 003b 3A       		.uleb128 0x3a
 4082 003c 0B       		.uleb128 0xb
 4083 003d 3B       		.uleb128 0x3b
 4084 003e 05       		.uleb128 0x5
 4085 003f 49       		.uleb128 0x49
 4086 0040 13       		.uleb128 0x13
 4087 0041 00       		.byte	0
 4088 0042 00       		.byte	0
 4089 0043 06       		.uleb128 0x6
 4090 0044 35       		.uleb128 0x35
 4091 0045 00       		.byte	0
 4092 0046 49       		.uleb128 0x49
 4093 0047 13       		.uleb128 0x13
 4094 0048 00       		.byte	0
 4095 0049 00       		.byte	0
 4096 004a 07       		.uleb128 0x7
 4097 004b 0F       		.uleb128 0xf
 4098 004c 00       		.byte	0
 4099 004d 0B       		.uleb128 0xb
 4100 004e 0B       		.uleb128 0xb
 4101 004f 00       		.byte	0
 4102 0050 00       		.byte	0
 4103 0051 08       		.uleb128 0x8
 4104 0052 04       		.uleb128 0x4
 4105 0053 01       		.byte	0x1
 4106 0054 0B       		.uleb128 0xb
 4107 0055 0B       		.uleb128 0xb
 4108 0056 49       		.uleb128 0x49
 4109 0057 13       		.uleb128 0x13
 4110 0058 3A       		.uleb128 0x3a
 4111 0059 0B       		.uleb128 0xb
 4112 005a 3B       		.uleb128 0x3b
 4113 005b 05       		.uleb128 0x5
 4114 005c 01       		.uleb128 0x1
 4115 005d 13       		.uleb128 0x13
 4116 005e 00       		.byte	0
 4117 005f 00       		.byte	0
 4118 0060 09       		.uleb128 0x9
 4119 0061 28       		.uleb128 0x28
 4120 0062 00       		.byte	0
 4121 0063 03       		.uleb128 0x3
 4122 0064 0E       		.uleb128 0xe
 4123 0065 1C       		.uleb128 0x1c
ARM GAS  C:\Users\sergio\AppData\Local\Temp\ccqEDlrG.s 			page 92


 4124 0066 0B       		.uleb128 0xb
 4125 0067 00       		.byte	0
 4126 0068 00       		.byte	0
 4127 0069 0A       		.uleb128 0xa
 4128 006a 01       		.uleb128 0x1
 4129 006b 01       		.byte	0x1
 4130 006c 49       		.uleb128 0x49
 4131 006d 13       		.uleb128 0x13
 4132 006e 01       		.uleb128 0x1
 4133 006f 13       		.uleb128 0x13
 4134 0070 00       		.byte	0
 4135 0071 00       		.byte	0
 4136 0072 0B       		.uleb128 0xb
 4137 0073 21       		.uleb128 0x21
 4138 0074 00       		.byte	0
 4139 0075 49       		.uleb128 0x49
 4140 0076 13       		.uleb128 0x13
 4141 0077 2F       		.uleb128 0x2f
 4142 0078 0B       		.uleb128 0xb
 4143 0079 00       		.byte	0
 4144 007a 00       		.byte	0
 4145 007b 0C       		.uleb128 0xc
 4146 007c 0F       		.uleb128 0xf
 4147 007d 00       		.byte	0
 4148 007e 0B       		.uleb128 0xb
 4149 007f 0B       		.uleb128 0xb
 4150 0080 49       		.uleb128 0x49
 4151 0081 13       		.uleb128 0x13
 4152 0082 00       		.byte	0
 4153 0083 00       		.byte	0
 4154 0084 0D       		.uleb128 0xd
 4155 0085 13       		.uleb128 0x13
 4156 0086 01       		.byte	0x1
 4157 0087 0B       		.uleb128 0xb
 4158 0088 0B       		.uleb128 0xb
 4159 0089 3A       		.uleb128 0x3a
 4160 008a 0B       		.uleb128 0xb
 4161 008b 3B       		.uleb128 0x3b
 4162 008c 05       		.uleb128 0x5
 4163 008d 01       		.uleb128 0x1
 4164 008e 13       		.uleb128 0x13
 4165 008f 00       		.byte	0
 4166 0090 00       		.byte	0
 4167 0091 0E       		.uleb128 0xe
 4168 0092 0D       		.uleb128 0xd
 4169 0093 00       		.byte	0
 4170 0094 03       		.uleb128 0x3
 4171 0095 0E       		.uleb128 0xe
 4172 0096 3A       		.uleb128 0x3a
 4173 0097 0B       		.uleb128 0xb
 4174 0098 3B       		.uleb128 0x3b
 4175 0099 05       		.uleb128 0x5
 4176 009a 49       		.uleb128 0x49
 4177 009b 13       		.uleb128 0x13
 4178 009c 38       		.uleb128 0x38
 4179 009d 0B       		.uleb128 0xb
 4180 009e 00       		.byte	0
ARM GAS  C:\Users\sergio\AppData\Local\Temp\ccqEDlrG.s 			page 93


 4181 009f 00       		.byte	0
 4182 00a0 0F       		.uleb128 0xf
 4183 00a1 0D       		.uleb128 0xd
 4184 00a2 00       		.byte	0
 4185 00a3 03       		.uleb128 0x3
 4186 00a4 08       		.uleb128 0x8
 4187 00a5 3A       		.uleb128 0x3a
 4188 00a6 0B       		.uleb128 0xb
 4189 00a7 3B       		.uleb128 0x3b
 4190 00a8 05       		.uleb128 0x5
 4191 00a9 49       		.uleb128 0x49
 4192 00aa 13       		.uleb128 0x13
 4193 00ab 38       		.uleb128 0x38
 4194 00ac 0B       		.uleb128 0xb
 4195 00ad 00       		.byte	0
 4196 00ae 00       		.byte	0
 4197 00af 10       		.uleb128 0x10
 4198 00b0 13       		.uleb128 0x13
 4199 00b1 01       		.byte	0x1
 4200 00b2 0B       		.uleb128 0xb
 4201 00b3 0B       		.uleb128 0xb
 4202 00b4 3A       		.uleb128 0x3a
 4203 00b5 0B       		.uleb128 0xb
 4204 00b6 3B       		.uleb128 0x3b
 4205 00b7 0B       		.uleb128 0xb
 4206 00b8 01       		.uleb128 0x1
 4207 00b9 13       		.uleb128 0x13
 4208 00ba 00       		.byte	0
 4209 00bb 00       		.byte	0
 4210 00bc 11       		.uleb128 0x11
 4211 00bd 0D       		.uleb128 0xd
 4212 00be 00       		.byte	0
 4213 00bf 03       		.uleb128 0x3
 4214 00c0 0E       		.uleb128 0xe
 4215 00c1 3A       		.uleb128 0x3a
 4216 00c2 0B       		.uleb128 0xb
 4217 00c3 3B       		.uleb128 0x3b
 4218 00c4 0B       		.uleb128 0xb
 4219 00c5 49       		.uleb128 0x49
 4220 00c6 13       		.uleb128 0x13
 4221 00c7 38       		.uleb128 0x38
 4222 00c8 0B       		.uleb128 0xb
 4223 00c9 00       		.byte	0
 4224 00ca 00       		.byte	0
 4225 00cb 12       		.uleb128 0x12
 4226 00cc 2E       		.uleb128 0x2e
 4227 00cd 01       		.byte	0x1
 4228 00ce 3F       		.uleb128 0x3f
 4229 00cf 19       		.uleb128 0x19
 4230 00d0 03       		.uleb128 0x3
 4231 00d1 0E       		.uleb128 0xe
 4232 00d2 3A       		.uleb128 0x3a
 4233 00d3 0B       		.uleb128 0xb
 4234 00d4 3B       		.uleb128 0x3b
 4235 00d5 0B       		.uleb128 0xb
 4236 00d6 27       		.uleb128 0x27
 4237 00d7 19       		.uleb128 0x19
ARM GAS  C:\Users\sergio\AppData\Local\Temp\ccqEDlrG.s 			page 94


 4238 00d8 11       		.uleb128 0x11
 4239 00d9 01       		.uleb128 0x1
 4240 00da 12       		.uleb128 0x12
 4241 00db 06       		.uleb128 0x6
 4242 00dc 40       		.uleb128 0x40
 4243 00dd 18       		.uleb128 0x18
 4244 00de 9642     		.uleb128 0x2116
 4245 00e0 19       		.uleb128 0x19
 4246 00e1 01       		.uleb128 0x1
 4247 00e2 13       		.uleb128 0x13
 4248 00e3 00       		.byte	0
 4249 00e4 00       		.byte	0
 4250 00e5 13       		.uleb128 0x13
 4251 00e6 34       		.uleb128 0x34
 4252 00e7 00       		.byte	0
 4253 00e8 03       		.uleb128 0x3
 4254 00e9 0E       		.uleb128 0xe
 4255 00ea 3A       		.uleb128 0x3a
 4256 00eb 0B       		.uleb128 0xb
 4257 00ec 3B       		.uleb128 0x3b
 4258 00ed 0B       		.uleb128 0xb
 4259 00ee 49       		.uleb128 0x49
 4260 00ef 13       		.uleb128 0x13
 4261 00f0 02       		.uleb128 0x2
 4262 00f1 18       		.uleb128 0x18
 4263 00f2 00       		.byte	0
 4264 00f3 00       		.byte	0
 4265 00f4 14       		.uleb128 0x14
 4266 00f5 05       		.uleb128 0x5
 4267 00f6 00       		.byte	0
 4268 00f7 03       		.uleb128 0x3
 4269 00f8 0E       		.uleb128 0xe
 4270 00f9 3A       		.uleb128 0x3a
 4271 00fa 0B       		.uleb128 0xb
 4272 00fb 3B       		.uleb128 0x3b
 4273 00fc 0B       		.uleb128 0xb
 4274 00fd 49       		.uleb128 0x49
 4275 00fe 13       		.uleb128 0x13
 4276 00ff 02       		.uleb128 0x2
 4277 0100 18       		.uleb128 0x18
 4278 0101 00       		.byte	0
 4279 0102 00       		.byte	0
 4280 0103 15       		.uleb128 0x15
 4281 0104 2E       		.uleb128 0x2e
 4282 0105 01       		.byte	0x1
 4283 0106 3F       		.uleb128 0x3f
 4284 0107 19       		.uleb128 0x19
 4285 0108 03       		.uleb128 0x3
 4286 0109 0E       		.uleb128 0xe
 4287 010a 3A       		.uleb128 0x3a
 4288 010b 0B       		.uleb128 0xb
 4289 010c 3B       		.uleb128 0x3b
 4290 010d 0B       		.uleb128 0xb
 4291 010e 11       		.uleb128 0x11
 4292 010f 01       		.uleb128 0x1
 4293 0110 12       		.uleb128 0x12
 4294 0111 06       		.uleb128 0x6
ARM GAS  C:\Users\sergio\AppData\Local\Temp\ccqEDlrG.s 			page 95


 4295 0112 40       		.uleb128 0x40
 4296 0113 18       		.uleb128 0x18
 4297 0114 9642     		.uleb128 0x2116
 4298 0116 19       		.uleb128 0x19
 4299 0117 01       		.uleb128 0x1
 4300 0118 13       		.uleb128 0x13
 4301 0119 00       		.byte	0
 4302 011a 00       		.byte	0
 4303 011b 16       		.uleb128 0x16
 4304 011c 34       		.uleb128 0x34
 4305 011d 00       		.byte	0
 4306 011e 03       		.uleb128 0x3
 4307 011f 08       		.uleb128 0x8
 4308 0120 3A       		.uleb128 0x3a
 4309 0121 0B       		.uleb128 0xb
 4310 0122 3B       		.uleb128 0x3b
 4311 0123 0B       		.uleb128 0xb
 4312 0124 49       		.uleb128 0x49
 4313 0125 13       		.uleb128 0x13
 4314 0126 02       		.uleb128 0x2
 4315 0127 18       		.uleb128 0x18
 4316 0128 00       		.byte	0
 4317 0129 00       		.byte	0
 4318 012a 17       		.uleb128 0x17
 4319 012b 2E       		.uleb128 0x2e
 4320 012c 01       		.byte	0x1
 4321 012d 3F       		.uleb128 0x3f
 4322 012e 19       		.uleb128 0x19
 4323 012f 03       		.uleb128 0x3
 4324 0130 0E       		.uleb128 0xe
 4325 0131 3A       		.uleb128 0x3a
 4326 0132 0B       		.uleb128 0xb
 4327 0133 3B       		.uleb128 0x3b
 4328 0134 05       		.uleb128 0x5
 4329 0135 27       		.uleb128 0x27
 4330 0136 19       		.uleb128 0x19
 4331 0137 11       		.uleb128 0x11
 4332 0138 01       		.uleb128 0x1
 4333 0139 12       		.uleb128 0x12
 4334 013a 06       		.uleb128 0x6
 4335 013b 40       		.uleb128 0x40
 4336 013c 18       		.uleb128 0x18
 4337 013d 9642     		.uleb128 0x2116
 4338 013f 19       		.uleb128 0x19
 4339 0140 01       		.uleb128 0x1
 4340 0141 13       		.uleb128 0x13
 4341 0142 00       		.byte	0
 4342 0143 00       		.byte	0
 4343 0144 18       		.uleb128 0x18
 4344 0145 34       		.uleb128 0x34
 4345 0146 00       		.byte	0
 4346 0147 03       		.uleb128 0x3
 4347 0148 0E       		.uleb128 0xe
 4348 0149 3A       		.uleb128 0x3a
 4349 014a 0B       		.uleb128 0xb
 4350 014b 3B       		.uleb128 0x3b
 4351 014c 05       		.uleb128 0x5
ARM GAS  C:\Users\sergio\AppData\Local\Temp\ccqEDlrG.s 			page 96


 4352 014d 49       		.uleb128 0x49
 4353 014e 13       		.uleb128 0x13
 4354 014f 02       		.uleb128 0x2
 4355 0150 18       		.uleb128 0x18
 4356 0151 00       		.byte	0
 4357 0152 00       		.byte	0
 4358 0153 19       		.uleb128 0x19
 4359 0154 2E       		.uleb128 0x2e
 4360 0155 00       		.byte	0
 4361 0156 3F       		.uleb128 0x3f
 4362 0157 19       		.uleb128 0x19
 4363 0158 03       		.uleb128 0x3
 4364 0159 0E       		.uleb128 0xe
 4365 015a 3A       		.uleb128 0x3a
 4366 015b 0B       		.uleb128 0xb
 4367 015c 3B       		.uleb128 0x3b
 4368 015d 05       		.uleb128 0x5
 4369 015e 11       		.uleb128 0x11
 4370 015f 01       		.uleb128 0x1
 4371 0160 12       		.uleb128 0x12
 4372 0161 06       		.uleb128 0x6
 4373 0162 40       		.uleb128 0x40
 4374 0163 18       		.uleb128 0x18
 4375 0164 9642     		.uleb128 0x2116
 4376 0166 19       		.uleb128 0x19
 4377 0167 00       		.byte	0
 4378 0168 00       		.byte	0
 4379 0169 1A       		.uleb128 0x1a
 4380 016a 2E       		.uleb128 0x2e
 4381 016b 01       		.byte	0x1
 4382 016c 3F       		.uleb128 0x3f
 4383 016d 19       		.uleb128 0x19
 4384 016e 03       		.uleb128 0x3
 4385 016f 0E       		.uleb128 0xe
 4386 0170 3A       		.uleb128 0x3a
 4387 0171 0B       		.uleb128 0xb
 4388 0172 3B       		.uleb128 0x3b
 4389 0173 05       		.uleb128 0x5
 4390 0174 49       		.uleb128 0x49
 4391 0175 13       		.uleb128 0x13
 4392 0176 11       		.uleb128 0x11
 4393 0177 01       		.uleb128 0x1
 4394 0178 12       		.uleb128 0x12
 4395 0179 06       		.uleb128 0x6
 4396 017a 40       		.uleb128 0x40
 4397 017b 18       		.uleb128 0x18
 4398 017c 9642     		.uleb128 0x2116
 4399 017e 19       		.uleb128 0x19
 4400 017f 01       		.uleb128 0x1
 4401 0180 13       		.uleb128 0x13
 4402 0181 00       		.byte	0
 4403 0182 00       		.byte	0
 4404 0183 1B       		.uleb128 0x1b
 4405 0184 05       		.uleb128 0x5
 4406 0185 00       		.byte	0
 4407 0186 03       		.uleb128 0x3
 4408 0187 0E       		.uleb128 0xe
ARM GAS  C:\Users\sergio\AppData\Local\Temp\ccqEDlrG.s 			page 97


 4409 0188 3A       		.uleb128 0x3a
 4410 0189 0B       		.uleb128 0xb
 4411 018a 3B       		.uleb128 0x3b
 4412 018b 05       		.uleb128 0x5
 4413 018c 49       		.uleb128 0x49
 4414 018d 13       		.uleb128 0x13
 4415 018e 02       		.uleb128 0x2
 4416 018f 18       		.uleb128 0x18
 4417 0190 00       		.byte	0
 4418 0191 00       		.byte	0
 4419 0192 1C       		.uleb128 0x1c
 4420 0193 0B       		.uleb128 0xb
 4421 0194 01       		.byte	0x1
 4422 0195 11       		.uleb128 0x11
 4423 0196 01       		.uleb128 0x1
 4424 0197 12       		.uleb128 0x12
 4425 0198 06       		.uleb128 0x6
 4426 0199 00       		.byte	0
 4427 019a 00       		.byte	0
 4428 019b 1D       		.uleb128 0x1d
 4429 019c 34       		.uleb128 0x34
 4430 019d 00       		.byte	0
 4431 019e 03       		.uleb128 0x3
 4432 019f 08       		.uleb128 0x8
 4433 01a0 3A       		.uleb128 0x3a
 4434 01a1 0B       		.uleb128 0xb
 4435 01a2 3B       		.uleb128 0x3b
 4436 01a3 05       		.uleb128 0x5
 4437 01a4 49       		.uleb128 0x49
 4438 01a5 13       		.uleb128 0x13
 4439 01a6 02       		.uleb128 0x2
 4440 01a7 18       		.uleb128 0x18
 4441 01a8 00       		.byte	0
 4442 01a9 00       		.byte	0
 4443 01aa 1E       		.uleb128 0x1e
 4444 01ab 2E       		.uleb128 0x2e
 4445 01ac 01       		.byte	0x1
 4446 01ad 3F       		.uleb128 0x3f
 4447 01ae 19       		.uleb128 0x19
 4448 01af 03       		.uleb128 0x3
 4449 01b0 0E       		.uleb128 0xe
 4450 01b1 3A       		.uleb128 0x3a
 4451 01b2 0B       		.uleb128 0xb
 4452 01b3 3B       		.uleb128 0x3b
 4453 01b4 05       		.uleb128 0x5
 4454 01b5 11       		.uleb128 0x11
 4455 01b6 01       		.uleb128 0x1
 4456 01b7 12       		.uleb128 0x12
 4457 01b8 06       		.uleb128 0x6
 4458 01b9 40       		.uleb128 0x40
 4459 01ba 18       		.uleb128 0x18
 4460 01bb 9642     		.uleb128 0x2116
 4461 01bd 19       		.uleb128 0x19
 4462 01be 01       		.uleb128 0x1
 4463 01bf 13       		.uleb128 0x13
 4464 01c0 00       		.byte	0
 4465 01c1 00       		.byte	0
ARM GAS  C:\Users\sergio\AppData\Local\Temp\ccqEDlrG.s 			page 98


 4466 01c2 1F       		.uleb128 0x1f
 4467 01c3 2E       		.uleb128 0x2e
 4468 01c4 01       		.byte	0x1
 4469 01c5 3F       		.uleb128 0x3f
 4470 01c6 19       		.uleb128 0x19
 4471 01c7 03       		.uleb128 0x3
 4472 01c8 0E       		.uleb128 0xe
 4473 01c9 3A       		.uleb128 0x3a
 4474 01ca 0B       		.uleb128 0xb
 4475 01cb 3B       		.uleb128 0x3b
 4476 01cc 05       		.uleb128 0x5
 4477 01cd 27       		.uleb128 0x27
 4478 01ce 19       		.uleb128 0x19
 4479 01cf 11       		.uleb128 0x11
 4480 01d0 01       		.uleb128 0x1
 4481 01d1 12       		.uleb128 0x12
 4482 01d2 06       		.uleb128 0x6
 4483 01d3 40       		.uleb128 0x40
 4484 01d4 18       		.uleb128 0x18
 4485 01d5 9742     		.uleb128 0x2117
 4486 01d7 19       		.uleb128 0x19
 4487 01d8 01       		.uleb128 0x1
 4488 01d9 13       		.uleb128 0x13
 4489 01da 00       		.byte	0
 4490 01db 00       		.byte	0
 4491 01dc 20       		.uleb128 0x20
 4492 01dd 05       		.uleb128 0x5
 4493 01de 00       		.byte	0
 4494 01df 03       		.uleb128 0x3
 4495 01e0 08       		.uleb128 0x8
 4496 01e1 3A       		.uleb128 0x3a
 4497 01e2 0B       		.uleb128 0xb
 4498 01e3 3B       		.uleb128 0x3b
 4499 01e4 05       		.uleb128 0x5
 4500 01e5 49       		.uleb128 0x49
 4501 01e6 13       		.uleb128 0x13
 4502 01e7 02       		.uleb128 0x2
 4503 01e8 18       		.uleb128 0x18
 4504 01e9 00       		.byte	0
 4505 01ea 00       		.byte	0
 4506 01eb 21       		.uleb128 0x21
 4507 01ec 2E       		.uleb128 0x2e
 4508 01ed 01       		.byte	0x1
 4509 01ee 3F       		.uleb128 0x3f
 4510 01ef 19       		.uleb128 0x19
 4511 01f0 03       		.uleb128 0x3
 4512 01f1 0E       		.uleb128 0xe
 4513 01f2 3A       		.uleb128 0x3a
 4514 01f3 0B       		.uleb128 0xb
 4515 01f4 3B       		.uleb128 0x3b
 4516 01f5 05       		.uleb128 0x5
 4517 01f6 27       		.uleb128 0x27
 4518 01f7 19       		.uleb128 0x19
 4519 01f8 49       		.uleb128 0x49
 4520 01f9 13       		.uleb128 0x13
 4521 01fa 11       		.uleb128 0x11
 4522 01fb 01       		.uleb128 0x1
ARM GAS  C:\Users\sergio\AppData\Local\Temp\ccqEDlrG.s 			page 99


 4523 01fc 12       		.uleb128 0x12
 4524 01fd 06       		.uleb128 0x6
 4525 01fe 40       		.uleb128 0x40
 4526 01ff 18       		.uleb128 0x18
 4527 0200 9642     		.uleb128 0x2116
 4528 0202 19       		.uleb128 0x19
 4529 0203 01       		.uleb128 0x1
 4530 0204 13       		.uleb128 0x13
 4531 0205 00       		.byte	0
 4532 0206 00       		.byte	0
 4533 0207 22       		.uleb128 0x22
 4534 0208 34       		.uleb128 0x34
 4535 0209 00       		.byte	0
 4536 020a 03       		.uleb128 0x3
 4537 020b 0E       		.uleb128 0xe
 4538 020c 3A       		.uleb128 0x3a
 4539 020d 0B       		.uleb128 0xb
 4540 020e 3B       		.uleb128 0x3b
 4541 020f 05       		.uleb128 0x5
 4542 0210 49       		.uleb128 0x49
 4543 0211 13       		.uleb128 0x13
 4544 0212 3F       		.uleb128 0x3f
 4545 0213 19       		.uleb128 0x19
 4546 0214 3C       		.uleb128 0x3c
 4547 0215 19       		.uleb128 0x19
 4548 0216 00       		.byte	0
 4549 0217 00       		.byte	0
 4550 0218 23       		.uleb128 0x23
 4551 0219 34       		.uleb128 0x34
 4552 021a 00       		.byte	0
 4553 021b 03       		.uleb128 0x3
 4554 021c 0E       		.uleb128 0xe
 4555 021d 3A       		.uleb128 0x3a
 4556 021e 0B       		.uleb128 0xb
 4557 021f 3B       		.uleb128 0x3b
 4558 0220 0B       		.uleb128 0xb
 4559 0221 49       		.uleb128 0x49
 4560 0222 13       		.uleb128 0x13
 4561 0223 3F       		.uleb128 0x3f
 4562 0224 19       		.uleb128 0x19
 4563 0225 02       		.uleb128 0x2
 4564 0226 18       		.uleb128 0x18
 4565 0227 00       		.byte	0
 4566 0228 00       		.byte	0
 4567 0229 00       		.byte	0
 4568              		.section	.debug_aranges,"",%progbits
 4569 0000 94000000 		.4byte	0x94
 4570 0004 0200     		.2byte	0x2
 4571 0006 00000000 		.4byte	.Ldebug_info0
 4572 000a 04       		.byte	0x4
 4573 000b 00       		.byte	0
 4574 000c 0000     		.2byte	0
 4575 000e 0000     		.2byte	0
 4576 0010 00000000 		.4byte	.LFB36
 4577 0014 78000000 		.4byte	.LFE36-.LFB36
 4578 0018 00000000 		.4byte	.LFB37
 4579 001c 7C010000 		.4byte	.LFE37-.LFB37
ARM GAS  C:\Users\sergio\AppData\Local\Temp\ccqEDlrG.s 			page 100


 4580 0020 00000000 		.4byte	.LFB38
 4581 0024 84000000 		.4byte	.LFE38-.LFB38
 4582 0028 00000000 		.4byte	.LFB39
 4583 002c 74000000 		.4byte	.LFE39-.LFB39
 4584 0030 00000000 		.4byte	.LFB40
 4585 0034 A4020000 		.4byte	.LFE40-.LFB40
 4586 0038 00000000 		.4byte	.LFB41
 4587 003c 58000000 		.4byte	.LFE41-.LFB41
 4588 0040 00000000 		.4byte	.LFB42
 4589 0044 32000000 		.4byte	.LFE42-.LFB42
 4590 0048 00000000 		.4byte	.LFB43
 4591 004c 46000000 		.4byte	.LFE43-.LFB43
 4592 0050 00000000 		.4byte	.LFB44
 4593 0054 4A000000 		.4byte	.LFE44-.LFB44
 4594 0058 00000000 		.4byte	.LFB45
 4595 005c 4A000000 		.4byte	.LFE45-.LFB45
 4596 0060 00000000 		.4byte	.LFB46
 4597 0064 78010000 		.4byte	.LFE46-.LFB46
 4598 0068 00000000 		.4byte	.LFB47
 4599 006c F0010000 		.4byte	.LFE47-.LFB47
 4600 0070 00000000 		.4byte	.LFB48
 4601 0074 50000000 		.4byte	.LFE48-.LFB48
 4602 0078 00000000 		.4byte	.LFB49
 4603 007c 1E000000 		.4byte	.LFE49-.LFB49
 4604 0080 00000000 		.4byte	.LFB50
 4605 0084 20000000 		.4byte	.LFE50-.LFB50
 4606 0088 00000000 		.4byte	.LFB51
 4607 008c 1C050000 		.4byte	.LFE51-.LFB51
 4608 0090 00000000 		.4byte	0
 4609 0094 00000000 		.4byte	0
 4610              		.section	.debug_ranges,"",%progbits
 4611              	.Ldebug_ranges0:
 4612 0000 00000000 		.4byte	.LFB36
 4613 0004 78000000 		.4byte	.LFE36
 4614 0008 00000000 		.4byte	.LFB37
 4615 000c 7C010000 		.4byte	.LFE37
 4616 0010 00000000 		.4byte	.LFB38
 4617 0014 84000000 		.4byte	.LFE38
 4618 0018 00000000 		.4byte	.LFB39
 4619 001c 74000000 		.4byte	.LFE39
 4620 0020 00000000 		.4byte	.LFB40
 4621 0024 A4020000 		.4byte	.LFE40
 4622 0028 00000000 		.4byte	.LFB41
 4623 002c 58000000 		.4byte	.LFE41
 4624 0030 00000000 		.4byte	.LFB42
 4625 0034 32000000 		.4byte	.LFE42
 4626 0038 00000000 		.4byte	.LFB43
 4627 003c 46000000 		.4byte	.LFE43
 4628 0040 00000000 		.4byte	.LFB44
 4629 0044 4A000000 		.4byte	.LFE44
 4630 0048 00000000 		.4byte	.LFB45
 4631 004c 4A000000 		.4byte	.LFE45
 4632 0050 00000000 		.4byte	.LFB46
 4633 0054 78010000 		.4byte	.LFE46
 4634 0058 00000000 		.4byte	.LFB47
 4635 005c F0010000 		.4byte	.LFE47
 4636 0060 00000000 		.4byte	.LFB48
ARM GAS  C:\Users\sergio\AppData\Local\Temp\ccqEDlrG.s 			page 101


 4637 0064 50000000 		.4byte	.LFE48
 4638 0068 00000000 		.4byte	.LFB49
 4639 006c 1E000000 		.4byte	.LFE49
 4640 0070 00000000 		.4byte	.LFB50
 4641 0074 20000000 		.4byte	.LFE50
 4642 0078 00000000 		.4byte	.LFB51
 4643 007c 1C050000 		.4byte	.LFE51
 4644 0080 00000000 		.4byte	0
 4645 0084 00000000 		.4byte	0
 4646              		.section	.debug_line,"",%progbits
 4647              	.Ldebug_line0:
 4648 0000 B7040000 		.section	.debug_str,"MS",%progbits,1
 4648      02009701 
 4648      00000201 
 4648      FB0E0D00 
 4648      01010101 
 4649              	.LASF61:
 4650 0000 4359424C 		.ascii	"CYBLE_EVT_GATTC_READ_BLOB_RSP\000"
 4650      455F4556 
 4650      545F4741 
 4650      5454435F 
 4650      52454144 
 4651              	.LASF25:
 4652 001e 4359424C 		.ascii	"CYBLE_EVT_STACK_BUSY_STATUS\000"
 4652      455F4556 
 4652      545F5354 
 4652      41434B5F 
 4652      42555359 
 4653              	.LASF195:
 4654 003a 6572726F 		.ascii	"errorPower\000"
 4654      72506F77 
 4654      657200
 4655              	.LASF105:
 4656 0045 4359424C 		.ascii	"CYBLE_STATE_STOPPED\000"
 4656      455F5354 
 4656      4154455F 
 4656      53544F50 
 4656      50454400 
 4657              	.LASF192:
 4658 0059 61646352 		.ascii	"adcRead\000"
 4658      65616400 
 4659              	.LASF130:
 4660 0061 64617461 		.ascii	"dataCollected\000"
 4660      436F6C6C 
 4660      65637465 
 4660      6400
 4661              	.LASF95:
 4662 006f 4359424C 		.ascii	"CYBLE_CONN_HANDLE_T\000"
 4662      455F434F 
 4662      4E4E5F48 
 4662      414E444C 
 4662      455F5400 
 4663              	.LASF197:
 4664 0083 70726576 		.ascii	"prevLFan\000"
 4664      4C46616E 
 4664      00
 4665              	.LASF102:
ARM GAS  C:\Users\sergio\AppData\Local\Temp\ccqEDlrG.s 			page 102


 4666 008c 636F6E6E 		.ascii	"connHandle\000"
 4666      48616E64 
 4666      6C6500
 4667              	.LASF87:
 4668 0097 4359424C 		.ascii	"CYBLE_EVT_PENDING_FLASH_WRITE\000"
 4668      455F4556 
 4668      545F5045 
 4668      4E44494E 
 4668      475F464C 
 4669              	.LASF170:
 4670 00b5 72656164 		.ascii	"read_power_chips\000"
 4670      5F706F77 
 4670      65725F63 
 4670      68697073 
 4670      00
 4671              	.LASF124:
 4672 00c6 6C696E65 		.ascii	"lineFreqFan\000"
 4672      46726571 
 4672      46616E00 
 4673              	.LASF9:
 4674 00d2 5F5F7569 		.ascii	"__uint8_t\000"
 4674      6E74385F 
 4674      7400
 4675              	.LASF181:
 4676 00dc 73746174 		.ascii	"statusStart\000"
 4676      75735374 
 4676      61727400 
 4677              	.LASF176:
 4678 00e8 636F6D70 		.ascii	"comp\000"
 4678      00
 4679              	.LASF22:
 4680 00ed 4359424C 		.ascii	"CYBLE_EVT_TIMEOUT\000"
 4680      455F4556 
 4680      545F5449 
 4680      4D454F55 
 4680      5400
 4681              	.LASF4:
 4682 00ff 6C6F6E67 		.ascii	"long int\000"
 4682      20696E74 
 4682      00
 4683              	.LASF131:
 4684 0108 636F6D70 		.ascii	"compressor\000"
 4684      72657373 
 4684      6F7200
 4685              	.LASF146:
 4686 0113 75706461 		.ascii	"updateThermostatData\000"
 4686      74655468 
 4686      65726D6F 
 4686      73746174 
 4686      44617461 
 4687              	.LASF7:
 4688 0128 6C6F6E67 		.ascii	"long long unsigned int\000"
 4688      206C6F6E 
 4688      6720756E 
 4688      7369676E 
 4688      65642069 
 4689              	.LASF97:
ARM GAS  C:\Users\sergio\AppData\Local\Temp\ccqEDlrG.s 			page 103


 4690 013f 4359424C 		.ascii	"CYBLE_GATT_VALUE_T\000"
 4690      455F4741 
 4690      54545F56 
 4690      414C5545 
 4690      5F5400
 4691              	.LASF24:
 4692 0152 4359424C 		.ascii	"CYBLE_EVT_HCI_STATUS\000"
 4692      455F4556 
 4692      545F4843 
 4692      495F5354 
 4692      41545553 
 4693              	.LASF127:
 4694 0167 61636359 		.ascii	"accY\000"
 4694      00
 4695              	.LASF128:
 4696 016c 6163635A 		.ascii	"accZ\000"
 4696      00
 4697              	.LASF104:
 4698 0171 4359424C 		.ascii	"CYBLE_GATTS_WRITE_REQ_PARAM_T\000"
 4698      455F4741 
 4698      5454535F 
 4698      57524954 
 4698      455F5245 
 4699              	.LASF117:
 4700 018f 766F6C74 		.ascii	"voltCompressor\000"
 4700      436F6D70 
 4700      72657373 
 4700      6F7200
 4701              	.LASF76:
 4702 019e 4359424C 		.ascii	"CYBLE_EVT_L2CAP_CONN_PARAM_UPDATE_REQ\000"
 4702      455F4556 
 4702      545F4C32 
 4702      4341505F 
 4702      434F4E4E 
 4703              	.LASF36:
 4704 01c4 4359424C 		.ascii	"CYBLE_EVT_GAP_ENCRYPT_CHANGE\000"
 4704      455F4556 
 4704      545F4741 
 4704      505F454E 
 4704      43525950 
 4705              	.LASF172:
 4706 01e1 72656164 		.ascii	"read_Air_Flow\000"
 4706      5F416972 
 4706      5F466C6F 
 4706      7700
 4707              	.LASF40:
 4708 01ef 4359424C 		.ascii	"CYBLE_EVT_GAP_NUMERIC_COMPARISON_REQUEST\000"
 4708      455F4556 
 4708      545F4741 
 4708      505F4E55 
 4708      4D455249 
 4709              	.LASF157:
 4710 0218 53656E64 		.ascii	"SendDataNotify\000"
 4710      44617461 
 4710      4E6F7469 
 4710      667900
 4711              	.LASF113:
ARM GAS  C:\Users\sergio\AppData\Local\Temp\ccqEDlrG.s 			page 104


 4712 0227 72656D6F 		.ascii	"remoteTemp1\000"
 4712      74655465 
 4712      6D703100 
 4713              	.LASF108:
 4714 0233 4359424C 		.ascii	"CYBLE_STATE_ADVERTISING\000"
 4714      455F5354 
 4714      4154455F 
 4714      41445645 
 4714      52544953 
 4715              	.LASF115:
 4716 024b 72656D6F 		.ascii	"remoteTemp3\000"
 4716      74655465 
 4716      6D703300 
 4717              	.LASF116:
 4718 0257 72656D6F 		.ascii	"remoteTemp4\000"
 4718      74655465 
 4718      6D703400 
 4719              	.LASF0:
 4720 0263 7369676E 		.ascii	"signed char\000"
 4720      65642063 
 4720      68617200 
 4721              	.LASF21:
 4722 026f 4359424C 		.ascii	"CYBLE_EVT_STACK_ON\000"
 4722      455F4556 
 4722      545F5354 
 4722      41434B5F 
 4722      4F4E00
 4723              	.LASF132:
 4724 0282 66616E4C 		.ascii	"fanLow\000"
 4724      6F7700
 4725              	.LASF119:
 4726 0289 766F6C74 		.ascii	"volt\000"
 4726      00
 4727              	.LASF38:
 4728 028e 4359424C 		.ascii	"CYBLE_EVT_GAPC_SCAN_START_STOP\000"
 4728      455F4556 
 4728      545F4741 
 4728      50435F53 
 4728      43414E5F 
 4729              	.LASF96:
 4730 02ad 61637475 		.ascii	"actualLen\000"
 4730      616C4C65 
 4730      6E00
 4731              	.LASF28:
 4732 02b7 4359424C 		.ascii	"CYBLE_EVT_GAP_AUTH_REQ\000"
 4732      455F4556 
 4732      545F4741 
 4732      505F4155 
 4732      54485F52 
 4733              	.LASF152:
 4734 02ce 6572726F 		.ascii	"errorRead\000"
 4734      72526561 
 4734      6400
 4735              	.LASF60:
 4736 02d8 4359424C 		.ascii	"CYBLE_EVT_GATTC_READ_RSP\000"
 4736      455F4556 
 4736      545F4741 
ARM GAS  C:\Users\sergio\AppData\Local\Temp\ccqEDlrG.s 			page 105


 4736      5454435F 
 4736      52454144 
 4737              	.LASF196:
 4738 02f1 70726576 		.ascii	"prevComp\000"
 4738      436F6D70 
 4738      00
 4739              	.LASF145:
 4740 02fa 6572726F 		.ascii	"errorCode\000"
 4740      72436F64 
 4740      6500
 4741              	.LASF134:
 4742 0304 73657454 		.ascii	"setTemperature\000"
 4742      656D7065 
 4742      72617475 
 4742      726500
 4743              	.LASF65:
 4744 0313 4359424C 		.ascii	"CYBLE_EVT_GATTS_WRITE_CMD_REQ\000"
 4744      455F4556 
 4744      545F4741 
 4744      5454535F 
 4744      57524954 
 4745              	.LASF109:
 4746 0331 4359424C 		.ascii	"CYBLE_STATE_DISCONNECTED\000"
 4746      455F5354 
 4746      4154455F 
 4746      44495343 
 4746      4F4E4E45 
 4747              	.LASF189:
 4748 034a 626C6543 		.ascii	"bleConnected\000"
 4748      6F6E6E65 
 4748      63746564 
 4748      00
 4749              	.LASF33:
 4750 0357 4359424C 		.ascii	"CYBLE_EVT_GAPP_ADVERTISEMENT_START_STOP\000"
 4750      455F4556 
 4750      545F4741 
 4750      50505F41 
 4750      44564552 
 4751              	.LASF118:
 4752 037f 766F6C74 		.ascii	"voltFan\000"
 4752      46616E00 
 4753              	.LASF121:
 4754 0387 63757272 		.ascii	"currentFan\000"
 4754      656E7446 
 4754      616E00
 4755              	.LASF54:
 4756 0392 4359424C 		.ascii	"CYBLE_EVT_GATTS_XCNHG_MTU_REQ\000"
 4756      455F4556 
 4756      545F4741 
 4756      5454535F 
 4756      58434E48 
 4757              	.LASF11:
 4758 03b0 75696E74 		.ascii	"uint8\000"
 4758      3800
 4759              	.LASF6:
 4760 03b6 6C6F6E67 		.ascii	"long long int\000"
 4760      206C6F6E 
ARM GAS  C:\Users\sergio\AppData\Local\Temp\ccqEDlrG.s 			page 106


 4760      6720696E 
 4760      7400
 4761              	.LASF68:
 4762 03c4 4359424C 		.ascii	"CYBLE_EVT_GATTC_EXEC_WRITE_RSP\000"
 4762      455F4556 
 4762      545F4741 
 4762      5454435F 
 4762      45584543 
 4763              	.LASF16:
 4764 03e3 646F7562 		.ascii	"double\000"
 4764      6C6500
 4765              	.LASF201:
 4766 03ea 433A5C55 		.ascii	"C:\\Users\\sergio\\Documents\\GitHub\\thermostat\\t"
 4766      73657273 
 4766      5C736572 
 4766      67696F5C 
 4766      446F6375 
 4767 0417 6573742E 		.ascii	"est.cydsn\000"
 4767      63796473 
 4767      6E00
 4768              	.LASF13:
 4769 0421 75696E74 		.ascii	"uint32\000"
 4769      333200
 4770              	.LASF142:
 4771 0428 6572725F 		.ascii	"err_LFan_curr\000"
 4771      4C46616E 
 4771      5F637572 
 4771      7200
 4772              	.LASF111:
 4773 0436 6C6F6361 		.ascii	"localTemp\000"
 4773      6C54656D 
 4773      7000
 4774              	.LASF91:
 4775 0440 4359424C 		.ascii	"CYBLE_EVT_MAX\000"
 4775      455F4556 
 4775      545F4D41 
 4775      5800
 4776              	.LASF51:
 4777 044e 4359424C 		.ascii	"CYBLE_EVT_GATTC_ERROR_RSP\000"
 4777      455F4556 
 4777      545F4741 
 4777      5454435F 
 4777      4552524F 
 4778              	.LASF93:
 4779 0468 62644861 		.ascii	"bdHandle\000"
 4779      6E646C65 
 4779      00
 4780              	.LASF99:
 4781 0471 61747472 		.ascii	"attrHandle\000"
 4781      48616E64 
 4781      6C6500
 4782              	.LASF120:
 4783 047c 63757272 		.ascii	"currentCompressor\000"
 4783      656E7443 
 4783      6F6D7072 
 4783      6573736F 
 4783      7200
ARM GAS  C:\Users\sergio\AppData\Local\Temp\ccqEDlrG.s 			page 107


 4784              	.LASF86:
 4785 048e 4359424C 		.ascii	"CYBLE_EVT_L2CAP_CBFC_DATA_WRITE_IND\000"
 4785      455F4556 
 4785      545F4C32 
 4785      4341505F 
 4785      43424643 
 4786              	.LASF48:
 4787 04b2 4359424C 		.ascii	"CYBLE_EVT_GAP_SCAN_REQ_RECVD\000"
 4787      455F4556 
 4787      545F4741 
 4787      505F5343 
 4787      414E5F52 
 4788              	.LASF27:
 4789 04cf 4359424C 		.ascii	"CYBLE_EVT_GAPC_SCAN_PROGRESS_RESULT\000"
 4789      455F4556 
 4789      545F4741 
 4789      50435F53 
 4789      43414E5F 
 4790              	.LASF98:
 4791 04f3 76616C75 		.ascii	"value\000"
 4791      6500
 4792              	.LASF75:
 4793 04f9 4359424C 		.ascii	"CYBLE_EVT_GATTC_LONG_PROCEDURE_END\000"
 4793      455F4556 
 4793      545F4741 
 4793      5454435F 
 4793      4C4F4E47 
 4794              	.LASF194:
 4795 051c 74686572 		.ascii	"thermo\000"
 4795      6D6F00
 4796              	.LASF73:
 4797 0523 4359424C 		.ascii	"CYBLE_EVT_GATTC_STOP_CMD_COMPLETE\000"
 4797      455F4556 
 4797      545F4741 
 4797      5454435F 
 4797      53544F50 
 4798              	.LASF178:
 4799 0545 66616E48 		.ascii	"fanH\000"
 4799      00
 4800              	.LASF8:
 4801 054a 756E7369 		.ascii	"unsigned int\000"
 4801      676E6564 
 4801      20696E74 
 4801      00
 4802              	.LASF138:
 4803 0557 74686572 		.ascii	"thermostatData\000"
 4803      6D6F7374 
 4803      61744461 
 4803      746100
 4804              	.LASF88:
 4805 0566 4359424C 		.ascii	"CYBLE_EVT_LE_PING_AUTH_TIMEOUT\000"
 4805      455F4556 
 4805      545F4C45 
 4805      5F50494E 
 4805      475F4155 
 4806              	.LASF177:
 4807 0585 66616E4C 		.ascii	"fanL\000"
ARM GAS  C:\Users\sergio\AppData\Local\Temp\ccqEDlrG.s 			page 108


 4807      00
 4808              	.LASF183:
 4809 058a 6379426C 		.ascii	"cyBle_connHandle\000"
 4809      655F636F 
 4809      6E6E4861 
 4809      6E646C65 
 4809      00
 4810              	.LASF5:
 4811 059b 6C6F6E67 		.ascii	"long unsigned int\000"
 4811      20756E73 
 4811      69676E65 
 4811      6420696E 
 4811      7400
 4812              	.LASF47:
 4813 05ad 4359424C 		.ascii	"CYBLE_EVT_GAP_CONN_ESTB\000"
 4813      455F4556 
 4813      545F4741 
 4813      505F434F 
 4813      4E4E5F45 
 4814              	.LASF147:
 4815 05c5 626C6553 		.ascii	"bleStack\000"
 4815      7461636B 
 4815      00
 4816              	.LASF37:
 4817 05ce 4359424C 		.ascii	"CYBLE_EVT_GAP_CONNECTION_UPDATE_COMPLETE\000"
 4817      455F4556 
 4817      545F4741 
 4817      505F434F 
 4817      4E4E4543 
 4818              	.LASF55:
 4819 05f7 4359424C 		.ascii	"CYBLE_EVT_GATTC_XCHNG_MTU_RSP\000"
 4819      455F4556 
 4819      545F4741 
 4819      5454435F 
 4819      5843484E 
 4820              	.LASF72:
 4821 0615 4359424C 		.ascii	"CYBLE_EVT_GATTS_DATA_SIGNED_CMD_REQ\000"
 4821      455F4556 
 4821      545F4741 
 4821      5454535F 
 4821      44415441 
 4822              	.LASF82:
 4823 0639 4359424C 		.ascii	"CYBLE_EVT_L2CAP_CBFC_DISCONN_CNF\000"
 4823      455F4556 
 4823      545F4C32 
 4823      4341505F 
 4823      43424643 
 4824              	.LASF148:
 4825 065a 6576656E 		.ascii	"event\000"
 4825      7400
 4826              	.LASF3:
 4827 0660 73686F72 		.ascii	"short unsigned int\000"
 4827      7420756E 
 4827      7369676E 
 4827      65642069 
 4827      6E7400
 4828              	.LASF20:
ARM GAS  C:\Users\sergio\AppData\Local\Temp\ccqEDlrG.s 			page 109


 4829 0673 4359424C 		.ascii	"CYBLE_EVT_HOST_INVALID\000"
 4829      455F4556 
 4829      545F484F 
 4829      53545F49 
 4829      4E56414C 
 4830              	.LASF58:
 4831 068a 4359424C 		.ascii	"CYBLE_EVT_GATTC_FIND_INFO_RSP\000"
 4831      455F4556 
 4831      545F4741 
 4831      5454435F 
 4831      46494E44 
 4832              	.LASF26:
 4833 06a8 4359424C 		.ascii	"CYBLE_EVT_MEMORY_REQUEST\000"
 4833      455F4556 
 4833      545F4D45 
 4833      4D4F5259 
 4833      5F524551 
 4834              	.LASF156:
 4835 06c1 72656164 		.ascii	"readThermo\000"
 4835      54686572 
 4835      6D6F00
 4836              	.LASF112:
 4837 06cc 68756D69 		.ascii	"humidity\000"
 4837      64697479 
 4837      00
 4838              	.LASF14:
 4839 06d5 696E7438 		.ascii	"int8\000"
 4839      00
 4840              	.LASF67:
 4841 06da 4359424C 		.ascii	"CYBLE_EVT_GATTS_EXEC_WRITE_REQ\000"
 4841      455F4556 
 4841      545F4741 
 4841      5454535F 
 4841      45584543 
 4842              	.LASF83:
 4843 06f9 4359424C 		.ascii	"CYBLE_EVT_L2CAP_CBFC_DATA_READ\000"
 4843      455F4556 
 4843      545F4C32 
 4843      4341505F 
 4843      43424643 
 4844              	.LASF29:
 4845 0718 4359424C 		.ascii	"CYBLE_EVT_GAP_PASSKEY_ENTRY_REQUEST\000"
 4845      455F4556 
 4845      545F4741 
 4845      505F5041 
 4845      53534B45 
 4846              	.LASF34:
 4847 073c 4359424C 		.ascii	"CYBLE_EVT_GAP_DEVICE_CONNECTED\000"
 4847      455F4556 
 4847      545F4741 
 4847      505F4445 
 4847      56494345 
 4848              	.LASF70:
 4849 075b 4359424C 		.ascii	"CYBLE_EVT_GATTC_HANDLE_VALUE_IND\000"
 4849      455F4556 
 4849      545F4741 
 4849      5454435F 
ARM GAS  C:\Users\sergio\AppData\Local\Temp\ccqEDlrG.s 			page 110


 4849      48414E44 
 4850              	.LASF63:
 4851 077c 4359424C 		.ascii	"CYBLE_EVT_GATTS_WRITE_REQ\000"
 4851      455F4556 
 4851      545F4741 
 4851      5454535F 
 4851      57524954 
 4852              	.LASF49:
 4853 0796 4359424C 		.ascii	"CYBLE_EVT_GAP_AUTH_REQ_REPLY_ERR\000"
 4853      455F4556 
 4853      545F4741 
 4853      505F4155 
 4853      54485F52 
 4854              	.LASF94:
 4855 07b7 61747449 		.ascii	"attId\000"
 4855      6400
 4856              	.LASF182:
 4857 07bd 6379426C 		.ascii	"cyBle_state\000"
 4857      655F7374 
 4857      61746500 
 4858              	.LASF199:
 4859 07c9 474E5520 		.ascii	"GNU C11 5.4.1 20160609 (release) [ARM/embedded-5-br"
 4859      43313120 
 4859      352E342E 
 4859      31203230 
 4859      31363036 
 4860 07fc 616E6368 		.ascii	"anch revision 237715] -mcpu=cortex-m0 -mthumb -g -O"
 4860      20726576 
 4860      6973696F 
 4860      6E203233 
 4860      37373135 
 4861 082f 30202D66 		.ascii	"0 -ffunction-sections -ffat-lto-objects\000"
 4861      66756E63 
 4861      74696F6E 
 4861      2D736563 
 4861      74696F6E 
 4862              	.LASF185:
 4863 0857 74686572 		.ascii	"thermoHandle\000"
 4863      6D6F4861 
 4863      6E646C65 
 4863      00
 4864              	.LASF52:
 4865 0864 4359424C 		.ascii	"CYBLE_EVT_GATT_CONNECT_IND\000"
 4865      455F4556 
 4865      545F4741 
 4865      54545F43 
 4865      4F4E4E45 
 4866              	.LASF180:
 4867 087f 72656164 		.ascii	"read_buff\000"
 4867      5F627566 
 4867      6600
 4868              	.LASF198:
 4869 0889 70726576 		.ascii	"prevHFan\000"
 4869      4846616E 
 4869      00
 4870              	.LASF186:
 4871 0892 696E7465 		.ascii	"interruptFlag\000"
ARM GAS  C:\Users\sergio\AppData\Local\Temp\ccqEDlrG.s 			page 111


 4871      72727570 
 4871      74466C61 
 4871      6700
 4872              	.LASF78:
 4873 08a0 4359424C 		.ascii	"CYBLE_EVT_L2CAP_COMMAND_REJ\000"
 4873      455F4556 
 4873      545F4C32 
 4873      4341505F 
 4873      434F4D4D 
 4874              	.LASF141:
 4875 08bc 6572725F 		.ascii	"err_LFan_volt\000"
 4875      4C46616E 
 4875      5F766F6C 
 4875      7400
 4876              	.LASF103:
 4877 08ca 68616E64 		.ascii	"handleValPair\000"
 4877      6C655661 
 4877      6C506169 
 4877      7200
 4878              	.LASF50:
 4879 08d8 4359424C 		.ascii	"CYBLE_EVT_GAP_SMP_LOC_P256_KEYS_GEN_AND_SET_COMPLET"
 4879      455F4556 
 4879      545F4741 
 4879      505F534D 
 4879      505F4C4F 
 4880 090b 4500     		.ascii	"E\000"
 4881              	.LASF79:
 4882 090d 4359424C 		.ascii	"CYBLE_EVT_L2CAP_CBFC_CONN_IND\000"
 4882      455F4556 
 4882      545F4C32 
 4882      4341505F 
 4882      43424643 
 4883              	.LASF57:
 4884 092b 4359424C 		.ascii	"CYBLE_EVT_GATTC_READ_BY_TYPE_RSP\000"
 4884      455F4556 
 4884      545F4741 
 4884      5454435F 
 4884      52454144 
 4885              	.LASF168:
 4886 094c 6175746F 		.ascii	"auto_calibrate_gain\000"
 4886      5F63616C 
 4886      69627261 
 4886      74655F67 
 4886      61696E00 
 4887              	.LASF19:
 4888 0960 73697A65 		.ascii	"sizetype\000"
 4888      74797065 
 4888      00
 4889              	.LASF101:
 4890 0969 4359424C 		.ascii	"CYBLE_GATTS_HANDLE_VALUE_NTF_T\000"
 4890      455F4741 
 4890      5454535F 
 4890      48414E44 
 4890      4C455F56 
 4891              	.LASF18:
 4892 0988 6C6F6E67 		.ascii	"long double\000"
 4892      20646F75 
ARM GAS  C:\Users\sergio\AppData\Local\Temp\ccqEDlrG.s 			page 112


 4892      626C6500 
 4893              	.LASF174:
 4894 0994 6D795F69 		.ascii	"my_interrupt\000"
 4894      6E746572 
 4894      72757074 
 4894      00
 4895              	.LASF169:
 4896 09a1 61646472 		.ascii	"address\000"
 4896      65737300 
 4897              	.LASF64:
 4898 09a9 4359424C 		.ascii	"CYBLE_EVT_GATTC_WRITE_RSP\000"
 4898      455F4556 
 4898      545F4741 
 4898      5454435F 
 4898      57524954 
 4899              	.LASF45:
 4900 09c3 4359424C 		.ascii	"CYBLE_EVT_GAPC_DIRECT_ADV_REPORT\000"
 4900      455F4556 
 4900      545F4741 
 4900      50435F44 
 4900      49524543 
 4901              	.LASF43:
 4902 09e4 4359424C 		.ascii	"CYBLE_EVT_GAP_DATA_LENGTH_CHANGE\000"
 4902      455F4556 
 4902      545F4741 
 4902      505F4441 
 4902      54415F4C 
 4903              	.LASF31:
 4904 0a05 4359424C 		.ascii	"CYBLE_EVT_GAP_AUTH_COMPLETE\000"
 4904      455F4556 
 4904      545F4741 
 4904      505F4155 
 4904      54485F43 
 4905              	.LASF125:
 4906 0a21 6C696E65 		.ascii	"lineFreq\000"
 4906      46726571 
 4906      00
 4907              	.LASF154:
 4908 0a2a 73656E64 		.ascii	"send_Thermo_to_phone\000"
 4908      5F546865 
 4908      726D6F5F 
 4908      746F5F70 
 4908      686F6E65 
 4909              	.LASF69:
 4910 0a3f 4359424C 		.ascii	"CYBLE_EVT_GATTC_HANDLE_VALUE_NTF\000"
 4910      455F4556 
 4910      545F4741 
 4910      5454435F 
 4910      48414E44 
 4911              	.LASF100:
 4912 0a60 4359424C 		.ascii	"CYBLE_GATT_HANDLE_VALUE_PAIR_T\000"
 4912      455F4741 
 4912      54545F48 
 4912      414E444C 
 4912      455F5641 
 4913              	.LASF163:
 4914 0a7f 72656164 		.ascii	"read_thermostat_pins\000"
ARM GAS  C:\Users\sergio\AppData\Local\Temp\ccqEDlrG.s 			page 113


 4914      5F746865 
 4914      726D6F73 
 4914      7461745F 
 4914      70696E73 
 4915              	.LASF80:
 4916 0a94 4359424C 		.ascii	"CYBLE_EVT_L2CAP_CBFC_CONN_CNF\000"
 4916      455F4556 
 4916      545F4C32 
 4916      4341505F 
 4916      43424643 
 4917              	.LASF122:
 4918 0ab2 63757272 		.ascii	"current\000"
 4918      656E7400 
 4919              	.LASF56:
 4920 0aba 4359424C 		.ascii	"CYBLE_EVT_GATTC_READ_BY_GROUP_TYPE_RSP\000"
 4920      455F4556 
 4920      545F4741 
 4920      5454435F 
 4920      52454144 
 4921              	.LASF129:
 4922 0ae1 61697246 		.ascii	"airFlow\000"
 4922      6C6F7700 
 4923              	.LASF15:
 4924 0ae9 666C6F61 		.ascii	"float\000"
 4924      7400
 4925              	.LASF126:
 4926 0aef 61636358 		.ascii	"accX\000"
 4926      00
 4927              	.LASF171:
 4928 0af4 72427566 		.ascii	"rBuff\000"
 4928      6600
 4929              	.LASF155:
 4930 0afa 74686572 		.ascii	"thermoRead\000"
 4930      6D6F5265 
 4930      616400
 4931              	.LASF160:
 4932 0b05 75706461 		.ascii	"updateNotificationCCCD\000"
 4932      74654E6F 
 4932      74696669 
 4932      63617469 
 4932      6F6E4343 
 4933              	.LASF42:
 4934 0b1c 4359424C 		.ascii	"CYBLE_EVT_GAP_OOB_GENERATED_NOTIFICATION\000"
 4934      455F4556 
 4934      545F4741 
 4934      505F4F4F 
 4934      425F4745 
 4935              	.LASF159:
 4936 0b45 64617461 		.ascii	"dataForBLE\000"
 4936      466F7242 
 4936      4C4500
 4937              	.LASF136:
 4938 0b50 706F7765 		.ascii	"power\000"
 4938      7200
 4939              	.LASF1:
 4940 0b56 756E7369 		.ascii	"unsigned char\000"
 4940      676E6564 
ARM GAS  C:\Users\sergio\AppData\Local\Temp\ccqEDlrG.s 			page 114


 4940      20636861 
 4940      7200
 4941              	.LASF12:
 4942 0b64 75696E74 		.ascii	"uint16\000"
 4942      313600
 4943              	.LASF41:
 4944 0b6b 4359424C 		.ascii	"CYBLE_EVT_GAP_KEYPRESS_NOTIFICATION\000"
 4944      455F4556 
 4944      545F4741 
 4944      505F4B45 
 4944      59505245 
 4945              	.LASF173:
 4946 0b8f 64656C61 		.ascii	"delay\000"
 4946      7900
 4947              	.LASF184:
 4948 0b95 6379426C 		.ascii	"cyBle_busyStatus\000"
 4948      655F6275 
 4948      73795374 
 4948      61747573 
 4948      00
 4949              	.LASF114:
 4950 0ba6 72656D6F 		.ascii	"remoteTemp2\000"
 4950      74655465 
 4950      6D703200 
 4951              	.LASF2:
 4952 0bb2 73686F72 		.ascii	"short int\000"
 4952      7420696E 
 4952      7400
 4953              	.LASF144:
 4954 0bbc 6572725F 		.ascii	"err_HFan_curr\000"
 4954      4846616E 
 4954      5F637572 
 4954      7200
 4955              	.LASF179:
 4956 0bca 636F756E 		.ascii	"counter\000"
 4956      74657200 
 4957              	.LASF175:
 4958 0bd2 74656D70 		.ascii	"temp2\000"
 4958      3200
 4959              	.LASF158:
 4960 0bd8 6E6F7469 		.ascii	"notiHandle\000"
 4960      48616E64 
 4960      6C6500
 4961              	.LASF151:
 4962 0be3 77725265 		.ascii	"wrReq\000"
 4962      7100
 4963              	.LASF89:
 4964 0be9 4359424C 		.ascii	"CYBLE_EVT_HCI_PKT\000"
 4964      455F4556 
 4964      545F4843 
 4964      495F504B 
 4964      5400
 4965              	.LASF66:
 4966 0bfb 4359424C 		.ascii	"CYBLE_EVT_GATTS_PREP_WRITE_REQ\000"
 4966      455F4556 
 4966      545F4741 
 4966      5454535F 
ARM GAS  C:\Users\sergio\AppData\Local\Temp\ccqEDlrG.s 			page 115


 4966      50524550 
 4967              	.LASF153:
 4968 0c1a 73656E64 		.ascii	"send_Error_Power_to_Phone\000"
 4968      5F457272 
 4968      6F725F50 
 4968      6F776572 
 4968      5F746F5F 
 4969              	.LASF190:
 4970 0c34 75617274 		.ascii	"uartStr\000"
 4970      53747200 
 4971              	.LASF71:
 4972 0c3c 4359424C 		.ascii	"CYBLE_EVT_GATTS_HANDLE_VALUE_CNF\000"
 4972      455F4556 
 4972      545F4741 
 4972      5454535F 
 4972      48414E44 
 4973              	.LASF123:
 4974 0c5d 6C696E65 		.ascii	"lineFreqComp\000"
 4974      46726571 
 4974      436F6D70 
 4974      00
 4975              	.LASF32:
 4976 0c6a 4359424C 		.ascii	"CYBLE_EVT_GAP_AUTH_FAILED\000"
 4976      455F4556 
 4976      545F4741 
 4976      505F4155 
 4976      54485F46 
 4977              	.LASF46:
 4978 0c84 4359424C 		.ascii	"CYBLE_EVT_GAP_SMP_NEGOTIATED_AUTH_INFO\000"
 4978      455F4556 
 4978      545F4741 
 4978      505F534D 
 4978      505F4E45 
 4979              	.LASF135:
 4980 0cab 616D6269 		.ascii	"ambientTemp\000"
 4980      656E7454 
 4980      656D7000 
 4981              	.LASF191:
 4982 0cb7 6770696F 		.ascii	"gpioPins\000"
 4982      50696E73 
 4982      00
 4983              	.LASF17:
 4984 0cc0 63686172 		.ascii	"char\000"
 4984      00
 4985              	.LASF62:
 4986 0cc5 4359424C 		.ascii	"CYBLE_EVT_GATTC_READ_MULTI_RSP\000"
 4986      455F4556 
 4986      545F4741 
 4986      5454435F 
 4986      52454144 
 4987              	.LASF35:
 4988 0ce4 4359424C 		.ascii	"CYBLE_EVT_GAP_DEVICE_DISCONNECTED\000"
 4988      455F4556 
 4988      545F4741 
 4988      505F4445 
 4988      56494345 
 4989              	.LASF74:
ARM GAS  C:\Users\sergio\AppData\Local\Temp\ccqEDlrG.s 			page 116


 4990 0d06 4359424C 		.ascii	"CYBLE_EVT_GATTS_READ_CHAR_VAL_ACCESS_REQ\000"
 4990      455F4556 
 4990      545F4741 
 4990      5454535F 
 4990      52454144 
 4991              	.LASF84:
 4992 0d2f 4359424C 		.ascii	"CYBLE_EVT_L2CAP_CBFC_RX_CREDIT_IND\000"
 4992      455F4556 
 4992      545F4C32 
 4992      4341505F 
 4992      43424643 
 4993              	.LASF161:
 4994 0d52 73656E73 		.ascii	"sensorNotCCCDHandle\000"
 4994      6F724E6F 
 4994      74434343 
 4994      4448616E 
 4994      646C6500 
 4995              	.LASF137:
 4996 0d66 74657374 		.ascii	"test\000"
 4996      00
 4997              	.LASF85:
 4998 0d6b 4359424C 		.ascii	"CYBLE_EVT_L2CAP_CBFC_TX_CREDIT_IND\000"
 4998      455F4556 
 4998      545F4C32 
 4998      4341505F 
 4998      43424643 
 4999              	.LASF30:
 5000 0d8e 4359424C 		.ascii	"CYBLE_EVT_GAP_PASSKEY_DISPLAY_REQUEST\000"
 5000      455F4556 
 5000      545F4741 
 5000      505F5041 
 5000      53534B45 
 5001              	.LASF23:
 5002 0db4 4359424C 		.ascii	"CYBLE_EVT_HARDWARE_ERROR\000"
 5002      455F4556 
 5002      545F4841 
 5002      52445741 
 5002      52455F45 
 5003              	.LASF188:
 5004 0dcd 75706461 		.ascii	"updateIsNotifyCCCDAttr\000"
 5004      74654973 
 5004      4E6F7469 
 5004      66794343 
 5004      43444174 
 5005              	.LASF167:
 5006 0de4 636F6E66 		.ascii	"configure_temperature_sensor1\000"
 5006      69677572 
 5006      655F7465 
 5006      6D706572 
 5006      61747572 
 5007              	.LASF166:
 5008 0e02 636F6E66 		.ascii	"configure_temperature_sensor2\000"
 5008      69677572 
 5008      655F7465 
 5008      6D706572 
 5008      61747572 
 5009              	.LASF162:
ARM GAS  C:\Users\sergio\AppData\Local\Temp\ccqEDlrG.s 			page 117


 5010 0e20 73656E73 		.ascii	"sensorCCCDVal\000"
 5010      6F724343 
 5010      43445661 
 5010      6C00
 5011              	.LASF200:
 5012 0e2e 6D61696E 		.ascii	"main.c\000"
 5012      2E6300
 5013              	.LASF164:
 5014 0e35 70696E73 		.ascii	"pins\000"
 5014      00
 5015              	.LASF193:
 5016 0e3a 73656E73 		.ascii	"sensorData\000"
 5016      6F724461 
 5016      746100
 5017              	.LASF149:
 5018 0e45 6576656E 		.ascii	"eventParam\000"
 5018      74506172 
 5018      616D00
 5019              	.LASF140:
 5020 0e50 6572725F 		.ascii	"err_Comp_curr\000"
 5020      436F6D70 
 5020      5F637572 
 5020      7200
 5021              	.LASF143:
 5022 0e5e 6572725F 		.ascii	"err_HFan_volt\000"
 5022      4846616E 
 5022      5F766F6C 
 5022      7400
 5023              	.LASF110:
 5024 0e6c 4359424C 		.ascii	"CYBLE_STATE_T\000"
 5024      455F5354 
 5024      4154455F 
 5024      5400
 5025              	.LASF133:
 5026 0e7a 66616E48 		.ascii	"fanHigh\000"
 5026      69676800 
 5027              	.LASF10:
 5028 0e82 75696E74 		.ascii	"uint8_t\000"
 5028      385F7400 
 5029              	.LASF106:
 5030 0e8a 4359424C 		.ascii	"CYBLE_STATE_INITIALIZING\000"
 5030      455F5354 
 5030      4154455F 
 5030      494E4954 
 5030      49414C49 
 5031              	.LASF107:
 5032 0ea3 4359424C 		.ascii	"CYBLE_STATE_CONNECTED\000"
 5032      455F5354 
 5032      4154455F 
 5032      434F4E4E 
 5032      45435445 
 5033              	.LASF59:
 5034 0eb9 4359424C 		.ascii	"CYBLE_EVT_GATTC_FIND_BY_TYPE_VALUE_RSP\000"
 5034      455F4556 
 5034      545F4741 
 5034      5454435F 
 5034      46494E44 
ARM GAS  C:\Users\sergio\AppData\Local\Temp\ccqEDlrG.s 			page 118


 5035              	.LASF39:
 5036 0ee0 4359424C 		.ascii	"CYBLE_EVT_GAP_KEYINFO_EXCHNGE_CMPLT\000"
 5036      455F4556 
 5036      545F4741 
 5036      505F4B45 
 5036      59494E46 
 5037              	.LASF81:
 5038 0f04 4359424C 		.ascii	"CYBLE_EVT_L2CAP_CBFC_DISCONN_IND\000"
 5038      455F4556 
 5038      545F4C32 
 5038      4341505F 
 5038      43424643 
 5039              	.LASF165:
 5040 0f25 696E6974 		.ascii	"initialized_input_gpioExp\000"
 5040      69616C69 
 5040      7A65645F 
 5040      696E7075 
 5040      745F6770 
 5041              	.LASF139:
 5042 0f3f 6572725F 		.ascii	"err_Comp_volt\000"
 5042      436F6D70 
 5042      5F766F6C 
 5042      7400
 5043              	.LASF77:
 5044 0f4d 4359424C 		.ascii	"CYBLE_EVT_L2CAP_CONN_PARAM_UPDATE_RSP\000"
 5044      455F4556 
 5044      545F4C32 
 5044      4341505F 
 5044      434F4E4E 
 5045              	.LASF202:
 5046 0f73 6D61696E 		.ascii	"main\000"
 5046      00
 5047              	.LASF44:
 5048 0f78 4359424C 		.ascii	"CYBLE_EVT_GAP_ENHANCE_CONN_COMPLETE\000"
 5048      455F4556 
 5048      545F4741 
 5048      505F454E 
 5048      48414E43 
 5049              	.LASF92:
 5050 0f9c 4359424C 		.ascii	"CYBLE_GATT_DB_ATTR_HANDLE_T\000"
 5050      455F4741 
 5050      54545F44 
 5050      425F4154 
 5050      54525F48 
 5051              	.LASF187:
 5052 0fb8 69734E6F 		.ascii	"isNotify\000"
 5052      74696679 
 5052      00
 5053              	.LASF53:
 5054 0fc1 4359424C 		.ascii	"CYBLE_EVT_GATT_DISCONNECT_IND\000"
 5054      455F4556 
 5054      545F4741 
 5054      54545F44 
 5054      4953434F 
 5055              	.LASF90:
 5056 0fdf 4359424C 		.ascii	"CYBLE_EVT_FLASH_CORRUPT\000"
 5056      455F4556 
ARM GAS  C:\Users\sergio\AppData\Local\Temp\ccqEDlrG.s 			page 119


 5056      545F464C 
 5056      4153485F 
 5056      434F5252 
 5057              	.LASF150:
 5058 0ff7 74686572 		.ascii	"thermoTemp\000"
 5058      6D6F5465 
 5058      6D7000
 5059              		.ident	"GCC: (GNU Tools for ARM Embedded Processors) 5.4.1 20160609 (release) [ARM/embedded-5-bran
