ARM GAS  C:\Users\sergio\AppData\Local\Temp\ccFrgvX1.s 			page 1


   1              		.syntax unified
   2              		.cpu cortex-m0
   3              		.fpu softvfp
   4              		.eabi_attribute 20, 1
   5              		.eabi_attribute 21, 1
   6              		.eabi_attribute 23, 3
   7              		.eabi_attribute 24, 1
   8              		.eabi_attribute 25, 1
   9              		.eabi_attribute 26, 1
  10              		.eabi_attribute 30, 6
  11              		.eabi_attribute 34, 0
  12              		.eabi_attribute 18, 4
  13              		.thumb
  14              		.syntax unified
  15              		.file	"main.c"
  16              		.text
  17              	.Ltext0:
  18              		.cfi_sections	.debug_frame
  19              		.section	.text.initialized_input_gpioExp,"ax",%progbits
  20              		.align	2
  21              		.global	initialized_input_gpioExp
  22              		.code	16
  23              		.thumb_func
  24              		.type	initialized_input_gpioExp, %function
  25              	initialized_input_gpioExp:
  26              	.LFB36:
  27              		.file 1 "main.c"
   1:main.c        **** /* ========================================
   2:main.c        ****  *
   3:main.c        ****  * Copyright YOUR COMPANY, THE YEAR
   4:main.c        ****  * All Rights Reserved
   5:main.c        ****  * UNPUBLISHED, LICENSED SOFTWARE.
   6:main.c        ****  *
   7:main.c        ****  * CONFIDENTIAL AND PROPRIETARY INFORMATION
   8:main.c        ****  * WHICH IS THE PROPERTY OF your company.
   9:main.c        ****  *
  10:main.c        ****  * ========================================
  11:main.c        **** */
  12:main.c        **** #include <project.h>
  13:main.c        **** 
  14:main.c        **** #include <stdio.h>
  15:main.c        **** #include <stdlib.h>
  16:main.c        **** 
  17:main.c        **** // These are for the gpio exp.
  18:main.c        **** #define ADDR (0x70)
  19:main.c        **** #define REG_READ (0x00)
  20:main.c        **** #define REG_WRITE (0x01)
  21:main.c        **** #define REG_CONFIG (0x03)
  22:main.c        **** 
  23:main.c        **** 
  24:main.c        **** // the address fro the temp sensor are 0x4C and 0x4D
  25:main.c        **** 
  26:main.c        **** 
  27:main.c        **** 
  28:main.c        **** 
  29:main.c        **** void initialized_input_gpioExp(){
  28              		.loc 1 29 0
ARM GAS  C:\Users\sergio\AppData\Local\Temp\ccFrgvX1.s 			page 2


  29              		.cfi_startproc
  30              		@ args = 0, pretend = 0, frame = 0
  31              		@ frame_needed = 1, uses_anonymous_args = 0
  32 0000 80B5     		push	{r7, lr}
  33              		.cfi_def_cfa_offset 8
  34              		.cfi_offset 7, -8
  35              		.cfi_offset 14, -4
  36 0002 00AF     		add	r7, sp, #0
  37              		.cfi_def_cfa_register 7
  30:main.c        ****    I2C_1_I2CMasterSendStart(ADDR,I2C_1_I2C_WRITE_XFER_MODE, 100u);
  38              		.loc 1 30 0
  39 0004 6422     		movs	r2, #100
  40 0006 0021     		movs	r1, #0
  41 0008 7020     		movs	r0, #112
  42 000a FFF7FEFF 		bl	I2C_1_I2CMasterSendStart
  31:main.c        ****    I2C_1_I2CMasterWriteByte(REG_CONFIG, 100u);
  43              		.loc 1 31 0
  44 000e 6421     		movs	r1, #100
  45 0010 0320     		movs	r0, #3
  46 0012 FFF7FEFF 		bl	I2C_1_I2CMasterWriteByte
  32:main.c        ****    I2C_1_I2CMasterWriteByte(0xFF, 100u);
  47              		.loc 1 32 0
  48 0016 6421     		movs	r1, #100
  49 0018 FF20     		movs	r0, #255
  50 001a FFF7FEFF 		bl	I2C_1_I2CMasterWriteByte
  33:main.c        ****    I2C_1_I2CMasterSendStop(100u);
  51              		.loc 1 33 0
  52 001e 6420     		movs	r0, #100
  53 0020 FFF7FEFF 		bl	I2C_1_I2CMasterSendStop
  34:main.c        **** }
  54              		.loc 1 34 0
  55 0024 C046     		nop
  56 0026 BD46     		mov	sp, r7
  57              		@ sp needed
  58 0028 80BD     		pop	{r7, pc}
  59              		.cfi_endproc
  60              	.LFE36:
  61              		.size	initialized_input_gpioExp, .-initialized_input_gpioExp
  62 002a C046     		.section	.text.read_thermostat_pins,"ax",%progbits
  63              		.align	2
  64              		.global	read_thermostat_pins
  65              		.code	16
  66              		.thumb_func
  67              		.type	read_thermostat_pins, %function
  68              	read_thermostat_pins:
  69              	.LFB37:
  35:main.c        **** 
  36:main.c        **** uint8 read_thermostat_pins(){
  70              		.loc 1 36 0
  71              		.cfi_startproc
  72              		@ args = 0, pretend = 0, frame = 8
  73              		@ frame_needed = 1, uses_anonymous_args = 0
  74 0000 80B5     		push	{r7, lr}
  75              		.cfi_def_cfa_offset 8
  76              		.cfi_offset 7, -8
  77              		.cfi_offset 14, -4
  78 0002 82B0     		sub	sp, sp, #8
ARM GAS  C:\Users\sergio\AppData\Local\Temp\ccFrgvX1.s 			page 3


  79              		.cfi_def_cfa_offset 16
  80 0004 00AF     		add	r7, sp, #0
  81              		.cfi_def_cfa_register 7
  37:main.c        ****    
  38:main.c        ****     uint8 pins = 0u;
  82              		.loc 1 38 0
  83 0006 FB1D     		adds	r3, r7, #7
  84 0008 0022     		movs	r2, #0
  85 000a 1A70     		strb	r2, [r3]
  39:main.c        **** 
  40:main.c        ****    I2C_1_I2CMasterSendStart(ADDR, I2C_1_I2C_WRITE_XFER_MODE, 100u);
  86              		.loc 1 40 0
  87 000c 6422     		movs	r2, #100
  88 000e 0021     		movs	r1, #0
  89 0010 7020     		movs	r0, #112
  90 0012 FFF7FEFF 		bl	I2C_1_I2CMasterSendStart
  41:main.c        ****    I2C_1_I2CMasterWriteByte(REG_READ, 100u);
  91              		.loc 1 41 0
  92 0016 6421     		movs	r1, #100
  93 0018 0020     		movs	r0, #0
  94 001a FFF7FEFF 		bl	I2C_1_I2CMasterWriteByte
  42:main.c        ****    I2C_1_I2CMasterSendRestart(ADDR,I2C_1_I2C_READ_XFER_MODE, 100u);
  95              		.loc 1 42 0
  96 001e 6422     		movs	r2, #100
  97 0020 0121     		movs	r1, #1
  98 0022 7020     		movs	r0, #112
  99 0024 FFF7FEFF 		bl	I2C_1_I2CMasterSendRestart
  43:main.c        ****    I2C_1_I2CMasterReadByte(I2C_1_I2C_NAK_DATA,(uint8 *) &pins,100u);
 100              		.loc 1 43 0
 101 0028 FB1D     		adds	r3, r7, #7
 102 002a 6422     		movs	r2, #100
 103 002c 1900     		movs	r1, r3
 104 002e 0120     		movs	r0, #1
 105 0030 FFF7FEFF 		bl	I2C_1_I2CMasterReadByte
  44:main.c        ****    I2C_1_I2CMasterSendStop(100u);
 106              		.loc 1 44 0
 107 0034 6420     		movs	r0, #100
 108 0036 FFF7FEFF 		bl	I2C_1_I2CMasterSendStop
  45:main.c        ****     
  46:main.c        ****     return pins;
 109              		.loc 1 46 0
 110 003a FB1D     		adds	r3, r7, #7
 111 003c 1B78     		ldrb	r3, [r3]
  47:main.c        **** }
 112              		.loc 1 47 0
 113 003e 1800     		movs	r0, r3
 114 0040 BD46     		mov	sp, r7
 115 0042 02B0     		add	sp, sp, #8
 116              		@ sp needed
 117 0044 80BD     		pop	{r7, pc}
 118              		.cfi_endproc
 119              	.LFE37:
 120              		.size	read_thermostat_pins, .-read_thermostat_pins
 121 0046 C046     		.section	.text.configure_temperature_sensor2,"ax",%progbits
 122              		.align	2
 123              		.global	configure_temperature_sensor2
 124              		.code	16
ARM GAS  C:\Users\sergio\AppData\Local\Temp\ccFrgvX1.s 			page 4


 125              		.thumb_func
 126              		.type	configure_temperature_sensor2, %function
 127              	configure_temperature_sensor2:
 128              	.LFB38:
  48:main.c        **** 
  49:main.c        **** void configure_temperature_sensor2(){
 129              		.loc 1 49 0
 130              		.cfi_startproc
 131              		@ args = 0, pretend = 0, frame = 0
 132              		@ frame_needed = 1, uses_anonymous_args = 0
 133 0000 80B5     		push	{r7, lr}
 134              		.cfi_def_cfa_offset 8
 135              		.cfi_offset 7, -8
 136              		.cfi_offset 14, -4
 137 0002 00AF     		add	r7, sp, #0
 138              		.cfi_def_cfa_register 7
  50:main.c        ****         // Config register 1
  51:main.c        ****    I2C_1_I2CMasterSendStart(0x4C, I2C_1_I2C_WRITE_XFER_MODE, 100u);
 139              		.loc 1 51 0
 140 0004 6422     		movs	r2, #100
 141 0006 0021     		movs	r1, #0
 142 0008 4C20     		movs	r0, #76
 143 000a FFF7FEFF 		bl	I2C_1_I2CMasterSendStart
  52:main.c        ****    I2C_1_I2CMasterWriteByte(0x09, 100u);
 144              		.loc 1 52 0
 145 000e 6421     		movs	r1, #100
 146 0010 0920     		movs	r0, #9
 147 0012 FFF7FEFF 		bl	I2C_1_I2CMasterWriteByte
  53:main.c        ****    I2C_1_I2CMasterWriteByte(0x84, 100u);
 148              		.loc 1 53 0
 149 0016 6421     		movs	r1, #100
 150 0018 8420     		movs	r0, #132
 151 001a FFF7FEFF 		bl	I2C_1_I2CMasterWriteByte
  54:main.c        ****    I2C_1_I2CMasterSendStop(100u);
 152              		.loc 1 54 0
 153 001e 6420     		movs	r0, #100
 154 0020 FFF7FEFF 		bl	I2C_1_I2CMasterSendStop
  55:main.c        ****    //Config register 2
  56:main.c        ****    I2C_1_I2CMasterSendStart(0x4C, I2C_1_I2C_WRITE_XFER_MODE, 100u);
 155              		.loc 1 56 0
 156 0024 6422     		movs	r2, #100
 157 0026 0021     		movs	r1, #0
 158 0028 4C20     		movs	r0, #76
 159 002a FFF7FEFF 		bl	I2C_1_I2CMasterSendStart
  57:main.c        ****    I2C_1_I2CMasterWriteByte(0x3F, 100u);
 160              		.loc 1 57 0
 161 002e 6421     		movs	r1, #100
 162 0030 3F20     		movs	r0, #63
 163 0032 FFF7FEFF 		bl	I2C_1_I2CMasterWriteByte
  58:main.c        ****    I2C_1_I2CMasterWriteByte(0x3C, 100u);
 164              		.loc 1 58 0
 165 0036 6421     		movs	r1, #100
 166 0038 3C20     		movs	r0, #60
 167 003a FFF7FEFF 		bl	I2C_1_I2CMasterWriteByte
  59:main.c        ****    I2C_1_I2CMasterSendStop(100u);   
 168              		.loc 1 59 0
 169 003e 6420     		movs	r0, #100
ARM GAS  C:\Users\sergio\AppData\Local\Temp\ccFrgvX1.s 			page 5


 170 0040 FFF7FEFF 		bl	I2C_1_I2CMasterSendStop
  60:main.c        **** }
 171              		.loc 1 60 0
 172 0044 C046     		nop
 173 0046 BD46     		mov	sp, r7
 174              		@ sp needed
 175 0048 80BD     		pop	{r7, pc}
 176              		.cfi_endproc
 177              	.LFE38:
 178              		.size	configure_temperature_sensor2, .-configure_temperature_sensor2
 179 004a C046     		.section	.text.configure_temperature_sensor1,"ax",%progbits
 180              		.align	2
 181              		.global	configure_temperature_sensor1
 182              		.code	16
 183              		.thumb_func
 184              		.type	configure_temperature_sensor1, %function
 185              	configure_temperature_sensor1:
 186              	.LFB39:
  61:main.c        **** 
  62:main.c        **** void configure_temperature_sensor1(){
 187              		.loc 1 62 0
 188              		.cfi_startproc
 189              		@ args = 0, pretend = 0, frame = 0
 190              		@ frame_needed = 1, uses_anonymous_args = 0
 191 0000 80B5     		push	{r7, lr}
 192              		.cfi_def_cfa_offset 8
 193              		.cfi_offset 7, -8
 194              		.cfi_offset 14, -4
 195 0002 00AF     		add	r7, sp, #0
 196              		.cfi_def_cfa_register 7
  63:main.c        ****         // Config register 1
  64:main.c        ****    I2C_1_I2CMasterSendStart(0x4D, I2C_1_I2C_WRITE_XFER_MODE, 100u);
 197              		.loc 1 64 0
 198 0004 6422     		movs	r2, #100
 199 0006 0021     		movs	r1, #0
 200 0008 4D20     		movs	r0, #77
 201 000a FFF7FEFF 		bl	I2C_1_I2CMasterSendStart
  65:main.c        ****    I2C_1_I2CMasterWriteByte(0x09, 100u);
 202              		.loc 1 65 0
 203 000e 6421     		movs	r1, #100
 204 0010 0920     		movs	r0, #9
 205 0012 FFF7FEFF 		bl	I2C_1_I2CMasterWriteByte
  66:main.c        ****    I2C_1_I2CMasterWriteByte(0x84, 100u);
 206              		.loc 1 66 0
 207 0016 6421     		movs	r1, #100
 208 0018 8420     		movs	r0, #132
 209 001a FFF7FEFF 		bl	I2C_1_I2CMasterWriteByte
  67:main.c        ****    I2C_1_I2CMasterSendStop(100u);
 210              		.loc 1 67 0
 211 001e 6420     		movs	r0, #100
 212 0020 FFF7FEFF 		bl	I2C_1_I2CMasterSendStop
  68:main.c        ****    //Config register 2
  69:main.c        ****    I2C_1_I2CMasterSendStart(0x4D, I2C_1_I2C_WRITE_XFER_MODE, 100u);
 213              		.loc 1 69 0
 214 0024 6422     		movs	r2, #100
 215 0026 0021     		movs	r1, #0
 216 0028 4D20     		movs	r0, #77
ARM GAS  C:\Users\sergio\AppData\Local\Temp\ccFrgvX1.s 			page 6


 217 002a FFF7FEFF 		bl	I2C_1_I2CMasterSendStart
  70:main.c        ****    I2C_1_I2CMasterWriteByte(0x3F, 100u);
 218              		.loc 1 70 0
 219 002e 6421     		movs	r1, #100
 220 0030 3F20     		movs	r0, #63
 221 0032 FFF7FEFF 		bl	I2C_1_I2CMasterWriteByte
  71:main.c        ****    I2C_1_I2CMasterWriteByte(0x3C, 100u);
 222              		.loc 1 71 0
 223 0036 6421     		movs	r1, #100
 224 0038 3C20     		movs	r0, #60
 225 003a FFF7FEFF 		bl	I2C_1_I2CMasterWriteByte
  72:main.c        ****    I2C_1_I2CMasterSendStop(100u);   
 226              		.loc 1 72 0
 227 003e 6420     		movs	r0, #100
 228 0040 FFF7FEFF 		bl	I2C_1_I2CMasterSendStop
  73:main.c        **** }
 229              		.loc 1 73 0
 230 0044 C046     		nop
 231 0046 BD46     		mov	sp, r7
 232              		@ sp needed
 233 0048 80BD     		pop	{r7, pc}
 234              		.cfi_endproc
 235              	.LFE39:
 236              		.size	configure_temperature_sensor1, .-configure_temperature_sensor1
 237 004a C046     		.section	.rodata
 238              		.align	2
 239              	.LC0:
 240 0000 53656E73 		.ascii	"Sensor 1 temperature is %d\012\000"
 240      6F722031 
 240      2074656D 
 240      70657261 
 240      74757265 
 241              		.align	2
 242              	.LC2:
 243 001c 53656E73 		.ascii	"Sensor 1 Remote temperature 1 is %d \012\000"
 243      6F722031 
 243      2052656D 
 243      6F746520 
 243      74656D70 
 244 0042 0000     		.align	2
 245              	.LC4:
 246 0044 53656E73 		.ascii	"Sensor 1 Remote temperature 2 is %d \012\000"
 246      6F722031 
 246      2052656D 
 246      6F746520 
 246      74656D70 
 247 006a 0000     		.align	2
 248              	.LC6:
 249 006c 0A0A5365 		.ascii	"\012\012Sensor 2 temperature is %d\012\000"
 249      6E736F72 
 249      20322074 
 249      656D7065 
 249      72617475 
 250 008a 0000     		.align	2
 251              	.LC8:
 252 008c 53656E73 		.ascii	"Sensor 2 Remote temperature 1 is %d \012\000"
 252      6F722032 
ARM GAS  C:\Users\sergio\AppData\Local\Temp\ccFrgvX1.s 			page 7


 252      2052656D 
 252      6F746520 
 252      74656D70 
 253 00b2 0000     		.align	2
 254              	.LC10:
 255 00b4 53656E73 		.ascii	"Sensor 2 Remote temperature 2 is %d \012\012\012\012"
 255      6F722032 
 255      2052656D 
 255      6F746520 
 255      74656D70 
 256 00dc 00       		.ascii	"\000"
 257 00dd 000000   		.align	2
 258              	.LC12:
 259 00e0 0A583A20 		.ascii	"\012X: %d %d    12 bit x: %d\012\000"
 259      25642025 
 259      64202020 
 259      20313220 
 259      62697420 
 260 00fb 00       		.align	2
 261              	.LC14:
 262 00fc 793A2025 		.ascii	"y: %d %d      12 bit y: %d\012\000"
 262      64202564 
 262      20202020 
 262      20203132 
 262      20626974 
 263              		.align	2
 264              	.LC16:
 265 0118 5A3A2025 		.ascii	"Z: %d %d      12 bit z: %d\012\012\012\000"
 265      64202564 
 265      20202020 
 265      20203132 
 265      20626974 
 266 0136 0000     		.align	2
 267              	.LC18:
 268 0138 0A74656D 		.ascii	"\012temperature is 0x%x\012\000"
 268      70657261 
 268      74757265 
 268      20697320 
 268      30782578 
 269              		.section	.text.main,"ax",%progbits
 270              		.align	2
 271              		.global	main
 272              		.code	16
 273              		.thumb_func
 274              		.type	main, %function
 275              	main:
 276              	.LFB40:
  74:main.c        **** 
  75:main.c        **** int main (void)
  76:main.c        **** {
 277              		.loc 1 76 0
 278              		.cfi_startproc
 279              		@ args = 0, pretend = 0, frame = 80
 280              		@ frame_needed = 1, uses_anonymous_args = 0
 281 0000 90B5     		push	{r4, r7, lr}
 282              		.cfi_def_cfa_offset 12
 283              		.cfi_offset 4, -12
ARM GAS  C:\Users\sergio\AppData\Local\Temp\ccFrgvX1.s 			page 8


 284              		.cfi_offset 7, -8
 285              		.cfi_offset 14, -4
 286 0002 97B0     		sub	sp, sp, #92
 287              		.cfi_def_cfa_offset 104
 288 0004 02AF     		add	r7, sp, #8
 289              		.cfi_def_cfa 7, 96
  77:main.c        ****     /* Place your initialization/startup code here (e.g. MyInst_Start()) */
  78:main.c        **** 
  79:main.c        ****      CyGlobalIntEnable;  /* Uncomment this line to enable global interrupts. */
 290              		.loc 1 79 0
 291              		.syntax divided
 292              	@ 79 "main.c" 1
 293 0006 62B6     		CPSIE   i
 294              	@ 0 "" 2
  80:main.c        ****     
  81:main.c        ****    // I2C_1_Start();
  82:main.c        ****     
  83:main.c        ****     
  84:main.c        ****     
  85:main.c        ****     
  86:main.c        ****     CEPIN_Write(1);
 295              		.loc 1 86 0
 296              		.thumb
 297              		.syntax unified
 298 0008 0120     		movs	r0, #1
 299 000a FFF7FEFF 		bl	CEPIN_Write
  87:main.c        ****     
  88:main.c        ****     
  89:main.c        ****     RED_Write(0);
 300              		.loc 1 89 0
 301 000e 0020     		movs	r0, #0
 302 0010 FFF7FEFF 		bl	RED_Write
  90:main.c        ****     GREEN_Write(0);
 303              		.loc 1 90 0
 304 0014 0020     		movs	r0, #0
 305 0016 FFF7FEFF 		bl	GREEN_Write
  91:main.c        ****     BLUE_Write(0);
 306              		.loc 1 91 0
 307 001a 0020     		movs	r0, #0
 308 001c FFF7FEFF 		bl	BLUE_Write
  92:main.c        ****     CyDelay(500);
 309              		.loc 1 92 0
 310 0020 FA23     		movs	r3, #250
 311 0022 5B00     		lsls	r3, r3, #1
 312 0024 1800     		movs	r0, r3
 313 0026 FFF7FEFF 		bl	CyDelay
  93:main.c        ****     RED_Write(1);
 314              		.loc 1 93 0
 315 002a 0120     		movs	r0, #1
 316 002c FFF7FEFF 		bl	RED_Write
  94:main.c        ****     GREEN_Write(1);
 317              		.loc 1 94 0
 318 0030 0120     		movs	r0, #1
 319 0032 FFF7FEFF 		bl	GREEN_Write
  95:main.c        ****     BLUE_Write(1);
 320              		.loc 1 95 0
 321 0036 0120     		movs	r0, #1
ARM GAS  C:\Users\sergio\AppData\Local\Temp\ccFrgvX1.s 			page 9


 322 0038 FFF7FEFF 		bl	BLUE_Write
  96:main.c        ****     
  97:main.c        ****     I2C_1_Init();
 323              		.loc 1 97 0
 324 003c FFF7FEFF 		bl	I2C_1_Init
  98:main.c        ****     I2C_1_Enable();
 325              		.loc 1 98 0
 326 0040 FFF7FEFF 		bl	I2C_1_Enable
  99:main.c        ****     
 100:main.c        ****     MyUART_Start();
 327              		.loc 1 100 0
 328 0044 FFF7FEFF 		bl	MyUART_Start
 101:main.c        **** 
 102:main.c        ****     // call after I2C have been initiated
 103:main.c        ****     configure_temperature_sensor2();
 329              		.loc 1 103 0
 330 0048 FFF7FEFF 		bl	configure_temperature_sensor2
 104:main.c        ****     configure_temperature_sensor1();
 331              		.loc 1 104 0
 332 004c FFF7FEFF 		bl	configure_temperature_sensor1
 105:main.c        ****     initialized_input_gpioExp();
 333              		.loc 1 105 0
 334 0050 FFF7FEFF 		bl	initialized_input_gpioExp
 106:main.c        **** 
 107:main.c        **** 
 108:main.c        ****     //N-Factor correction remote 1  0x4D
 109:main.c        **** // I2C_1_I2CMasterSendStart(0x4D, I2C_1_I2C_WRITE_XFER_MODE, 100u);
 110:main.c        **** //   I2C_1_I2CMasterWriteByte(0x27, 100u);
 111:main.c        **** //   I2C_1_I2CMasterWriteByte(0x00, 100u);
 112:main.c        **** //   I2C_1_I2CMasterSendStop(100u);
 113:main.c        **** 
 114:main.c        **** 
 115:main.c        **** 
 116:main.c        **** 
 117:main.c        **** 
 118:main.c        **** //// channel 2 beta range selection   for 0x4C
 119:main.c        **** // I2C_1_I2CMasterSendStart(0x4C, I2C_1_I2C_WRITE_XFER_MODE, 100u);
 120:main.c        **** //   I2C_1_I2CMasterWriteByte(0x26, 100u);
 121:main.c        **** //   I2C_1_I2CMasterWriteByte(0x07, 100u);
 122:main.c        **** //   I2C_1_I2CMasterSendStop(100u);
 123:main.c        **** //
 124:main.c        **** //    //N-Factor correction remote 2  0x4C
 125:main.c        **** // I2C_1_I2CMasterSendStart(0x4C, I2C_1_I2C_WRITE_XFER_MODE, 100u);
 126:main.c        **** //   I2C_1_I2CMasterWriteByte(0x28, 100u);
 127:main.c        **** //   I2C_1_I2CMasterWriteByte(0xFF, 100u);
 128:main.c        **** //   I2C_1_I2CMasterSendStop(100u);
 129:main.c        ****     
 130:main.c        ****     
 131:main.c        ****     
 132:main.c        ****     
 133:main.c        ****     //initialized_input_gpioExp();
 134:main.c        ****     
 135:main.c        **** //    I2C_1_I2CMasterSendStart(ADDR,I2C_1_I2C_WRITE_XFER_MODE, 100u);
 136:main.c        **** //   I2C_1_I2CMasterWriteByte(REG_CONFIG, 100u);
 137:main.c        **** //    I2C_1_I2CMasterWriteByte(0xFF, 100u);
 138:main.c        **** //   I2C_1_I2CMasterSendStop(100u);
 139:main.c        **** 
ARM GAS  C:\Users\sergio\AppData\Local\Temp\ccFrgvX1.s 			page 10


 140:main.c        **** 
 141:main.c        ****     
 142:main.c        **** //        GREEN_Write(0);
 143:main.c        **** //       CyDelay(500);
 144:main.c        **** //        GREEN_Write(1);
 145:main.c        ****     
 146:main.c        ****  
 147:main.c        ****     
 148:main.c        ****    
 149:main.c        ****  
 150:main.c        ****     int loop =  15;
 335              		.loc 1 150 0
 336 0054 0F23     		movs	r3, #15
 337 0056 FB64     		str	r3, [r7, #76]
 151:main.c        ****     uint8_t nfacto = 0;
 338              		.loc 1 151 0
 339 0058 4B23     		movs	r3, #75
 340 005a FB18     		adds	r3, r7, r3
 341 005c 0022     		movs	r2, #0
 342 005e 1A70     		strb	r2, [r3]
 343              	.L18:
 344              	.LBB2:
 152:main.c        ****     
 153:main.c        ****     for(;;)
 154:main.c        ****     {
 155:main.c        ****         
 156:main.c        ****         
 157:main.c        ****         
 158:main.c        ****        //RED_Write(0);
 159:main.c        ****       // BLUE_Write(0);
 160:main.c        ****        //GREEN_Write(0);
 161:main.c        ****         CyDelay(500);
 345              		.loc 1 161 0
 346 0060 FA23     		movs	r3, #250
 347 0062 5B00     		lsls	r3, r3, #1
 348 0064 1800     		movs	r0, r3
 349 0066 FFF7FEFF 		bl	CyDelay
 162:main.c        ****         RED_Write(1);
 350              		.loc 1 162 0
 351 006a 0120     		movs	r0, #1
 352 006c FFF7FEFF 		bl	RED_Write
 163:main.c        ****        BLUE_Write(1);
 353              		.loc 1 163 0
 354 0070 0120     		movs	r0, #1
 355 0072 FFF7FEFF 		bl	BLUE_Write
 164:main.c        ****        GREEN_Write(1);
 356              		.loc 1 164 0
 357 0076 0120     		movs	r0, #1
 358 0078 FFF7FEFF 		bl	GREEN_Write
 165:main.c        ****         
 166:main.c        **** 
 167:main.c        ****    
 168:main.c        **** //    GREEN_Write(0); 
 169:main.c        **** //    BLUE_Write(0);
 170:main.c        **** //    CyDelay(500);
 171:main.c        **** //    GREEN_Write(1); 
 172:main.c        **** //    BLUE_Write(1);
ARM GAS  C:\Users\sergio\AppData\Local\Temp\ccFrgvX1.s 			page 11


 173:main.c        ****     
 174:main.c        ****     volatile uint8 read_buff[2] = {0,0};
 359              		.loc 1 174 0
 360 007c 4023     		movs	r3, #64
 361 007e FB18     		adds	r3, r7, r3
 362 0080 0022     		movs	r2, #0
 363 0082 1A70     		strb	r2, [r3]
 364 0084 4023     		movs	r3, #64
 365 0086 FB18     		adds	r3, r7, r3
 366 0088 0022     		movs	r2, #0
 367 008a 5A70     		strb	r2, [r3, #1]
 175:main.c        **** 
 176:main.c        ****     
 177:main.c        ****     //uint8 pins = 0u;
 178:main.c        **** uint8_t temp = 0;
 368              		.loc 1 178 0
 369 008c 3F23     		movs	r3, #63
 370 008e FB18     		adds	r3, r7, r3
 371 0090 0022     		movs	r2, #0
 372 0092 1A70     		strb	r2, [r3]
 179:main.c        **** uint8_t tempR1 = 0;
 373              		.loc 1 179 0
 374 0094 3E23     		movs	r3, #62
 375 0096 FB18     		adds	r3, r7, r3
 376 0098 0022     		movs	r2, #0
 377 009a 1A70     		strb	r2, [r3]
 180:main.c        **** uint8_t tempR2 = 0;
 378              		.loc 1 180 0
 379 009c 3D23     		movs	r3, #61
 380 009e FB18     		adds	r3, r7, r3
 381 00a0 0022     		movs	r2, #0
 382 00a2 1A70     		strb	r2, [r3]
 181:main.c        ****   
 182:main.c        ****     
 183:main.c        **** //    switch(loop){
 184:main.c        **** //        case 15: 
 185:main.c        **** //        nfacto = 0x7F;
 186:main.c        **** //        loop-=1;
 187:main.c        **** //        break;
 188:main.c        **** //        
 189:main.c        **** //        case 14:
 190:main.c        **** //        nfacto = 0x0A;
 191:main.c        **** //        loop-=1;
 192:main.c        **** //        break;
 193:main.c        **** //        
 194:main.c        **** //        case 13:
 195:main.c        **** //        nfacto = 0x08;
 196:main.c        **** //        loop-=1;
 197:main.c        **** //        break;
 198:main.c        **** //        
 199:main.c        **** //        case 12:
 200:main.c        **** //        nfacto = 0x06;
 201:main.c        **** //        loop-=1;
 202:main.c        **** //        break;
 203:main.c        **** //        
 204:main.c        **** //        case 11:
 205:main.c        **** //        nfacto = 0x04;
ARM GAS  C:\Users\sergio\AppData\Local\Temp\ccFrgvX1.s 			page 12


 206:main.c        **** //        loop-=1;
 207:main.c        **** //        break;
 208:main.c        **** //        
 209:main.c        **** //        case 10:
 210:main.c        **** //        nfacto = 0x02;
 211:main.c        **** //        loop-=1;
 212:main.c        **** //        break;
 213:main.c        **** //        
 214:main.c        **** //        case 9:
 215:main.c        **** //        nfacto = 0x01;
 216:main.c        **** //        loop-=1;
 217:main.c        **** //        break;
 218:main.c        **** //        
 219:main.c        **** //        case 8:
 220:main.c        **** //        nfacto = 0x00;
 221:main.c        **** //        loop-=1;
 222:main.c        **** //        break;
 223:main.c        **** //        
 224:main.c        **** //        case 7:
 225:main.c        **** //        nfacto = 0xFF;
 226:main.c        **** //        loop-=1;
 227:main.c        **** //        break;
 228:main.c        **** //        
 229:main.c        **** //        case 6:
 230:main.c        **** //        nfacto = 0xFE;
 231:main.c        **** //        loop-=1;
 232:main.c        **** //        break;
 233:main.c        **** //        
 234:main.c        **** //        case 5:
 235:main.c        **** //        nfacto = 0xFC;
 236:main.c        **** //        loop-=1;
 237:main.c        **** //        break;
 238:main.c        **** //        
 239:main.c        **** //        case 4:
 240:main.c        **** //        nfacto = 0xFA;
 241:main.c        **** //        loop-=1;
 242:main.c        **** //        break;
 243:main.c        **** //        
 244:main.c        **** //        case 3:
 245:main.c        **** //        nfacto = 0xF8;
 246:main.c        **** //        loop-=1;
 247:main.c        **** //        break;
 248:main.c        **** //        
 249:main.c        **** //        case 2:
 250:main.c        **** //        nfacto = 0xF6;
 251:main.c        **** //        loop-=1;
 252:main.c        **** //        break;
 253:main.c        **** //        
 254:main.c        **** //        case 1:
 255:main.c        **** //        nfacto = 0x80;
 256:main.c        **** //        loop-=1;
 257:main.c        **** //        break;
 258:main.c        **** //        
 259:main.c        **** //        case 0:
 260:main.c        **** //        loop =15;
 261:main.c        **** //        nfacto = 0;
 262:main.c        **** //        break;
ARM GAS  C:\Users\sergio\AppData\Local\Temp\ccFrgvX1.s 			page 13


 263:main.c        **** //        
 264:main.c        **** //        default:
 265:main.c        **** //        break;
 266:main.c        **** //        
 267:main.c        **** //    }
 268:main.c        ****     
 269:main.c        **** //    for(uint8_t x = 0; x < 15; x++){
 270:main.c        **** //        
 271:main.c        **** //        // channel 1 beta range selection   for 0x4D
 272:main.c        **** // I2C_1_I2CMasterSendStart(0x4D, I2C_1_I2C_WRITE_XFER_MODE, 100u);
 273:main.c        **** //   I2C_1_I2CMasterWriteByte(0x25, 100u);
 274:main.c        **** //   I2C_1_I2CMasterWriteByte(x, 100u);
 275:main.c        **** //   I2C_1_I2CMasterSendStop(100u);
 276:main.c        ****         
 277:main.c        ****     
 278:main.c        ****     
 279:main.c        **** 
 280:main.c        **** //  READ local sensor    
 281:main.c        ****    I2C_1_I2CMasterSendStart(0x4D, I2C_1_I2C_WRITE_XFER_MODE, 100u);
 383              		.loc 1 281 0
 384 00a4 6422     		movs	r2, #100
 385 00a6 0021     		movs	r1, #0
 386 00a8 4D20     		movs	r0, #77
 387 00aa FFF7FEFF 		bl	I2C_1_I2CMasterSendStart
 282:main.c        ****    I2C_1_I2CMasterWriteByte(0x00, 100u);
 388              		.loc 1 282 0
 389 00ae 6421     		movs	r1, #100
 390 00b0 0020     		movs	r0, #0
 391 00b2 FFF7FEFF 		bl	I2C_1_I2CMasterWriteByte
 283:main.c        ****    I2C_1_I2CMasterSendRestart(0x4D,I2C_1_I2C_READ_XFER_MODE, 100u);
 392              		.loc 1 283 0
 393 00b6 6422     		movs	r2, #100
 394 00b8 0121     		movs	r1, #1
 395 00ba 4D20     		movs	r0, #77
 396 00bc FFF7FEFF 		bl	I2C_1_I2CMasterSendRestart
 284:main.c        ****    //I2C_1_I2CMasterReadByte(I2C_1_I2C_ACK_DATA,(uint8 *) &read_buff[0],100u);
 285:main.c        ****    I2C_1_I2CMasterReadByte(I2C_1_I2C_NAK_DATA,(uint8 *) &temp,100u);
 397              		.loc 1 285 0
 398 00c0 3F23     		movs	r3, #63
 399 00c2 FB18     		adds	r3, r7, r3
 400 00c4 6422     		movs	r2, #100
 401 00c6 1900     		movs	r1, r3
 402 00c8 0120     		movs	r0, #1
 403 00ca FFF7FEFF 		bl	I2C_1_I2CMasterReadByte
 286:main.c        ****    I2C_1_I2CMasterSendStop(100u);
 404              		.loc 1 286 0
 405 00ce 6420     		movs	r0, #100
 406 00d0 FFF7FEFF 		bl	I2C_1_I2CMasterSendStop
 287:main.c        **** 
 288:main.c        **** //  READ remote sensor 1
 289:main.c        ****   I2C_1_I2CMasterSendStart(0x4D, I2C_1_I2C_WRITE_XFER_MODE, 100u);
 407              		.loc 1 289 0
 408 00d4 6422     		movs	r2, #100
 409 00d6 0021     		movs	r1, #0
 410 00d8 4D20     		movs	r0, #77
 411 00da FFF7FEFF 		bl	I2C_1_I2CMasterSendStart
 290:main.c        ****    I2C_1_I2CMasterWriteByte(0x01, 100u);
ARM GAS  C:\Users\sergio\AppData\Local\Temp\ccFrgvX1.s 			page 14


 412              		.loc 1 290 0
 413 00de 6421     		movs	r1, #100
 414 00e0 0120     		movs	r0, #1
 415 00e2 FFF7FEFF 		bl	I2C_1_I2CMasterWriteByte
 291:main.c        ****    I2C_1_I2CMasterSendRestart(0x4D,I2C_1_I2C_READ_XFER_MODE, 100u);
 416              		.loc 1 291 0
 417 00e6 6422     		movs	r2, #100
 418 00e8 0121     		movs	r1, #1
 419 00ea 4D20     		movs	r0, #77
 420 00ec FFF7FEFF 		bl	I2C_1_I2CMasterSendRestart
 292:main.c        ****    //I2C_1_I2CMasterReadByte(I2C_1_I2C_ACK_DATA,(uint8 *) &read_buff[0],100u);
 293:main.c        ****    I2C_1_I2CMasterReadByte(I2C_1_I2C_NAK_DATA,(uint8 *) &tempR1,100u);
 421              		.loc 1 293 0
 422 00f0 3E23     		movs	r3, #62
 423 00f2 FB18     		adds	r3, r7, r3
 424 00f4 6422     		movs	r2, #100
 425 00f6 1900     		movs	r1, r3
 426 00f8 0120     		movs	r0, #1
 427 00fa FFF7FEFF 		bl	I2C_1_I2CMasterReadByte
 294:main.c        ****    I2C_1_I2CMasterSendStop(100u);
 428              		.loc 1 294 0
 429 00fe 6420     		movs	r0, #100
 430 0100 FFF7FEFF 		bl	I2C_1_I2CMasterSendStop
 295:main.c        **** 
 296:main.c        **** 
 297:main.c        **** //  READ remote sensor 2
 298:main.c        ****   I2C_1_I2CMasterSendStart(0x4D, I2C_1_I2C_WRITE_XFER_MODE, 100u);
 431              		.loc 1 298 0
 432 0104 6422     		movs	r2, #100
 433 0106 0021     		movs	r1, #0
 434 0108 4D20     		movs	r0, #77
 435 010a FFF7FEFF 		bl	I2C_1_I2CMasterSendStart
 299:main.c        ****    I2C_1_I2CMasterWriteByte(0x23, 100u);
 436              		.loc 1 299 0
 437 010e 6421     		movs	r1, #100
 438 0110 2320     		movs	r0, #35
 439 0112 FFF7FEFF 		bl	I2C_1_I2CMasterWriteByte
 300:main.c        ****    I2C_1_I2CMasterSendRestart(0x4D,I2C_1_I2C_READ_XFER_MODE, 100u);
 440              		.loc 1 300 0
 441 0116 6422     		movs	r2, #100
 442 0118 0121     		movs	r1, #1
 443 011a 4D20     		movs	r0, #77
 444 011c FFF7FEFF 		bl	I2C_1_I2CMasterSendRestart
 301:main.c        ****    //I2C_1_I2CMasterReadByte(I2C_1_I2C_ACK_DATA,(uint8 *) &read_buff[0],100u);
 302:main.c        ****    I2C_1_I2CMasterReadByte(I2C_1_I2C_NAK_DATA,(uint8 *) &tempR2,100u);
 445              		.loc 1 302 0
 446 0120 3D23     		movs	r3, #61
 447 0122 FB18     		adds	r3, r7, r3
 448 0124 6422     		movs	r2, #100
 449 0126 1900     		movs	r1, r3
 450 0128 0120     		movs	r0, #1
 451 012a FFF7FEFF 		bl	I2C_1_I2CMasterReadByte
 303:main.c        ****    I2C_1_I2CMasterSendStop(100u);
 452              		.loc 1 303 0
 453 012e 6420     		movs	r0, #100
 454 0130 FFF7FEFF 		bl	I2C_1_I2CMasterSendStop
 304:main.c        **** 
ARM GAS  C:\Users\sergio\AppData\Local\Temp\ccFrgvX1.s 			page 15


 305:main.c        **** 
 306:main.c        **** char str[50];
 307:main.c        **** 
 308:main.c        **** sprintf(str, "Sensor 1 temperature is %d\n", (temp-64));
 455              		.loc 1 308 0
 456 0134 3F23     		movs	r3, #63
 457 0136 FB18     		adds	r3, r7, r3
 458 0138 1B78     		ldrb	r3, [r3]
 459 013a 403B     		subs	r3, r3, #64
 460 013c 1A00     		movs	r2, r3
 461 013e F149     		ldr	r1, .L19
 462 0140 3B1D     		adds	r3, r7, #4
 463 0142 1800     		movs	r0, r3
 464 0144 FFF7FEFF 		bl	sprintf
 309:main.c        **** MyUART_PutString(str);
 465              		.loc 1 309 0
 466 0148 3B1D     		adds	r3, r7, #4
 467 014a 1800     		movs	r0, r3
 468 014c FFF7FEFF 		bl	MyUART_PutString
 310:main.c        **** 
 311:main.c        **** sprintf(str, "Sensor 1 Remote temperature 1 is %d \n", (tempR1-64));
 469              		.loc 1 311 0
 470 0150 3E23     		movs	r3, #62
 471 0152 FB18     		adds	r3, r7, r3
 472 0154 1B78     		ldrb	r3, [r3]
 473 0156 403B     		subs	r3, r3, #64
 474 0158 1A00     		movs	r2, r3
 475 015a EB49     		ldr	r1, .L19+4
 476 015c 3B1D     		adds	r3, r7, #4
 477 015e 1800     		movs	r0, r3
 478 0160 FFF7FEFF 		bl	sprintf
 312:main.c        **** MyUART_PutString(str);
 479              		.loc 1 312 0
 480 0164 3B1D     		adds	r3, r7, #4
 481 0166 1800     		movs	r0, r3
 482 0168 FFF7FEFF 		bl	MyUART_PutString
 313:main.c        **** 
 314:main.c        **** 
 315:main.c        **** sprintf(str, "Sensor 1 Remote temperature 2 is %d \n", (tempR2-64));
 483              		.loc 1 315 0
 484 016c 3D23     		movs	r3, #61
 485 016e FB18     		adds	r3, r7, r3
 486 0170 1B78     		ldrb	r3, [r3]
 487 0172 403B     		subs	r3, r3, #64
 488 0174 1A00     		movs	r2, r3
 489 0176 E549     		ldr	r1, .L19+8
 490 0178 3B1D     		adds	r3, r7, #4
 491 017a 1800     		movs	r0, r3
 492 017c FFF7FEFF 		bl	sprintf
 316:main.c        **** MyUART_PutString(str);
 493              		.loc 1 316 0
 494 0180 3B1D     		adds	r3, r7, #4
 495 0182 1800     		movs	r0, r3
 496 0184 FFF7FEFF 		bl	MyUART_PutString
 317:main.c        **** 
 318:main.c        **** temp = tempR1 = tempR2 = 0;
 497              		.loc 1 318 0
ARM GAS  C:\Users\sergio\AppData\Local\Temp\ccFrgvX1.s 			page 16


 498 0188 3D23     		movs	r3, #61
 499 018a FB18     		adds	r3, r7, r3
 500 018c 0022     		movs	r2, #0
 501 018e 1A70     		strb	r2, [r3]
 502 0190 3D23     		movs	r3, #61
 503 0192 FB18     		adds	r3, r7, r3
 504 0194 1A78     		ldrb	r2, [r3]
 505 0196 3E23     		movs	r3, #62
 506 0198 FB18     		adds	r3, r7, r3
 507 019a 1A70     		strb	r2, [r3]
 508 019c 3E23     		movs	r3, #62
 509 019e FB18     		adds	r3, r7, r3
 510 01a0 1A78     		ldrb	r2, [r3]
 511 01a2 3F23     		movs	r3, #63
 512 01a4 FB18     		adds	r3, r7, r3
 513 01a6 1A70     		strb	r2, [r3]
 319:main.c        **** //  READ local sensor  2  
 320:main.c        ****    I2C_1_I2CMasterSendStart(0x4C, I2C_1_I2C_WRITE_XFER_MODE, 100u);
 514              		.loc 1 320 0
 515 01a8 6422     		movs	r2, #100
 516 01aa 0021     		movs	r1, #0
 517 01ac 4C20     		movs	r0, #76
 518 01ae FFF7FEFF 		bl	I2C_1_I2CMasterSendStart
 321:main.c        ****    I2C_1_I2CMasterWriteByte(0x00, 100u);
 519              		.loc 1 321 0
 520 01b2 6421     		movs	r1, #100
 521 01b4 0020     		movs	r0, #0
 522 01b6 FFF7FEFF 		bl	I2C_1_I2CMasterWriteByte
 322:main.c        ****    I2C_1_I2CMasterSendRestart(0x4C,I2C_1_I2C_READ_XFER_MODE, 100u);
 523              		.loc 1 322 0
 524 01ba 6422     		movs	r2, #100
 525 01bc 0121     		movs	r1, #1
 526 01be 4C20     		movs	r0, #76
 527 01c0 FFF7FEFF 		bl	I2C_1_I2CMasterSendRestart
 323:main.c        ****    //I2C_1_I2CMasterReadByte(I2C_1_I2C_ACK_DATA,(uint8 *) &read_buff[0],100u);
 324:main.c        ****    I2C_1_I2CMasterReadByte(I2C_1_I2C_NAK_DATA,(uint8 *) &temp,100u);
 528              		.loc 1 324 0
 529 01c4 3F23     		movs	r3, #63
 530 01c6 FB18     		adds	r3, r7, r3
 531 01c8 6422     		movs	r2, #100
 532 01ca 1900     		movs	r1, r3
 533 01cc 0120     		movs	r0, #1
 534 01ce FFF7FEFF 		bl	I2C_1_I2CMasterReadByte
 325:main.c        ****    I2C_1_I2CMasterSendStop(100u);
 535              		.loc 1 325 0
 536 01d2 6420     		movs	r0, #100
 537 01d4 FFF7FEFF 		bl	I2C_1_I2CMasterSendStop
 326:main.c        **** 
 327:main.c        **** //  READ remote 2 sensor 1
 328:main.c        ****   I2C_1_I2CMasterSendStart(0x4C, I2C_1_I2C_WRITE_XFER_MODE, 100u);
 538              		.loc 1 328 0
 539 01d8 6422     		movs	r2, #100
 540 01da 0021     		movs	r1, #0
 541 01dc 4C20     		movs	r0, #76
 542 01de FFF7FEFF 		bl	I2C_1_I2CMasterSendStart
 329:main.c        ****    I2C_1_I2CMasterWriteByte(0x01, 100u);
 543              		.loc 1 329 0
ARM GAS  C:\Users\sergio\AppData\Local\Temp\ccFrgvX1.s 			page 17


 544 01e2 6421     		movs	r1, #100
 545 01e4 0120     		movs	r0, #1
 546 01e6 FFF7FEFF 		bl	I2C_1_I2CMasterWriteByte
 330:main.c        ****    I2C_1_I2CMasterSendRestart(0x4C,I2C_1_I2C_READ_XFER_MODE, 100u);
 547              		.loc 1 330 0
 548 01ea 6422     		movs	r2, #100
 549 01ec 0121     		movs	r1, #1
 550 01ee 4C20     		movs	r0, #76
 551 01f0 FFF7FEFF 		bl	I2C_1_I2CMasterSendRestart
 331:main.c        ****    //I2C_1_I2CMasterReadByte(I2C_1_I2C_ACK_DATA,(uint8 *) &read_buff[0],100u);
 332:main.c        ****    I2C_1_I2CMasterReadByte(I2C_1_I2C_NAK_DATA,(uint8 *) &tempR1,100u);
 552              		.loc 1 332 0
 553 01f4 3E23     		movs	r3, #62
 554 01f6 FB18     		adds	r3, r7, r3
 555 01f8 6422     		movs	r2, #100
 556 01fa 1900     		movs	r1, r3
 557 01fc 0120     		movs	r0, #1
 558 01fe FFF7FEFF 		bl	I2C_1_I2CMasterReadByte
 333:main.c        ****    I2C_1_I2CMasterSendStop(100u);
 559              		.loc 1 333 0
 560 0202 6420     		movs	r0, #100
 561 0204 FFF7FEFF 		bl	I2C_1_I2CMasterSendStop
 334:main.c        **** 
 335:main.c        **** 
 336:main.c        **** //  READ remote 2 sensor 2
 337:main.c        ****   I2C_1_I2CMasterSendStart(0x4C, I2C_1_I2C_WRITE_XFER_MODE, 100u);
 562              		.loc 1 337 0
 563 0208 6422     		movs	r2, #100
 564 020a 0021     		movs	r1, #0
 565 020c 4C20     		movs	r0, #76
 566 020e FFF7FEFF 		bl	I2C_1_I2CMasterSendStart
 338:main.c        ****    I2C_1_I2CMasterWriteByte(0x23, 100u);
 567              		.loc 1 338 0
 568 0212 6421     		movs	r1, #100
 569 0214 2320     		movs	r0, #35
 570 0216 FFF7FEFF 		bl	I2C_1_I2CMasterWriteByte
 339:main.c        ****    I2C_1_I2CMasterSendRestart(0x4C,I2C_1_I2C_READ_XFER_MODE, 100u);
 571              		.loc 1 339 0
 572 021a 6422     		movs	r2, #100
 573 021c 0121     		movs	r1, #1
 574 021e 4C20     		movs	r0, #76
 575 0220 FFF7FEFF 		bl	I2C_1_I2CMasterSendRestart
 340:main.c        ****    //I2C_1_I2CMasterReadByte(I2C_1_I2C_ACK_DATA,(uint8 *) &read_buff[0],100u);
 341:main.c        ****    I2C_1_I2CMasterReadByte(I2C_1_I2C_NAK_DATA,(uint8 *) &tempR2,100u);
 576              		.loc 1 341 0
 577 0224 3D23     		movs	r3, #61
 578 0226 FB18     		adds	r3, r7, r3
 579 0228 6422     		movs	r2, #100
 580 022a 1900     		movs	r1, r3
 581 022c 0120     		movs	r0, #1
 582 022e FFF7FEFF 		bl	I2C_1_I2CMasterReadByte
 342:main.c        ****    I2C_1_I2CMasterSendStop(100u);
 583              		.loc 1 342 0
 584 0232 6420     		movs	r0, #100
 585 0234 FFF7FEFF 		bl	I2C_1_I2CMasterSendStop
 343:main.c        **** 
 344:main.c        **** 
ARM GAS  C:\Users\sergio\AppData\Local\Temp\ccFrgvX1.s 			page 18


 345:main.c        **** 
 346:main.c        **** 
 347:main.c        **** sprintf(str, "\n\nSensor 2 temperature is %d\n", (temp-64));
 586              		.loc 1 347 0
 587 0238 3F23     		movs	r3, #63
 588 023a FB18     		adds	r3, r7, r3
 589 023c 1B78     		ldrb	r3, [r3]
 590 023e 403B     		subs	r3, r3, #64
 591 0240 1A00     		movs	r2, r3
 592 0242 B349     		ldr	r1, .L19+12
 593 0244 3B1D     		adds	r3, r7, #4
 594 0246 1800     		movs	r0, r3
 595 0248 FFF7FEFF 		bl	sprintf
 348:main.c        **** MyUART_PutString(str);
 596              		.loc 1 348 0
 597 024c 3B1D     		adds	r3, r7, #4
 598 024e 1800     		movs	r0, r3
 599 0250 FFF7FEFF 		bl	MyUART_PutString
 349:main.c        **** 
 350:main.c        **** sprintf(str, "Sensor 2 Remote temperature 1 is %d \n", (tempR1-64));
 600              		.loc 1 350 0
 601 0254 3E23     		movs	r3, #62
 602 0256 FB18     		adds	r3, r7, r3
 603 0258 1B78     		ldrb	r3, [r3]
 604 025a 403B     		subs	r3, r3, #64
 605 025c 1A00     		movs	r2, r3
 606 025e AD49     		ldr	r1, .L19+16
 607 0260 3B1D     		adds	r3, r7, #4
 608 0262 1800     		movs	r0, r3
 609 0264 FFF7FEFF 		bl	sprintf
 351:main.c        **** MyUART_PutString(str);
 610              		.loc 1 351 0
 611 0268 3B1D     		adds	r3, r7, #4
 612 026a 1800     		movs	r0, r3
 613 026c FFF7FEFF 		bl	MyUART_PutString
 352:main.c        **** 
 353:main.c        **** 
 354:main.c        **** sprintf(str, "Sensor 2 Remote temperature 2 is %d \n\n\n\n", (tempR2-64));
 614              		.loc 1 354 0
 615 0270 3D23     		movs	r3, #61
 616 0272 FB18     		adds	r3, r7, r3
 617 0274 1B78     		ldrb	r3, [r3]
 618 0276 403B     		subs	r3, r3, #64
 619 0278 1A00     		movs	r2, r3
 620 027a A749     		ldr	r1, .L19+20
 621 027c 3B1D     		adds	r3, r7, #4
 622 027e 1800     		movs	r0, r3
 623 0280 FFF7FEFF 		bl	sprintf
 355:main.c        **** MyUART_PutString(str);
 624              		.loc 1 355 0
 625 0284 3B1D     		adds	r3, r7, #4
 626 0286 1800     		movs	r0, r3
 627 0288 FFF7FEFF 		bl	MyUART_PutString
 356:main.c        **** 
 357:main.c        **** 
 358:main.c        **** 
 359:main.c        **** /*  ---------------------------- ACCELEROMETER -----------------------------------   */
ARM GAS  C:\Users\sergio\AppData\Local\Temp\ccFrgvX1.s 			page 19


 360:main.c        **** 
 361:main.c        **** uint8 xLSB;
 362:main.c        **** uint8 xMSB;
 363:main.c        **** uint8 yLSB;
 364:main.c        **** uint8 yMSB;
 365:main.c        **** uint8 zLSB;
 366:main.c        **** uint8 zMSB;
 367:main.c        **** 
 368:main.c        **** I2C_1_I2CMasterSendStart(0x18,I2C_1_I2C_WRITE_XFER_MODE, 100u);
 628              		.loc 1 368 0
 629 028c 6422     		movs	r2, #100
 630 028e 0021     		movs	r1, #0
 631 0290 1820     		movs	r0, #24
 632 0292 FFF7FEFF 		bl	I2C_1_I2CMasterSendStart
 369:main.c        **** I2C_1_I2CMasterWriteByte(0x02, 100u);
 633              		.loc 1 369 0
 634 0296 6421     		movs	r1, #100
 635 0298 0220     		movs	r0, #2
 636 029a FFF7FEFF 		bl	I2C_1_I2CMasterWriteByte
 370:main.c        **** I2C_1_I2CMasterSendRestart(0x18, I2C_1_I2C_READ_XFER_MODE, 100u);
 637              		.loc 1 370 0
 638 029e 6422     		movs	r2, #100
 639 02a0 0121     		movs	r1, #1
 640 02a2 1820     		movs	r0, #24
 641 02a4 FFF7FEFF 		bl	I2C_1_I2CMasterSendRestart
 371:main.c        **** I2C_1_I2CMasterReadByte(I2C_1_I2C_NAK_DATA,(uint8 *) &xLSB ,100u);
 642              		.loc 1 371 0
 643 02a8 3C23     		movs	r3, #60
 644 02aa FB18     		adds	r3, r7, r3
 645 02ac 6422     		movs	r2, #100
 646 02ae 1900     		movs	r1, r3
 647 02b0 0120     		movs	r0, #1
 648 02b2 FFF7FEFF 		bl	I2C_1_I2CMasterReadByte
 372:main.c        **** I2C_1_I2CMasterSendStop(100u);
 649              		.loc 1 372 0
 650 02b6 6420     		movs	r0, #100
 651 02b8 FFF7FEFF 		bl	I2C_1_I2CMasterSendStop
 373:main.c        **** 
 374:main.c        **** I2C_1_I2CMasterSendStart(0x18,I2C_1_I2C_WRITE_XFER_MODE, 100u);
 652              		.loc 1 374 0
 653 02bc 6422     		movs	r2, #100
 654 02be 0021     		movs	r1, #0
 655 02c0 1820     		movs	r0, #24
 656 02c2 FFF7FEFF 		bl	I2C_1_I2CMasterSendStart
 375:main.c        **** I2C_1_I2CMasterWriteByte(0x03, 100u);
 657              		.loc 1 375 0
 658 02c6 6421     		movs	r1, #100
 659 02c8 0320     		movs	r0, #3
 660 02ca FFF7FEFF 		bl	I2C_1_I2CMasterWriteByte
 376:main.c        **** I2C_1_I2CMasterSendRestart(0x18, I2C_1_I2C_READ_XFER_MODE, 100u);
 661              		.loc 1 376 0
 662 02ce 6422     		movs	r2, #100
 663 02d0 0121     		movs	r1, #1
 664 02d2 1820     		movs	r0, #24
 665 02d4 FFF7FEFF 		bl	I2C_1_I2CMasterSendRestart
 377:main.c        **** I2C_1_I2CMasterReadByte(I2C_1_I2C_NAK_DATA,(uint8 *) &xMSB ,100u);
 666              		.loc 1 377 0
ARM GAS  C:\Users\sergio\AppData\Local\Temp\ccFrgvX1.s 			page 20


 667 02d8 3B23     		movs	r3, #59
 668 02da FB18     		adds	r3, r7, r3
 669 02dc 6422     		movs	r2, #100
 670 02de 1900     		movs	r1, r3
 671 02e0 0120     		movs	r0, #1
 672 02e2 FFF7FEFF 		bl	I2C_1_I2CMasterReadByte
 378:main.c        **** I2C_1_I2CMasterSendStop(100u);
 673              		.loc 1 378 0
 674 02e6 6420     		movs	r0, #100
 675 02e8 FFF7FEFF 		bl	I2C_1_I2CMasterSendStop
 379:main.c        **** 
 380:main.c        **** I2C_1_I2CMasterSendStart(0x18,I2C_1_I2C_WRITE_XFER_MODE, 100u);
 676              		.loc 1 380 0
 677 02ec 6422     		movs	r2, #100
 678 02ee 0021     		movs	r1, #0
 679 02f0 1820     		movs	r0, #24
 680 02f2 FFF7FEFF 		bl	I2C_1_I2CMasterSendStart
 381:main.c        **** I2C_1_I2CMasterWriteByte(0x04, 100u);
 681              		.loc 1 381 0
 682 02f6 6421     		movs	r1, #100
 683 02f8 0420     		movs	r0, #4
 684 02fa FFF7FEFF 		bl	I2C_1_I2CMasterWriteByte
 382:main.c        **** I2C_1_I2CMasterSendRestart(0x18, I2C_1_I2C_READ_XFER_MODE, 100u);
 685              		.loc 1 382 0
 686 02fe 6422     		movs	r2, #100
 687 0300 0121     		movs	r1, #1
 688 0302 1820     		movs	r0, #24
 689 0304 FFF7FEFF 		bl	I2C_1_I2CMasterSendRestart
 383:main.c        **** I2C_1_I2CMasterReadByte(I2C_1_I2C_NAK_DATA,(uint8 *) &yLSB ,100u);
 690              		.loc 1 383 0
 691 0308 3A23     		movs	r3, #58
 692 030a FB18     		adds	r3, r7, r3
 693 030c 6422     		movs	r2, #100
 694 030e 1900     		movs	r1, r3
 695 0310 0120     		movs	r0, #1
 696 0312 FFF7FEFF 		bl	I2C_1_I2CMasterReadByte
 384:main.c        **** I2C_1_I2CMasterSendStop(100u);
 697              		.loc 1 384 0
 698 0316 6420     		movs	r0, #100
 699 0318 FFF7FEFF 		bl	I2C_1_I2CMasterSendStop
 385:main.c        **** 
 386:main.c        **** I2C_1_I2CMasterSendStart(0x18,I2C_1_I2C_WRITE_XFER_MODE, 100u);
 700              		.loc 1 386 0
 701 031c 6422     		movs	r2, #100
 702 031e 0021     		movs	r1, #0
 703 0320 1820     		movs	r0, #24
 704 0322 FFF7FEFF 		bl	I2C_1_I2CMasterSendStart
 387:main.c        **** I2C_1_I2CMasterWriteByte(0x05, 100u);
 705              		.loc 1 387 0
 706 0326 6421     		movs	r1, #100
 707 0328 0520     		movs	r0, #5
 708 032a FFF7FEFF 		bl	I2C_1_I2CMasterWriteByte
 388:main.c        **** I2C_1_I2CMasterSendRestart(0x18, I2C_1_I2C_READ_XFER_MODE, 100u);
 709              		.loc 1 388 0
 710 032e 6422     		movs	r2, #100
 711 0330 0121     		movs	r1, #1
 712 0332 1820     		movs	r0, #24
ARM GAS  C:\Users\sergio\AppData\Local\Temp\ccFrgvX1.s 			page 21


 713 0334 FFF7FEFF 		bl	I2C_1_I2CMasterSendRestart
 389:main.c        **** I2C_1_I2CMasterReadByte(I2C_1_I2C_NAK_DATA,(uint8 *) &yMSB ,100u);
 714              		.loc 1 389 0
 715 0338 3923     		movs	r3, #57
 716 033a FB18     		adds	r3, r7, r3
 717 033c 6422     		movs	r2, #100
 718 033e 1900     		movs	r1, r3
 719 0340 0120     		movs	r0, #1
 720 0342 FFF7FEFF 		bl	I2C_1_I2CMasterReadByte
 390:main.c        **** I2C_1_I2CMasterSendStop(100u);
 721              		.loc 1 390 0
 722 0346 6420     		movs	r0, #100
 723 0348 FFF7FEFF 		bl	I2C_1_I2CMasterSendStop
 391:main.c        **** 
 392:main.c        **** I2C_1_I2CMasterSendStart(0x18,I2C_1_I2C_WRITE_XFER_MODE, 100u);
 724              		.loc 1 392 0
 725 034c 6422     		movs	r2, #100
 726 034e 0021     		movs	r1, #0
 727 0350 1820     		movs	r0, #24
 728 0352 FFF7FEFF 		bl	I2C_1_I2CMasterSendStart
 393:main.c        **** I2C_1_I2CMasterWriteByte(0x06, 100u);
 729              		.loc 1 393 0
 730 0356 6421     		movs	r1, #100
 731 0358 0620     		movs	r0, #6
 732 035a FFF7FEFF 		bl	I2C_1_I2CMasterWriteByte
 394:main.c        **** I2C_1_I2CMasterSendRestart(0x18, I2C_1_I2C_READ_XFER_MODE, 100u);
 733              		.loc 1 394 0
 734 035e 6422     		movs	r2, #100
 735 0360 0121     		movs	r1, #1
 736 0362 1820     		movs	r0, #24
 737 0364 FFF7FEFF 		bl	I2C_1_I2CMasterSendRestart
 395:main.c        **** I2C_1_I2CMasterReadByte(I2C_1_I2C_NAK_DATA,(uint8 *) &zLSB ,100u);
 738              		.loc 1 395 0
 739 0368 3823     		movs	r3, #56
 740 036a FB18     		adds	r3, r7, r3
 741 036c 6422     		movs	r2, #100
 742 036e 1900     		movs	r1, r3
 743 0370 0120     		movs	r0, #1
 744 0372 FFF7FEFF 		bl	I2C_1_I2CMasterReadByte
 396:main.c        **** I2C_1_I2CMasterSendStop(100u);
 745              		.loc 1 396 0
 746 0376 6420     		movs	r0, #100
 747 0378 FFF7FEFF 		bl	I2C_1_I2CMasterSendStop
 397:main.c        **** 
 398:main.c        **** I2C_1_I2CMasterSendStart(0x18,I2C_1_I2C_WRITE_XFER_MODE, 100u);
 748              		.loc 1 398 0
 749 037c 6422     		movs	r2, #100
 750 037e 0021     		movs	r1, #0
 751 0380 1820     		movs	r0, #24
 752 0382 FFF7FEFF 		bl	I2C_1_I2CMasterSendStart
 399:main.c        **** I2C_1_I2CMasterWriteByte(0x07, 100u);
 753              		.loc 1 399 0
 754 0386 6421     		movs	r1, #100
 755 0388 0720     		movs	r0, #7
 756 038a FFF7FEFF 		bl	I2C_1_I2CMasterWriteByte
 400:main.c        **** I2C_1_I2CMasterSendRestart(0x18, I2C_1_I2C_READ_XFER_MODE, 100u);
 757              		.loc 1 400 0
ARM GAS  C:\Users\sergio\AppData\Local\Temp\ccFrgvX1.s 			page 22


 758 038e 6422     		movs	r2, #100
 759 0390 0121     		movs	r1, #1
 760 0392 1820     		movs	r0, #24
 761 0394 FFF7FEFF 		bl	I2C_1_I2CMasterSendRestart
 401:main.c        **** I2C_1_I2CMasterReadByte(I2C_1_I2C_NAK_DATA,(uint8 *) &zMSB ,100u);
 762              		.loc 1 401 0
 763 0398 3723     		movs	r3, #55
 764 039a FB18     		adds	r3, r7, r3
 765 039c 6422     		movs	r2, #100
 766 039e 1900     		movs	r1, r3
 767 03a0 0120     		movs	r0, #1
 768 03a2 FFF7FEFF 		bl	I2C_1_I2CMasterReadByte
 402:main.c        **** I2C_1_I2CMasterSendStop(100u);
 769              		.loc 1 402 0
 770 03a6 6420     		movs	r0, #100
 771 03a8 FFF7FEFF 		bl	I2C_1_I2CMasterSendStop
 403:main.c        **** 
 404:main.c        **** uint16 xACC = ((xMSB << 8)| (xLSB & 0xF0)) >> 4;
 772              		.loc 1 404 0
 773 03ac 3B23     		movs	r3, #59
 774 03ae FB18     		adds	r3, r7, r3
 775 03b0 1B78     		ldrb	r3, [r3]
 776 03b2 1A02     		lsls	r2, r3, #8
 777 03b4 3C23     		movs	r3, #60
 778 03b6 FB18     		adds	r3, r7, r3
 779 03b8 1B78     		ldrb	r3, [r3]
 780 03ba 1900     		movs	r1, r3
 781 03bc F023     		movs	r3, #240
 782 03be 0B40     		ands	r3, r1
 783 03c0 1343     		orrs	r3, r2
 784 03c2 1A11     		asrs	r2, r3, #4
 785 03c4 4823     		movs	r3, #72
 786 03c6 FB18     		adds	r3, r7, r3
 787 03c8 1A80     		strh	r2, [r3]
 405:main.c        **** uint16 yACC = ((yMSB << 8)| (yLSB & 0xF0)) >> 4;
 788              		.loc 1 405 0
 789 03ca 3923     		movs	r3, #57
 790 03cc FB18     		adds	r3, r7, r3
 791 03ce 1B78     		ldrb	r3, [r3]
 792 03d0 1A02     		lsls	r2, r3, #8
 793 03d2 3A23     		movs	r3, #58
 794 03d4 FB18     		adds	r3, r7, r3
 795 03d6 1B78     		ldrb	r3, [r3]
 796 03d8 1900     		movs	r1, r3
 797 03da F023     		movs	r3, #240
 798 03dc 0B40     		ands	r3, r1
 799 03de 1343     		orrs	r3, r2
 800 03e0 1A11     		asrs	r2, r3, #4
 801 03e2 4623     		movs	r3, #70
 802 03e4 FB18     		adds	r3, r7, r3
 803 03e6 1A80     		strh	r2, [r3]
 406:main.c        **** uint16 zACC = ((zMSB << 8)| (zLSB & 0xF0)) >> 4;
 804              		.loc 1 406 0
 805 03e8 3723     		movs	r3, #55
 806 03ea FB18     		adds	r3, r7, r3
 807 03ec 1B78     		ldrb	r3, [r3]
 808 03ee 1A02     		lsls	r2, r3, #8
ARM GAS  C:\Users\sergio\AppData\Local\Temp\ccFrgvX1.s 			page 23


 809 03f0 3823     		movs	r3, #56
 810 03f2 FB18     		adds	r3, r7, r3
 811 03f4 1B78     		ldrb	r3, [r3]
 812 03f6 1900     		movs	r1, r3
 813 03f8 F023     		movs	r3, #240
 814 03fa 0B40     		ands	r3, r1
 815 03fc 1343     		orrs	r3, r2
 816 03fe 1A11     		asrs	r2, r3, #4
 817 0400 4423     		movs	r3, #68
 818 0402 FB18     		adds	r3, r7, r3
 819 0404 1A80     		strh	r2, [r3]
 407:main.c        **** 
 408:main.c        **** 
 409:main.c        **** 
 410:main.c        **** sprintf(str,"\nX: %d %d    12 bit x: %d\n", xMSB, xLSB, xACC);
 820              		.loc 1 410 0
 821 0406 3B23     		movs	r3, #59
 822 0408 FB18     		adds	r3, r7, r3
 823 040a 1B78     		ldrb	r3, [r3]
 824 040c 1A00     		movs	r2, r3
 825 040e 3C23     		movs	r3, #60
 826 0410 FB18     		adds	r3, r7, r3
 827 0412 1B78     		ldrb	r3, [r3]
 828 0414 1C00     		movs	r4, r3
 829 0416 4823     		movs	r3, #72
 830 0418 FB18     		adds	r3, r7, r3
 831 041a 1B88     		ldrh	r3, [r3]
 832 041c 3F49     		ldr	r1, .L19+24
 833 041e 381D     		adds	r0, r7, #4
 834 0420 0093     		str	r3, [sp]
 835 0422 2300     		movs	r3, r4
 836 0424 FFF7FEFF 		bl	sprintf
 411:main.c        **** MyUART_PutString(str);
 837              		.loc 1 411 0
 838 0428 3B1D     		adds	r3, r7, #4
 839 042a 1800     		movs	r0, r3
 840 042c FFF7FEFF 		bl	MyUART_PutString
 412:main.c        **** sprintf(str,"y: %d %d      12 bit y: %d\n", yMSB, yLSB, yACC);
 841              		.loc 1 412 0
 842 0430 3923     		movs	r3, #57
 843 0432 FB18     		adds	r3, r7, r3
 844 0434 1B78     		ldrb	r3, [r3]
 845 0436 1A00     		movs	r2, r3
 846 0438 3A23     		movs	r3, #58
 847 043a FB18     		adds	r3, r7, r3
 848 043c 1B78     		ldrb	r3, [r3]
 849 043e 1C00     		movs	r4, r3
 850 0440 4623     		movs	r3, #70
 851 0442 FB18     		adds	r3, r7, r3
 852 0444 1B88     		ldrh	r3, [r3]
 853 0446 3649     		ldr	r1, .L19+28
 854 0448 381D     		adds	r0, r7, #4
 855 044a 0093     		str	r3, [sp]
 856 044c 2300     		movs	r3, r4
 857 044e FFF7FEFF 		bl	sprintf
 413:main.c        **** MyUART_PutString(str);
 858              		.loc 1 413 0
ARM GAS  C:\Users\sergio\AppData\Local\Temp\ccFrgvX1.s 			page 24


 859 0452 3B1D     		adds	r3, r7, #4
 860 0454 1800     		movs	r0, r3
 861 0456 FFF7FEFF 		bl	MyUART_PutString
 414:main.c        **** sprintf(str,"Z: %d %d      12 bit z: %d\n\n\n", zMSB, zLSB, zACC);
 862              		.loc 1 414 0
 863 045a 3723     		movs	r3, #55
 864 045c FB18     		adds	r3, r7, r3
 865 045e 1B78     		ldrb	r3, [r3]
 866 0460 1A00     		movs	r2, r3
 867 0462 3823     		movs	r3, #56
 868 0464 FB18     		adds	r3, r7, r3
 869 0466 1B78     		ldrb	r3, [r3]
 870 0468 1C00     		movs	r4, r3
 871 046a 4423     		movs	r3, #68
 872 046c FB18     		adds	r3, r7, r3
 873 046e 1B88     		ldrh	r3, [r3]
 874 0470 2C49     		ldr	r1, .L19+32
 875 0472 381D     		adds	r0, r7, #4
 876 0474 0093     		str	r3, [sp]
 877 0476 2300     		movs	r3, r4
 878 0478 FFF7FEFF 		bl	sprintf
 415:main.c        **** MyUART_PutString(str);
 879              		.loc 1 415 0
 880 047c 3B1D     		adds	r3, r7, #4
 881 047e 1800     		movs	r0, r3
 882 0480 FFF7FEFF 		bl	MyUART_PutString
 416:main.c        **** 
 417:main.c        **** //RelayHF_2_Write(0);
 418:main.c        **** //RelayLF_1_Write(0);
 419:main.c        **** //RelayC_3_Write(1);
 420:main.c        **** //CyDelay(5000);
 421:main.c        **** //RelayHF_2_Write(1);
 422:main.c        **** //RelayC_3_Write(0);
 423:main.c        **** //CyDelay(5000);
 424:main.c        **** //RelayLF_1_Write(1);
 425:main.c        **** //RelayHF_2_Write(0);
 426:main.c        **** //CyDelay(5000);
 427:main.c        **** //RelayC_3_Write(0);
 428:main.c        **** //RelayHF_2_Write(0);
 429:main.c        **** //RelayLF_1_Write(0);
 430:main.c        **** //CyDelay(5000);
 431:main.c        **** 
 432:main.c        **** 
 433:main.c        **** 
 434:main.c        **** 
 435:main.c        **** //uint16 rh = ((read_buff[0] << 8) | read_buff[1]);
 436:main.c        **** 
 437:main.c        **** 
 438:main.c        **** 
 439:main.c        **** 
 440:main.c        **** //int tp = ((125 * rh)/65536)-6; //((175.72 * rh)/65536) - 46.85;//((125 * rh)/65536)-6;
 441:main.c        **** 
 442:main.c        **** 
 443:main.c        ****     //}
 444:main.c        **** 
 445:main.c        ****  //CyDelay(1000);   
 446:main.c        ****    // BLUE_Write(0); 
ARM GAS  C:\Users\sergio\AppData\Local\Temp\ccFrgvX1.s 			page 25


 447:main.c        ****     //RED_Write(0);
 448:main.c        **** //    CyDelay(500);
 449:main.c        **** //    BLUE_Write(1); 
 450:main.c        **** //    RED_Write(1);
 451:main.c        **** //    read_buff[0] = pins;
 452:main.c        **** 
 453:main.c        **** read_buff[0] = read_thermostat_pins();
 883              		.loc 1 453 0
 884 0484 FFF7FEFF 		bl	read_thermostat_pins
 885 0488 0300     		movs	r3, r0
 886 048a 1A00     		movs	r2, r3
 887 048c 4023     		movs	r3, #64
 888 048e FB18     		adds	r3, r7, r3
 889 0490 1A70     		strb	r2, [r3]
 454:main.c        **** //
 455:main.c        **** sprintf(str, "\ntemperature is 0x%x\n", read_buff[0]);
 890              		.loc 1 455 0
 891 0492 4023     		movs	r3, #64
 892 0494 FB18     		adds	r3, r7, r3
 893 0496 1B78     		ldrb	r3, [r3]
 894 0498 DBB2     		uxtb	r3, r3
 895 049a 1A00     		movs	r2, r3
 896 049c 2249     		ldr	r1, .L19+36
 897 049e 3B1D     		adds	r3, r7, #4
 898 04a0 1800     		movs	r0, r3
 899 04a2 FFF7FEFF 		bl	sprintf
 456:main.c        **** MyUART_PutString(str);
 900              		.loc 1 456 0
 901 04a6 3B1D     		adds	r3, r7, #4
 902 04a8 1800     		movs	r0, r3
 903 04aa FFF7FEFF 		bl	MyUART_PutString
 457:main.c        **** //
 458:main.c        ****      if(read_buff[0] == 0){RED_Write(0); GREEN_Write(1);
 904              		.loc 1 458 0
 905 04ae 4023     		movs	r3, #64
 906 04b0 FB18     		adds	r3, r7, r3
 907 04b2 1B78     		ldrb	r3, [r3]
 908 04b4 DBB2     		uxtb	r3, r3
 909 04b6 002B     		cmp	r3, #0
 910 04b8 0DD1     		bne	.L7
 911              		.loc 1 458 0 is_stmt 0 discriminator 1
 912 04ba 0020     		movs	r0, #0
 913 04bc FFF7FEFF 		bl	RED_Write
 914 04c0 0120     		movs	r0, #1
 915 04c2 FFF7FEFF 		bl	GREEN_Write
 459:main.c        ****     BLUE_Write(1); CyDelay(500);}
 916              		.loc 1 459 0 is_stmt 1 discriminator 1
 917 04c6 0120     		movs	r0, #1
 918 04c8 FFF7FEFF 		bl	BLUE_Write
 919 04cc FA23     		movs	r3, #250
 920 04ce 5B00     		lsls	r3, r3, #1
 921 04d0 1800     		movs	r0, r3
 922 04d2 FFF7FEFF 		bl	CyDelay
 923              	.L7:
 460:main.c        ****      
 461:main.c        ****        if ((read_buff[0] & 0x01)){BLUE_Write(0);  RED_Write(1); GREEN_Write(1);CyDelay(500);} //Blu
 924              		.loc 1 461 0
ARM GAS  C:\Users\sergio\AppData\Local\Temp\ccFrgvX1.s 			page 26


 925 04d6 4023     		movs	r3, #64
 926 04d8 FB18     		adds	r3, r7, r3
 927 04da 1B78     		ldrb	r3, [r3]
 928 04dc DBB2     		uxtb	r3, r3
 929 04de 1A00     		movs	r2, r3
 930 04e0 0123     		movs	r3, #1
 931 04e2 1340     		ands	r3, r2
 932 04e4 22D0     		beq	.L8
 933              		.loc 1 461 0 is_stmt 0 discriminator 1
 934 04e6 0020     		movs	r0, #0
 935 04e8 FFF7FEFF 		bl	BLUE_Write
 936 04ec 0120     		movs	r0, #1
 937 04ee FFF7FEFF 		bl	RED_Write
 938 04f2 0120     		movs	r0, #1
 939 04f4 FFF7FEFF 		bl	GREEN_Write
 940 04f8 FA23     		movs	r3, #250
 941 04fa 5B00     		lsls	r3, r3, #1
 942 04fc 1800     		movs	r0, r3
 943 04fe FFF7FEFF 		bl	CyDelay
 944 0502 16E0     		b	.L9
 945              	.L20:
 946              		.align	2
 947              	.L19:
 948 0504 00000000 		.word	.LC0
 949 0508 1C000000 		.word	.LC2
 950 050c 44000000 		.word	.LC4
 951 0510 6C000000 		.word	.LC6
 952 0514 8C000000 		.word	.LC8
 953 0518 B4000000 		.word	.LC10
 954 051c E0000000 		.word	.LC12
 955 0520 FC000000 		.word	.LC14
 956 0524 18010000 		.word	.LC16
 957 0528 38010000 		.word	.LC18
 958              	.L8:
 462:main.c        ****       else{BLUE_Write(1);}
 959              		.loc 1 462 0 is_stmt 1
 960 052c 0120     		movs	r0, #1
 961 052e FFF7FEFF 		bl	BLUE_Write
 962              	.L9:
 463:main.c        ****     
 464:main.c        ****       if((read_buff[0] & 0x02)){GREEN_Write(0); RED_Write(1);BLUE_Write(1);CyDelay(500);} //Green  
 963              		.loc 1 464 0
 964 0532 4023     		movs	r3, #64
 965 0534 FB18     		adds	r3, r7, r3
 966 0536 1B78     		ldrb	r3, [r3]
 967 0538 DBB2     		uxtb	r3, r3
 968 053a 1A00     		movs	r2, r3
 969 053c 0223     		movs	r3, #2
 970 053e 1340     		ands	r3, r2
 971 0540 0ED0     		beq	.L10
 972              		.loc 1 464 0 is_stmt 0 discriminator 1
 973 0542 0020     		movs	r0, #0
 974 0544 FFF7FEFF 		bl	GREEN_Write
 975 0548 0120     		movs	r0, #1
 976 054a FFF7FEFF 		bl	RED_Write
 977 054e 0120     		movs	r0, #1
 978 0550 FFF7FEFF 		bl	BLUE_Write
ARM GAS  C:\Users\sergio\AppData\Local\Temp\ccFrgvX1.s 			page 27


 979 0554 FA23     		movs	r3, #250
 980 0556 5B00     		lsls	r3, r3, #1
 981 0558 1800     		movs	r0, r3
 982 055a FFF7FEFF 		bl	CyDelay
 983 055e 02E0     		b	.L11
 984              	.L10:
 465:main.c        ****     else{GREEN_Write(1);}
 985              		.loc 1 465 0 is_stmt 1
 986 0560 0120     		movs	r0, #1
 987 0562 FFF7FEFF 		bl	GREEN_Write
 988              	.L11:
 466:main.c        ****     
 467:main.c        ****        if((read_buff[0]&0x04)){GREEN_Write(0); BLUE_Write(0);RED_Write(1);
 989              		.loc 1 467 0
 990 0566 4023     		movs	r3, #64
 991 0568 FB18     		adds	r3, r7, r3
 992 056a 1B78     		ldrb	r3, [r3]
 993 056c DBB2     		uxtb	r3, r3
 994 056e 1A00     		movs	r2, r3
 995 0570 0423     		movs	r3, #4
 996 0572 1340     		ands	r3, r2
 997 0574 14D0     		beq	.L12
 998              		.loc 1 467 0 is_stmt 0 discriminator 1
 999 0576 0020     		movs	r0, #0
 1000 0578 FFF7FEFF 		bl	GREEN_Write
 1001 057c 0020     		movs	r0, #0
 1002 057e FFF7FEFF 		bl	BLUE_Write
 1003 0582 0120     		movs	r0, #1
 1004 0584 FFF7FEFF 		bl	RED_Write
 468:main.c        ****        RelayC_3_Write(1); Comp_out_Write(1);CyDelay(500);} //Cyan    PIN 2
 1005              		.loc 1 468 0 is_stmt 1 discriminator 1
 1006 0588 0120     		movs	r0, #1
 1007 058a FFF7FEFF 		bl	RelayC_3_Write
 1008 058e 0120     		movs	r0, #1
 1009 0590 FFF7FEFF 		bl	Comp_out_Write
 1010 0594 FA23     		movs	r3, #250
 1011 0596 5B00     		lsls	r3, r3, #1
 1012 0598 1800     		movs	r0, r3
 1013 059a FFF7FEFF 		bl	CyDelay
 1014 059e 0BE0     		b	.L13
 1015              	.L12:
 469:main.c        ****     else{RelayC_3_Write(0); Comp_out_Write(0);GREEN_Write(1); BLUE_Write(1);}
 1016              		.loc 1 469 0
 1017 05a0 0020     		movs	r0, #0
 1018 05a2 FFF7FEFF 		bl	RelayC_3_Write
 1019 05a6 0020     		movs	r0, #0
 1020 05a8 FFF7FEFF 		bl	Comp_out_Write
 1021 05ac 0120     		movs	r0, #1
 1022 05ae FFF7FEFF 		bl	GREEN_Write
 1023 05b2 0120     		movs	r0, #1
 1024 05b4 FFF7FEFF 		bl	BLUE_Write
 1025              	.L13:
 470:main.c        ****     
 471:main.c        ****       if((read_buff[0] & 0x08)){GREEN_Write(0); RED_Write(0); BLUE_Write(1); 
 1026              		.loc 1 471 0
 1027 05b8 4023     		movs	r3, #64
 1028 05ba FB18     		adds	r3, r7, r3
ARM GAS  C:\Users\sergio\AppData\Local\Temp\ccFrgvX1.s 			page 28


 1029 05bc 1B78     		ldrb	r3, [r3]
 1030 05be DBB2     		uxtb	r3, r3
 1031 05c0 1A00     		movs	r2, r3
 1032 05c2 0823     		movs	r3, #8
 1033 05c4 1340     		ands	r3, r2
 1034 05c6 14D0     		beq	.L14
 1035              		.loc 1 471 0 is_stmt 0 discriminator 1
 1036 05c8 0020     		movs	r0, #0
 1037 05ca FFF7FEFF 		bl	GREEN_Write
 1038 05ce 0020     		movs	r0, #0
 1039 05d0 FFF7FEFF 		bl	RED_Write
 1040 05d4 0120     		movs	r0, #1
 1041 05d6 FFF7FEFF 		bl	BLUE_Write
 472:main.c        ****        RelayHF_2_Write(1);  HighF_out_Write(1);CyDelay(500);} //yellow   PIN 3
 1042              		.loc 1 472 0 is_stmt 1 discriminator 1
 1043 05da 0120     		movs	r0, #1
 1044 05dc FFF7FEFF 		bl	RelayHF_2_Write
 1045 05e0 0120     		movs	r0, #1
 1046 05e2 FFF7FEFF 		bl	HighF_out_Write
 1047 05e6 FA23     		movs	r3, #250
 1048 05e8 5B00     		lsls	r3, r3, #1
 1049 05ea 1800     		movs	r0, r3
 1050 05ec FFF7FEFF 		bl	CyDelay
 1051 05f0 0BE0     		b	.L15
 1052              	.L14:
 473:main.c        ****     else{RelayHF_2_Write(0);  HighF_out_Write(0);GREEN_Write(1); RED_Write(1);}
 1053              		.loc 1 473 0
 1054 05f2 0020     		movs	r0, #0
 1055 05f4 FFF7FEFF 		bl	RelayHF_2_Write
 1056 05f8 0020     		movs	r0, #0
 1057 05fa FFF7FEFF 		bl	HighF_out_Write
 1058 05fe 0120     		movs	r0, #1
 1059 0600 FFF7FEFF 		bl	GREEN_Write
 1060 0604 0120     		movs	r0, #1
 1061 0606 FFF7FEFF 		bl	RED_Write
 1062              	.L15:
 474:main.c        ****     
 475:main.c        ****      if((read_buff[0] & 0x10))
 1063              		.loc 1 475 0
 1064 060a 4023     		movs	r3, #64
 1065 060c FB18     		adds	r3, r7, r3
 1066 060e 1B78     		ldrb	r3, [r3]
 1067 0610 DBB2     		uxtb	r3, r3
 1068 0612 1A00     		movs	r2, r3
 1069 0614 1023     		movs	r3, #16
 1070 0616 1340     		ands	r3, r2
 1071 0618 14D0     		beq	.L16
 476:main.c        ****     {BLUE_Write(0); 
 1072              		.loc 1 476 0
 1073 061a 0020     		movs	r0, #0
 1074 061c FFF7FEFF 		bl	BLUE_Write
 477:main.c        ****         RED_Write(0); 
 1075              		.loc 1 477 0
 1076 0620 0020     		movs	r0, #0
 1077 0622 FFF7FEFF 		bl	RED_Write
 478:main.c        ****         GREEN_Write(1);
 1078              		.loc 1 478 0
ARM GAS  C:\Users\sergio\AppData\Local\Temp\ccFrgvX1.s 			page 29


 1079 0626 0120     		movs	r0, #1
 1080 0628 FFF7FEFF 		bl	GREEN_Write
 479:main.c        ****         LowF_out_Write(1);
 1081              		.loc 1 479 0
 1082 062c 0120     		movs	r0, #1
 1083 062e FFF7FEFF 		bl	LowF_out_Write
 480:main.c        ****         RelayLF_1_Write(1);
 1084              		.loc 1 480 0
 1085 0632 0120     		movs	r0, #1
 1086 0634 FFF7FEFF 		bl	RelayLF_1_Write
 481:main.c        ****         CyDelay(500);}
 1087              		.loc 1 481 0
 1088 0638 FA23     		movs	r3, #250
 1089 063a 5B00     		lsls	r3, r3, #1
 1090 063c 1800     		movs	r0, r3
 1091 063e FFF7FEFF 		bl	CyDelay
 1092 0642 0BE0     		b	.L17
 1093              	.L16:
 482:main.c        ****     else{RelayLF_1_Write(0); LowF_out_Write(0);BLUE_Write(1); RED_Write(1);}//purple   PIN 4
 1094              		.loc 1 482 0
 1095 0644 0020     		movs	r0, #0
 1096 0646 FFF7FEFF 		bl	RelayLF_1_Write
 1097 064a 0020     		movs	r0, #0
 1098 064c FFF7FEFF 		bl	LowF_out_Write
 1099 0650 0120     		movs	r0, #1
 1100 0652 FFF7FEFF 		bl	BLUE_Write
 1101 0656 0120     		movs	r0, #1
 1102 0658 FFF7FEFF 		bl	RED_Write
 1103              	.L17:
 483:main.c        **** //    
 484:main.c        **** //    CyDelay(1000);
 485:main.c        **** //    Comp_out_Write(0);
 486:main.c        **** //    HighF_out_Write(0);
 487:main.c        **** //    LowF_out_Write(0);
 488:main.c        **** //    RED_Write(1);
 489:main.c        **** //    GREEN_Write(1);
 490:main.c        **** //    BLUE_Write(1);
 491:main.c        ****       read_buff[0] = 0u;
 1104              		.loc 1 491 0
 1105 065c 4023     		movs	r3, #64
 1106 065e FB18     		adds	r3, r7, r3
 1107 0660 0022     		movs	r2, #0
 1108 0662 1A70     		strb	r2, [r3]
 1109              	.LBE2:
 492:main.c        ****     
 493:main.c        ****     //CyDelay(2000);
 494:main.c        ****     
 495:main.c        ****     }
 1110              		.loc 1 495 0
 1111 0664 FCE4     		b	.L18
 1112              		.cfi_endproc
 1113              	.LFE40:
 1114              		.size	main, .-main
 1115              		.text
 1116              	.Letext0:
 1117              		.file 2 "c:\\program files (x86)\\cypress\\psoc creator\\4.2\\psoc creator\\import\\gnu\\arm\\5.4.
 1118              		.file 3 "c:\\program files (x86)\\cypress\\psoc creator\\4.2\\psoc creator\\import\\gnu\\arm\\5.4.
ARM GAS  C:\Users\sergio\AppData\Local\Temp\ccFrgvX1.s 			page 30


 1119              		.file 4 "Generated_Source\\PSoC4/cytypes.h"
 1120              		.section	.debug_info,"",%progbits
 1121              	.Ldebug_info0:
 1122 0000 49020000 		.4byte	0x249
 1123 0004 0400     		.2byte	0x4
 1124 0006 00000000 		.4byte	.Ldebug_abbrev0
 1125 000a 04       		.byte	0x4
 1126 000b 01       		.uleb128 0x1
 1127 000c 18010000 		.4byte	.LASF37
 1128 0010 0C       		.byte	0xc
 1129 0011 31020000 		.4byte	.LASF38
 1130 0015 A7000000 		.4byte	.LASF39
 1131 0019 00000000 		.4byte	.Ldebug_ranges0+0
 1132 001d 00000000 		.4byte	0
 1133 0021 00000000 		.4byte	.Ldebug_line0
 1134 0025 02       		.uleb128 0x2
 1135 0026 01       		.byte	0x1
 1136 0027 06       		.byte	0x6
 1137 0028 60020000 		.4byte	.LASF0
 1138 002c 03       		.uleb128 0x3
 1139 002d 05000000 		.4byte	.LASF9
 1140 0031 02       		.byte	0x2
 1141 0032 1D       		.byte	0x1d
 1142 0033 37000000 		.4byte	0x37
 1143 0037 02       		.uleb128 0x2
 1144 0038 01       		.byte	0x1
 1145 0039 08       		.byte	0x8
 1146 003a A6010000 		.4byte	.LASF1
 1147 003e 02       		.uleb128 0x2
 1148 003f 02       		.byte	0x2
 1149 0040 05       		.byte	0x5
 1150 0041 3D020000 		.4byte	.LASF2
 1151 0045 02       		.uleb128 0x2
 1152 0046 02       		.byte	0x2
 1153 0047 07       		.byte	0x7
 1154 0048 05010000 		.4byte	.LASF3
 1155 004c 02       		.uleb128 0x2
 1156 004d 04       		.byte	0x4
 1157 004e 05       		.byte	0x5
 1158 004f 52020000 		.4byte	.LASF4
 1159 0053 02       		.uleb128 0x2
 1160 0054 04       		.byte	0x4
 1161 0055 07       		.byte	0x7
 1162 0056 EE000000 		.4byte	.LASF5
 1163 005a 02       		.uleb128 0x2
 1164 005b 08       		.byte	0x8
 1165 005c 05       		.byte	0x5
 1166 005d 23020000 		.4byte	.LASF6
 1167 0061 02       		.uleb128 0x2
 1168 0062 08       		.byte	0x8
 1169 0063 07       		.byte	0x7
 1170 0064 EA010000 		.4byte	.LASF7
 1171 0068 04       		.uleb128 0x4
 1172 0069 04       		.byte	0x4
 1173 006a 05       		.byte	0x5
 1174 006b 696E7400 		.ascii	"int\000"
 1175 006f 02       		.uleb128 0x2
ARM GAS  C:\Users\sergio\AppData\Local\Temp\ccFrgvX1.s 			page 31


 1176 0070 04       		.byte	0x4
 1177 0071 07       		.byte	0x7
 1178 0072 D1010000 		.4byte	.LASF8
 1179 0076 03       		.uleb128 0x3
 1180 0077 01020000 		.4byte	.LASF10
 1181 007b 03       		.byte	0x3
 1182 007c 18       		.byte	0x18
 1183 007d 2C000000 		.4byte	0x2c
 1184 0081 05       		.uleb128 0x5
 1185 0082 4C020000 		.4byte	.LASF11
 1186 0086 04       		.byte	0x4
 1187 0087 E401     		.2byte	0x1e4
 1188 0089 37000000 		.4byte	0x37
 1189 008d 05       		.uleb128 0x5
 1190 008e CA010000 		.4byte	.LASF12
 1191 0092 04       		.byte	0x4
 1192 0093 E501     		.2byte	0x1e5
 1193 0095 45000000 		.4byte	0x45
 1194 0099 02       		.uleb128 0x2
 1195 009a 04       		.byte	0x4
 1196 009b 04       		.byte	0x4
 1197 009c 2B000000 		.4byte	.LASF13
 1198 00a0 02       		.uleb128 0x2
 1199 00a1 08       		.byte	0x8
 1200 00a2 04       		.byte	0x4
 1201 00a3 B9010000 		.4byte	.LASF14
 1202 00a7 02       		.uleb128 0x2
 1203 00a8 01       		.byte	0x1
 1204 00a9 08       		.byte	0x8
 1205 00aa 38020000 		.4byte	.LASF15
 1206 00ae 06       		.uleb128 0x6
 1207 00af 81000000 		.4byte	0x81
 1208 00b3 02       		.uleb128 0x2
 1209 00b4 08       		.byte	0x8
 1210 00b5 04       		.byte	0x4
 1211 00b6 81000000 		.4byte	.LASF16
 1212 00ba 02       		.uleb128 0x2
 1213 00bb 04       		.byte	0x4
 1214 00bc 07       		.byte	0x7
 1215 00bd 1A020000 		.4byte	.LASF17
 1216 00c1 07       		.uleb128 0x7
 1217 00c2 8D000000 		.4byte	.LASF18
 1218 00c6 01       		.byte	0x1
 1219 00c7 1D       		.byte	0x1d
 1220 00c8 00000000 		.4byte	.LFB36
 1221 00cc 2A000000 		.4byte	.LFE36-.LFB36
 1222 00d0 01       		.uleb128 0x1
 1223 00d1 9C       		.byte	0x9c
 1224 00d2 08       		.uleb128 0x8
 1225 00d3 16000000 		.4byte	.LASF40
 1226 00d7 01       		.byte	0x1
 1227 00d8 24       		.byte	0x24
 1228 00d9 81000000 		.4byte	0x81
 1229 00dd 00000000 		.4byte	.LFB37
 1230 00e1 46000000 		.4byte	.LFE37-.LFB37
 1231 00e5 01       		.uleb128 0x1
 1232 00e6 9C       		.byte	0x9c
ARM GAS  C:\Users\sergio\AppData\Local\Temp\ccFrgvX1.s 			page 32


 1233 00e7 FA000000 		.4byte	0xfa
 1234 00eb 09       		.uleb128 0x9
 1235 00ec DE010000 		.4byte	.LASF21
 1236 00f0 01       		.byte	0x1
 1237 00f1 26       		.byte	0x26
 1238 00f2 81000000 		.4byte	0x81
 1239 00f6 02       		.uleb128 0x2
 1240 00f7 91       		.byte	0x91
 1241 00f8 77       		.sleb128 -9
 1242 00f9 00       		.byte	0
 1243 00fa 07       		.uleb128 0x7
 1244 00fb 59000000 		.4byte	.LASF19
 1245 00ff 01       		.byte	0x1
 1246 0100 31       		.byte	0x31
 1247 0101 00000000 		.4byte	.LFB38
 1248 0105 4A000000 		.4byte	.LFE38-.LFB38
 1249 0109 01       		.uleb128 0x1
 1250 010a 9C       		.byte	0x9c
 1251 010b 07       		.uleb128 0x7
 1252 010c 3B000000 		.4byte	.LASF20
 1253 0110 01       		.byte	0x1
 1254 0111 3E       		.byte	0x3e
 1255 0112 00000000 		.4byte	.LFB39
 1256 0116 4A000000 		.4byte	.LFE39-.LFB39
 1257 011a 01       		.uleb128 0x1
 1258 011b 9C       		.byte	0x9c
 1259 011c 0A       		.uleb128 0xa
 1260 011d C5010000 		.4byte	.LASF41
 1261 0121 01       		.byte	0x1
 1262 0122 4B       		.byte	0x4b
 1263 0123 68000000 		.4byte	0x68
 1264 0127 00000000 		.4byte	.LFB40
 1265 012b 66060000 		.4byte	.LFE40-.LFB40
 1266 012f 01       		.uleb128 0x1
 1267 0130 9C       		.byte	0x9c
 1268 0131 2B020000 		.4byte	0x22b
 1269 0135 09       		.uleb128 0x9
 1270 0136 E9000000 		.4byte	.LASF22
 1271 013a 01       		.byte	0x1
 1272 013b 96       		.byte	0x96
 1273 013c 68000000 		.4byte	0x68
 1274 0140 02       		.uleb128 0x2
 1275 0141 91       		.byte	0x91
 1276 0142 6C       		.sleb128 -20
 1277 0143 09       		.uleb128 0x9
 1278 0144 13020000 		.4byte	.LASF23
 1279 0148 01       		.byte	0x1
 1280 0149 97       		.byte	0x97
 1281 014a 76000000 		.4byte	0x76
 1282 014e 02       		.uleb128 0x2
 1283 014f 91       		.byte	0x91
 1284 0150 6B       		.sleb128 -21
 1285 0151 0B       		.uleb128 0xb
 1286 0152 60000000 		.4byte	.LBB2
 1287 0156 04060000 		.4byte	.LBE2-.LBB2
 1288 015a 09       		.uleb128 0x9
 1289 015b 31000000 		.4byte	.LASF24
ARM GAS  C:\Users\sergio\AppData\Local\Temp\ccFrgvX1.s 			page 33


 1290 015f 01       		.byte	0x1
 1291 0160 AE       		.byte	0xae
 1292 0161 3B020000 		.4byte	0x23b
 1293 0165 02       		.uleb128 0x2
 1294 0166 91       		.byte	0x91
 1295 0167 60       		.sleb128 -32
 1296 0168 09       		.uleb128 0x9
 1297 0169 00010000 		.4byte	.LASF25
 1298 016d 01       		.byte	0x1
 1299 016e B2       		.byte	0xb2
 1300 016f 76000000 		.4byte	0x76
 1301 0173 02       		.uleb128 0x2
 1302 0174 91       		.byte	0x91
 1303 0175 5F       		.sleb128 -33
 1304 0176 09       		.uleb128 0x9
 1305 0177 0F000000 		.4byte	.LASF26
 1306 017b 01       		.byte	0x1
 1307 017c B3       		.byte	0xb3
 1308 017d 76000000 		.4byte	0x76
 1309 0181 02       		.uleb128 0x2
 1310 0182 91       		.byte	0x91
 1311 0183 5E       		.sleb128 -34
 1312 0184 09       		.uleb128 0x9
 1313 0185 E3010000 		.4byte	.LASF27
 1314 0189 01       		.byte	0x1
 1315 018a B4       		.byte	0xb4
 1316 018b 76000000 		.4byte	0x76
 1317 018f 02       		.uleb128 0x2
 1318 0190 91       		.byte	0x91
 1319 0191 5D       		.sleb128 -35
 1320 0192 0C       		.uleb128 0xc
 1321 0193 73747200 		.ascii	"str\000"
 1322 0197 01       		.byte	0x1
 1323 0198 3201     		.2byte	0x132
 1324 019a 40020000 		.4byte	0x240
 1325 019e 03       		.uleb128 0x3
 1326 019f 91       		.byte	0x91
 1327 01a0 A47F     		.sleb128 -92
 1328 01a2 0D       		.uleb128 0xd
 1329 01a3 C0010000 		.4byte	.LASF28
 1330 01a7 01       		.byte	0x1
 1331 01a8 6901     		.2byte	0x169
 1332 01aa 81000000 		.4byte	0x81
 1333 01ae 02       		.uleb128 0x2
 1334 01af 91       		.byte	0x91
 1335 01b0 5C       		.sleb128 -36
 1336 01b1 0D       		.uleb128 0xd
 1337 01b2 47020000 		.4byte	.LASF29
 1338 01b6 01       		.byte	0x1
 1339 01b7 6A01     		.2byte	0x16a
 1340 01b9 81000000 		.4byte	0x81
 1341 01bd 02       		.uleb128 0x2
 1342 01be 91       		.byte	0x91
 1343 01bf 5B       		.sleb128 -37
 1344 01c0 0D       		.uleb128 0xd
 1345 01c1 0E020000 		.4byte	.LASF30
 1346 01c5 01       		.byte	0x1
ARM GAS  C:\Users\sergio\AppData\Local\Temp\ccFrgvX1.s 			page 34


 1347 01c6 6B01     		.2byte	0x16b
 1348 01c8 81000000 		.4byte	0x81
 1349 01cc 02       		.uleb128 0x2
 1350 01cd 91       		.byte	0x91
 1351 01ce 5A       		.sleb128 -38
 1352 01cf 0D       		.uleb128 0xd
 1353 01d0 00000000 		.4byte	.LASF31
 1354 01d4 01       		.byte	0x1
 1355 01d5 6C01     		.2byte	0x16c
 1356 01d7 81000000 		.4byte	0x81
 1357 01db 02       		.uleb128 0x2
 1358 01dc 91       		.byte	0x91
 1359 01dd 59       		.sleb128 -39
 1360 01de 0D       		.uleb128 0xd
 1361 01df 5B020000 		.4byte	.LASF32
 1362 01e3 01       		.byte	0x1
 1363 01e4 6D01     		.2byte	0x16d
 1364 01e6 81000000 		.4byte	0x81
 1365 01ea 02       		.uleb128 0x2
 1366 01eb 91       		.byte	0x91
 1367 01ec 58       		.sleb128 -40
 1368 01ed 0D       		.uleb128 0xd
 1369 01ee 7C000000 		.4byte	.LASF33
 1370 01f2 01       		.byte	0x1
 1371 01f3 6E01     		.2byte	0x16e
 1372 01f5 81000000 		.4byte	0x81
 1373 01f9 02       		.uleb128 0x2
 1374 01fa 91       		.byte	0x91
 1375 01fb 57       		.sleb128 -41
 1376 01fc 0D       		.uleb128 0xd
 1377 01fd 77000000 		.4byte	.LASF34
 1378 0201 01       		.byte	0x1
 1379 0202 9401     		.2byte	0x194
 1380 0204 8D000000 		.4byte	0x8d
 1381 0208 02       		.uleb128 0x2
 1382 0209 91       		.byte	0x91
 1383 020a 68       		.sleb128 -24
 1384 020b 0D       		.uleb128 0xd
 1385 020c B4010000 		.4byte	.LASF35
 1386 0210 01       		.byte	0x1
 1387 0211 9501     		.2byte	0x195
 1388 0213 8D000000 		.4byte	0x8d
 1389 0217 02       		.uleb128 0x2
 1390 0218 91       		.byte	0x91
 1391 0219 66       		.sleb128 -26
 1392 021a 0D       		.uleb128 0xd
 1393 021b 09020000 		.4byte	.LASF36
 1394 021f 01       		.byte	0x1
 1395 0220 9601     		.2byte	0x196
 1396 0222 8D000000 		.4byte	0x8d
 1397 0226 02       		.uleb128 0x2
 1398 0227 91       		.byte	0x91
 1399 0228 64       		.sleb128 -28
 1400 0229 00       		.byte	0
 1401 022a 00       		.byte	0
 1402 022b 0E       		.uleb128 0xe
 1403 022c AE000000 		.4byte	0xae
ARM GAS  C:\Users\sergio\AppData\Local\Temp\ccFrgvX1.s 			page 35


 1404 0230 3B020000 		.4byte	0x23b
 1405 0234 0F       		.uleb128 0xf
 1406 0235 BA000000 		.4byte	0xba
 1407 0239 01       		.byte	0x1
 1408 023a 00       		.byte	0
 1409 023b 06       		.uleb128 0x6
 1410 023c 2B020000 		.4byte	0x22b
 1411 0240 10       		.uleb128 0x10
 1412 0241 A7000000 		.4byte	0xa7
 1413 0245 0F       		.uleb128 0xf
 1414 0246 BA000000 		.4byte	0xba
 1415 024a 31       		.byte	0x31
 1416 024b 00       		.byte	0
 1417 024c 00       		.byte	0
 1418              		.section	.debug_abbrev,"",%progbits
 1419              	.Ldebug_abbrev0:
 1420 0000 01       		.uleb128 0x1
 1421 0001 11       		.uleb128 0x11
 1422 0002 01       		.byte	0x1
 1423 0003 25       		.uleb128 0x25
 1424 0004 0E       		.uleb128 0xe
 1425 0005 13       		.uleb128 0x13
 1426 0006 0B       		.uleb128 0xb
 1427 0007 03       		.uleb128 0x3
 1428 0008 0E       		.uleb128 0xe
 1429 0009 1B       		.uleb128 0x1b
 1430 000a 0E       		.uleb128 0xe
 1431 000b 55       		.uleb128 0x55
 1432 000c 17       		.uleb128 0x17
 1433 000d 11       		.uleb128 0x11
 1434 000e 01       		.uleb128 0x1
 1435 000f 10       		.uleb128 0x10
 1436 0010 17       		.uleb128 0x17
 1437 0011 00       		.byte	0
 1438 0012 00       		.byte	0
 1439 0013 02       		.uleb128 0x2
 1440 0014 24       		.uleb128 0x24
 1441 0015 00       		.byte	0
 1442 0016 0B       		.uleb128 0xb
 1443 0017 0B       		.uleb128 0xb
 1444 0018 3E       		.uleb128 0x3e
 1445 0019 0B       		.uleb128 0xb
 1446 001a 03       		.uleb128 0x3
 1447 001b 0E       		.uleb128 0xe
 1448 001c 00       		.byte	0
 1449 001d 00       		.byte	0
 1450 001e 03       		.uleb128 0x3
 1451 001f 16       		.uleb128 0x16
 1452 0020 00       		.byte	0
 1453 0021 03       		.uleb128 0x3
 1454 0022 0E       		.uleb128 0xe
 1455 0023 3A       		.uleb128 0x3a
 1456 0024 0B       		.uleb128 0xb
 1457 0025 3B       		.uleb128 0x3b
 1458 0026 0B       		.uleb128 0xb
 1459 0027 49       		.uleb128 0x49
 1460 0028 13       		.uleb128 0x13
ARM GAS  C:\Users\sergio\AppData\Local\Temp\ccFrgvX1.s 			page 36


 1461 0029 00       		.byte	0
 1462 002a 00       		.byte	0
 1463 002b 04       		.uleb128 0x4
 1464 002c 24       		.uleb128 0x24
 1465 002d 00       		.byte	0
 1466 002e 0B       		.uleb128 0xb
 1467 002f 0B       		.uleb128 0xb
 1468 0030 3E       		.uleb128 0x3e
 1469 0031 0B       		.uleb128 0xb
 1470 0032 03       		.uleb128 0x3
 1471 0033 08       		.uleb128 0x8
 1472 0034 00       		.byte	0
 1473 0035 00       		.byte	0
 1474 0036 05       		.uleb128 0x5
 1475 0037 16       		.uleb128 0x16
 1476 0038 00       		.byte	0
 1477 0039 03       		.uleb128 0x3
 1478 003a 0E       		.uleb128 0xe
 1479 003b 3A       		.uleb128 0x3a
 1480 003c 0B       		.uleb128 0xb
 1481 003d 3B       		.uleb128 0x3b
 1482 003e 05       		.uleb128 0x5
 1483 003f 49       		.uleb128 0x49
 1484 0040 13       		.uleb128 0x13
 1485 0041 00       		.byte	0
 1486 0042 00       		.byte	0
 1487 0043 06       		.uleb128 0x6
 1488 0044 35       		.uleb128 0x35
 1489 0045 00       		.byte	0
 1490 0046 49       		.uleb128 0x49
 1491 0047 13       		.uleb128 0x13
 1492 0048 00       		.byte	0
 1493 0049 00       		.byte	0
 1494 004a 07       		.uleb128 0x7
 1495 004b 2E       		.uleb128 0x2e
 1496 004c 00       		.byte	0
 1497 004d 3F       		.uleb128 0x3f
 1498 004e 19       		.uleb128 0x19
 1499 004f 03       		.uleb128 0x3
 1500 0050 0E       		.uleb128 0xe
 1501 0051 3A       		.uleb128 0x3a
 1502 0052 0B       		.uleb128 0xb
 1503 0053 3B       		.uleb128 0x3b
 1504 0054 0B       		.uleb128 0xb
 1505 0055 11       		.uleb128 0x11
 1506 0056 01       		.uleb128 0x1
 1507 0057 12       		.uleb128 0x12
 1508 0058 06       		.uleb128 0x6
 1509 0059 40       		.uleb128 0x40
 1510 005a 18       		.uleb128 0x18
 1511 005b 9642     		.uleb128 0x2116
 1512 005d 19       		.uleb128 0x19
 1513 005e 00       		.byte	0
 1514 005f 00       		.byte	0
 1515 0060 08       		.uleb128 0x8
 1516 0061 2E       		.uleb128 0x2e
 1517 0062 01       		.byte	0x1
ARM GAS  C:\Users\sergio\AppData\Local\Temp\ccFrgvX1.s 			page 37


 1518 0063 3F       		.uleb128 0x3f
 1519 0064 19       		.uleb128 0x19
 1520 0065 03       		.uleb128 0x3
 1521 0066 0E       		.uleb128 0xe
 1522 0067 3A       		.uleb128 0x3a
 1523 0068 0B       		.uleb128 0xb
 1524 0069 3B       		.uleb128 0x3b
 1525 006a 0B       		.uleb128 0xb
 1526 006b 49       		.uleb128 0x49
 1527 006c 13       		.uleb128 0x13
 1528 006d 11       		.uleb128 0x11
 1529 006e 01       		.uleb128 0x1
 1530 006f 12       		.uleb128 0x12
 1531 0070 06       		.uleb128 0x6
 1532 0071 40       		.uleb128 0x40
 1533 0072 18       		.uleb128 0x18
 1534 0073 9642     		.uleb128 0x2116
 1535 0075 19       		.uleb128 0x19
 1536 0076 01       		.uleb128 0x1
 1537 0077 13       		.uleb128 0x13
 1538 0078 00       		.byte	0
 1539 0079 00       		.byte	0
 1540 007a 09       		.uleb128 0x9
 1541 007b 34       		.uleb128 0x34
 1542 007c 00       		.byte	0
 1543 007d 03       		.uleb128 0x3
 1544 007e 0E       		.uleb128 0xe
 1545 007f 3A       		.uleb128 0x3a
 1546 0080 0B       		.uleb128 0xb
 1547 0081 3B       		.uleb128 0x3b
 1548 0082 0B       		.uleb128 0xb
 1549 0083 49       		.uleb128 0x49
 1550 0084 13       		.uleb128 0x13
 1551 0085 02       		.uleb128 0x2
 1552 0086 18       		.uleb128 0x18
 1553 0087 00       		.byte	0
 1554 0088 00       		.byte	0
 1555 0089 0A       		.uleb128 0xa
 1556 008a 2E       		.uleb128 0x2e
 1557 008b 01       		.byte	0x1
 1558 008c 3F       		.uleb128 0x3f
 1559 008d 19       		.uleb128 0x19
 1560 008e 03       		.uleb128 0x3
 1561 008f 0E       		.uleb128 0xe
 1562 0090 3A       		.uleb128 0x3a
 1563 0091 0B       		.uleb128 0xb
 1564 0092 3B       		.uleb128 0x3b
 1565 0093 0B       		.uleb128 0xb
 1566 0094 27       		.uleb128 0x27
 1567 0095 19       		.uleb128 0x19
 1568 0096 49       		.uleb128 0x49
 1569 0097 13       		.uleb128 0x13
 1570 0098 11       		.uleb128 0x11
 1571 0099 01       		.uleb128 0x1
 1572 009a 12       		.uleb128 0x12
 1573 009b 06       		.uleb128 0x6
 1574 009c 40       		.uleb128 0x40
ARM GAS  C:\Users\sergio\AppData\Local\Temp\ccFrgvX1.s 			page 38


 1575 009d 18       		.uleb128 0x18
 1576 009e 9642     		.uleb128 0x2116
 1577 00a0 19       		.uleb128 0x19
 1578 00a1 01       		.uleb128 0x1
 1579 00a2 13       		.uleb128 0x13
 1580 00a3 00       		.byte	0
 1581 00a4 00       		.byte	0
 1582 00a5 0B       		.uleb128 0xb
 1583 00a6 0B       		.uleb128 0xb
 1584 00a7 01       		.byte	0x1
 1585 00a8 11       		.uleb128 0x11
 1586 00a9 01       		.uleb128 0x1
 1587 00aa 12       		.uleb128 0x12
 1588 00ab 06       		.uleb128 0x6
 1589 00ac 00       		.byte	0
 1590 00ad 00       		.byte	0
 1591 00ae 0C       		.uleb128 0xc
 1592 00af 34       		.uleb128 0x34
 1593 00b0 00       		.byte	0
 1594 00b1 03       		.uleb128 0x3
 1595 00b2 08       		.uleb128 0x8
 1596 00b3 3A       		.uleb128 0x3a
 1597 00b4 0B       		.uleb128 0xb
 1598 00b5 3B       		.uleb128 0x3b
 1599 00b6 05       		.uleb128 0x5
 1600 00b7 49       		.uleb128 0x49
 1601 00b8 13       		.uleb128 0x13
 1602 00b9 02       		.uleb128 0x2
 1603 00ba 18       		.uleb128 0x18
 1604 00bb 00       		.byte	0
 1605 00bc 00       		.byte	0
 1606 00bd 0D       		.uleb128 0xd
 1607 00be 34       		.uleb128 0x34
 1608 00bf 00       		.byte	0
 1609 00c0 03       		.uleb128 0x3
 1610 00c1 0E       		.uleb128 0xe
 1611 00c2 3A       		.uleb128 0x3a
 1612 00c3 0B       		.uleb128 0xb
 1613 00c4 3B       		.uleb128 0x3b
 1614 00c5 05       		.uleb128 0x5
 1615 00c6 49       		.uleb128 0x49
 1616 00c7 13       		.uleb128 0x13
 1617 00c8 02       		.uleb128 0x2
 1618 00c9 18       		.uleb128 0x18
 1619 00ca 00       		.byte	0
 1620 00cb 00       		.byte	0
 1621 00cc 0E       		.uleb128 0xe
 1622 00cd 01       		.uleb128 0x1
 1623 00ce 01       		.byte	0x1
 1624 00cf 49       		.uleb128 0x49
 1625 00d0 13       		.uleb128 0x13
 1626 00d1 01       		.uleb128 0x1
 1627 00d2 13       		.uleb128 0x13
 1628 00d3 00       		.byte	0
 1629 00d4 00       		.byte	0
 1630 00d5 0F       		.uleb128 0xf
 1631 00d6 21       		.uleb128 0x21
ARM GAS  C:\Users\sergio\AppData\Local\Temp\ccFrgvX1.s 			page 39


 1632 00d7 00       		.byte	0
 1633 00d8 49       		.uleb128 0x49
 1634 00d9 13       		.uleb128 0x13
 1635 00da 2F       		.uleb128 0x2f
 1636 00db 0B       		.uleb128 0xb
 1637 00dc 00       		.byte	0
 1638 00dd 00       		.byte	0
 1639 00de 10       		.uleb128 0x10
 1640 00df 01       		.uleb128 0x1
 1641 00e0 01       		.byte	0x1
 1642 00e1 49       		.uleb128 0x49
 1643 00e2 13       		.uleb128 0x13
 1644 00e3 00       		.byte	0
 1645 00e4 00       		.byte	0
 1646 00e5 00       		.byte	0
 1647              		.section	.debug_aranges,"",%progbits
 1648 0000 3C000000 		.4byte	0x3c
 1649 0004 0200     		.2byte	0x2
 1650 0006 00000000 		.4byte	.Ldebug_info0
 1651 000a 04       		.byte	0x4
 1652 000b 00       		.byte	0
 1653 000c 0000     		.2byte	0
 1654 000e 0000     		.2byte	0
 1655 0010 00000000 		.4byte	.LFB36
 1656 0014 2A000000 		.4byte	.LFE36-.LFB36
 1657 0018 00000000 		.4byte	.LFB37
 1658 001c 46000000 		.4byte	.LFE37-.LFB37
 1659 0020 00000000 		.4byte	.LFB38
 1660 0024 4A000000 		.4byte	.LFE38-.LFB38
 1661 0028 00000000 		.4byte	.LFB39
 1662 002c 4A000000 		.4byte	.LFE39-.LFB39
 1663 0030 00000000 		.4byte	.LFB40
 1664 0034 66060000 		.4byte	.LFE40-.LFB40
 1665 0038 00000000 		.4byte	0
 1666 003c 00000000 		.4byte	0
 1667              		.section	.debug_ranges,"",%progbits
 1668              	.Ldebug_ranges0:
 1669 0000 00000000 		.4byte	.LFB36
 1670 0004 2A000000 		.4byte	.LFE36
 1671 0008 00000000 		.4byte	.LFB37
 1672 000c 46000000 		.4byte	.LFE37
 1673 0010 00000000 		.4byte	.LFB38
 1674 0014 4A000000 		.4byte	.LFE38
 1675 0018 00000000 		.4byte	.LFB39
 1676 001c 4A000000 		.4byte	.LFE39
 1677 0020 00000000 		.4byte	.LFB40
 1678 0024 66060000 		.4byte	.LFE40
 1679 0028 00000000 		.4byte	0
 1680 002c 00000000 		.4byte	0
 1681              		.section	.debug_line,"",%progbits
 1682              	.Ldebug_line0:
 1683 0000 76020000 		.section	.debug_str,"MS",%progbits,1
 1683      02003E01 
 1683      00000201 
 1683      FB0E0D00 
 1683      01010101 
 1684              	.LASF31:
ARM GAS  C:\Users\sergio\AppData\Local\Temp\ccFrgvX1.s 			page 40


 1685 0000 794D5342 		.ascii	"yMSB\000"
 1685      00
 1686              	.LASF9:
 1687 0005 5F5F7569 		.ascii	"__uint8_t\000"
 1687      6E74385F 
 1687      7400
 1688              	.LASF26:
 1689 000f 74656D70 		.ascii	"tempR1\000"
 1689      523100
 1690              	.LASF40:
 1691 0016 72656164 		.ascii	"read_thermostat_pins\000"
 1691      5F746865 
 1691      726D6F73 
 1691      7461745F 
 1691      70696E73 
 1692              	.LASF13:
 1693 002b 666C6F61 		.ascii	"float\000"
 1693      7400
 1694              	.LASF24:
 1695 0031 72656164 		.ascii	"read_buff\000"
 1695      5F627566 
 1695      6600
 1696              	.LASF20:
 1697 003b 636F6E66 		.ascii	"configure_temperature_sensor1\000"
 1697      69677572 
 1697      655F7465 
 1697      6D706572 
 1697      61747572 
 1698              	.LASF19:
 1699 0059 636F6E66 		.ascii	"configure_temperature_sensor2\000"
 1699      69677572 
 1699      655F7465 
 1699      6D706572 
 1699      61747572 
 1700              	.LASF34:
 1701 0077 78414343 		.ascii	"xACC\000"
 1701      00
 1702              	.LASF33:
 1703 007c 7A4D5342 		.ascii	"zMSB\000"
 1703      00
 1704              	.LASF16:
 1705 0081 6C6F6E67 		.ascii	"long double\000"
 1705      20646F75 
 1705      626C6500 
 1706              	.LASF18:
 1707 008d 696E6974 		.ascii	"initialized_input_gpioExp\000"
 1707      69616C69 
 1707      7A65645F 
 1707      696E7075 
 1707      745F6770 
 1708              	.LASF39:
 1709 00a7 433A5C55 		.ascii	"C:\\Users\\sergio\\Documents\\PSoC Creator\\Thermos"
 1709      73657273 
 1709      5C736572 
 1709      67696F5C 
 1709      446F6375 
 1710 00d5 7461745F 		.ascii	"tat_test\\test.cydsn\000"
ARM GAS  C:\Users\sergio\AppData\Local\Temp\ccFrgvX1.s 			page 41


 1710      74657374 
 1710      5C746573 
 1710      742E6379 
 1710      64736E00 
 1711              	.LASF22:
 1712 00e9 6C6F6F70 		.ascii	"loop\000"
 1712      00
 1713              	.LASF5:
 1714 00ee 6C6F6E67 		.ascii	"long unsigned int\000"
 1714      20756E73 
 1714      69676E65 
 1714      6420696E 
 1714      7400
 1715              	.LASF25:
 1716 0100 74656D70 		.ascii	"temp\000"
 1716      00
 1717              	.LASF3:
 1718 0105 73686F72 		.ascii	"short unsigned int\000"
 1718      7420756E 
 1718      7369676E 
 1718      65642069 
 1718      6E7400
 1719              	.LASF37:
 1720 0118 474E5520 		.ascii	"GNU C11 5.4.1 20160609 (release) [ARM/embedded-5-br"
 1720      43313120 
 1720      352E342E 
 1720      31203230 
 1720      31363036 
 1721 014b 616E6368 		.ascii	"anch revision 237715] -mcpu=cortex-m0 -mthumb -g -O"
 1721      20726576 
 1721      6973696F 
 1721      6E203233 
 1721      37373135 
 1722 017e 30202D66 		.ascii	"0 -ffunction-sections -ffat-lto-objects\000"
 1722      66756E63 
 1722      74696F6E 
 1722      2D736563 
 1722      74696F6E 
 1723              	.LASF1:
 1724 01a6 756E7369 		.ascii	"unsigned char\000"
 1724      676E6564 
 1724      20636861 
 1724      7200
 1725              	.LASF35:
 1726 01b4 79414343 		.ascii	"yACC\000"
 1726      00
 1727              	.LASF14:
 1728 01b9 646F7562 		.ascii	"double\000"
 1728      6C6500
 1729              	.LASF28:
 1730 01c0 784C5342 		.ascii	"xLSB\000"
 1730      00
 1731              	.LASF41:
 1732 01c5 6D61696E 		.ascii	"main\000"
 1732      00
 1733              	.LASF12:
 1734 01ca 75696E74 		.ascii	"uint16\000"
ARM GAS  C:\Users\sergio\AppData\Local\Temp\ccFrgvX1.s 			page 42


 1734      313600
 1735              	.LASF8:
 1736 01d1 756E7369 		.ascii	"unsigned int\000"
 1736      676E6564 
 1736      20696E74 
 1736      00
 1737              	.LASF21:
 1738 01de 70696E73 		.ascii	"pins\000"
 1738      00
 1739              	.LASF27:
 1740 01e3 74656D70 		.ascii	"tempR2\000"
 1740      523200
 1741              	.LASF7:
 1742 01ea 6C6F6E67 		.ascii	"long long unsigned int\000"
 1742      206C6F6E 
 1742      6720756E 
 1742      7369676E 
 1742      65642069 
 1743              	.LASF10:
 1744 0201 75696E74 		.ascii	"uint8_t\000"
 1744      385F7400 
 1745              	.LASF36:
 1746 0209 7A414343 		.ascii	"zACC\000"
 1746      00
 1747              	.LASF30:
 1748 020e 794C5342 		.ascii	"yLSB\000"
 1748      00
 1749              	.LASF23:
 1750 0213 6E666163 		.ascii	"nfacto\000"
 1750      746F00
 1751              	.LASF17:
 1752 021a 73697A65 		.ascii	"sizetype\000"
 1752      74797065 
 1752      00
 1753              	.LASF6:
 1754 0223 6C6F6E67 		.ascii	"long long int\000"
 1754      206C6F6E 
 1754      6720696E 
 1754      7400
 1755              	.LASF38:
 1756 0231 6D61696E 		.ascii	"main.c\000"
 1756      2E6300
 1757              	.LASF15:
 1758 0238 63686172 		.ascii	"char\000"
 1758      00
 1759              	.LASF2:
 1760 023d 73686F72 		.ascii	"short int\000"
 1760      7420696E 
 1760      7400
 1761              	.LASF29:
 1762 0247 784D5342 		.ascii	"xMSB\000"
 1762      00
 1763              	.LASF11:
 1764 024c 75696E74 		.ascii	"uint8\000"
 1764      3800
 1765              	.LASF4:
 1766 0252 6C6F6E67 		.ascii	"long int\000"
ARM GAS  C:\Users\sergio\AppData\Local\Temp\ccFrgvX1.s 			page 43


 1766      20696E74 
 1766      00
 1767              	.LASF32:
 1768 025b 7A4C5342 		.ascii	"zLSB\000"
 1768      00
 1769              	.LASF0:
 1770 0260 7369676E 		.ascii	"signed char\000"
 1770      65642063 
 1770      68617200 
 1771              		.ident	"GCC: (GNU Tools for ARM Embedded Processors) 5.4.1 20160609 (release) [ARM/embedded-5-bran
