ARM GAS  C:\Users\sergio\AppData\Local\Temp\cc6XWpSt.s 			page 1


   1              		.syntax unified
   2              		.cpu cortex-m0
   3              		.fpu softvfp
   4              		.eabi_attribute 20, 1
   5              		.eabi_attribute 21, 1
   6              		.eabi_attribute 23, 3
   7              		.eabi_attribute 24, 1
   8              		.eabi_attribute 25, 1
   9              		.eabi_attribute 26, 1
  10              		.eabi_attribute 30, 6
  11              		.eabi_attribute 34, 0
  12              		.eabi_attribute 18, 4
  13              		.thumb
  14              		.syntax unified
  15              		.file	"main.c"
  16              		.text
  17              	.Ltext0:
  18              		.cfi_sections	.debug_frame
  19              		.comm	thermoHandle,12,4
  20              		.global	interruptFlag
  21              		.bss
  22              		.align	2
  23              		.type	interruptFlag, %object
  24              		.size	interruptFlag, 4
  25              	interruptFlag:
  26 0000 00000000 		.space	4
  27              		.global	isNotify
  28              		.type	isNotify, %object
  29              		.size	isNotify, 1
  30              	isNotify:
  31 0004 00       		.space	1
  32              		.global	updateIsNotifyCCCDAttr
  33              		.type	updateIsNotifyCCCDAttr, %object
  34              		.size	updateIsNotifyCCCDAttr, 1
  35              	updateIsNotifyCCCDAttr:
  36 0005 00       		.space	1
  37              		.global	bleConnected
  38              		.type	bleConnected, %object
  39              		.size	bleConnected, 1
  40              	bleConnected:
  41 0006 00       		.space	1
  42              		.comm	uartStr,50,4
  43              		.global	gpioPins
  44              		.type	gpioPins, %object
  45              		.size	gpioPins, 1
  46              	gpioPins:
  47 0007 00       		.space	1
  48              		.global	adcRead
  49              		.align	1
  50              		.type	adcRead, %object
  51              		.size	adcRead, 2
  52              	adcRead:
  53 0008 0000     		.space	2
  54              		.global	acStates
  55 000a 0000     		.align	2
  56              		.type	acStates, %object
  57              		.size	acStates, 4
ARM GAS  C:\Users\sergio\AppData\Local\Temp\cc6XWpSt.s 			page 2


  58              	acStates:
  59 000c 00000000 		.space	4
  60              		.global	thermoState
  61              		.type	thermoState, %object
  62              		.size	thermoState, 1
  63              	thermoState:
  64 0010 00       		.space	1
  65              		.global	counter
  66 0011 000000   		.align	2
  67              		.type	counter, %object
  68              		.size	counter, 4
  69              	counter:
  70 0014 00000000 		.space	4
  71              		.comm	sensorData,36,4
  72              		.comm	thermo,7,4
  73              		.comm	errorPower,6,4
  74              		.global	setTemperature
  75              		.type	setTemperature, %object
  76              		.size	setTemperature, 1
  77              	setTemperature:
  78 0018 00       		.space	1
  79              		.global	prevComp
  80              		.type	prevComp, %object
  81              		.size	prevComp, 1
  82              	prevComp:
  83 0019 00       		.space	1
  84              		.global	prevLFan
  85              		.type	prevLFan, %object
  86              		.size	prevLFan, 1
  87              	prevLFan:
  88 001a 00       		.space	1
  89              		.global	prevHFan
  90              		.type	prevHFan, %object
  91              		.size	prevHFan, 1
  92              	prevHFan:
  93 001b 00       		.space	1
  94              		.section	.text.updateThermostatData,"ax",%progbits
  95              		.align	2
  96              		.global	updateThermostatData
  97              		.code	16
  98              		.thumb_func
  99              		.type	updateThermostatData, %function
 100              	updateThermostatData:
 101              	.LFB36:
 102              		.file 1 "main.c"
   1:main.c        **** /* ========================================
   2:main.c        ****  *
   3:main.c        ****  * Copyright YOUR COMPANY, THE YEAR
   4:main.c        ****  * All Rights Reserved
   5:main.c        ****  * UNPUBLISHED, LICENSED SOFTWARE.
   6:main.c        ****  *
   7:main.c        ****  * CONFIDENTIAL AND PROPRIETARY INFORMATION
   8:main.c        ****  * WHICH IS THE PROPERTY OF your company.
   9:main.c        ****  *
  10:main.c        ****  * ========================================
  11:main.c        **** */
  12:main.c        **** #include <project.h>
ARM GAS  C:\Users\sergio\AppData\Local\Temp\cc6XWpSt.s 			page 3


  13:main.c        **** 
  14:main.c        **** #include <stdio.h>
  15:main.c        **** #include <stdlib.h>
  16:main.c        **** #include <time.h>
  17:main.c        **** 
  18:main.c        **** CYBLE_GATT_HANDLE_VALUE_PAIR_T thermoHandle;
  19:main.c        **** 
  20:main.c        **** // These are for the gpio exp.
  21:main.c        **** #define ADDR (0x70)
  22:main.c        **** #define REG_READ (0x00)
  23:main.c        **** #define REG_WRITE (0x01)
  24:main.c        **** #define REG_CONFIG (0x03)
  25:main.c        **** 
  26:main.c        **** #define ADDR_POWER1 (0x74) // compressor
  27:main.c        **** #define ADDR_POWER2 (0x75) // High Fan
  28:main.c        **** #define ADDR_POWER3 (0x76) // Low Fan
  29:main.c        **** #define REG_POWER_VERSION (0x04)
  30:main.c        **** 
  31:main.c        **** // the address fro the temp sensor are 0x4C for A model and 0x4D for B model.
  32:main.c        **** 
  33:main.c        **** int interruptFlag = 0;
  34:main.c        **** uint8 isNotify = 0;
  35:main.c        **** uint8 updateIsNotifyCCCDAttr = 0;
  36:main.c        **** uint8 bleConnected = 0;
  37:main.c        **** char uartStr[50];
  38:main.c        **** 
  39:main.c        **** uint8 gpioPins = 0u;
  40:main.c        **** uint16 adcRead = 0u;
  41:main.c        **** int acStates = 0u;
  42:main.c        **** uint8 thermoState = 0u;
  43:main.c        **** int counter = 0;
  44:main.c        **** 
  45:main.c        **** 
  46:main.c        **** typedef struct{
  47:main.c        ****     
  48:main.c        ****     uint8 localTemp;
  49:main.c        ****     uint8 humidity;
  50:main.c        ****     uint8 remoteTemp1;
  51:main.c        ****     uint8 remoteTemp2; 
  52:main.c        ****     uint8 remoteTemp3;
  53:main.c        ****     uint8 remoteTemp4;
  54:main.c        ****     
  55:main.c        ****     uint16 voltCompressor;
  56:main.c        ****     uint16 voltFan;
  57:main.c        ****     uint16 volt;
  58:main.c        ****     
  59:main.c        ****     uint32 currentCompressor;
  60:main.c        ****     uint32 currentFan; 
  61:main.c        ****     uint32 current;
  62:main.c        ****     
  63:main.c        ****     uint16 lineFreqComp;
  64:main.c        ****     uint16 lineFreqFan;
  65:main.c        ****     uint16 lineFreq;
  66:main.c        ****     
  67:main.c        ****     
  68:main.c        ****     uint8 accX;
  69:main.c        ****     uint8 accY;
ARM GAS  C:\Users\sergio\AppData\Local\Temp\cc6XWpSt.s 			page 4


  70:main.c        ****     uint8 accZ;
  71:main.c        ****     
  72:main.c        ****     uint16 airFlow;
  73:main.c        ****     
  74:main.c        **** }dataCollected;
  75:main.c        **** 
  76:main.c        ****  dataCollected sensorData;
  77:main.c        **** // 5 bytes
  78:main.c        **** typedef struct{
  79:main.c        ****     uint8 compressor;
  80:main.c        ****     uint8 fanLow;
  81:main.c        ****     uint8 fanHigh;
  82:main.c        ****     uint8 setTemperature;
  83:main.c        ****     uint8 ambientTemp;
  84:main.c        ****     uint8 power;
  85:main.c        ****     uint8 test;
  86:main.c        **** } thermostatData ;
  87:main.c        **** 
  88:main.c        **** 
  89:main.c        **** 
  90:main.c        ****  thermostatData thermo;
  91:main.c        **** 
  92:main.c        **** typedef struct{
  93:main.c        ****     int8 err_Comp_volt;
  94:main.c        ****     int8 err_Comp_curr;
  95:main.c        ****     int8 err_LFan_volt;
  96:main.c        ****     int8 err_LFan_curr;
  97:main.c        ****     int8 err_HFan_volt;
  98:main.c        ****     int8 err_HFan_curr;
  99:main.c        ****     
 100:main.c        **** }errorCode;
 101:main.c        **** 
 102:main.c        **** errorCode errorPower;
 103:main.c        **** 
 104:main.c        **** uint8 setTemperature = 0;
 105:main.c        **** 
 106:main.c        **** uint8 prevComp = 0;
 107:main.c        **** uint8 prevLFan = 0;
 108:main.c        **** uint8 prevHFan = 0;
 109:main.c        **** 
 110:main.c        **** 
 111:main.c        **** 
 112:main.c        **** void updateThermostatData(void){
 103              		.loc 1 112 0
 104              		.cfi_startproc
 105              		@ args = 0, pretend = 0, frame = 8
 106              		@ frame_needed = 1, uses_anonymous_args = 0
 107 0000 80B5     		push	{r7, lr}
 108              		.cfi_def_cfa_offset 8
 109              		.cfi_offset 7, -8
 110              		.cfi_offset 14, -4
 111 0002 82B0     		sub	sp, sp, #8
 112              		.cfi_def_cfa_offset 16
 113 0004 00AF     		add	r7, sp, #0
 114              		.cfi_def_cfa_register 7
 113:main.c        ****     
 114:main.c        ****     
ARM GAS  C:\Users\sergio\AppData\Local\Temp\cc6XWpSt.s 			page 5


 115:main.c        ****     uint8 thermoTemp[] = {thermo.compressor, thermo.fanLow, thermo.fanHigh,
 115              		.loc 1 115 0
 116 0006 194B     		ldr	r3, .L2
 117 0008 1A78     		ldrb	r2, [r3]
 118 000a 3B00     		movs	r3, r7
 119 000c 1A70     		strb	r2, [r3]
 120 000e 174B     		ldr	r3, .L2
 121 0010 5A78     		ldrb	r2, [r3, #1]
 122 0012 3B00     		movs	r3, r7
 123 0014 5A70     		strb	r2, [r3, #1]
 124 0016 154B     		ldr	r3, .L2
 125 0018 9A78     		ldrb	r2, [r3, #2]
 126 001a 3B00     		movs	r3, r7
 127 001c 9A70     		strb	r2, [r3, #2]
 116:main.c        ****     thermo.setTemperature, thermo.ambientTemp, thermo.power, thermo.test};
 128              		.loc 1 116 0
 129 001e 134B     		ldr	r3, .L2
 130 0020 DA78     		ldrb	r2, [r3, #3]
 115:main.c        ****     thermo.setTemperature, thermo.ambientTemp, thermo.power, thermo.test};
 131              		.loc 1 115 0
 132 0022 3B00     		movs	r3, r7
 133 0024 DA70     		strb	r2, [r3, #3]
 134              		.loc 1 116 0
 135 0026 114B     		ldr	r3, .L2
 136 0028 1A79     		ldrb	r2, [r3, #4]
 115:main.c        ****     thermo.setTemperature, thermo.ambientTemp, thermo.power, thermo.test};
 137              		.loc 1 115 0
 138 002a 3B00     		movs	r3, r7
 139 002c 1A71     		strb	r2, [r3, #4]
 140              		.loc 1 116 0
 141 002e 0F4B     		ldr	r3, .L2
 142 0030 5A79     		ldrb	r2, [r3, #5]
 115:main.c        ****     thermo.setTemperature, thermo.ambientTemp, thermo.power, thermo.test};
 143              		.loc 1 115 0
 144 0032 3B00     		movs	r3, r7
 145 0034 5A71     		strb	r2, [r3, #5]
 146              		.loc 1 116 0
 147 0036 0D4B     		ldr	r3, .L2
 148 0038 9A79     		ldrb	r2, [r3, #6]
 115:main.c        ****     thermo.setTemperature, thermo.ambientTemp, thermo.power, thermo.test};
 149              		.loc 1 115 0
 150 003a 3B00     		movs	r3, r7
 151 003c 9A71     		strb	r2, [r3, #6]
 117:main.c        ****     thermoHandle.attrHandle = CYBLE_RVAC_THERMOSTAT_THERMOCCCD_DESC_HANDLE;
 152              		.loc 1 117 0
 153 003e 0C4B     		ldr	r3, .L2+4
 154 0040 1722     		movs	r2, #23
 155 0042 1A81     		strh	r2, [r3, #8]
 118:main.c        ****     thermoHandle.value.val = (uint8 *) thermoTemp;
 156              		.loc 1 118 0
 157 0044 0A4B     		ldr	r3, .L2+4
 158 0046 3A00     		movs	r2, r7
 159 0048 1A60     		str	r2, [r3]
 119:main.c        ****     thermoHandle.value.len = 7; 
 160              		.loc 1 119 0
 161 004a 094B     		ldr	r3, .L2+4
 162 004c 0722     		movs	r2, #7
ARM GAS  C:\Users\sergio\AppData\Local\Temp\cc6XWpSt.s 			page 6


 163 004e 9A80     		strh	r2, [r3, #4]
 120:main.c        ****     thermoHandle.value.actualLen = 7; 
 164              		.loc 1 120 0
 165 0050 074B     		ldr	r3, .L2+4
 166 0052 0722     		movs	r2, #7
 167 0054 DA80     		strh	r2, [r3, #6]
 121:main.c        ****     
 122:main.c        ****     CyBle_GattsWriteAttributeValue(&thermoHandle, 0, &cyBle_connHandle, 0);
 168              		.loc 1 122 0
 169 0056 074A     		ldr	r2, .L2+8
 170 0058 0548     		ldr	r0, .L2+4
 171 005a 0023     		movs	r3, #0
 172 005c 0021     		movs	r1, #0
 173 005e FFF7FEFF 		bl	CyBle_GattsWriteAttributeValue
 123:main.c        **** }
 174              		.loc 1 123 0
 175 0062 C046     		nop
 176 0064 BD46     		mov	sp, r7
 177 0066 02B0     		add	sp, sp, #8
 178              		@ sp needed
 179 0068 80BD     		pop	{r7, pc}
 180              	.L3:
 181 006a C046     		.align	2
 182              	.L2:
 183 006c 00000000 		.word	thermo
 184 0070 00000000 		.word	thermoHandle
 185 0074 00000000 		.word	cyBle_connHandle
 186              		.cfi_endproc
 187              	.LFE36:
 188              		.size	updateThermostatData, .-updateThermostatData
 189              		.section	.rodata
 190              		.align	2
 191              	.LC8:
 192 0000 2D2D2D2D 		.ascii	"-----------------    comp %d   flow %d   dhigh %d p"
 192      2D2D2D2D 
 192      2D2D2D2D 
 192      2D2D2D2D 
 192      2D202020 
 193 0033 6F776572 		.ascii	"ower %d\012\000"
 193      2025640A 
 193      00
 194              		.section	.text.bleStack,"ax",%progbits
 195              		.align	2
 196              		.global	bleStack
 197              		.code	16
 198              		.thumb_func
 199              		.type	bleStack, %function
 200              	bleStack:
 201              	.LFB37:
 124:main.c        **** 
 125:main.c        **** void bleStack(uint32 event, void *eventParam){
 202              		.loc 1 125 0
 203              		.cfi_startproc
 204              		@ args = 0, pretend = 0, frame = 24
 205              		@ frame_needed = 1, uses_anonymous_args = 0
 206 0000 B0B5     		push	{r4, r5, r7, lr}
 207              		.cfi_def_cfa_offset 16
ARM GAS  C:\Users\sergio\AppData\Local\Temp\cc6XWpSt.s 			page 7


 208              		.cfi_offset 4, -16
 209              		.cfi_offset 5, -12
 210              		.cfi_offset 7, -8
 211              		.cfi_offset 14, -4
 212 0002 88B0     		sub	sp, sp, #32
 213              		.cfi_def_cfa_offset 48
 214 0004 02AF     		add	r7, sp, #8
 215              		.cfi_def_cfa 7, 40
 216 0006 7860     		str	r0, [r7, #4]
 217 0008 3960     		str	r1, [r7]
 126:main.c        ****     
 127:main.c        ****     CYBLE_GATTS_WRITE_REQ_PARAM_T wrReq;
 128:main.c        **** 
 129:main.c        ****     
 130:main.c        ****     switch(event){
 218              		.loc 1 130 0
 219 000a 7B68     		ldr	r3, [r7, #4]
 220 000c 282B     		cmp	r3, #40
 221 000e 14D0     		beq	.L6
 222 0010 05D8     		bhi	.L7
 223 0012 262B     		cmp	r3, #38
 224 0014 1BD0     		beq	.L8
 225 0016 0DD8     		bhi	.L9
 226 0018 012B     		cmp	r3, #1
 227 001a 07D0     		beq	.L10
 131:main.c        ****     
 132:main.c        ****      
 133:main.c        ****         case CYBLE_EVT_STACK_ON:
 134:main.c        ****           CyBle_GappStartAdvertisement(CYBLE_ADVERTISING_FAST);
 135:main.c        **** //            if(apiResult != CYBLE_ERROR_OK){
 136:main.c        **** //            // DBG_PRINTF("Start Advertisement API Error: %d \r\n",apiResult);   
 137:main.c        **** //            }
 138:main.c        ****             //DBG_PRINTF("Bluetooth On, StartAdvertisement with addr: ");
 139:main.c        **** //            localAddr.type = 0u;
 140:main.c        **** //            CyBle_GetDeviceAddress(&localAddr);
 141:main.c        **** //            for(uint i = CYBLE_GAP_BD_ADDR_SIZE; i > 0u; i--)
 142:main.c        **** //            {
 143:main.c        **** //                DBG_PRINTF("%2.2x", localAddr.bdAddr[i-1]);
 144:main.c        **** //            }
 145:main.c        **** //            DBG_PRINTF("\r\n");
 146:main.c        ****             break; //(Claudio Modified) Is there a reason why we didn't have a break expression in 
 147:main.c        ****         case CYBLE_EVT_GAP_DEVICE_CONNECTED:
 148:main.c        ****             CyBle_GappStopAdvertisement(); 
 149:main.c        ****             break;
 150:main.c        ****         case CYBLE_EVT_GAP_DEVICE_DISCONNECTED:
 151:main.c        ****             CyBle_GappStartAdvertisement(CYBLE_ADVERTISING_FAST);
 152:main.c        ****             isNotify = 0;
 153:main.c        ****             bleConnected = 0; // test this
 154:main.c        ****             break;
 155:main.c        ****         case CYBLE_EVT_GAPP_ADVERTISEMENT_START_STOP:
 156:main.c        ****              if(CyBle_GetState() == CYBLE_STATE_DISCONNECTED){
 157:main.c        ****                  CyBle_GappStartAdvertisement(CYBLE_SCANNING_FAST);
 158:main.c        ****             }
 159:main.c        ****             break;
 160:main.c        ****         case CYBLE_EVT_GATT_CONNECT_IND:
 161:main.c        ****             bleConnected = 1;
 162:main.c        ****             CyBle_GappStopAdvertisement();
ARM GAS  C:\Users\sergio\AppData\Local\Temp\cc6XWpSt.s 			page 8


 163:main.c        ****             break;
 164:main.c        ****         case CYBLE_EVT_GATT_DISCONNECT_IND:
 165:main.c        ****             isNotify = 0;
 166:main.c        ****             bleConnected = 0;
 167:main.c        ****             // Update the notifications CCCD
 168:main.c        ****             updateIsNotifyCCCDAttr = 1;
 169:main.c        ****             
 170:main.c        ****             // update the thermostat array with the thermosstat info.
 171:main.c        ****             // ex. themostat[0] = readSensor();
 172:main.c        ****             // update the data in the thermostat attibute
 173:main.c        ****             updateThermostatData();
 174:main.c        ****             
 175:main.c        ****            break;
 176:main.c        ****         case CYBLE_EVT_GATTS_WRITE_REQ:
 177:main.c        ****             wrReq = *(CYBLE_GATTS_WRITE_REQ_PARAM_T *)eventParam; //CYBLE_DAC_SERVICE_VOLT_VOLTCCCD
 178:main.c        ****            
 179:main.c        ****             // This handle the notifications
 180:main.c        ****             if(wrReq.handleValPair.attrHandle == CYBLE_RVAC_SENSORS_SENSORCCCD_DESC_HANDLE){
 181:main.c        ****                 
 182:main.c        ****                // CyBle_GattsWriteAttributeValue( &wrReq->handleValPair, 0, &connHandle, CYBLE_GATT
 183:main.c        ****                 isNotify = wrReq.handleValPair.value.val[0];//CYBLE_RVAC_SENSOR_SENSORCCCD_DESC_IND
 184:main.c        ****                 
 185:main.c        ****                 updateIsNotifyCCCDAttr = 1;
 186:main.c        ****             }
 187:main.c        ****             
 188:main.c        ****             // This handle data incoming
 189:main.c        ****             if(wrReq.handleValPair.attrHandle == CYBLE_RVAC_THERMOSTAT_CHAR_HANDLE){
 190:main.c        ****             
 191:main.c        ****                 thermo.compressor = wrReq.handleValPair.value.val[0];
 192:main.c        ****                 thermo.fanLow= wrReq.handleValPair.value.val[1];
 193:main.c        ****                 thermo.fanHigh = wrReq.handleValPair.value.val[2];
 194:main.c        ****                 thermo.setTemperature = wrReq.handleValPair.value.val[3];
 195:main.c        ****                 thermo.power = wrReq.handleValPair.value.val[5];
 196:main.c        ****                 thermo.test = wrReq.handleValPair.value.val[6];
 197:main.c        ****                 
 198:main.c        ****                 sprintf(uartStr, "-----------------    comp %d   flow %d   dhigh %d power %d\n", th
 199:main.c        ****                 MyUART_PutString(uartStr);
 200:main.c        ****                // thermostat[0] = thermo.compressor;
 201:main.c        ****                
 202:main.c        ****                 updateThermostatData();
 203:main.c        ****                 
 204:main.c        ****             }
 205:main.c        **** 
 206:main.c        ****             CyBle_GattsWriteRsp(cyBle_connHandle);
 207:main.c        ****             
 208:main.c        ****             break; 
 209:main.c        ****         
 210:main.c        ****      default:
 211:main.c        ****         break;
 228              		.loc 1 211 0
 229 001c 99E0     		b	.L14
 230              	.L7:
 130:main.c        ****     
 231              		.loc 1 130 0
 232 001e 422B     		cmp	r3, #66
 233 0020 24D0     		beq	.L11
 234 0022 4C2B     		cmp	r3, #76
ARM GAS  C:\Users\sergio\AppData\Local\Temp\cc6XWpSt.s 			page 9


 235 0024 2ED0     		beq	.L12
 236 0026 412B     		cmp	r3, #65
 237 0028 1AD0     		beq	.L13
 238              		.loc 1 211 0
 239 002a 92E0     		b	.L14
 240              	.L10:
 134:main.c        **** //            if(apiResult != CYBLE_ERROR_OK){
 241              		.loc 1 134 0
 242 002c 0020     		movs	r0, #0
 243 002e FFF7FEFF 		bl	CyBle_GappStartAdvertisement
 146:main.c        ****         case CYBLE_EVT_GAP_DEVICE_CONNECTED:
 244              		.loc 1 146 0
 245 0032 8EE0     		b	.L14
 246              	.L9:
 148:main.c        ****             break;
 247              		.loc 1 148 0
 248 0034 FFF7FEFF 		bl	CyBle_GappStopAdvertisement
 149:main.c        ****         case CYBLE_EVT_GAP_DEVICE_DISCONNECTED:
 249              		.loc 1 149 0
 250 0038 8BE0     		b	.L14
 251              	.L6:
 151:main.c        ****             isNotify = 0;
 252              		.loc 1 151 0
 253 003a 0020     		movs	r0, #0
 254 003c FFF7FEFF 		bl	CyBle_GappStartAdvertisement
 152:main.c        ****             bleConnected = 0; // test this
 255              		.loc 1 152 0
 256 0040 464B     		ldr	r3, .L19
 257 0042 0022     		movs	r2, #0
 258 0044 1A70     		strb	r2, [r3]
 153:main.c        ****             break;
 259              		.loc 1 153 0
 260 0046 464B     		ldr	r3, .L19+4
 261 0048 0022     		movs	r2, #0
 262 004a 1A70     		strb	r2, [r3]
 154:main.c        ****         case CYBLE_EVT_GAPP_ADVERTISEMENT_START_STOP:
 263              		.loc 1 154 0
 264 004c 81E0     		b	.L14
 265              	.L8:
 156:main.c        ****                  CyBle_GappStartAdvertisement(CYBLE_SCANNING_FAST);
 266              		.loc 1 156 0
 267 004e 454B     		ldr	r3, .L19+8
 268 0050 1B78     		ldrb	r3, [r3]
 269 0052 042B     		cmp	r3, #4
 270 0054 00D0     		beq	.LCB142
 271 0056 7BE0     		b	.L18	@long jump
 272              	.LCB142:
 157:main.c        ****             }
 273              		.loc 1 157 0
 274 0058 0020     		movs	r0, #0
 275 005a FFF7FEFF 		bl	CyBle_GappStartAdvertisement
 159:main.c        ****         case CYBLE_EVT_GATT_CONNECT_IND:
 276              		.loc 1 159 0
 277 005e 77E0     		b	.L18
 278              	.L13:
 161:main.c        ****             CyBle_GappStopAdvertisement();
 279              		.loc 1 161 0
ARM GAS  C:\Users\sergio\AppData\Local\Temp\cc6XWpSt.s 			page 10


 280 0060 3F4B     		ldr	r3, .L19+4
 281 0062 0122     		movs	r2, #1
 282 0064 1A70     		strb	r2, [r3]
 162:main.c        ****             break;
 283              		.loc 1 162 0
 284 0066 FFF7FEFF 		bl	CyBle_GappStopAdvertisement
 163:main.c        ****         case CYBLE_EVT_GATT_DISCONNECT_IND:
 285              		.loc 1 163 0
 286 006a 72E0     		b	.L14
 287              	.L11:
 165:main.c        ****             bleConnected = 0;
 288              		.loc 1 165 0
 289 006c 3B4B     		ldr	r3, .L19
 290 006e 0022     		movs	r2, #0
 291 0070 1A70     		strb	r2, [r3]
 166:main.c        ****             // Update the notifications CCCD
 292              		.loc 1 166 0
 293 0072 3B4B     		ldr	r3, .L19+4
 294 0074 0022     		movs	r2, #0
 295 0076 1A70     		strb	r2, [r3]
 168:main.c        ****             
 296              		.loc 1 168 0
 297 0078 3B4B     		ldr	r3, .L19+12
 298 007a 0122     		movs	r2, #1
 299 007c 1A70     		strb	r2, [r3]
 173:main.c        ****             
 300              		.loc 1 173 0
 301 007e FFF7FEFF 		bl	updateThermostatData
 175:main.c        ****         case CYBLE_EVT_GATTS_WRITE_REQ:
 302              		.loc 1 175 0
 303 0082 66E0     		b	.L14
 304              	.L12:
 177:main.c        ****            
 305              		.loc 1 177 0
 306 0084 0823     		movs	r3, #8
 307 0086 FB18     		adds	r3, r7, r3
 308 0088 3A68     		ldr	r2, [r7]
 309 008a 13CA     		ldmia	r2!, {r0, r1, r4}
 310 008c 13C3     		stmia	r3!, {r0, r1, r4}
 311 008e 1268     		ldr	r2, [r2]
 312 0090 1A60     		str	r2, [r3]
 180:main.c        ****                 
 313              		.loc 1 180 0
 314 0092 0823     		movs	r3, #8
 315 0094 FB18     		adds	r3, r7, r3
 316 0096 9B89     		ldrh	r3, [r3, #12]
 317 0098 142B     		cmp	r3, #20
 318 009a 08D1     		bne	.L16
 183:main.c        ****                 
 319              		.loc 1 183 0
 320 009c 0823     		movs	r3, #8
 321 009e FB18     		adds	r3, r7, r3
 322 00a0 5B68     		ldr	r3, [r3, #4]
 323 00a2 1A78     		ldrb	r2, [r3]
 324 00a4 2D4B     		ldr	r3, .L19
 325 00a6 1A70     		strb	r2, [r3]
 185:main.c        ****             }
ARM GAS  C:\Users\sergio\AppData\Local\Temp\cc6XWpSt.s 			page 11


 326              		.loc 1 185 0
 327 00a8 2F4B     		ldr	r3, .L19+12
 328 00aa 0122     		movs	r2, #1
 329 00ac 1A70     		strb	r2, [r3]
 330              	.L16:
 189:main.c        ****             
 331              		.loc 1 189 0
 332 00ae 0823     		movs	r3, #8
 333 00b0 FB18     		adds	r3, r7, r3
 334 00b2 9B89     		ldrh	r3, [r3, #12]
 335 00b4 162B     		cmp	r3, #22
 336 00b6 3CD1     		bne	.L17
 191:main.c        ****                 thermo.fanLow= wrReq.handleValPair.value.val[1];
 337              		.loc 1 191 0
 338 00b8 0823     		movs	r3, #8
 339 00ba FB18     		adds	r3, r7, r3
 340 00bc 5B68     		ldr	r3, [r3, #4]
 341 00be 1A78     		ldrb	r2, [r3]
 342 00c0 2A4B     		ldr	r3, .L19+16
 343 00c2 1A70     		strb	r2, [r3]
 192:main.c        ****                 thermo.fanHigh = wrReq.handleValPair.value.val[2];
 344              		.loc 1 192 0
 345 00c4 0823     		movs	r3, #8
 346 00c6 FB18     		adds	r3, r7, r3
 347 00c8 5B68     		ldr	r3, [r3, #4]
 348 00ca 5A78     		ldrb	r2, [r3, #1]
 349 00cc 274B     		ldr	r3, .L19+16
 350 00ce 5A70     		strb	r2, [r3, #1]
 193:main.c        ****                 thermo.setTemperature = wrReq.handleValPair.value.val[3];
 351              		.loc 1 193 0
 352 00d0 0823     		movs	r3, #8
 353 00d2 FB18     		adds	r3, r7, r3
 354 00d4 5B68     		ldr	r3, [r3, #4]
 355 00d6 9A78     		ldrb	r2, [r3, #2]
 356 00d8 244B     		ldr	r3, .L19+16
 357 00da 9A70     		strb	r2, [r3, #2]
 194:main.c        ****                 thermo.power = wrReq.handleValPair.value.val[5];
 358              		.loc 1 194 0
 359 00dc 0823     		movs	r3, #8
 360 00de FB18     		adds	r3, r7, r3
 361 00e0 5B68     		ldr	r3, [r3, #4]
 362 00e2 DA78     		ldrb	r2, [r3, #3]
 363 00e4 214B     		ldr	r3, .L19+16
 364 00e6 DA70     		strb	r2, [r3, #3]
 195:main.c        ****                 thermo.test = wrReq.handleValPair.value.val[6];
 365              		.loc 1 195 0
 366 00e8 0823     		movs	r3, #8
 367 00ea FB18     		adds	r3, r7, r3
 368 00ec 5B68     		ldr	r3, [r3, #4]
 369 00ee 5A79     		ldrb	r2, [r3, #5]
 370 00f0 1E4B     		ldr	r3, .L19+16
 371 00f2 5A71     		strb	r2, [r3, #5]
 196:main.c        ****                 
 372              		.loc 1 196 0
 373 00f4 0823     		movs	r3, #8
 374 00f6 FB18     		adds	r3, r7, r3
 375 00f8 5B68     		ldr	r3, [r3, #4]
ARM GAS  C:\Users\sergio\AppData\Local\Temp\cc6XWpSt.s 			page 12


 376 00fa 9A79     		ldrb	r2, [r3, #6]
 377 00fc 1B4B     		ldr	r3, .L19+16
 378 00fe 9A71     		strb	r2, [r3, #6]
 198:main.c        ****                 MyUART_PutString(uartStr);
 379              		.loc 1 198 0
 380 0100 1A4B     		ldr	r3, .L19+16
 381 0102 1B78     		ldrb	r3, [r3]
 382 0104 1C00     		movs	r4, r3
 383 0106 194B     		ldr	r3, .L19+16
 384 0108 5B78     		ldrb	r3, [r3, #1]
 385 010a 1D00     		movs	r5, r3
 386 010c 174B     		ldr	r3, .L19+16
 387 010e 9B78     		ldrb	r3, [r3, #2]
 388 0110 1A00     		movs	r2, r3
 389 0112 164B     		ldr	r3, .L19+16
 390 0114 5B79     		ldrb	r3, [r3, #5]
 391 0116 1649     		ldr	r1, .L19+20
 392 0118 1648     		ldr	r0, .L19+24
 393 011a 0193     		str	r3, [sp, #4]
 394 011c 0092     		str	r2, [sp]
 395 011e 2B00     		movs	r3, r5
 396 0120 2200     		movs	r2, r4
 397 0122 FFF7FEFF 		bl	sprintf
 199:main.c        ****                // thermostat[0] = thermo.compressor;
 398              		.loc 1 199 0
 399 0126 134B     		ldr	r3, .L19+24
 400 0128 1800     		movs	r0, r3
 401 012a FFF7FEFF 		bl	MyUART_PutString
 202:main.c        ****                 
 402              		.loc 1 202 0
 403 012e FFF7FEFF 		bl	updateThermostatData
 404              	.L17:
 206:main.c        ****             
 405              		.loc 1 206 0
 406 0132 114B     		ldr	r3, .L19+28
 407 0134 1A78     		ldrb	r2, [r3]
 408 0136 5B78     		ldrb	r3, [r3, #1]
 409 0138 1B02     		lsls	r3, r3, #8
 410 013a 1A43     		orrs	r2, r3
 411 013c 0023     		movs	r3, #0
 412 013e 1204     		lsls	r2, r2, #16
 413 0140 120C     		lsrs	r2, r2, #16
 414 0142 1B0C     		lsrs	r3, r3, #16
 415 0144 1B04     		lsls	r3, r3, #16
 416 0146 1343     		orrs	r3, r2
 417 0148 1800     		movs	r0, r3
 418 014a FFF7FEFF 		bl	CyBle_GattsWriteRsp
 208:main.c        ****         
 419              		.loc 1 208 0
 420 014e 00E0     		b	.L14
 421              	.L18:
 159:main.c        ****         case CYBLE_EVT_GATT_CONNECT_IND:
 422              		.loc 1 159 0
 423 0150 C046     		nop
 424              	.L14:
 212:main.c        ****     }
 213:main.c        ****     
ARM GAS  C:\Users\sergio\AppData\Local\Temp\cc6XWpSt.s 			page 13


 214:main.c        **** }
 425              		.loc 1 214 0 discriminator 1
 426 0152 C046     		nop
 427 0154 BD46     		mov	sp, r7
 428 0156 06B0     		add	sp, sp, #24
 429              		@ sp needed
 430 0158 B0BD     		pop	{r4, r5, r7, pc}
 431              	.L20:
 432 015a C046     		.align	2
 433              	.L19:
 434 015c 00000000 		.word	isNotify
 435 0160 00000000 		.word	bleConnected
 436 0164 00000000 		.word	cyBle_state
 437 0168 00000000 		.word	updateIsNotifyCCCDAttr
 438 016c 00000000 		.word	thermo
 439 0170 00000000 		.word	.LC8
 440 0174 00000000 		.word	uartStr
 441 0178 00000000 		.word	cyBle_connHandle
 442              		.cfi_endproc
 443              	.LFE37:
 444              		.size	bleStack, .-bleStack
 445              		.section	.text.send_Error_Power_to_Phone,"ax",%progbits
 446              		.align	2
 447              		.global	send_Error_Power_to_Phone
 448              		.code	16
 449              		.thumb_func
 450              		.type	send_Error_Power_to_Phone, %function
 451              	send_Error_Power_to_Phone:
 452              	.LFB38:
 215:main.c        **** // function to read error data on the phone
 216:main.c        **** void send_Error_Power_to_Phone(){
 453              		.loc 1 216 0
 454              		.cfi_startproc
 455              		@ args = 0, pretend = 0, frame = 24
 456              		@ frame_needed = 1, uses_anonymous_args = 0
 457 0000 80B5     		push	{r7, lr}
 458              		.cfi_def_cfa_offset 8
 459              		.cfi_offset 7, -8
 460              		.cfi_offset 14, -4
 461 0002 86B0     		sub	sp, sp, #24
 462              		.cfi_def_cfa_offset 32
 463 0004 00AF     		add	r7, sp, #0
 464              		.cfi_def_cfa_register 7
 217:main.c        ****     CYBLE_GATT_HANDLE_VALUE_PAIR_T errorRead;
 218:main.c        ****     
 219:main.c        ****     uint8 err[] = {errorPower.err_Comp_volt, errorPower.err_Comp_curr, errorPower.err_LFan_volt,
 465              		.loc 1 219 0
 466 0006 1D4B     		ldr	r3, .L22
 467 0008 1B78     		ldrb	r3, [r3]
 468 000a 5BB2     		sxtb	r3, r3
 469 000c DAB2     		uxtb	r2, r3
 470 000e 3B1D     		adds	r3, r7, #4
 471 0010 1A70     		strb	r2, [r3]
 472 0012 1A4B     		ldr	r3, .L22
 473 0014 5B78     		ldrb	r3, [r3, #1]
 474 0016 5BB2     		sxtb	r3, r3
 475 0018 DAB2     		uxtb	r2, r3
ARM GAS  C:\Users\sergio\AppData\Local\Temp\cc6XWpSt.s 			page 14


 476 001a 3B1D     		adds	r3, r7, #4
 477 001c 5A70     		strb	r2, [r3, #1]
 478 001e 174B     		ldr	r3, .L22
 479 0020 9B78     		ldrb	r3, [r3, #2]
 480 0022 5BB2     		sxtb	r3, r3
 481 0024 DAB2     		uxtb	r2, r3
 482 0026 3B1D     		adds	r3, r7, #4
 483 0028 9A70     		strb	r2, [r3, #2]
 220:main.c        ****         errorPower.err_LFan_curr, errorPower.err_HFan_volt, errorPower.err_HFan_curr};
 484              		.loc 1 220 0
 485 002a 144B     		ldr	r3, .L22
 486 002c DB78     		ldrb	r3, [r3, #3]
 487 002e 5BB2     		sxtb	r3, r3
 219:main.c        ****         errorPower.err_LFan_curr, errorPower.err_HFan_volt, errorPower.err_HFan_curr};
 488              		.loc 1 219 0
 489 0030 DAB2     		uxtb	r2, r3
 490 0032 3B1D     		adds	r3, r7, #4
 491 0034 DA70     		strb	r2, [r3, #3]
 492              		.loc 1 220 0
 493 0036 114B     		ldr	r3, .L22
 494 0038 1B79     		ldrb	r3, [r3, #4]
 495 003a 5BB2     		sxtb	r3, r3
 219:main.c        ****         errorPower.err_LFan_curr, errorPower.err_HFan_volt, errorPower.err_HFan_curr};
 496              		.loc 1 219 0
 497 003c DAB2     		uxtb	r2, r3
 498 003e 3B1D     		adds	r3, r7, #4
 499 0040 1A71     		strb	r2, [r3, #4]
 500              		.loc 1 220 0
 501 0042 0E4B     		ldr	r3, .L22
 502 0044 5B79     		ldrb	r3, [r3, #5]
 503 0046 5BB2     		sxtb	r3, r3
 219:main.c        ****         errorPower.err_LFan_curr, errorPower.err_HFan_volt, errorPower.err_HFan_curr};
 504              		.loc 1 219 0
 505 0048 DAB2     		uxtb	r2, r3
 506 004a 3B1D     		adds	r3, r7, #4
 507 004c 5A71     		strb	r2, [r3, #5]
 221:main.c        ****     
 222:main.c        ****     errorRead.attrHandle = CYBLE_RVAC_ERROR_CODES_CHAR_HANDLE;
 508              		.loc 1 222 0
 509 004e 0C23     		movs	r3, #12
 510 0050 FB18     		adds	r3, r7, r3
 511 0052 1A22     		movs	r2, #26
 512 0054 1A81     		strh	r2, [r3, #8]
 223:main.c        ****     errorRead.value.val = (uint8 *) &err;
 513              		.loc 1 223 0
 514 0056 0C23     		movs	r3, #12
 515 0058 FB18     		adds	r3, r7, r3
 516 005a 3A1D     		adds	r2, r7, #4
 517 005c 1A60     		str	r2, [r3]
 224:main.c        ****     errorRead.value.len = 6;
 518              		.loc 1 224 0
 519 005e 0C23     		movs	r3, #12
 520 0060 FB18     		adds	r3, r7, r3
 521 0062 0622     		movs	r2, #6
 522 0064 9A80     		strh	r2, [r3, #4]
 225:main.c        ****     
 226:main.c        ****     CyBle_GattsWriteAttributeValue(&errorRead, 0, &cyBle_connHandle, CYBLE_GATT_DB_PEER_INITIATED);
ARM GAS  C:\Users\sergio\AppData\Local\Temp\cc6XWpSt.s 			page 15


 523              		.loc 1 226 0
 524 0066 064A     		ldr	r2, .L22+4
 525 0068 0C23     		movs	r3, #12
 526 006a F818     		adds	r0, r7, r3
 527 006c 4023     		movs	r3, #64
 528 006e 0021     		movs	r1, #0
 529 0070 FFF7FEFF 		bl	CyBle_GattsWriteAttributeValue
 227:main.c        **** }
 530              		.loc 1 227 0
 531 0074 C046     		nop
 532 0076 BD46     		mov	sp, r7
 533 0078 06B0     		add	sp, sp, #24
 534              		@ sp needed
 535 007a 80BD     		pop	{r7, pc}
 536              	.L23:
 537              		.align	2
 538              	.L22:
 539 007c 00000000 		.word	errorPower
 540 0080 00000000 		.word	cyBle_connHandle
 541              		.cfi_endproc
 542              	.LFE38:
 543              		.size	send_Error_Power_to_Phone, .-send_Error_Power_to_Phone
 544              		.section	.text.send_Thermo_to_phone,"ax",%progbits
 545              		.align	2
 546              		.global	send_Thermo_to_phone
 547              		.code	16
 548              		.thumb_func
 549              		.type	send_Thermo_to_phone, %function
 550              	send_Thermo_to_phone:
 551              	.LFB39:
 228:main.c        **** 
 229:main.c        **** // function to read thermostat data on the phone
 230:main.c        **** void send_Thermo_to_phone(){
 552              		.loc 1 230 0
 553              		.cfi_startproc
 554              		@ args = 0, pretend = 0, frame = 24
 555              		@ frame_needed = 1, uses_anonymous_args = 0
 556 0000 80B5     		push	{r7, lr}
 557              		.cfi_def_cfa_offset 8
 558              		.cfi_offset 7, -8
 559              		.cfi_offset 14, -4
 560 0002 86B0     		sub	sp, sp, #24
 561              		.cfi_def_cfa_offset 32
 562 0004 00AF     		add	r7, sp, #0
 563              		.cfi_def_cfa_register 7
 231:main.c        ****     CYBLE_GATT_HANDLE_VALUE_PAIR_T thermoRead;
 232:main.c        ****     
 233:main.c        ****     uint8 readThermo[7]; 
 234:main.c        ****     readThermo[0] = thermo.compressor;
 564              		.loc 1 234 0
 565 0006 194B     		ldr	r3, .L25
 566 0008 1A78     		ldrb	r2, [r3]
 567 000a 3B1D     		adds	r3, r7, #4
 568 000c 1A70     		strb	r2, [r3]
 235:main.c        ****     readThermo[1] = thermo.fanLow;
 569              		.loc 1 235 0
 570 000e 174B     		ldr	r3, .L25
ARM GAS  C:\Users\sergio\AppData\Local\Temp\cc6XWpSt.s 			page 16


 571 0010 5A78     		ldrb	r2, [r3, #1]
 572 0012 3B1D     		adds	r3, r7, #4
 573 0014 5A70     		strb	r2, [r3, #1]
 236:main.c        ****     readThermo[2] = thermo.fanHigh;
 574              		.loc 1 236 0
 575 0016 154B     		ldr	r3, .L25
 576 0018 9A78     		ldrb	r2, [r3, #2]
 577 001a 3B1D     		adds	r3, r7, #4
 578 001c 9A70     		strb	r2, [r3, #2]
 237:main.c        ****     readThermo[3] = thermo.setTemperature;
 579              		.loc 1 237 0
 580 001e 134B     		ldr	r3, .L25
 581 0020 DA78     		ldrb	r2, [r3, #3]
 582 0022 3B1D     		adds	r3, r7, #4
 583 0024 DA70     		strb	r2, [r3, #3]
 238:main.c        ****     readThermo[4] = thermo.ambientTemp;
 584              		.loc 1 238 0
 585 0026 114B     		ldr	r3, .L25
 586 0028 1A79     		ldrb	r2, [r3, #4]
 587 002a 3B1D     		adds	r3, r7, #4
 588 002c 1A71     		strb	r2, [r3, #4]
 239:main.c        ****     readThermo[5] = thermo.power;
 589              		.loc 1 239 0
 590 002e 0F4B     		ldr	r3, .L25
 591 0030 5A79     		ldrb	r2, [r3, #5]
 592 0032 3B1D     		adds	r3, r7, #4
 593 0034 5A71     		strb	r2, [r3, #5]
 240:main.c        ****     readThermo[6] = thermo.test;
 594              		.loc 1 240 0
 595 0036 0D4B     		ldr	r3, .L25
 596 0038 9A79     		ldrb	r2, [r3, #6]
 597 003a 3B1D     		adds	r3, r7, #4
 598 003c 9A71     		strb	r2, [r3, #6]
 241:main.c        ****    
 242:main.c        ****     
 243:main.c        ****      thermoRead.attrHandle = CYBLE_RVAC_THERMOSTAT_CHAR_HANDLE;
 599              		.loc 1 243 0
 600 003e 0C23     		movs	r3, #12
 601 0040 FB18     		adds	r3, r7, r3
 602 0042 1622     		movs	r2, #22
 603 0044 1A81     		strh	r2, [r3, #8]
 244:main.c        ****         thermoRead.value.val = (uint8 *) &readThermo;
 604              		.loc 1 244 0
 605 0046 0C23     		movs	r3, #12
 606 0048 FB18     		adds	r3, r7, r3
 607 004a 3A1D     		adds	r2, r7, #4
 608 004c 1A60     		str	r2, [r3]
 245:main.c        ****         thermoRead.value.len = 7;
 609              		.loc 1 245 0
 610 004e 0C23     		movs	r3, #12
 611 0050 FB18     		adds	r3, r7, r3
 612 0052 0722     		movs	r2, #7
 613 0054 9A80     		strh	r2, [r3, #4]
 246:main.c        ****     
 247:main.c        ****    CyBle_GattsWriteAttributeValue(&thermoRead, 0, &cyBle_connHandle, CYBLE_GATT_DB_PEER_INITIATED);
 614              		.loc 1 247 0
 615 0056 064A     		ldr	r2, .L25+4
ARM GAS  C:\Users\sergio\AppData\Local\Temp\cc6XWpSt.s 			page 17


 616 0058 0C23     		movs	r3, #12
 617 005a F818     		adds	r0, r7, r3
 618 005c 4023     		movs	r3, #64
 619 005e 0021     		movs	r1, #0
 620 0060 FFF7FEFF 		bl	CyBle_GattsWriteAttributeValue
 248:main.c        **** }
 621              		.loc 1 248 0
 622 0064 C046     		nop
 623 0066 BD46     		mov	sp, r7
 624 0068 06B0     		add	sp, sp, #24
 625              		@ sp needed
 626 006a 80BD     		pop	{r7, pc}
 627              	.L26:
 628              		.align	2
 629              	.L25:
 630 006c 00000000 		.word	thermo
 631 0070 00000000 		.word	cyBle_connHandle
 632              		.cfi_endproc
 633              	.LFE39:
 634              		.size	send_Thermo_to_phone, .-send_Thermo_to_phone
 635              		.section	.text.SendDataNotify,"ax",%progbits
 636              		.align	2
 637              		.global	SendDataNotify
 638              		.code	16
 639              		.thumb_func
 640              		.type	SendDataNotify, %function
 641              	SendDataNotify:
 642              	.LFB40:
 249:main.c        **** 
 250:main.c        **** void SendDataNotify( ){
 643              		.loc 1 250 0
 644              		.cfi_startproc
 645              		@ args = 0, pretend = 0, frame = 48
 646              		@ frame_needed = 1, uses_anonymous_args = 0
 647 0000 80B5     		push	{r7, lr}
 648              		.cfi_def_cfa_offset 8
 649              		.cfi_offset 7, -8
 650              		.cfi_offset 14, -4
 651 0002 8CB0     		sub	sp, sp, #48
 652              		.cfi_def_cfa_offset 56
 653 0004 00AF     		add	r7, sp, #0
 654              		.cfi_def_cfa_register 7
 251:main.c        ****     CYBLE_GATTS_HANDLE_VALUE_NTF_T notiHandle;
 252:main.c        ****     
 253:main.c        ****     uint8 dataForBLE[34];
 254:main.c        ****     dataForBLE[0] = sensorData.localTemp;  
 655              		.loc 1 254 0
 656 0006 254B     		ldr	r3, .L28
 657 0008 1A78     		ldrb	r2, [r3]
 658 000a 3B00     		movs	r3, r7
 659 000c 1A70     		strb	r2, [r3]
 255:main.c        ****     dataForBLE[1] = sensorData.humidity;  
 660              		.loc 1 255 0
 661 000e 234B     		ldr	r3, .L28
 662 0010 5A78     		ldrb	r2, [r3, #1]
 663 0012 3B00     		movs	r3, r7
 664 0014 5A70     		strb	r2, [r3, #1]
ARM GAS  C:\Users\sergio\AppData\Local\Temp\cc6XWpSt.s 			page 18


 256:main.c        ****     dataForBLE[2] = sensorData.remoteTemp1;
 665              		.loc 1 256 0
 666 0016 214B     		ldr	r3, .L28
 667 0018 9A78     		ldrb	r2, [r3, #2]
 668 001a 3B00     		movs	r3, r7
 669 001c 9A70     		strb	r2, [r3, #2]
 257:main.c        ****      dataForBLE[3] = sensorData.remoteTemp2;
 670              		.loc 1 257 0
 671 001e 1F4B     		ldr	r3, .L28
 672 0020 DA78     		ldrb	r2, [r3, #3]
 673 0022 3B00     		movs	r3, r7
 674 0024 DA70     		strb	r2, [r3, #3]
 258:main.c        ****          dataForBLE[4] = sensorData.remoteTemp3;  
 675              		.loc 1 258 0
 676 0026 1D4B     		ldr	r3, .L28
 677 0028 1A79     		ldrb	r2, [r3, #4]
 678 002a 3B00     		movs	r3, r7
 679 002c 1A71     		strb	r2, [r3, #4]
 259:main.c        ****         dataForBLE[5] =  sensorData.remoteTemp4;
 680              		.loc 1 259 0
 681 002e 1B4B     		ldr	r3, .L28
 682 0030 5A79     		ldrb	r2, [r3, #5]
 683 0032 3B00     		movs	r3, r7
 684 0034 5A71     		strb	r2, [r3, #5]
 260:main.c        **** //        dataForBLE[6] =  (sensorData.voltCompressor/10); 
 261:main.c        **** //        dataForBLE[7] =  (sensorData.voltCompressor%10);
 262:main.c        **** //         dataForBLE[8] = (sensorData.voltFan/10);  
 263:main.c        **** //        dataForBLE[9] = (sensorData.voltFan%10);
 264:main.c        **** //         dataForBLE[10] = (sensorData.volt/10);
 265:main.c        **** //        dataForBLE[11] =  (sensorData.volt%10);
 266:main.c        **** //        dataForBLE[12] =  (sensorData.currentCompressor/1000);
 267:main.c        **** //         dataForBLE[13] = (sensorData.currentCompressor/100);
 268:main.c        **** //        
 269:main.c        **** //         dataForBLE[14] = (sensorData.currentCompressor/10);
 270:main.c        **** //         dataForBLE[15] = (sensorData.currentCompressor%10);
 271:main.c        **** //         dataForBLE[16] = (sensorData.currentFan/1000);
 272:main.c        **** //         dataForBLE[17] = (sensorData.currentFan/100);
 273:main.c        **** //         dataForBLE[18] = (sensorData.currentFan/10);
 274:main.c        **** //         dataForBLE[19] = (sensorData.currentFan%10);
 275:main.c        **** //         dataForBLE[0] = (sensorData.current/1000);
 276:main.c        **** //         dataForBLE[21] = (sensorData.current/100);
 277:main.c        **** //         dataForBLE[22] = (sensorData.current/10);
 278:main.c        **** //        
 279:main.c        **** //         dataForBLE[23] = (sensorData.current%10);
 280:main.c        **** //         dataForBLE[24] = (sensorData.lineFreqComp/10);
 281:main.c        **** //         dataForBLE[25] = (sensorData.lineFreqComp%10);
 282:main.c        **** //         dataForBLE[26] = (sensorData.lineFreqFan/10);
 283:main.c        **** //        
 284:main.c        **** //         dataForBLE[27] = (sensorData.lineFreqFan%10);
 285:main.c        **** //         dataForBLE[28] = (sensorData.lineFreq/10);
 286:main.c        **** //         dataForBLE[29] = (sensorData.lineFreq%10);
 287:main.c        ****          dataForBLE[6] = sensorData.accX;
 685              		.loc 1 287 0
 686 0036 194B     		ldr	r3, .L28
 687 0038 9A7F     		ldrb	r2, [r3, #30]
 688 003a 3B00     		movs	r3, r7
 689 003c 9A71     		strb	r2, [r3, #6]
ARM GAS  C:\Users\sergio\AppData\Local\Temp\cc6XWpSt.s 			page 19


 288:main.c        ****          dataForBLE[7] = sensorData.accY; 
 690              		.loc 1 288 0
 691 003e 174B     		ldr	r3, .L28
 692 0040 DA7F     		ldrb	r2, [r3, #31]
 693 0042 3B00     		movs	r3, r7
 694 0044 DA71     		strb	r2, [r3, #7]
 289:main.c        ****          dataForBLE[8] = sensorData.accZ;
 695              		.loc 1 289 0
 696 0046 154B     		ldr	r3, .L28
 697 0048 2022     		movs	r2, #32
 698 004a 9A5C     		ldrb	r2, [r3, r2]
 699 004c 3B00     		movs	r3, r7
 700 004e 1A72     		strb	r2, [r3, #8]
 290:main.c        ****          dataForBLE[9] = sensorData.airFlow;
 701              		.loc 1 290 0
 702 0050 124B     		ldr	r3, .L28
 703 0052 5B8C     		ldrh	r3, [r3, #34]
 704 0054 DAB2     		uxtb	r2, r3
 705 0056 3B00     		movs	r3, r7
 706 0058 5A72     		strb	r2, [r3, #9]
 291:main.c        ****     
 292:main.c        ****     
 293:main.c        **** 
 294:main.c        ****      notiHandle.attrHandle = CYBLE_RVAC_SENSORS_CHAR_HANDLE;
 707              		.loc 1 294 0
 708 005a 2423     		movs	r3, #36
 709 005c FB18     		adds	r3, r7, r3
 710 005e 1222     		movs	r2, #18
 711 0060 1A81     		strh	r2, [r3, #8]
 295:main.c        ****      notiHandle.value.val = (uint8 *) &dataForBLE;     //(uint8 *) dataForBLE; // collectedData; //
 712              		.loc 1 295 0
 713 0062 2423     		movs	r3, #36
 714 0064 FB18     		adds	r3, r7, r3
 715 0066 3A00     		movs	r2, r7
 716 0068 1A60     		str	r2, [r3]
 296:main.c        ****      notiHandle.value.len = 10;
 717              		.loc 1 296 0
 718 006a 2423     		movs	r3, #36
 719 006c FB18     		adds	r3, r7, r3
 720 006e 0A22     		movs	r2, #10
 721 0070 9A80     		strh	r2, [r3, #4]
 297:main.c        ****         
 298:main.c        ****         CyBle_GattsNotification(cyBle_connHandle, &notiHandle);
 722              		.loc 1 298 0
 723 0072 2423     		movs	r3, #36
 724 0074 F918     		adds	r1, r7, r3
 725 0076 0A4B     		ldr	r3, .L28+4
 726 0078 1A78     		ldrb	r2, [r3]
 727 007a 5B78     		ldrb	r3, [r3, #1]
 728 007c 1B02     		lsls	r3, r3, #8
 729 007e 1A43     		orrs	r2, r3
 730 0080 0023     		movs	r3, #0
 731 0082 1204     		lsls	r2, r2, #16
 732 0084 120C     		lsrs	r2, r2, #16
 733 0086 1B0C     		lsrs	r3, r3, #16
 734 0088 1B04     		lsls	r3, r3, #16
 735 008a 1343     		orrs	r3, r2
ARM GAS  C:\Users\sergio\AppData\Local\Temp\cc6XWpSt.s 			page 20


 736 008c 1800     		movs	r0, r3
 737 008e FFF7FEFF 		bl	CyBle_GattsNotification
 299:main.c        **** 
 300:main.c        **** }
 738              		.loc 1 300 0
 739 0092 C046     		nop
 740 0094 BD46     		mov	sp, r7
 741 0096 0CB0     		add	sp, sp, #48
 742              		@ sp needed
 743 0098 80BD     		pop	{r7, pc}
 744              	.L29:
 745 009a C046     		.align	2
 746              	.L28:
 747 009c 00000000 		.word	sensorData
 748 00a0 00000000 		.word	cyBle_connHandle
 749              		.cfi_endproc
 750              	.LFE40:
 751              		.size	SendDataNotify, .-SendDataNotify
 752              		.section	.text.updateNotificationCCCD,"ax",%progbits
 753              		.align	2
 754              		.global	updateNotificationCCCD
 755              		.code	16
 756              		.thumb_func
 757              		.type	updateNotificationCCCD, %function
 758              	updateNotificationCCCD:
 759              	.LFB41:
 301:main.c        **** 
 302:main.c        **** void updateNotificationCCCD(void){
 760              		.loc 1 302 0
 761              		.cfi_startproc
 762              		@ args = 0, pretend = 0, frame = 16
 763              		@ frame_needed = 1, uses_anonymous_args = 0
 764 0000 80B5     		push	{r7, lr}
 765              		.cfi_def_cfa_offset 8
 766              		.cfi_offset 7, -8
 767              		.cfi_offset 14, -4
 768 0002 84B0     		sub	sp, sp, #16
 769              		.cfi_def_cfa_offset 24
 770 0004 00AF     		add	r7, sp, #0
 771              		.cfi_def_cfa_register 7
 303:main.c        ****     CYBLE_GATT_HANDLE_VALUE_PAIR_T sensorNotCCCDHandle;
 304:main.c        ****     
 305:main.c        ****     uint8 sensorCCCDVal[2];
 306:main.c        ****     
 307:main.c        ****     if(updateIsNotifyCCCDAttr == 1){
 772              		.loc 1 307 0
 773 0006 114B     		ldr	r3, .L33
 774 0008 1B78     		ldrb	r3, [r3]
 775 000a 012B     		cmp	r3, #1
 776 000c 1AD1     		bne	.L32
 308:main.c        ****         
 309:main.c        ****      updateIsNotifyCCCDAttr = 0;
 777              		.loc 1 309 0
 778 000e 0F4B     		ldr	r3, .L33
 779 0010 0022     		movs	r2, #0
 780 0012 1A70     		strb	r2, [r3]
 310:main.c        ****         sensorCCCDVal[0] = isNotify;
ARM GAS  C:\Users\sergio\AppData\Local\Temp\cc6XWpSt.s 			page 21


 781              		.loc 1 310 0
 782 0014 0E4B     		ldr	r3, .L33+4
 783 0016 1A78     		ldrb	r2, [r3]
 784 0018 3B00     		movs	r3, r7
 785 001a 1A70     		strb	r2, [r3]
 311:main.c        ****         sensorCCCDVal[1] = 0x00;
 786              		.loc 1 311 0
 787 001c 3B00     		movs	r3, r7
 788 001e 0022     		movs	r2, #0
 789 0020 5A70     		strb	r2, [r3, #1]
 312:main.c        ****         
 313:main.c        ****         sensorNotCCCDHandle.attrHandle = CYBLE_RVAC_SENSORS_SENSORCCCD_DESC_HANDLE;
 790              		.loc 1 313 0
 791 0022 3B1D     		adds	r3, r7, #4
 792 0024 1422     		movs	r2, #20
 793 0026 1A81     		strh	r2, [r3, #8]
 314:main.c        ****         sensorNotCCCDHandle.value.val = sensorCCCDVal;
 794              		.loc 1 314 0
 795 0028 3B1D     		adds	r3, r7, #4
 796 002a 3A00     		movs	r2, r7
 797 002c 1A60     		str	r2, [r3]
 315:main.c        ****         sensorNotCCCDHandle.value.len = 2;
 798              		.loc 1 315 0
 799 002e 3B1D     		adds	r3, r7, #4
 800 0030 0222     		movs	r2, #2
 801 0032 9A80     		strh	r2, [r3, #4]
 316:main.c        ****         
 317:main.c        ****         CyBle_GattsWriteAttributeValue(&sensorNotCCCDHandle, 0, &cyBle_connHandle, CYBLE_GATT_DB_PE
 802              		.loc 1 317 0
 803 0034 074A     		ldr	r2, .L33+8
 804 0036 381D     		adds	r0, r7, #4
 805 0038 4023     		movs	r3, #64
 806 003a 0021     		movs	r1, #0
 807 003c FFF7FEFF 		bl	CyBle_GattsWriteAttributeValue
 318:main.c        ****         CyBle_ProcessEvents();
 808              		.loc 1 318 0
 809 0040 FFF7FEFF 		bl	CyBle_ProcessEvents
 810              	.L32:
 319:main.c        ****     }
 320:main.c        **** }
 811              		.loc 1 320 0
 812 0044 C046     		nop
 813 0046 BD46     		mov	sp, r7
 814 0048 04B0     		add	sp, sp, #16
 815              		@ sp needed
 816 004a 80BD     		pop	{r7, pc}
 817              	.L34:
 818              		.align	2
 819              	.L33:
 820 004c 00000000 		.word	updateIsNotifyCCCDAttr
 821 0050 00000000 		.word	isNotify
 822 0054 00000000 		.word	cyBle_connHandle
 823              		.cfi_endproc
 824              	.LFE41:
 825              		.size	updateNotificationCCCD, .-updateNotificationCCCD
 826              		.section	.text.initialized_input_gpioExp,"ax",%progbits
 827              		.align	2
ARM GAS  C:\Users\sergio\AppData\Local\Temp\cc6XWpSt.s 			page 22


 828              		.global	initialized_input_gpioExp
 829              		.code	16
 830              		.thumb_func
 831              		.type	initialized_input_gpioExp, %function
 832              	initialized_input_gpioExp:
 833              	.LFB42:
 321:main.c        **** 
 322:main.c        **** 
 323:main.c        **** void initialized_input_gpioExp(){
 834              		.loc 1 323 0
 835              		.cfi_startproc
 836              		@ args = 0, pretend = 0, frame = 0
 837              		@ frame_needed = 1, uses_anonymous_args = 0
 838 0000 80B5     		push	{r7, lr}
 839              		.cfi_def_cfa_offset 8
 840              		.cfi_offset 7, -8
 841              		.cfi_offset 14, -4
 842 0002 00AF     		add	r7, sp, #0
 843              		.cfi_def_cfa_register 7
 324:main.c        ****    I2C_1_I2CMasterSendStart(ADDR,I2C_1_I2C_WRITE_XFER_MODE, 100u);
 844              		.loc 1 324 0
 845 0004 6422     		movs	r2, #100
 846 0006 0021     		movs	r1, #0
 847 0008 7020     		movs	r0, #112
 848 000a FFF7FEFF 		bl	I2C_1_I2CMasterSendStart
 325:main.c        ****    I2C_1_I2CMasterWriteByte(REG_CONFIG, 100u);
 849              		.loc 1 325 0
 850 000e 6421     		movs	r1, #100
 851 0010 0320     		movs	r0, #3
 852 0012 FFF7FEFF 		bl	I2C_1_I2CMasterWriteByte
 326:main.c        ****    I2C_1_I2CMasterWriteByte(0xFF, 100u);
 853              		.loc 1 326 0
 854 0016 6421     		movs	r1, #100
 855 0018 FF20     		movs	r0, #255
 856 001a FFF7FEFF 		bl	I2C_1_I2CMasterWriteByte
 327:main.c        ****    I2C_1_I2CMasterSendStop(100u);
 857              		.loc 1 327 0
 858 001e 6420     		movs	r0, #100
 859 0020 FFF7FEFF 		bl	I2C_1_I2CMasterSendStop
 328:main.c        ****     //I2C_1_Sleep();
 329:main.c        ****     //I2C_1_Wakeup();
 330:main.c        **** 
 331:main.c        **** }
 860              		.loc 1 331 0
 861 0024 C046     		nop
 862 0026 BD46     		mov	sp, r7
 863              		@ sp needed
 864 0028 80BD     		pop	{r7, pc}
 865              		.cfi_endproc
 866              	.LFE42:
 867              		.size	initialized_input_gpioExp, .-initialized_input_gpioExp
 868 002a C046     		.section	.text.read_thermostat_pins,"ax",%progbits
 869              		.align	2
 870              		.global	read_thermostat_pins
 871              		.code	16
 872              		.thumb_func
 873              		.type	read_thermostat_pins, %function
ARM GAS  C:\Users\sergio\AppData\Local\Temp\cc6XWpSt.s 			page 23


 874              	read_thermostat_pins:
 875              	.LFB43:
 332:main.c        **** 
 333:main.c        **** uint8 read_thermostat_pins(){
 876              		.loc 1 333 0
 877              		.cfi_startproc
 878              		@ args = 0, pretend = 0, frame = 8
 879              		@ frame_needed = 1, uses_anonymous_args = 0
 880 0000 80B5     		push	{r7, lr}
 881              		.cfi_def_cfa_offset 8
 882              		.cfi_offset 7, -8
 883              		.cfi_offset 14, -4
 884 0002 82B0     		sub	sp, sp, #8
 885              		.cfi_def_cfa_offset 16
 886 0004 00AF     		add	r7, sp, #0
 887              		.cfi_def_cfa_register 7
 334:main.c        ****    
 335:main.c        ****     uint8 pins = 0u;
 888              		.loc 1 335 0
 889 0006 FB1D     		adds	r3, r7, #7
 890 0008 0022     		movs	r2, #0
 891 000a 1A70     		strb	r2, [r3]
 336:main.c        **** 
 337:main.c        ****    I2C_1_I2CMasterSendStart(ADDR, I2C_1_I2C_WRITE_XFER_MODE, 0u);
 892              		.loc 1 337 0
 893 000c 0022     		movs	r2, #0
 894 000e 0021     		movs	r1, #0
 895 0010 7020     		movs	r0, #112
 896 0012 FFF7FEFF 		bl	I2C_1_I2CMasterSendStart
 338:main.c        ****    I2C_1_I2CMasterWriteByte(REG_READ, 0u);
 897              		.loc 1 338 0
 898 0016 0021     		movs	r1, #0
 899 0018 0020     		movs	r0, #0
 900 001a FFF7FEFF 		bl	I2C_1_I2CMasterWriteByte
 339:main.c        ****    I2C_1_I2CMasterSendRestart(ADDR,I2C_1_I2C_READ_XFER_MODE, 0u);
 901              		.loc 1 339 0
 902 001e 0022     		movs	r2, #0
 903 0020 0121     		movs	r1, #1
 904 0022 7020     		movs	r0, #112
 905 0024 FFF7FEFF 		bl	I2C_1_I2CMasterSendRestart
 340:main.c        ****    I2C_1_I2CMasterReadByte(I2C_1_I2C_NAK_DATA,(uint8 *) &pins,0u);
 906              		.loc 1 340 0
 907 0028 FB1D     		adds	r3, r7, #7
 908 002a 0022     		movs	r2, #0
 909 002c 1900     		movs	r1, r3
 910 002e 0120     		movs	r0, #1
 911 0030 FFF7FEFF 		bl	I2C_1_I2CMasterReadByte
 341:main.c        ****    I2C_1_I2CMasterSendStop(0u);
 912              		.loc 1 341 0
 913 0034 0020     		movs	r0, #0
 914 0036 FFF7FEFF 		bl	I2C_1_I2CMasterSendStop
 342:main.c        ****     
 343:main.c        ****     return pins;
 915              		.loc 1 343 0
 916 003a FB1D     		adds	r3, r7, #7
 917 003c 1B78     		ldrb	r3, [r3]
 344:main.c        **** }
ARM GAS  C:\Users\sergio\AppData\Local\Temp\cc6XWpSt.s 			page 24


 918              		.loc 1 344 0
 919 003e 1800     		movs	r0, r3
 920 0040 BD46     		mov	sp, r7
 921 0042 02B0     		add	sp, sp, #8
 922              		@ sp needed
 923 0044 80BD     		pop	{r7, pc}
 924              		.cfi_endproc
 925              	.LFE43:
 926              		.size	read_thermostat_pins, .-read_thermostat_pins
 927 0046 C046     		.section	.text.configure_temperature_sensor2,"ax",%progbits
 928              		.align	2
 929              		.global	configure_temperature_sensor2
 930              		.code	16
 931              		.thumb_func
 932              		.type	configure_temperature_sensor2, %function
 933              	configure_temperature_sensor2:
 934              	.LFB44:
 345:main.c        **** 
 346:main.c        **** void configure_temperature_sensor2(){
 935              		.loc 1 346 0
 936              		.cfi_startproc
 937              		@ args = 0, pretend = 0, frame = 0
 938              		@ frame_needed = 1, uses_anonymous_args = 0
 939 0000 80B5     		push	{r7, lr}
 940              		.cfi_def_cfa_offset 8
 941              		.cfi_offset 7, -8
 942              		.cfi_offset 14, -4
 943 0002 00AF     		add	r7, sp, #0
 944              		.cfi_def_cfa_register 7
 347:main.c        ****         // Config register 1
 348:main.c        ****    I2C_1_I2CMasterSendStart(0x4C, I2C_1_I2C_WRITE_XFER_MODE, 100u);
 945              		.loc 1 348 0
 946 0004 6422     		movs	r2, #100
 947 0006 0021     		movs	r1, #0
 948 0008 4C20     		movs	r0, #76
 949 000a FFF7FEFF 		bl	I2C_1_I2CMasterSendStart
 349:main.c        ****    I2C_1_I2CMasterWriteByte(0x09, 100u);
 950              		.loc 1 349 0
 951 000e 6421     		movs	r1, #100
 952 0010 0920     		movs	r0, #9
 953 0012 FFF7FEFF 		bl	I2C_1_I2CMasterWriteByte
 350:main.c        ****    I2C_1_I2CMasterWriteByte(0x84, 100u);
 954              		.loc 1 350 0
 955 0016 6421     		movs	r1, #100
 956 0018 8420     		movs	r0, #132
 957 001a FFF7FEFF 		bl	I2C_1_I2CMasterWriteByte
 351:main.c        ****    I2C_1_I2CMasterSendStop(100u);
 958              		.loc 1 351 0
 959 001e 6420     		movs	r0, #100
 960 0020 FFF7FEFF 		bl	I2C_1_I2CMasterSendStop
 352:main.c        ****    //Config register 2
 353:main.c        ****    I2C_1_I2CMasterSendStart(0x4C, I2C_1_I2C_WRITE_XFER_MODE, 100u);
 961              		.loc 1 353 0
 962 0024 6422     		movs	r2, #100
 963 0026 0021     		movs	r1, #0
 964 0028 4C20     		movs	r0, #76
 965 002a FFF7FEFF 		bl	I2C_1_I2CMasterSendStart
ARM GAS  C:\Users\sergio\AppData\Local\Temp\cc6XWpSt.s 			page 25


 354:main.c        ****    I2C_1_I2CMasterWriteByte(0x3F, 100u);
 966              		.loc 1 354 0
 967 002e 6421     		movs	r1, #100
 968 0030 3F20     		movs	r0, #63
 969 0032 FFF7FEFF 		bl	I2C_1_I2CMasterWriteByte
 355:main.c        ****    I2C_1_I2CMasterWriteByte(0x3C, 100u);
 970              		.loc 1 355 0
 971 0036 6421     		movs	r1, #100
 972 0038 3C20     		movs	r0, #60
 973 003a FFF7FEFF 		bl	I2C_1_I2CMasterWriteByte
 356:main.c        ****    I2C_1_I2CMasterSendStop(100u);   
 974              		.loc 1 356 0
 975 003e 6420     		movs	r0, #100
 976 0040 FFF7FEFF 		bl	I2C_1_I2CMasterSendStop
 357:main.c        **** }
 977              		.loc 1 357 0
 978 0044 C046     		nop
 979 0046 BD46     		mov	sp, r7
 980              		@ sp needed
 981 0048 80BD     		pop	{r7, pc}
 982              		.cfi_endproc
 983              	.LFE44:
 984              		.size	configure_temperature_sensor2, .-configure_temperature_sensor2
 985 004a C046     		.section	.text.configure_temperature_sensor1,"ax",%progbits
 986              		.align	2
 987              		.global	configure_temperature_sensor1
 988              		.code	16
 989              		.thumb_func
 990              		.type	configure_temperature_sensor1, %function
 991              	configure_temperature_sensor1:
 992              	.LFB45:
 358:main.c        **** 
 359:main.c        **** void configure_temperature_sensor1(){
 993              		.loc 1 359 0
 994              		.cfi_startproc
 995              		@ args = 0, pretend = 0, frame = 0
 996              		@ frame_needed = 1, uses_anonymous_args = 0
 997 0000 80B5     		push	{r7, lr}
 998              		.cfi_def_cfa_offset 8
 999              		.cfi_offset 7, -8
 1000              		.cfi_offset 14, -4
 1001 0002 00AF     		add	r7, sp, #0
 1002              		.cfi_def_cfa_register 7
 360:main.c        ****         // Config register 1
 361:main.c        ****    I2C_1_I2CMasterSendStart(0x4D, I2C_1_I2C_WRITE_XFER_MODE, 100u);
 1003              		.loc 1 361 0
 1004 0004 6422     		movs	r2, #100
 1005 0006 0021     		movs	r1, #0
 1006 0008 4D20     		movs	r0, #77
 1007 000a FFF7FEFF 		bl	I2C_1_I2CMasterSendStart
 362:main.c        ****    I2C_1_I2CMasterWriteByte(0x09, 100u);
 1008              		.loc 1 362 0
 1009 000e 6421     		movs	r1, #100
 1010 0010 0920     		movs	r0, #9
 1011 0012 FFF7FEFF 		bl	I2C_1_I2CMasterWriteByte
 363:main.c        ****    I2C_1_I2CMasterWriteByte(0x84, 100u);
 1012              		.loc 1 363 0
ARM GAS  C:\Users\sergio\AppData\Local\Temp\cc6XWpSt.s 			page 26


 1013 0016 6421     		movs	r1, #100
 1014 0018 8420     		movs	r0, #132
 1015 001a FFF7FEFF 		bl	I2C_1_I2CMasterWriteByte
 364:main.c        ****    I2C_1_I2CMasterSendStop(100u);
 1016              		.loc 1 364 0
 1017 001e 6420     		movs	r0, #100
 1018 0020 FFF7FEFF 		bl	I2C_1_I2CMasterSendStop
 365:main.c        ****    //Config register 2
 366:main.c        ****    I2C_1_I2CMasterSendStart(0x4D, I2C_1_I2C_WRITE_XFER_MODE, 100u);
 1019              		.loc 1 366 0
 1020 0024 6422     		movs	r2, #100
 1021 0026 0021     		movs	r1, #0
 1022 0028 4D20     		movs	r0, #77
 1023 002a FFF7FEFF 		bl	I2C_1_I2CMasterSendStart
 367:main.c        ****    I2C_1_I2CMasterWriteByte(0x3F, 100u);
 1024              		.loc 1 367 0
 1025 002e 6421     		movs	r1, #100
 1026 0030 3F20     		movs	r0, #63
 1027 0032 FFF7FEFF 		bl	I2C_1_I2CMasterWriteByte
 368:main.c        ****    I2C_1_I2CMasterWriteByte(0x3C, 100u);
 1028              		.loc 1 368 0
 1029 0036 6421     		movs	r1, #100
 1030 0038 3C20     		movs	r0, #60
 1031 003a FFF7FEFF 		bl	I2C_1_I2CMasterWriteByte
 369:main.c        ****    I2C_1_I2CMasterSendStop(100u);   
 1032              		.loc 1 369 0
 1033 003e 6420     		movs	r0, #100
 1034 0040 FFF7FEFF 		bl	I2C_1_I2CMasterSendStop
 370:main.c        **** }
 1035              		.loc 1 370 0
 1036 0044 C046     		nop
 1037 0046 BD46     		mov	sp, r7
 1038              		@ sp needed
 1039 0048 80BD     		pop	{r7, pc}
 1040              		.cfi_endproc
 1041              	.LFE45:
 1042              		.size	configure_temperature_sensor1, .-configure_temperature_sensor1
 1043 004a C046     		.section	.text.auto_calibrate_gain,"ax",%progbits
 1044              		.align	2
 1045              		.global	auto_calibrate_gain
 1046              		.code	16
 1047              		.thumb_func
 1048              		.type	auto_calibrate_gain, %function
 1049              	auto_calibrate_gain:
 1050              	.LFB46:
 371:main.c        **** 
 372:main.c        **** // fnc to calibrate the power chips
 373:main.c        **** void auto_calibrate_gain(uint32 address){
 1051              		.loc 1 373 0
 1052              		.cfi_startproc
 1053              		@ args = 0, pretend = 0, frame = 8
 1054              		@ frame_needed = 1, uses_anonymous_args = 0
 1055 0000 80B5     		push	{r7, lr}
 1056              		.cfi_def_cfa_offset 8
 1057              		.cfi_offset 7, -8
 1058              		.cfi_offset 14, -4
 1059 0002 82B0     		sub	sp, sp, #8
ARM GAS  C:\Users\sergio\AppData\Local\Temp\cc6XWpSt.s 			page 27


 1060              		.cfi_def_cfa_offset 16
 1061 0004 00AF     		add	r7, sp, #0
 1062              		.cfi_def_cfa_register 7
 1063 0006 7860     		str	r0, [r7, #4]
 374:main.c        ****     //current target
 375:main.c        ****     I2C_1_I2CMasterSendStart(address, I2C_1_I2C_WRITE_XFER_MODE, 2);
 1064              		.loc 1 375 0
 1065 0008 7B68     		ldr	r3, [r7, #4]
 1066 000a 0222     		movs	r2, #2
 1067 000c 0021     		movs	r1, #0
 1068 000e 1800     		movs	r0, r3
 1069 0010 FFF7FEFF 		bl	I2C_1_I2CMasterSendStart
 376:main.c        ****     I2C_1_I2CMasterWriteByte(0xA5, 10);
 1070              		.loc 1 376 0
 1071 0014 0A21     		movs	r1, #10
 1072 0016 A520     		movs	r0, #165
 1073 0018 FFF7FEFF 		bl	I2C_1_I2CMasterWriteByte
 377:main.c        ****     I2C_1_I2CMasterWriteByte(0x09, 10);
 1074              		.loc 1 377 0
 1075 001c 0A21     		movs	r1, #10
 1076 001e 0920     		movs	r0, #9
 1077 0020 FFF7FEFF 		bl	I2C_1_I2CMasterWriteByte
 378:main.c        ****     I2C_1_I2CMasterWriteByte(0x41, 10);
 1078              		.loc 1 378 0
 1079 0024 0A21     		movs	r1, #10
 1080 0026 4120     		movs	r0, #65
 1081 0028 FFF7FEFF 		bl	I2C_1_I2CMasterWriteByte
 379:main.c        ****     I2C_1_I2CMasterWriteByte(0x00, 10);
 1082              		.loc 1 379 0
 1083 002c 0A21     		movs	r1, #10
 1084 002e 0020     		movs	r0, #0
 1085 0030 FFF7FEFF 		bl	I2C_1_I2CMasterWriteByte
 380:main.c        ****     I2C_1_I2CMasterWriteByte(0x86, 10);
 1086              		.loc 1 380 0
 1087 0034 0A21     		movs	r1, #10
 1088 0036 8620     		movs	r0, #134
 1089 0038 FFF7FEFF 		bl	I2C_1_I2CMasterWriteByte
 381:main.c        ****     I2C_1_I2CMasterWriteByte(0x4D, 10);
 1090              		.loc 1 381 0
 1091 003c 0A21     		movs	r1, #10
 1092 003e 4D20     		movs	r0, #77
 1093 0040 FFF7FEFF 		bl	I2C_1_I2CMasterWriteByte
 382:main.c        ****     I2C_1_I2CMasterWriteByte(0x01, 10);
 1094              		.loc 1 382 0
 1095 0044 0A21     		movs	r1, #10
 1096 0046 0120     		movs	r0, #1
 1097 0048 FFF7FEFF 		bl	I2C_1_I2CMasterWriteByte
 383:main.c        ****     I2C_1_I2CMasterWriteByte(0x4B, 10);
 1098              		.loc 1 383 0
 1099 004c 0A21     		movs	r1, #10
 1100 004e 4B20     		movs	r0, #75
 1101 0050 FFF7FEFF 		bl	I2C_1_I2CMasterWriteByte
 384:main.c        ****     I2C_1_I2CMasterWriteByte(0x0E, 10);
 1102              		.loc 1 384 0
 1103 0054 0A21     		movs	r1, #10
 1104 0056 0E20     		movs	r0, #14
 1105 0058 FFF7FEFF 		bl	I2C_1_I2CMasterWriteByte
ARM GAS  C:\Users\sergio\AppData\Local\Temp\cc6XWpSt.s 			page 28


 385:main.c        ****     I2C_1_I2CMasterSendStop(10);
 1106              		.loc 1 385 0
 1107 005c 0A20     		movs	r0, #10
 1108 005e FFF7FEFF 		bl	I2C_1_I2CMasterSendStop
 386:main.c        ****     I2C_1_Sleep();
 1109              		.loc 1 386 0
 1110 0062 FFF7FEFF 		bl	I2C_1_Sleep
 387:main.c        ****     I2C_1_Wakeup();
 1111              		.loc 1 387 0
 1112 0066 FFF7FEFF 		bl	I2C_1_Wakeup
 388:main.c        ****     
 389:main.c        ****     // target voltage
 390:main.c        ****     I2C_1_I2CMasterSendStart(address, I2C_1_I2C_WRITE_XFER_MODE, 2);
 1113              		.loc 1 390 0
 1114 006a 7B68     		ldr	r3, [r7, #4]
 1115 006c 0222     		movs	r2, #2
 1116 006e 0021     		movs	r1, #0
 1117 0070 1800     		movs	r0, r3
 1118 0072 FFF7FEFF 		bl	I2C_1_I2CMasterSendStart
 391:main.c        ****     I2C_1_I2CMasterWriteByte(0xA5, 10);
 1119              		.loc 1 391 0
 1120 0076 0A21     		movs	r1, #10
 1121 0078 A520     		movs	r0, #165
 1122 007a FFF7FEFF 		bl	I2C_1_I2CMasterWriteByte
 392:main.c        ****     I2C_1_I2CMasterWriteByte(0x09, 10);
 1123              		.loc 1 392 0
 1124 007e 0A21     		movs	r1, #10
 1125 0080 0920     		movs	r0, #9
 1126 0082 FFF7FEFF 		bl	I2C_1_I2CMasterWriteByte
 393:main.c        ****     I2C_1_I2CMasterWriteByte(0x41, 10);
 1127              		.loc 1 393 0
 1128 0086 0A21     		movs	r1, #10
 1129 0088 4120     		movs	r0, #65
 1130 008a FFF7FEFF 		bl	I2C_1_I2CMasterWriteByte
 394:main.c        ****     I2C_1_I2CMasterWriteByte(0x00, 10);
 1131              		.loc 1 394 0
 1132 008e 0A21     		movs	r1, #10
 1133 0090 0020     		movs	r0, #0
 1134 0092 FFF7FEFF 		bl	I2C_1_I2CMasterWriteByte
 395:main.c        ****     I2C_1_I2CMasterWriteByte(0x8A, 10);
 1135              		.loc 1 395 0
 1136 0096 0A21     		movs	r1, #10
 1137 0098 8A20     		movs	r0, #138
 1138 009a FFF7FEFF 		bl	I2C_1_I2CMasterWriteByte
 396:main.c        ****     I2C_1_I2CMasterWriteByte(0x4D, 10);
 1139              		.loc 1 396 0
 1140 009e 0A21     		movs	r1, #10
 1141 00a0 4D20     		movs	r0, #77
 1142 00a2 FFF7FEFF 		bl	I2C_1_I2CMasterWriteByte
 397:main.c        ****     I2C_1_I2CMasterWriteByte(0x01, 10);
 1143              		.loc 1 397 0
 1144 00a6 0A21     		movs	r1, #10
 1145 00a8 0120     		movs	r0, #1
 1146 00aa FFF7FEFF 		bl	I2C_1_I2CMasterWriteByte
 398:main.c        ****     I2C_1_I2CMasterWriteByte(0x23, 10);
 1147              		.loc 1 398 0
 1148 00ae 0A21     		movs	r1, #10
ARM GAS  C:\Users\sergio\AppData\Local\Temp\cc6XWpSt.s 			page 29


 1149 00b0 2320     		movs	r0, #35
 1150 00b2 FFF7FEFF 		bl	I2C_1_I2CMasterWriteByte
 399:main.c        ****     I2C_1_I2CMasterWriteByte(0xEA, 10);
 1151              		.loc 1 399 0
 1152 00b6 0A21     		movs	r1, #10
 1153 00b8 EA20     		movs	r0, #234
 1154 00ba FFF7FEFF 		bl	I2C_1_I2CMasterWriteByte
 400:main.c        ****     I2C_1_I2CMasterSendStop(10);
 1155              		.loc 1 400 0
 1156 00be 0A20     		movs	r0, #10
 1157 00c0 FFF7FEFF 		bl	I2C_1_I2CMasterSendStop
 401:main.c        ****     I2C_1_Sleep();
 1158              		.loc 1 401 0
 1159 00c4 FFF7FEFF 		bl	I2C_1_Sleep
 402:main.c        ****     I2C_1_Wakeup();
 1160              		.loc 1 402 0
 1161 00c8 FFF7FEFF 		bl	I2C_1_Wakeup
 403:main.c        ****     
 404:main.c        ****     // target line freq
 405:main.c        ****     I2C_1_I2CMasterSendStart(address, I2C_1_I2C_WRITE_XFER_MODE, 2);
 1162              		.loc 1 405 0
 1163 00cc 7B68     		ldr	r3, [r7, #4]
 1164 00ce 0222     		movs	r2, #2
 1165 00d0 0021     		movs	r1, #0
 1166 00d2 1800     		movs	r0, r3
 1167 00d4 FFF7FEFF 		bl	I2C_1_I2CMasterSendStart
 406:main.c        ****     I2C_1_I2CMasterWriteByte(0xA5, 10);
 1168              		.loc 1 406 0
 1169 00d8 0A21     		movs	r1, #10
 1170 00da A520     		movs	r0, #165
 1171 00dc FFF7FEFF 		bl	I2C_1_I2CMasterWriteByte
 407:main.c        ****     I2C_1_I2CMasterWriteByte(0x0A, 10);
 1172              		.loc 1 407 0
 1173 00e0 0A21     		movs	r1, #10
 1174 00e2 0A20     		movs	r0, #10
 1175 00e4 FFF7FEFF 		bl	I2C_1_I2CMasterWriteByte
 408:main.c        ****     I2C_1_I2CMasterWriteByte(0x41, 10);
 1176              		.loc 1 408 0
 1177 00e8 0A21     		movs	r1, #10
 1178 00ea 4120     		movs	r0, #65
 1179 00ec FFF7FEFF 		bl	I2C_1_I2CMasterWriteByte
 409:main.c        ****     I2C_1_I2CMasterWriteByte(0x00, 10);
 1180              		.loc 1 409 0
 1181 00f0 0A21     		movs	r1, #10
 1182 00f2 0020     		movs	r0, #0
 1183 00f4 FFF7FEFF 		bl	I2C_1_I2CMasterWriteByte
 410:main.c        ****     I2C_1_I2CMasterWriteByte(0x94, 10);
 1184              		.loc 1 410 0
 1185 00f8 0A21     		movs	r1, #10
 1186 00fa 9420     		movs	r0, #148
 1187 00fc FFF7FEFF 		bl	I2C_1_I2CMasterWriteByte
 411:main.c        ****     I2C_1_I2CMasterWriteByte(0x4D, 10);
 1188              		.loc 1 411 0
 1189 0100 0A21     		movs	r1, #10
 1190 0102 4D20     		movs	r0, #77
 1191 0104 FFF7FEFF 		bl	I2C_1_I2CMasterWriteByte
 412:main.c        ****     I2C_1_I2CMasterWriteByte(0x02, 10);
ARM GAS  C:\Users\sergio\AppData\Local\Temp\cc6XWpSt.s 			page 30


 1192              		.loc 1 412 0
 1193 0108 0A21     		movs	r1, #10
 1194 010a 0220     		movs	r0, #2
 1195 010c FFF7FEFF 		bl	I2C_1_I2CMasterWriteByte
 413:main.c        ****     I2C_1_I2CMasterWriteByte(0xEA, 10);
 1196              		.loc 1 413 0
 1197 0110 0A21     		movs	r1, #10
 1198 0112 EA20     		movs	r0, #234
 1199 0114 FFF7FEFF 		bl	I2C_1_I2CMasterWriteByte
 414:main.c        ****     I2C_1_I2CMasterWriteByte(0x60, 10);
 1200              		.loc 1 414 0
 1201 0118 0A21     		movs	r1, #10
 1202 011a 6020     		movs	r0, #96
 1203 011c FFF7FEFF 		bl	I2C_1_I2CMasterWriteByte
 415:main.c        ****     I2C_1_I2CMasterWriteByte(0x1D, 10);
 1204              		.loc 1 415 0
 1205 0120 0A21     		movs	r1, #10
 1206 0122 1D20     		movs	r0, #29
 1207 0124 FFF7FEFF 		bl	I2C_1_I2CMasterWriteByte
 416:main.c        ****     I2C_1_I2CMasterSendStop(10);
 1208              		.loc 1 416 0
 1209 0128 0A20     		movs	r0, #10
 1210 012a FFF7FEFF 		bl	I2C_1_I2CMasterSendStop
 417:main.c        ****     I2C_1_Sleep();
 1211              		.loc 1 417 0
 1212 012e FFF7FEFF 		bl	I2C_1_Sleep
 418:main.c        ****     I2C_1_Wakeup();
 1213              		.loc 1 418 0
 1214 0132 FFF7FEFF 		bl	I2C_1_Wakeup
 419:main.c        ****     
 420:main.c        ****     I2C_1_I2CMasterSendStart(address, I2C_1_I2C_WRITE_XFER_MODE, 2);
 1215              		.loc 1 420 0
 1216 0136 7B68     		ldr	r3, [r7, #4]
 1217 0138 0222     		movs	r2, #2
 1218 013a 0021     		movs	r1, #0
 1219 013c 1800     		movs	r0, r3
 1220 013e FFF7FEFF 		bl	I2C_1_I2CMasterSendStart
 421:main.c        ****     I2C_1_I2CMasterWriteByte(0xA5, 10);
 1221              		.loc 1 421 0
 1222 0142 0A21     		movs	r1, #10
 1223 0144 A520     		movs	r0, #165
 1224 0146 FFF7FEFF 		bl	I2C_1_I2CMasterWriteByte
 422:main.c        ****     I2C_1_I2CMasterWriteByte(0xA4, 10);
 1225              		.loc 1 422 0
 1226 014a 0A21     		movs	r1, #10
 1227 014c A420     		movs	r0, #164
 1228 014e FFF7FEFF 		bl	I2C_1_I2CMasterWriteByte
 423:main.c        ****     I2C_1_I2CMasterWriteByte(0x5A, 10);
 1229              		.loc 1 423 0
 1230 0152 0A21     		movs	r1, #10
 1231 0154 5A20     		movs	r0, #90
 1232 0156 FFF7FEFF 		bl	I2C_1_I2CMasterWriteByte
 424:main.c        ****     I2C_1_I2CMasterWriteByte(0x03, 10);
 1233              		.loc 1 424 0
 1234 015a 0A21     		movs	r1, #10
 1235 015c 0320     		movs	r0, #3
 1236 015e FFF7FEFF 		bl	I2C_1_I2CMasterWriteByte
ARM GAS  C:\Users\sergio\AppData\Local\Temp\cc6XWpSt.s 			page 31


 425:main.c        ****     I2C_1_I2CMasterSendStop(10);
 1237              		.loc 1 425 0
 1238 0162 0A20     		movs	r0, #10
 1239 0164 FFF7FEFF 		bl	I2C_1_I2CMasterSendStop
 426:main.c        ****     I2C_1_Sleep();
 1240              		.loc 1 426 0
 1241 0168 FFF7FEFF 		bl	I2C_1_Sleep
 427:main.c        ****     I2C_1_Wakeup();
 1242              		.loc 1 427 0
 1243 016c FFF7FEFF 		bl	I2C_1_Wakeup
 428:main.c        ****     
 429:main.c        **** }
 1244              		.loc 1 429 0
 1245 0170 C046     		nop
 1246 0172 BD46     		mov	sp, r7
 1247 0174 02B0     		add	sp, sp, #8
 1248              		@ sp needed
 1249 0176 80BD     		pop	{r7, pc}
 1250              		.cfi_endproc
 1251              	.LFE46:
 1252              		.size	auto_calibrate_gain, .-auto_calibrate_gain
 1253              		.section	.text.read_power_chips,"ax",%progbits
 1254              		.align	2
 1255              		.global	read_power_chips
 1256              		.code	16
 1257              		.thumb_func
 1258              		.type	read_power_chips, %function
 1259              	read_power_chips:
 1260              	.LFB47:
 430:main.c        **** 
 431:main.c        **** void read_power_chips(uint32 address){
 1261              		.loc 1 431 0
 1262              		.cfi_startproc
 1263              		@ args = 0, pretend = 0, frame = 48
 1264              		@ frame_needed = 1, uses_anonymous_args = 0
 1265 0000 80B5     		push	{r7, lr}
 1266              		.cfi_def_cfa_offset 8
 1267              		.cfi_offset 7, -8
 1268              		.cfi_offset 14, -4
 1269 0002 8CB0     		sub	sp, sp, #48
 1270              		.cfi_def_cfa_offset 56
 1271 0004 00AF     		add	r7, sp, #0
 1272              		.cfi_def_cfa_register 7
 1273 0006 7860     		str	r0, [r7, #4]
 432:main.c        ****     
 433:main.c        ****     uint8 rBuff[35];
 434:main.c        ****     
 435:main.c        ****         I2C_1_I2CMasterSendStart(address,I2C_1_I2C_WRITE_XFER_MODE, 100u);
 1274              		.loc 1 435 0
 1275 0008 7B68     		ldr	r3, [r7, #4]
 1276 000a 6422     		movs	r2, #100
 1277 000c 0021     		movs	r1, #0
 1278 000e 1800     		movs	r0, r3
 1279 0010 FFF7FEFF 		bl	I2C_1_I2CMasterSendStart
 436:main.c        ****         I2C_1_I2CMasterWriteByte(0xA5, 10u);
 1280              		.loc 1 436 0
 1281 0014 0A21     		movs	r1, #10
ARM GAS  C:\Users\sergio\AppData\Local\Temp\cc6XWpSt.s 			page 32


 1282 0016 A520     		movs	r0, #165
 1283 0018 FFF7FEFF 		bl	I2C_1_I2CMasterWriteByte
 437:main.c        ****         I2C_1_I2CMasterWriteByte(0x08, 10u);
 1284              		.loc 1 437 0
 1285 001c 0A21     		movs	r1, #10
 1286 001e 0820     		movs	r0, #8
 1287 0020 FFF7FEFF 		bl	I2C_1_I2CMasterWriteByte
 438:main.c        ****         I2C_1_I2CMasterWriteByte(0x41, 10u);
 1288              		.loc 1 438 0
 1289 0024 0A21     		movs	r1, #10
 1290 0026 4120     		movs	r0, #65
 1291 0028 FFF7FEFF 		bl	I2C_1_I2CMasterWriteByte
 439:main.c        ****         I2C_1_I2CMasterWriteByte(0x00, 10u);
 1292              		.loc 1 439 0
 1293 002c 0A21     		movs	r1, #10
 1294 002e 0020     		movs	r0, #0
 1295 0030 FFF7FEFF 		bl	I2C_1_I2CMasterWriteByte
 440:main.c        ****         I2C_1_I2CMasterWriteByte(0x02, 10u);
 1296              		.loc 1 440 0
 1297 0034 0A21     		movs	r1, #10
 1298 0036 0220     		movs	r0, #2
 1299 0038 FFF7FEFF 		bl	I2C_1_I2CMasterWriteByte
 441:main.c        ****         I2C_1_I2CMasterWriteByte(0x4E, 10u);
 1300              		.loc 1 441 0
 1301 003c 0A21     		movs	r1, #10
 1302 003e 4E20     		movs	r0, #78
 1303 0040 FFF7FEFF 		bl	I2C_1_I2CMasterWriteByte
 442:main.c        ****         I2C_1_I2CMasterWriteByte(0x20, 10u);
 1304              		.loc 1 442 0
 1305 0044 0A21     		movs	r1, #10
 1306 0046 2020     		movs	r0, #32
 1307 0048 FFF7FEFF 		bl	I2C_1_I2CMasterWriteByte
 443:main.c        ****         I2C_1_I2CMasterWriteByte(0x5E, 10u);
 1308              		.loc 1 443 0
 1309 004c 0A21     		movs	r1, #10
 1310 004e 5E20     		movs	r0, #94
 1311 0050 FFF7FEFF 		bl	I2C_1_I2CMasterWriteByte
 444:main.c        ****         I2C_1_I2CMasterSendStop(0u);
 1312              		.loc 1 444 0
 1313 0054 0020     		movs	r0, #0
 1314 0056 FFF7FEFF 		bl	I2C_1_I2CMasterSendStop
 445:main.c        ****         
 446:main.c        ****         I2C_1_Sleep();
 1315              		.loc 1 446 0
 1316 005a FFF7FEFF 		bl	I2C_1_Sleep
 447:main.c        ****         I2C_1_Wakeup();
 1317              		.loc 1 447 0
 1318 005e FFF7FEFF 		bl	I2C_1_Wakeup
 448:main.c        ****   
 449:main.c        ****         I2C_1_I2CMasterSendStart(address, I2C_1_I2C_READ_XFER_MODE, 10u);
 1319              		.loc 1 449 0
 1320 0062 7B68     		ldr	r3, [r7, #4]
 1321 0064 0A22     		movs	r2, #10
 1322 0066 0121     		movs	r1, #1
 1323 0068 1800     		movs	r0, r3
 1324 006a FFF7FEFF 		bl	I2C_1_I2CMasterSendStart
 1325              	.LBB2:
ARM GAS  C:\Users\sergio\AppData\Local\Temp\cc6XWpSt.s 			page 33


 450:main.c        ****         for(int i =0; i<34; i++){
 1326              		.loc 1 450 0
 1327 006e 0023     		movs	r3, #0
 1328 0070 FB62     		str	r3, [r7, #44]
 1329 0072 0BE0     		b	.L42
 1330              	.L43:
 451:main.c        ****           I2C_1_I2CMasterReadByte(I2C_1_I2C_ACK_DATA,&rBuff[i],10u);
 1331              		.loc 1 451 0 discriminator 3
 1332 0074 0823     		movs	r3, #8
 1333 0076 FA18     		adds	r2, r7, r3
 1334 0078 FB6A     		ldr	r3, [r7, #44]
 1335 007a D318     		adds	r3, r2, r3
 1336 007c 0A22     		movs	r2, #10
 1337 007e 1900     		movs	r1, r3
 1338 0080 0020     		movs	r0, #0
 1339 0082 FFF7FEFF 		bl	I2C_1_I2CMasterReadByte
 450:main.c        ****         for(int i =0; i<34; i++){
 1340              		.loc 1 450 0 discriminator 3
 1341 0086 FB6A     		ldr	r3, [r7, #44]
 1342 0088 0133     		adds	r3, r3, #1
 1343 008a FB62     		str	r3, [r7, #44]
 1344              	.L42:
 450:main.c        ****         for(int i =0; i<34; i++){
 1345              		.loc 1 450 0 is_stmt 0 discriminator 1
 1346 008c FB6A     		ldr	r3, [r7, #44]
 1347 008e 212B     		cmp	r3, #33
 1348 0090 F0DD     		ble	.L43
 1349              	.LBE2:
 452:main.c        ****         }
 453:main.c        ****         I2C_1_I2CMasterReadByte(I2C_1_I2C_NAK_DATA,&rBuff[34],10u);
 1350              		.loc 1 453 0 is_stmt 1
 1351 0092 0823     		movs	r3, #8
 1352 0094 FB18     		adds	r3, r7, r3
 1353 0096 2233     		adds	r3, r3, #34
 1354 0098 0A22     		movs	r2, #10
 1355 009a 1900     		movs	r1, r3
 1356 009c 0120     		movs	r0, #1
 1357 009e FFF7FEFF 		bl	I2C_1_I2CMasterReadByte
 454:main.c        ****         I2C_1_I2CMasterSendStop(100u);
 1358              		.loc 1 454 0
 1359 00a2 6420     		movs	r0, #100
 1360 00a4 FFF7FEFF 		bl	I2C_1_I2CMasterSendStop
 455:main.c        ****         
 456:main.c        ****         switch(address){
 1361              		.loc 1 456 0
 1362 00a8 7B68     		ldr	r3, [r7, #4]
 1363 00aa 752B     		cmp	r3, #117
 1364 00ac 36D0     		beq	.L45
 1365 00ae 762B     		cmp	r3, #118
 1366 00b0 66D0     		beq	.L46
 1367 00b2 742B     		cmp	r3, #116
 1368 00b4 00D0     		beq	.L47
 457:main.c        ****             case 0x74:
 458:main.c        ****                 sensorData.voltCompressor = (rBuff[7] << 8) | rBuff[6];
 459:main.c        ****                 sensorData.lineFreqComp = (rBuff[9] << 8) | rBuff[8];
 460:main.c        ****                 sensorData.currentCompressor = (rBuff[17] << 24) | (rBuff[16] << 16) | (rBuff[15] <
 461:main.c        ****             break;
ARM GAS  C:\Users\sergio\AppData\Local\Temp\cc6XWpSt.s 			page 34


 462:main.c        ****             
 463:main.c        ****             case 0x75:
 464:main.c        ****                 sensorData.volt = (rBuff[7] << 8) | rBuff[6];
 465:main.c        ****                 sensorData.lineFreq = (rBuff[9] << 8) | rBuff[8];
 466:main.c        ****                 sensorData.current = (rBuff[17] << 24) | (rBuff[16] << 16) | (rBuff[15] << 8) | rBu
 467:main.c        ****             break;
 468:main.c        ****             
 469:main.c        ****             case 0x76:
 470:main.c        ****                 sensorData.voltFan = (rBuff[7] << 8) | rBuff[6];
 471:main.c        ****                 sensorData.lineFreqFan = (rBuff[9] << 8) | rBuff[8];
 472:main.c        ****                 sensorData.currentFan = (rBuff[17] << 24) | (rBuff[16] << 16) | (rBuff[15] << 8) | 
 473:main.c        ****             break;
 474:main.c        ****             
 475:main.c        ****             default:
 476:main.c        ****             break;
 1369              		.loc 1 476 0
 1370 00b6 95E0     		b	.L48
 1371              	.L47:
 458:main.c        ****                 sensorData.lineFreqComp = (rBuff[9] << 8) | rBuff[8];
 1372              		.loc 1 458 0
 1373 00b8 0823     		movs	r3, #8
 1374 00ba FB18     		adds	r3, r7, r3
 1375 00bc DB79     		ldrb	r3, [r3, #7]
 1376 00be 1B02     		lsls	r3, r3, #8
 1377 00c0 1AB2     		sxth	r2, r3
 1378 00c2 0823     		movs	r3, #8
 1379 00c4 FB18     		adds	r3, r7, r3
 1380 00c6 9B79     		ldrb	r3, [r3, #6]
 1381 00c8 1BB2     		sxth	r3, r3
 1382 00ca 1343     		orrs	r3, r2
 1383 00cc 1BB2     		sxth	r3, r3
 1384 00ce 9AB2     		uxth	r2, r3
 1385 00d0 464B     		ldr	r3, .L49
 1386 00d2 DA80     		strh	r2, [r3, #6]
 459:main.c        ****                 sensorData.currentCompressor = (rBuff[17] << 24) | (rBuff[16] << 16) | (rBuff[15] <
 1387              		.loc 1 459 0
 1388 00d4 0823     		movs	r3, #8
 1389 00d6 FB18     		adds	r3, r7, r3
 1390 00d8 5B7A     		ldrb	r3, [r3, #9]
 1391 00da 1B02     		lsls	r3, r3, #8
 1392 00dc 1AB2     		sxth	r2, r3
 1393 00de 0823     		movs	r3, #8
 1394 00e0 FB18     		adds	r3, r7, r3
 1395 00e2 1B7A     		ldrb	r3, [r3, #8]
 1396 00e4 1BB2     		sxth	r3, r3
 1397 00e6 1343     		orrs	r3, r2
 1398 00e8 1BB2     		sxth	r3, r3
 1399 00ea 9AB2     		uxth	r2, r3
 1400 00ec 3F4B     		ldr	r3, .L49
 1401 00ee 1A83     		strh	r2, [r3, #24]
 460:main.c        ****             break;
 1402              		.loc 1 460 0
 1403 00f0 0823     		movs	r3, #8
 1404 00f2 FB18     		adds	r3, r7, r3
 1405 00f4 5B7C     		ldrb	r3, [r3, #17]
 1406 00f6 1A06     		lsls	r2, r3, #24
 1407 00f8 0823     		movs	r3, #8
ARM GAS  C:\Users\sergio\AppData\Local\Temp\cc6XWpSt.s 			page 35


 1408 00fa FB18     		adds	r3, r7, r3
 1409 00fc 1B7C     		ldrb	r3, [r3, #16]
 1410 00fe 1B04     		lsls	r3, r3, #16
 1411 0100 1A43     		orrs	r2, r3
 1412 0102 0823     		movs	r3, #8
 1413 0104 FB18     		adds	r3, r7, r3
 1414 0106 DB7B     		ldrb	r3, [r3, #15]
 1415 0108 1B02     		lsls	r3, r3, #8
 1416 010a 1343     		orrs	r3, r2
 1417 010c 0822     		movs	r2, #8
 1418 010e BA18     		adds	r2, r7, r2
 1419 0110 927B     		ldrb	r2, [r2, #14]
 1420 0112 1343     		orrs	r3, r2
 1421 0114 1A00     		movs	r2, r3
 1422 0116 354B     		ldr	r3, .L49
 1423 0118 DA60     		str	r2, [r3, #12]
 461:main.c        ****             
 1424              		.loc 1 461 0
 1425 011a 63E0     		b	.L48
 1426              	.L45:
 464:main.c        ****                 sensorData.lineFreq = (rBuff[9] << 8) | rBuff[8];
 1427              		.loc 1 464 0
 1428 011c 0823     		movs	r3, #8
 1429 011e FB18     		adds	r3, r7, r3
 1430 0120 DB79     		ldrb	r3, [r3, #7]
 1431 0122 1B02     		lsls	r3, r3, #8
 1432 0124 1AB2     		sxth	r2, r3
 1433 0126 0823     		movs	r3, #8
 1434 0128 FB18     		adds	r3, r7, r3
 1435 012a 9B79     		ldrb	r3, [r3, #6]
 1436 012c 1BB2     		sxth	r3, r3
 1437 012e 1343     		orrs	r3, r2
 1438 0130 1BB2     		sxth	r3, r3
 1439 0132 9AB2     		uxth	r2, r3
 1440 0134 2D4B     		ldr	r3, .L49
 1441 0136 5A81     		strh	r2, [r3, #10]
 465:main.c        ****                 sensorData.current = (rBuff[17] << 24) | (rBuff[16] << 16) | (rBuff[15] << 8) | rBu
 1442              		.loc 1 465 0
 1443 0138 0823     		movs	r3, #8
 1444 013a FB18     		adds	r3, r7, r3
 1445 013c 5B7A     		ldrb	r3, [r3, #9]
 1446 013e 1B02     		lsls	r3, r3, #8
 1447 0140 1AB2     		sxth	r2, r3
 1448 0142 0823     		movs	r3, #8
 1449 0144 FB18     		adds	r3, r7, r3
 1450 0146 1B7A     		ldrb	r3, [r3, #8]
 1451 0148 1BB2     		sxth	r3, r3
 1452 014a 1343     		orrs	r3, r2
 1453 014c 1BB2     		sxth	r3, r3
 1454 014e 9AB2     		uxth	r2, r3
 1455 0150 264B     		ldr	r3, .L49
 1456 0152 9A83     		strh	r2, [r3, #28]
 466:main.c        ****             break;
 1457              		.loc 1 466 0
 1458 0154 0823     		movs	r3, #8
 1459 0156 FB18     		adds	r3, r7, r3
 1460 0158 5B7C     		ldrb	r3, [r3, #17]
ARM GAS  C:\Users\sergio\AppData\Local\Temp\cc6XWpSt.s 			page 36


 1461 015a 1A06     		lsls	r2, r3, #24
 1462 015c 0823     		movs	r3, #8
 1463 015e FB18     		adds	r3, r7, r3
 1464 0160 1B7C     		ldrb	r3, [r3, #16]
 1465 0162 1B04     		lsls	r3, r3, #16
 1466 0164 1A43     		orrs	r2, r3
 1467 0166 0823     		movs	r3, #8
 1468 0168 FB18     		adds	r3, r7, r3
 1469 016a DB7B     		ldrb	r3, [r3, #15]
 1470 016c 1B02     		lsls	r3, r3, #8
 1471 016e 1343     		orrs	r3, r2
 1472 0170 0822     		movs	r2, #8
 1473 0172 BA18     		adds	r2, r7, r2
 1474 0174 927B     		ldrb	r2, [r2, #14]
 1475 0176 1343     		orrs	r3, r2
 1476 0178 1A00     		movs	r2, r3
 1477 017a 1C4B     		ldr	r3, .L49
 1478 017c 5A61     		str	r2, [r3, #20]
 467:main.c        ****             
 1479              		.loc 1 467 0
 1480 017e 31E0     		b	.L48
 1481              	.L46:
 470:main.c        ****                 sensorData.lineFreqFan = (rBuff[9] << 8) | rBuff[8];
 1482              		.loc 1 470 0
 1483 0180 0823     		movs	r3, #8
 1484 0182 FB18     		adds	r3, r7, r3
 1485 0184 DB79     		ldrb	r3, [r3, #7]
 1486 0186 1B02     		lsls	r3, r3, #8
 1487 0188 1AB2     		sxth	r2, r3
 1488 018a 0823     		movs	r3, #8
 1489 018c FB18     		adds	r3, r7, r3
 1490 018e 9B79     		ldrb	r3, [r3, #6]
 1491 0190 1BB2     		sxth	r3, r3
 1492 0192 1343     		orrs	r3, r2
 1493 0194 1BB2     		sxth	r3, r3
 1494 0196 9AB2     		uxth	r2, r3
 1495 0198 144B     		ldr	r3, .L49
 1496 019a 1A81     		strh	r2, [r3, #8]
 471:main.c        ****                 sensorData.currentFan = (rBuff[17] << 24) | (rBuff[16] << 16) | (rBuff[15] << 8) | 
 1497              		.loc 1 471 0
 1498 019c 0823     		movs	r3, #8
 1499 019e FB18     		adds	r3, r7, r3
 1500 01a0 5B7A     		ldrb	r3, [r3, #9]
 1501 01a2 1B02     		lsls	r3, r3, #8
 1502 01a4 1AB2     		sxth	r2, r3
 1503 01a6 0823     		movs	r3, #8
 1504 01a8 FB18     		adds	r3, r7, r3
 1505 01aa 1B7A     		ldrb	r3, [r3, #8]
 1506 01ac 1BB2     		sxth	r3, r3
 1507 01ae 1343     		orrs	r3, r2
 1508 01b0 1BB2     		sxth	r3, r3
 1509 01b2 9AB2     		uxth	r2, r3
 1510 01b4 0D4B     		ldr	r3, .L49
 1511 01b6 5A83     		strh	r2, [r3, #26]
 472:main.c        ****             break;
 1512              		.loc 1 472 0
 1513 01b8 0823     		movs	r3, #8
ARM GAS  C:\Users\sergio\AppData\Local\Temp\cc6XWpSt.s 			page 37


 1514 01ba FB18     		adds	r3, r7, r3
 1515 01bc 5B7C     		ldrb	r3, [r3, #17]
 1516 01be 1A06     		lsls	r2, r3, #24
 1517 01c0 0823     		movs	r3, #8
 1518 01c2 FB18     		adds	r3, r7, r3
 1519 01c4 1B7C     		ldrb	r3, [r3, #16]
 1520 01c6 1B04     		lsls	r3, r3, #16
 1521 01c8 1A43     		orrs	r2, r3
 1522 01ca 0823     		movs	r3, #8
 1523 01cc FB18     		adds	r3, r7, r3
 1524 01ce DB7B     		ldrb	r3, [r3, #15]
 1525 01d0 1B02     		lsls	r3, r3, #8
 1526 01d2 1343     		orrs	r3, r2
 1527 01d4 0822     		movs	r2, #8
 1528 01d6 BA18     		adds	r2, r7, r2
 1529 01d8 927B     		ldrb	r2, [r2, #14]
 1530 01da 1343     		orrs	r3, r2
 1531 01dc 1A00     		movs	r2, r3
 1532 01de 034B     		ldr	r3, .L49
 1533 01e0 1A61     		str	r2, [r3, #16]
 473:main.c        ****             
 1534              		.loc 1 473 0
 1535 01e2 C046     		nop
 1536              	.L48:
 477:main.c        ****         }
 478:main.c        **** }
 1537              		.loc 1 478 0 discriminator 1
 1538 01e4 C046     		nop
 1539 01e6 BD46     		mov	sp, r7
 1540 01e8 0CB0     		add	sp, sp, #48
 1541              		@ sp needed
 1542 01ea 80BD     		pop	{r7, pc}
 1543              	.L50:
 1544              		.align	2
 1545              	.L49:
 1546 01ec 00000000 		.word	sensorData
 1547              		.cfi_endproc
 1548              	.LFE47:
 1549              		.size	read_power_chips, .-read_power_chips
 1550              		.section	.text.read_Air_Flow,"ax",%progbits
 1551              		.align	2
 1552              		.global	read_Air_Flow
 1553              		.code	16
 1554              		.thumb_func
 1555              		.type	read_Air_Flow, %function
 1556              	read_Air_Flow:
 1557              	.LFB48:
 479:main.c        **** 
 480:main.c        **** void read_Air_Flow(){
 1558              		.loc 1 480 0
 1559              		.cfi_startproc
 1560              		@ args = 0, pretend = 0, frame = 8
 1561              		@ frame_needed = 1, uses_anonymous_args = 0
 1562 0000 80B5     		push	{r7, lr}
 1563              		.cfi_def_cfa_offset 8
 1564              		.cfi_offset 7, -8
 1565              		.cfi_offset 14, -4
ARM GAS  C:\Users\sergio\AppData\Local\Temp\cc6XWpSt.s 			page 38


 1566 0002 82B0     		sub	sp, sp, #8
 1567              		.cfi_def_cfa_offset 16
 1568 0004 00AF     		add	r7, sp, #0
 1569              		.cfi_def_cfa_register 7
 481:main.c        ****     uint16 airFlow = 0;
 1570              		.loc 1 481 0
 1571 0006 BB1D     		adds	r3, r7, #6
 1572 0008 0022     		movs	r2, #0
 1573 000a 1A80     		strh	r2, [r3]
 1574              	.LBB3:
 482:main.c        ****     for(int i =0; i < 500; i++){
 1575              		.loc 1 482 0
 1576 000c 0023     		movs	r3, #0
 1577 000e 3B60     		str	r3, [r7]
 1578 0010 0FE0     		b	.L52
 1579              	.L53:
 483:main.c        ****         airFlow += (AF_Read() == 1)? 1 : 0;
 1580              		.loc 1 483 0 discriminator 3
 1581 0012 FFF7FEFF 		bl	AF_Read
 1582 0016 0300     		movs	r3, r0
 1583 0018 013B     		subs	r3, r3, #1
 1584 001a 5A42     		rsbs	r2, r3, #0
 1585 001c 5341     		adcs	r3, r3, r2
 1586 001e DBB2     		uxtb	r3, r3
 1587 0020 99B2     		uxth	r1, r3
 1588 0022 BB1D     		adds	r3, r7, #6
 1589 0024 BA1D     		adds	r2, r7, #6
 1590 0026 1288     		ldrh	r2, [r2]
 1591 0028 8A18     		adds	r2, r1, r2
 1592 002a 1A80     		strh	r2, [r3]
 482:main.c        ****     for(int i =0; i < 500; i++){
 1593              		.loc 1 482 0 discriminator 3
 1594 002c 3B68     		ldr	r3, [r7]
 1595 002e 0133     		adds	r3, r3, #1
 1596 0030 3B60     		str	r3, [r7]
 1597              	.L52:
 482:main.c        ****     for(int i =0; i < 500; i++){
 1598              		.loc 1 482 0 is_stmt 0 discriminator 1
 1599 0032 3A68     		ldr	r2, [r7]
 1600 0034 F423     		movs	r3, #244
 1601 0036 FF33     		adds	r3, r3, #255
 1602 0038 9A42     		cmp	r2, r3
 1603 003a EADD     		ble	.L53
 1604              	.LBE3:
 484:main.c        ****     }
 485:main.c        ****     sensorData.airFlow = airFlow;
 1605              		.loc 1 485 0 is_stmt 1
 1606 003c 034B     		ldr	r3, .L54
 1607 003e BA1D     		adds	r2, r7, #6
 1608 0040 1288     		ldrh	r2, [r2]
 1609 0042 5A84     		strh	r2, [r3, #34]
 486:main.c        **** }
 1610              		.loc 1 486 0
 1611 0044 C046     		nop
 1612 0046 BD46     		mov	sp, r7
 1613 0048 02B0     		add	sp, sp, #8
 1614              		@ sp needed
ARM GAS  C:\Users\sergio\AppData\Local\Temp\cc6XWpSt.s 			page 39


 1615 004a 80BD     		pop	{r7, pc}
 1616              	.L55:
 1617              		.align	2
 1618              	.L54:
 1619 004c 00000000 		.word	sensorData
 1620              		.cfi_endproc
 1621              	.LFE48:
 1622              		.size	read_Air_Flow, .-read_Air_Flow
 1623              		.section	.text.delay,"ax",%progbits
 1624              		.align	2
 1625              		.global	delay
 1626              		.code	16
 1627              		.thumb_func
 1628              		.type	delay, %function
 1629              	delay:
 1630              	.LFB49:
 487:main.c        **** 
 488:main.c        **** void delay(int d){
 1631              		.loc 1 488 0
 1632              		.cfi_startproc
 1633              		@ args = 0, pretend = 0, frame = 16
 1634              		@ frame_needed = 1, uses_anonymous_args = 0
 1635 0000 80B5     		push	{r7, lr}
 1636              		.cfi_def_cfa_offset 8
 1637              		.cfi_offset 7, -8
 1638              		.cfi_offset 14, -4
 1639 0002 84B0     		sub	sp, sp, #16
 1640              		.cfi_def_cfa_offset 24
 1641 0004 00AF     		add	r7, sp, #0
 1642              		.cfi_def_cfa_register 7
 1643 0006 7860     		str	r0, [r7, #4]
 1644              	.LBB4:
 489:main.c        ****     for(int i = d;i>0; i--);
 1645              		.loc 1 489 0
 1646 0008 7B68     		ldr	r3, [r7, #4]
 1647 000a FB60     		str	r3, [r7, #12]
 1648 000c 02E0     		b	.L57
 1649              	.L58:
 1650              		.loc 1 489 0 is_stmt 0 discriminator 3
 1651 000e FB68     		ldr	r3, [r7, #12]
 1652 0010 013B     		subs	r3, r3, #1
 1653 0012 FB60     		str	r3, [r7, #12]
 1654              	.L57:
 1655              		.loc 1 489 0 discriminator 1
 1656 0014 FB68     		ldr	r3, [r7, #12]
 1657 0016 002B     		cmp	r3, #0
 1658 0018 F9DC     		bgt	.L58
 1659              	.LBE4:
 490:main.c        **** }
 1660              		.loc 1 490 0 is_stmt 1
 1661 001a C046     		nop
 1662 001c BD46     		mov	sp, r7
 1663 001e 04B0     		add	sp, sp, #16
 1664              		@ sp needed
 1665 0020 80BD     		pop	{r7, pc}
 1666              		.cfi_endproc
 1667              	.LFE49:
ARM GAS  C:\Users\sergio\AppData\Local\Temp\cc6XWpSt.s 			page 40


 1668              		.size	delay, .-delay
 1669 0022 C046     		.section	.text.my_interrupt,"ax",%progbits
 1670              		.align	2
 1671              		.global	my_interrupt
 1672              		.code	16
 1673              		.thumb_func
 1674              		.type	my_interrupt, %function
 1675              	my_interrupt:
 1676              	.LFB50:
 491:main.c        **** 
 492:main.c        **** 
 493:main.c        **** void my_interrupt(){
 1677              		.loc 1 493 0
 1678              		.cfi_startproc
 1679              		@ args = 0, pretend = 0, frame = 0
 1680              		@ frame_needed = 1, uses_anonymous_args = 0
 1681 0000 80B5     		push	{r7, lr}
 1682              		.cfi_def_cfa_offset 8
 1683              		.cfi_offset 7, -8
 1684              		.cfi_offset 14, -4
 1685 0002 00AF     		add	r7, sp, #0
 1686              		.cfi_def_cfa_register 7
 494:main.c        ****     
 495:main.c        ****     interruptFlag = 1;
 1687              		.loc 1 495 0
 1688 0004 054B     		ldr	r3, .L60
 1689 0006 0122     		movs	r2, #1
 1690 0008 1A60     		str	r2, [r3]
 496:main.c        ****    
 497:main.c        ****      CySysWdtClearInterrupt(CY_SYS_WDT_COUNTER2_INT);
 1691              		.loc 1 497 0
 1692 000a 8023     		movs	r3, #128
 1693 000c DB02     		lsls	r3, r3, #11
 1694 000e 1800     		movs	r0, r3
 1695 0010 FFF7FEFF 		bl	CySysWdtClearInterrupt
 498:main.c        **** }
 1696              		.loc 1 498 0
 1697 0014 C046     		nop
 1698 0016 BD46     		mov	sp, r7
 1699              		@ sp needed
 1700 0018 80BD     		pop	{r7, pc}
 1701              	.L61:
 1702 001a C046     		.align	2
 1703              	.L60:
 1704 001c 00000000 		.word	interruptFlag
 1705              		.cfi_endproc
 1706              	.LFE50:
 1707              		.size	my_interrupt, .-my_interrupt
 1708              		.section	.rodata
 1709              		.align	2
 1710              	.LC28:
 1711 003c 73746174 		.ascii	"state 14 setting counter to 0\012\000"
 1711      65203134 
 1711      20736574 
 1711      74696E67 
 1711      20636F75 
 1712 005b 00       		.align	2
ARM GAS  C:\Users\sergio\AppData\Local\Temp\cc6XWpSt.s 			page 41


 1713              	.LC30:
 1714 005c 73657474 		.ascii	"setting up state 14\012\000"
 1714      696E6720 
 1714      75702073 
 1714      74617465 
 1714      2031340A 
 1715 0071 000000   		.align	2
 1716              	.LC32:
 1717 0074 73746174 		.ascii	"state 14 counter 2\012\000"
 1717      65203134 
 1717      20636F75 
 1717      6E746572 
 1717      20320A00 
 1718              		.align	2
 1719              	.LC34:
 1720 0088 73746174 		.ascii	"state 14 counter 4\012\000"
 1720      65203134 
 1720      20636F75 
 1720      6E746572 
 1720      20340A00 
 1721              		.align	2
 1722              	.LC36:
 1723 009c 73746174 		.ascii	"state 14 already setup\012\000"
 1723      65203134 
 1723      20616C72 
 1723      65616479 
 1723      20736574 
 1724              		.align	2
 1725              	.LC39:
 1726 00b4 30783134 		.ascii	"0x14 switch gpio: %x  acstate: %x LF: %d, HF: %d, C"
 1726      20737769 
 1726      74636820 
 1726      6770696F 
 1726      3A202578 
 1727 00e7 6F6D703A 		.ascii	"omp:%d\012\000"
 1727      25640A00 
 1728 00ef 00       		.align	2
 1729              	.LC42:
 1730 00f0 30783043 		.ascii	"0x0C switch gpio: %x  acstate: %x LF: %d, HF: %d, C"
 1730      20737769 
 1730      74636820 
 1730      6770696F 
 1730      3A202578 
 1731 0123 6F6D703A 		.ascii	"omp:%d\012\000"
 1731      25640A00 
 1732 012b 00       		.align	2
 1733              	.LC44:
 1734 012c 30783038 		.ascii	"0x08  switch gpio: %x  acstate: %x LF: %d, HF: %d, "
 1734      20207377 
 1734      69746368 
 1734      20677069 
 1734      6F3A2025 
 1735 015f 436F6D70 		.ascii	"Comp:%d\012\000"
 1735      3A25640A 
 1735      00
 1736              		.align	2
 1737              	.LC46:
ARM GAS  C:\Users\sergio\AppData\Local\Temp\cc6XWpSt.s 			page 42


 1738 0168 30783130 		.ascii	"0x10  switch gpio: %x  acstate: %x LF: %d, HF: %d, "
 1738      20207377 
 1738      69746368 
 1738      20677069 
 1738      6F3A2025 
 1739 019b 436F6D70 		.ascii	"Comp:%d\012\000"
 1739      3A25640A 
 1739      00
 1740              		.align	2
 1741              	.LC48:
 1742 01a4 30783030 		.ascii	"0x00  switch gpio: %x  acstate: %x LF: %d, HF: %d, "
 1742      20207377 
 1742      69746368 
 1742      20677069 
 1742      6F3A2025 
 1743 01d7 436F6D70 		.ascii	"Comp:%d\012\000"
 1743      3A25640A 
 1743      00
 1744              		.section	.text.run_ac,"ax",%progbits
 1745              		.align	2
 1746              		.global	run_ac
 1747              		.code	16
 1748              		.thumb_func
 1749              		.type	run_ac, %function
 1750              	run_ac:
 1751              	.LFB51:
 499:main.c        **** 
 500:main.c        **** void run_ac(){
 1752              		.loc 1 500 0
 1753              		.cfi_startproc
 1754              		@ args = 0, pretend = 0, frame = 8
 1755              		@ frame_needed = 1, uses_anonymous_args = 0
 1756 0000 F0B5     		push	{r4, r5, r6, r7, lr}
 1757              		.cfi_def_cfa_offset 20
 1758              		.cfi_offset 4, -20
 1759              		.cfi_offset 5, -16
 1760              		.cfi_offset 6, -12
 1761              		.cfi_offset 7, -8
 1762              		.cfi_offset 14, -4
 1763 0002 87B0     		sub	sp, sp, #28
 1764              		.cfi_def_cfa_offset 48
 1765 0004 04AF     		add	r7, sp, #16
 1766              		.cfi_def_cfa 7, 32
 501:main.c        ****     
 502:main.c        ****     switch(thermoState){
 1767              		.loc 1 502 0
 1768 0006 D14B     		ldr	r3, .L96
 1769 0008 1B78     		ldrb	r3, [r3]
 1770 000a 142B     		cmp	r3, #20
 1771 000c 00D9     		bls	.LCB1357
 1772 000e 20E2     		b	.L95	@long jump
 1773              	.LCB1357:
 1774 0010 9A00     		lsls	r2, r3, #2
 1775 0012 CF4B     		ldr	r3, .L96+4
 1776 0014 D318     		adds	r3, r2, r3
 1777 0016 1B68     		ldr	r3, [r3]
 1778 0018 9F46     		mov	pc, r3
ARM GAS  C:\Users\sergio\AppData\Local\Temp\cc6XWpSt.s 			page 43


 1779              		.section	.rodata
 1780              		.align	2
 1781              	.L65:
 1782 01e0 88030000 		.word	.L64
 1783 01e4 52040000 		.word	.L95
 1784 01e8 52040000 		.word	.L95
 1785 01ec 52040000 		.word	.L95
 1786 01f0 52040000 		.word	.L95
 1787 01f4 52040000 		.word	.L95
 1788 01f8 52040000 		.word	.L95
 1789 01fc 52040000 		.word	.L95
 1790 0200 D8010000 		.word	.L66
 1791 0204 52040000 		.word	.L95
 1792 0208 52040000 		.word	.L95
 1793 020c 52040000 		.word	.L95
 1794 0210 10010000 		.word	.L67
 1795 0214 52040000 		.word	.L95
 1796 0218 52040000 		.word	.L95
 1797 021c 52040000 		.word	.L95
 1798 0220 92020000 		.word	.L68
 1799 0224 52040000 		.word	.L95
 1800 0228 52040000 		.word	.L95
 1801 022c 52040000 		.word	.L95
 1802 0230 1A000000 		.word	.L69
 1803              		.section	.text.run_ac
 1804              	.L69:
 503:main.c        ****         case 0x14: // Low fan and compressor
 504:main.c        ****             if(acStates != 0x14 && counter >= 5){
 1805              		.loc 1 504 0
 1806 001a CE4B     		ldr	r3, .L96+8
 1807 001c 1B68     		ldr	r3, [r3]
 1808 001e 142B     		cmp	r3, #20
 1809 0020 0AD0     		beq	.L70
 1810              		.loc 1 504 0 is_stmt 0 discriminator 1
 1811 0022 CD4B     		ldr	r3, .L96+12
 1812 0024 1B68     		ldr	r3, [r3]
 1813 0026 042B     		cmp	r3, #4
 1814 0028 06DD     		ble	.L70
 505:main.c        ****              counter = 0;
 1815              		.loc 1 505 0 is_stmt 1
 1816 002a CB4B     		ldr	r3, .L96+12
 1817 002c 0022     		movs	r2, #0
 1818 002e 1A60     		str	r2, [r3]
 506:main.c        ****                 MyUART_PutString("state 14 setting counter to 0\n");
 1819              		.loc 1 506 0
 1820 0030 CA4B     		ldr	r3, .L96+16
 1821 0032 1800     		movs	r0, r3
 1822 0034 FFF7FEFF 		bl	MyUART_PutString
 1823              	.L70:
 507:main.c        ****         
 508:main.c        ****             }
 509:main.c        ****             if(acStates != 0x14){
 1824              		.loc 1 509 0
 1825 0038 C64B     		ldr	r3, .L96+8
 1826 003a 1B68     		ldr	r3, [r3]
 1827 003c 142B     		cmp	r3, #20
 1828 003e 2FD0     		beq	.L71
ARM GAS  C:\Users\sergio\AppData\Local\Temp\cc6XWpSt.s 			page 44


 510:main.c        ****                 RelayC_3_Write(1);
 1829              		.loc 1 510 0
 1830 0040 0120     		movs	r0, #1
 1831 0042 FFF7FEFF 		bl	RelayC_3_Write
 511:main.c        ****                 RelayHF_2_Write(1);
 1832              		.loc 1 511 0
 1833 0046 0120     		movs	r0, #1
 1834 0048 FFF7FEFF 		bl	RelayHF_2_Write
 512:main.c        ****                 Comp_out_Write(0);
 1835              		.loc 1 512 0
 1836 004c 0020     		movs	r0, #0
 1837 004e FFF7FEFF 		bl	Comp_out_Write
 513:main.c        ****                 HighF_out_Write(0);
 1838              		.loc 1 513 0
 1839 0052 0020     		movs	r0, #0
 1840 0054 FFF7FEFF 		bl	HighF_out_Write
 514:main.c        ****                    MyUART_PutString("setting up state 14\n");
 1841              		.loc 1 514 0
 1842 0058 C14B     		ldr	r3, .L96+20
 1843 005a 1800     		movs	r0, r3
 1844 005c FFF7FEFF 		bl	MyUART_PutString
 515:main.c        ****                     if(counter == 2){
 1845              		.loc 1 515 0
 1846 0060 BD4B     		ldr	r3, .L96+12
 1847 0062 1B68     		ldr	r3, [r3]
 1848 0064 022B     		cmp	r3, #2
 1849 0066 09D1     		bne	.L72
 516:main.c        ****                         RelayLF_1_Write(0);
 1850              		.loc 1 516 0
 1851 0068 0020     		movs	r0, #0
 1852 006a FFF7FEFF 		bl	RelayLF_1_Write
 517:main.c        ****                         LowF_out_Write(1);
 1853              		.loc 1 517 0
 1854 006e 0120     		movs	r0, #1
 1855 0070 FFF7FEFF 		bl	LowF_out_Write
 518:main.c        ****                         MyUART_PutString("state 14 counter 2\n");
 1856              		.loc 1 518 0
 1857 0074 BB4B     		ldr	r3, .L96+24
 1858 0076 1800     		movs	r0, r3
 1859 0078 FFF7FEFF 		bl	MyUART_PutString
 1860              	.L72:
 519:main.c        ****                     }
 520:main.c        ****                     if(counter == 4){
 1861              		.loc 1 520 0
 1862 007c B64B     		ldr	r3, .L96+12
 1863 007e 1B68     		ldr	r3, [r3]
 1864 0080 042B     		cmp	r3, #4
 1865 0082 27D1     		bne	.L74
 521:main.c        ****                         RelayC_3_Write(0);
 1866              		.loc 1 521 0
 1867 0084 0020     		movs	r0, #0
 1868 0086 FFF7FEFF 		bl	RelayC_3_Write
 522:main.c        ****                         Comp_out_Write(1);
 1869              		.loc 1 522 0
 1870 008a 0120     		movs	r0, #1
 1871 008c FFF7FEFF 		bl	Comp_out_Write
 523:main.c        ****                        // counter = 0;
ARM GAS  C:\Users\sergio\AppData\Local\Temp\cc6XWpSt.s 			page 45


 524:main.c        ****                         acStates = 0x14;
 1872              		.loc 1 524 0
 1873 0090 B04B     		ldr	r3, .L96+8
 1874 0092 1422     		movs	r2, #20
 1875 0094 1A60     		str	r2, [r3]
 525:main.c        ****                         MyUART_PutString("state 14 counter 4\n");
 1876              		.loc 1 525 0
 1877 0096 B44B     		ldr	r3, .L96+28
 1878 0098 1800     		movs	r0, r3
 1879 009a FFF7FEFF 		bl	MyUART_PutString
 1880 009e 19E0     		b	.L74
 1881              	.L71:
 526:main.c        ****                     }
 527:main.c        ****             }
 528:main.c        ****             else{
 529:main.c        ****                if(acStates == 0x14){
 1882              		.loc 1 529 0
 1883 00a0 AC4B     		ldr	r3, .L96+8
 1884 00a2 1B68     		ldr	r3, [r3]
 1885 00a4 142B     		cmp	r3, #20
 1886 00a6 15D1     		bne	.L74
 530:main.c        ****                     RelayHF_2_Write(1);
 1887              		.loc 1 530 0
 1888 00a8 0120     		movs	r0, #1
 1889 00aa FFF7FEFF 		bl	RelayHF_2_Write
 531:main.c        ****                     RelayLF_1_Write(0);
 1890              		.loc 1 531 0
 1891 00ae 0020     		movs	r0, #0
 1892 00b0 FFF7FEFF 		bl	RelayLF_1_Write
 532:main.c        ****                     RelayC_3_Write(0);
 1893              		.loc 1 532 0
 1894 00b4 0020     		movs	r0, #0
 1895 00b6 FFF7FEFF 		bl	RelayC_3_Write
 533:main.c        ****                     
 534:main.c        ****                     HighF_out_Write(0);
 1896              		.loc 1 534 0
 1897 00ba 0020     		movs	r0, #0
 1898 00bc FFF7FEFF 		bl	HighF_out_Write
 535:main.c        ****                     LowF_out_Write(1);
 1899              		.loc 1 535 0
 1900 00c0 0120     		movs	r0, #1
 1901 00c2 FFF7FEFF 		bl	LowF_out_Write
 536:main.c        ****                     Comp_out_Write(1);
 1902              		.loc 1 536 0
 1903 00c6 0120     		movs	r0, #1
 1904 00c8 FFF7FEFF 		bl	Comp_out_Write
 537:main.c        ****                     MyUART_PutString("state 14 already setup\n");
 1905              		.loc 1 537 0
 1906 00cc A74B     		ldr	r3, .L96+32
 1907 00ce 1800     		movs	r0, r3
 1908 00d0 FFF7FEFF 		bl	MyUART_PutString
 1909              	.L74:
 538:main.c        ****                 }
 539:main.c        ****             }
 540:main.c        ****        sprintf(uartStr,"0x14 switch gpio: %x  acstate: %x LF: %d, HF: %d, Comp:%d\n",gpioPins, acSt
 1910              		.loc 1 540 0
 1911 00d4 A64B     		ldr	r3, .L96+36
ARM GAS  C:\Users\sergio\AppData\Local\Temp\cc6XWpSt.s 			page 46


 1912 00d6 1B78     		ldrb	r3, [r3]
 1913 00d8 7B60     		str	r3, [r7, #4]
 1914 00da 9E4B     		ldr	r3, .L96+8
 1915 00dc 1C68     		ldr	r4, [r3]
 541:main.c        ****         RelayLF_1_Read(), RelayHF_2_Read(),RelayC_3_Read());
 1916              		.loc 1 541 0
 1917 00de FFF7FEFF 		bl	RelayLF_1_Read
 1918 00e2 0300     		movs	r3, r0
 540:main.c        ****         RelayLF_1_Read(), RelayHF_2_Read(),RelayC_3_Read());
 1919              		.loc 1 540 0
 1920 00e4 1D00     		movs	r5, r3
 1921              		.loc 1 541 0
 1922 00e6 FFF7FEFF 		bl	RelayHF_2_Read
 1923 00ea 0300     		movs	r3, r0
 540:main.c        ****         RelayLF_1_Read(), RelayHF_2_Read(),RelayC_3_Read());
 1924              		.loc 1 540 0
 1925 00ec 1E00     		movs	r6, r3
 1926              		.loc 1 541 0
 1927 00ee FFF7FEFF 		bl	RelayC_3_Read
 1928 00f2 0300     		movs	r3, r0
 540:main.c        ****         RelayLF_1_Read(), RelayHF_2_Read(),RelayC_3_Read());
 1929              		.loc 1 540 0
 1930 00f4 9F49     		ldr	r1, .L96+40
 1931 00f6 A048     		ldr	r0, .L96+44
 1932 00f8 0293     		str	r3, [sp, #8]
 1933 00fa 0196     		str	r6, [sp, #4]
 1934 00fc 0095     		str	r5, [sp]
 1935 00fe 2300     		movs	r3, r4
 1936 0100 7A68     		ldr	r2, [r7, #4]
 1937 0102 FFF7FEFF 		bl	sprintf
 542:main.c        ****        MyUART_PutString(uartStr);
 1938              		.loc 1 542 0
 1939 0106 9C4B     		ldr	r3, .L96+44
 1940 0108 1800     		movs	r0, r3
 1941 010a FFF7FEFF 		bl	MyUART_PutString
 543:main.c        ****     
 544:main.c        ****             break;
 1942              		.loc 1 544 0
 1943 010e A1E1     		b	.L75
 1944              	.L67:
 545:main.c        ****         
 546:main.c        ****         case 0x0C: //High fan and compressor
 547:main.c        ****              if(acStates != 0x0C && counter >= 5){
 1945              		.loc 1 547 0
 1946 0110 904B     		ldr	r3, .L96+8
 1947 0112 1B68     		ldr	r3, [r3]
 1948 0114 0C2B     		cmp	r3, #12
 1949 0116 06D0     		beq	.L76
 1950              		.loc 1 547 0 is_stmt 0 discriminator 1
 1951 0118 8F4B     		ldr	r3, .L96+12
 1952 011a 1B68     		ldr	r3, [r3]
 1953 011c 042B     		cmp	r3, #4
 1954 011e 02DD     		ble	.L76
 548:main.c        ****                 counter = 0;
 1955              		.loc 1 548 0 is_stmt 1
 1956 0120 8D4B     		ldr	r3, .L96+12
 1957 0122 0022     		movs	r2, #0
ARM GAS  C:\Users\sergio\AppData\Local\Temp\cc6XWpSt.s 			page 47


 1958 0124 1A60     		str	r2, [r3]
 1959              	.L76:
 549:main.c        ****              }
 550:main.c        ****             if(acStates != 0x0C){
 1960              		.loc 1 550 0
 1961 0126 8B4B     		ldr	r3, .L96+8
 1962 0128 1B68     		ldr	r3, [r3]
 1963 012a 0C2B     		cmp	r3, #12
 1964 012c 20D0     		beq	.L77
 551:main.c        ****                 // RelayC_3_Write(1);
 552:main.c        ****                 RelayLF_1_Write(1);
 1965              		.loc 1 552 0
 1966 012e 0120     		movs	r0, #1
 1967 0130 FFF7FEFF 		bl	RelayLF_1_Write
 553:main.c        ****                 Comp_out_Write(0);
 1968              		.loc 1 553 0
 1969 0134 0020     		movs	r0, #0
 1970 0136 FFF7FEFF 		bl	Comp_out_Write
 554:main.c        ****                 LowF_out_Write(0);
 1971              		.loc 1 554 0
 1972 013a 0020     		movs	r0, #0
 1973 013c FFF7FEFF 		bl	LowF_out_Write
 555:main.c        ****                     
 556:main.c        ****                     if(counter == 2){
 1974              		.loc 1 556 0
 1975 0140 854B     		ldr	r3, .L96+12
 1976 0142 1B68     		ldr	r3, [r3]
 1977 0144 022B     		cmp	r3, #2
 1978 0146 05D1     		bne	.L78
 557:main.c        ****                         RelayHF_2_Write(0);
 1979              		.loc 1 557 0
 1980 0148 0020     		movs	r0, #0
 1981 014a FFF7FEFF 		bl	RelayHF_2_Write
 558:main.c        ****                         HighF_out_Write(1);
 1982              		.loc 1 558 0
 1983 014e 0120     		movs	r0, #1
 1984 0150 FFF7FEFF 		bl	HighF_out_Write
 1985              	.L78:
 559:main.c        ****                     }
 560:main.c        ****                     if(counter == 4){
 1986              		.loc 1 560 0
 1987 0154 804B     		ldr	r3, .L96+12
 1988 0156 1B68     		ldr	r3, [r3]
 1989 0158 042B     		cmp	r3, #4
 1990 015a 1FD1     		bne	.L80
 561:main.c        ****                         RelayC_3_Write(0);
 1991              		.loc 1 561 0
 1992 015c 0020     		movs	r0, #0
 1993 015e FFF7FEFF 		bl	RelayC_3_Write
 562:main.c        ****                         Comp_out_Write(1);
 1994              		.loc 1 562 0
 1995 0162 0120     		movs	r0, #1
 1996 0164 FFF7FEFF 		bl	Comp_out_Write
 563:main.c        ****                        // counter = 0;
 564:main.c        ****                         acStates = 0x0C;
 1997              		.loc 1 564 0
 1998 0168 7A4B     		ldr	r3, .L96+8
ARM GAS  C:\Users\sergio\AppData\Local\Temp\cc6XWpSt.s 			page 48


 1999 016a 0C22     		movs	r2, #12
 2000 016c 1A60     		str	r2, [r3]
 2001 016e 15E0     		b	.L80
 2002              	.L77:
 565:main.c        ****                     }
 566:main.c        ****             }
 567:main.c        ****             else{
 568:main.c        ****                if(acStates == 0x0C){
 2003              		.loc 1 568 0
 2004 0170 784B     		ldr	r3, .L96+8
 2005 0172 1B68     		ldr	r3, [r3]
 2006 0174 0C2B     		cmp	r3, #12
 2007 0176 11D1     		bne	.L80
 569:main.c        ****                 RelayLF_1_Write(1);
 2008              		.loc 1 569 0
 2009 0178 0120     		movs	r0, #1
 2010 017a FFF7FEFF 		bl	RelayLF_1_Write
 570:main.c        ****                 RelayHF_2_Write(0);
 2011              		.loc 1 570 0
 2012 017e 0020     		movs	r0, #0
 2013 0180 FFF7FEFF 		bl	RelayHF_2_Write
 571:main.c        ****                 RelayC_3_Write(0);
 2014              		.loc 1 571 0
 2015 0184 0020     		movs	r0, #0
 2016 0186 FFF7FEFF 		bl	RelayC_3_Write
 572:main.c        ****                 
 573:main.c        ****                 LowF_out_Write(0);
 2017              		.loc 1 573 0
 2018 018a 0020     		movs	r0, #0
 2019 018c FFF7FEFF 		bl	LowF_out_Write
 574:main.c        ****                 HighF_out_Write(1);
 2020              		.loc 1 574 0
 2021 0190 0120     		movs	r0, #1
 2022 0192 FFF7FEFF 		bl	HighF_out_Write
 575:main.c        ****                 Comp_out_Write(1);
 2023              		.loc 1 575 0
 2024 0196 0120     		movs	r0, #1
 2025 0198 FFF7FEFF 		bl	Comp_out_Write
 2026              	.L80:
 576:main.c        ****                 }
 577:main.c        ****             }
 578:main.c        ****             sprintf(uartStr,"0x0C switch gpio: %x  acstate: %x LF: %d, HF: %d, Comp:%d\n",gpioPins,
 2027              		.loc 1 578 0
 2028 019c 744B     		ldr	r3, .L96+36
 2029 019e 1B78     		ldrb	r3, [r3]
 2030 01a0 7B60     		str	r3, [r7, #4]
 2031 01a2 6C4B     		ldr	r3, .L96+8
 2032 01a4 1C68     		ldr	r4, [r3]
 579:main.c        ****         RelayLF_1_Read(), RelayHF_2_Read(),RelayC_3_Read());
 2033              		.loc 1 579 0
 2034 01a6 FFF7FEFF 		bl	RelayLF_1_Read
 2035 01aa 0300     		movs	r3, r0
 578:main.c        ****         RelayLF_1_Read(), RelayHF_2_Read(),RelayC_3_Read());
 2036              		.loc 1 578 0
 2037 01ac 1D00     		movs	r5, r3
 2038              		.loc 1 579 0
 2039 01ae FFF7FEFF 		bl	RelayHF_2_Read
ARM GAS  C:\Users\sergio\AppData\Local\Temp\cc6XWpSt.s 			page 49


 2040 01b2 0300     		movs	r3, r0
 578:main.c        ****         RelayLF_1_Read(), RelayHF_2_Read(),RelayC_3_Read());
 2041              		.loc 1 578 0
 2042 01b4 1E00     		movs	r6, r3
 2043              		.loc 1 579 0
 2044 01b6 FFF7FEFF 		bl	RelayC_3_Read
 2045 01ba 0300     		movs	r3, r0
 578:main.c        ****         RelayLF_1_Read(), RelayHF_2_Read(),RelayC_3_Read());
 2046              		.loc 1 578 0
 2047 01bc 6F49     		ldr	r1, .L96+48
 2048 01be 6E48     		ldr	r0, .L96+44
 2049 01c0 0293     		str	r3, [sp, #8]
 2050 01c2 0196     		str	r6, [sp, #4]
 2051 01c4 0095     		str	r5, [sp]
 2052 01c6 2300     		movs	r3, r4
 2053 01c8 7A68     		ldr	r2, [r7, #4]
 2054 01ca FFF7FEFF 		bl	sprintf
 580:main.c        ****             MyUART_PutString(uartStr);
 2055              		.loc 1 580 0
 2056 01ce 6A4B     		ldr	r3, .L96+44
 2057 01d0 1800     		movs	r0, r3
 2058 01d2 FFF7FEFF 		bl	MyUART_PutString
 581:main.c        ****                 break;
 2059              		.loc 1 581 0
 2060 01d6 3DE1     		b	.L75
 2061              	.L66:
 582:main.c        ****         case 0x08:  // high fan
 583:main.c        ****             if(acStates != 0x08 && counter >= 3){
 2062              		.loc 1 583 0
 2063 01d8 5E4B     		ldr	r3, .L96+8
 2064 01da 1B68     		ldr	r3, [r3]
 2065 01dc 082B     		cmp	r3, #8
 2066 01de 06D0     		beq	.L81
 2067              		.loc 1 583 0 is_stmt 0 discriminator 1
 2068 01e0 5D4B     		ldr	r3, .L96+12
 2069 01e2 1B68     		ldr	r3, [r3]
 2070 01e4 022B     		cmp	r3, #2
 2071 01e6 02DD     		ble	.L81
 584:main.c        ****              counter = 0;
 2072              		.loc 1 584 0 is_stmt 1
 2073 01e8 5B4B     		ldr	r3, .L96+12
 2074 01ea 0022     		movs	r2, #0
 2075 01ec 1A60     		str	r2, [r3]
 2076              	.L81:
 585:main.c        ****             }
 586:main.c        ****             if(acStates != 0x08){
 2077              		.loc 1 586 0
 2078 01ee 594B     		ldr	r3, .L96+8
 2079 01f0 1B68     		ldr	r3, [r3]
 2080 01f2 082B     		cmp	r3, #8
 2081 01f4 19D0     		beq	.L82
 587:main.c        ****                 RelayC_3_Write(1);
 2082              		.loc 1 587 0
 2083 01f6 0120     		movs	r0, #1
 2084 01f8 FFF7FEFF 		bl	RelayC_3_Write
 588:main.c        ****                 RelayLF_1_Write(1);
 2085              		.loc 1 588 0
ARM GAS  C:\Users\sergio\AppData\Local\Temp\cc6XWpSt.s 			page 50


 2086 01fc 0120     		movs	r0, #1
 2087 01fe FFF7FEFF 		bl	RelayLF_1_Write
 589:main.c        ****                 
 590:main.c        ****                 LowF_out_Write(0);
 2088              		.loc 1 590 0
 2089 0202 0020     		movs	r0, #0
 2090 0204 FFF7FEFF 		bl	LowF_out_Write
 591:main.c        ****                 Comp_out_Write(0);
 2091              		.loc 1 591 0
 2092 0208 0020     		movs	r0, #0
 2093 020a FFF7FEFF 		bl	Comp_out_Write
 592:main.c        ****                     
 593:main.c        ****                     if(counter == 2){
 2094              		.loc 1 593 0
 2095 020e 524B     		ldr	r3, .L96+12
 2096 0210 1B68     		ldr	r3, [r3]
 2097 0212 022B     		cmp	r3, #2
 2098 0214 1FD1     		bne	.L84
 594:main.c        ****                         RelayHF_2_Write(0);
 2099              		.loc 1 594 0
 2100 0216 0020     		movs	r0, #0
 2101 0218 FFF7FEFF 		bl	RelayHF_2_Write
 595:main.c        ****                         HighF_out_Write(1);
 2102              		.loc 1 595 0
 2103 021c 0120     		movs	r0, #1
 2104 021e FFF7FEFF 		bl	HighF_out_Write
 596:main.c        ****                         acStates = 0x08;
 2105              		.loc 1 596 0
 2106 0222 4C4B     		ldr	r3, .L96+8
 2107 0224 0822     		movs	r2, #8
 2108 0226 1A60     		str	r2, [r3]
 2109 0228 15E0     		b	.L84
 2110              	.L82:
 597:main.c        ****                     }
 598:main.c        ****             }
 599:main.c        ****             else{
 600:main.c        ****                if(acStates == 0x08){
 2111              		.loc 1 600 0
 2112 022a 4A4B     		ldr	r3, .L96+8
 2113 022c 1B68     		ldr	r3, [r3]
 2114 022e 082B     		cmp	r3, #8
 2115 0230 11D1     		bne	.L84
 601:main.c        ****                 RelayC_3_Write(1);
 2116              		.loc 1 601 0
 2117 0232 0120     		movs	r0, #1
 2118 0234 FFF7FEFF 		bl	RelayC_3_Write
 602:main.c        ****                 RelayLF_1_Write(1);
 2119              		.loc 1 602 0
 2120 0238 0120     		movs	r0, #1
 2121 023a FFF7FEFF 		bl	RelayLF_1_Write
 603:main.c        ****                 RelayHF_2_Write(0);
 2122              		.loc 1 603 0
 2123 023e 0020     		movs	r0, #0
 2124 0240 FFF7FEFF 		bl	RelayHF_2_Write
 604:main.c        ****                 
 605:main.c        ****                 Comp_out_Write(0);
 2125              		.loc 1 605 0
ARM GAS  C:\Users\sergio\AppData\Local\Temp\cc6XWpSt.s 			page 51


 2126 0244 0020     		movs	r0, #0
 2127 0246 FFF7FEFF 		bl	Comp_out_Write
 606:main.c        ****                 LowF_out_Write(0);
 2128              		.loc 1 606 0
 2129 024a 0020     		movs	r0, #0
 2130 024c FFF7FEFF 		bl	LowF_out_Write
 607:main.c        ****                 HighF_out_Write(1);
 2131              		.loc 1 607 0
 2132 0250 0120     		movs	r0, #1
 2133 0252 FFF7FEFF 		bl	HighF_out_Write
 2134              	.L84:
 608:main.c        ****                 }
 609:main.c        ****             }
 610:main.c        ****             sprintf(uartStr,"0x08  switch gpio: %x  acstate: %x LF: %d, HF: %d, Comp:%d\n",gpioPins
 2135              		.loc 1 610 0
 2136 0256 464B     		ldr	r3, .L96+36
 2137 0258 1B78     		ldrb	r3, [r3]
 2138 025a 7B60     		str	r3, [r7, #4]
 2139 025c 3D4B     		ldr	r3, .L96+8
 2140 025e 1C68     		ldr	r4, [r3]
 611:main.c        ****         RelayLF_1_Read(), RelayHF_2_Read(),RelayC_3_Read());
 2141              		.loc 1 611 0
 2142 0260 FFF7FEFF 		bl	RelayLF_1_Read
 2143 0264 0300     		movs	r3, r0
 610:main.c        ****         RelayLF_1_Read(), RelayHF_2_Read(),RelayC_3_Read());
 2144              		.loc 1 610 0
 2145 0266 1D00     		movs	r5, r3
 2146              		.loc 1 611 0
 2147 0268 FFF7FEFF 		bl	RelayHF_2_Read
 2148 026c 0300     		movs	r3, r0
 610:main.c        ****         RelayLF_1_Read(), RelayHF_2_Read(),RelayC_3_Read());
 2149              		.loc 1 610 0
 2150 026e 1E00     		movs	r6, r3
 2151              		.loc 1 611 0
 2152 0270 FFF7FEFF 		bl	RelayC_3_Read
 2153 0274 0300     		movs	r3, r0
 610:main.c        ****         RelayLF_1_Read(), RelayHF_2_Read(),RelayC_3_Read());
 2154              		.loc 1 610 0
 2155 0276 4249     		ldr	r1, .L96+52
 2156 0278 3F48     		ldr	r0, .L96+44
 2157 027a 0293     		str	r3, [sp, #8]
 2158 027c 0196     		str	r6, [sp, #4]
 2159 027e 0095     		str	r5, [sp]
 2160 0280 2300     		movs	r3, r4
 2161 0282 7A68     		ldr	r2, [r7, #4]
 2162 0284 FFF7FEFF 		bl	sprintf
 612:main.c        ****             MyUART_PutString(uartStr);
 2163              		.loc 1 612 0
 2164 0288 3B4B     		ldr	r3, .L96+44
 2165 028a 1800     		movs	r0, r3
 2166 028c FFF7FEFF 		bl	MyUART_PutString
 613:main.c        ****                 break;
 2167              		.loc 1 613 0
 2168 0290 E0E0     		b	.L75
 2169              	.L68:
 614:main.c        ****         case 0x10: // low fan
 615:main.c        ****             if(acStates != 0x10 && counter >= 3){
ARM GAS  C:\Users\sergio\AppData\Local\Temp\cc6XWpSt.s 			page 52


 2170              		.loc 1 615 0
 2171 0292 304B     		ldr	r3, .L96+8
 2172 0294 1B68     		ldr	r3, [r3]
 2173 0296 102B     		cmp	r3, #16
 2174 0298 06D0     		beq	.L85
 2175              		.loc 1 615 0 is_stmt 0 discriminator 1
 2176 029a 2F4B     		ldr	r3, .L96+12
 2177 029c 1B68     		ldr	r3, [r3]
 2178 029e 022B     		cmp	r3, #2
 2179 02a0 02DD     		ble	.L85
 616:main.c        ****              counter = 0;
 2180              		.loc 1 616 0 is_stmt 1
 2181 02a2 2D4B     		ldr	r3, .L96+12
 2182 02a4 0022     		movs	r2, #0
 2183 02a6 1A60     		str	r2, [r3]
 2184              	.L85:
 617:main.c        ****             }
 618:main.c        ****             if(acStates != 0x10){
 2185              		.loc 1 618 0
 2186 02a8 2A4B     		ldr	r3, .L96+8
 2187 02aa 1B68     		ldr	r3, [r3]
 2188 02ac 102B     		cmp	r3, #16
 2189 02ae 19D0     		beq	.L86
 619:main.c        ****                 RelayC_3_Write(1);
 2190              		.loc 1 619 0
 2191 02b0 0120     		movs	r0, #1
 2192 02b2 FFF7FEFF 		bl	RelayC_3_Write
 620:main.c        ****                 RelayHF_2_Write(1);
 2193              		.loc 1 620 0
 2194 02b6 0120     		movs	r0, #1
 2195 02b8 FFF7FEFF 		bl	RelayHF_2_Write
 621:main.c        ****                 
 622:main.c        ****                 HighF_out_Write(0);
 2196              		.loc 1 622 0
 2197 02bc 0020     		movs	r0, #0
 2198 02be FFF7FEFF 		bl	HighF_out_Write
 623:main.c        ****                 Comp_out_Write(0);
 2199              		.loc 1 623 0
 2200 02c2 0020     		movs	r0, #0
 2201 02c4 FFF7FEFF 		bl	Comp_out_Write
 624:main.c        ****                     
 625:main.c        ****                 if(counter == 2){
 2202              		.loc 1 625 0
 2203 02c8 234B     		ldr	r3, .L96+12
 2204 02ca 1B68     		ldr	r3, [r3]
 2205 02cc 022B     		cmp	r3, #2
 2206 02ce 1FD1     		bne	.L88
 626:main.c        ****                     RelayLF_1_Write(0);
 2207              		.loc 1 626 0
 2208 02d0 0020     		movs	r0, #0
 2209 02d2 FFF7FEFF 		bl	RelayLF_1_Write
 627:main.c        ****                     LowF_out_Write(1);
 2210              		.loc 1 627 0
 2211 02d6 0120     		movs	r0, #1
 2212 02d8 FFF7FEFF 		bl	LowF_out_Write
 628:main.c        ****                     acStates = 0x10;
 2213              		.loc 1 628 0
ARM GAS  C:\Users\sergio\AppData\Local\Temp\cc6XWpSt.s 			page 53


 2214 02dc 1D4B     		ldr	r3, .L96+8
 2215 02de 1022     		movs	r2, #16
 2216 02e0 1A60     		str	r2, [r3]
 2217 02e2 15E0     		b	.L88
 2218              	.L86:
 629:main.c        ****                 }
 630:main.c        ****             }
 631:main.c        ****             else{
 632:main.c        ****                if(acStates == 0x10){
 2219              		.loc 1 632 0
 2220 02e4 1B4B     		ldr	r3, .L96+8
 2221 02e6 1B68     		ldr	r3, [r3]
 2222 02e8 102B     		cmp	r3, #16
 2223 02ea 11D1     		bne	.L88
 633:main.c        ****                     RelayC_3_Write(1);
 2224              		.loc 1 633 0
 2225 02ec 0120     		movs	r0, #1
 2226 02ee FFF7FEFF 		bl	RelayC_3_Write
 634:main.c        ****                     RelayHF_2_Write(1);
 2227              		.loc 1 634 0
 2228 02f2 0120     		movs	r0, #1
 2229 02f4 FFF7FEFF 		bl	RelayHF_2_Write
 635:main.c        ****                     RelayLF_1_Write(0);
 2230              		.loc 1 635 0
 2231 02f8 0020     		movs	r0, #0
 2232 02fa FFF7FEFF 		bl	RelayLF_1_Write
 636:main.c        ****                     
 637:main.c        ****                      HighF_out_Write(0);
 2233              		.loc 1 637 0
 2234 02fe 0020     		movs	r0, #0
 2235 0300 FFF7FEFF 		bl	HighF_out_Write
 638:main.c        ****                 LowF_out_Write(1);
 2236              		.loc 1 638 0
 2237 0304 0120     		movs	r0, #1
 2238 0306 FFF7FEFF 		bl	LowF_out_Write
 639:main.c        ****                 Comp_out_Write(0);
 2239              		.loc 1 639 0
 2240 030a 0020     		movs	r0, #0
 2241 030c FFF7FEFF 		bl	Comp_out_Write
 2242              	.L88:
 640:main.c        ****                 }
 641:main.c        ****             }
 642:main.c        ****             sprintf(uartStr,"0x10  switch gpio: %x  acstate: %x LF: %d, HF: %d, Comp:%d\n",gpioPins
 2243              		.loc 1 642 0
 2244 0310 174B     		ldr	r3, .L96+36
 2245 0312 1B78     		ldrb	r3, [r3]
 2246 0314 7B60     		str	r3, [r7, #4]
 2247 0316 0F4B     		ldr	r3, .L96+8
 2248 0318 1C68     		ldr	r4, [r3]
 643:main.c        ****             RelayLF_1_Read(), RelayHF_2_Read(),RelayC_3_Read());
 2249              		.loc 1 643 0
 2250 031a FFF7FEFF 		bl	RelayLF_1_Read
 2251 031e 0300     		movs	r3, r0
 642:main.c        ****             RelayLF_1_Read(), RelayHF_2_Read(),RelayC_3_Read());
 2252              		.loc 1 642 0
 2253 0320 1D00     		movs	r5, r3
 2254              		.loc 1 643 0
ARM GAS  C:\Users\sergio\AppData\Local\Temp\cc6XWpSt.s 			page 54


 2255 0322 FFF7FEFF 		bl	RelayHF_2_Read
 2256 0326 0300     		movs	r3, r0
 642:main.c        ****             RelayLF_1_Read(), RelayHF_2_Read(),RelayC_3_Read());
 2257              		.loc 1 642 0
 2258 0328 1E00     		movs	r6, r3
 2259              		.loc 1 643 0
 2260 032a FFF7FEFF 		bl	RelayC_3_Read
 2261 032e 0300     		movs	r3, r0
 642:main.c        ****             RelayLF_1_Read(), RelayHF_2_Read(),RelayC_3_Read());
 2262              		.loc 1 642 0
 2263 0330 1449     		ldr	r1, .L96+56
 2264 0332 1148     		ldr	r0, .L96+44
 2265 0334 0293     		str	r3, [sp, #8]
 2266 0336 0196     		str	r6, [sp, #4]
 2267 0338 0095     		str	r5, [sp]
 2268 033a 2300     		movs	r3, r4
 2269 033c 7A68     		ldr	r2, [r7, #4]
 2270 033e FFF7FEFF 		bl	sprintf
 644:main.c        ****             MyUART_PutString(uartStr);
 2271              		.loc 1 644 0
 2272 0342 0D4B     		ldr	r3, .L96+44
 2273 0344 1800     		movs	r0, r3
 2274 0346 FFF7FEFF 		bl	MyUART_PutString
 645:main.c        ****                 break;
 2275              		.loc 1 645 0
 2276 034a 83E0     		b	.L75
 2277              	.L97:
 2278              		.align	2
 2279              	.L96:
 2280 034c 00000000 		.word	thermoState
 2281 0350 E0010000 		.word	.L65
 2282 0354 00000000 		.word	acStates
 2283 0358 00000000 		.word	counter
 2284 035c 3C000000 		.word	.LC28
 2285 0360 5C000000 		.word	.LC30
 2286 0364 74000000 		.word	.LC32
 2287 0368 88000000 		.word	.LC34
 2288 036c 9C000000 		.word	.LC36
 2289 0370 00000000 		.word	gpioPins
 2290 0374 B4000000 		.word	.LC39
 2291 0378 00000000 		.word	uartStr
 2292 037c F0000000 		.word	.LC42
 2293 0380 2C010000 		.word	.LC44
 2294 0384 68010000 		.word	.LC46
 2295              	.L64:
 646:main.c        ****         case 0x00:
 647:main.c        ****             if(acStates != 0x0 && counter >= 4){
 2296              		.loc 1 647 0
 2297 0388 344B     		ldr	r3, .L98
 2298 038a 1B68     		ldr	r3, [r3]
 2299 038c 002B     		cmp	r3, #0
 2300 038e 06D0     		beq	.L89
 2301              		.loc 1 647 0 is_stmt 0 discriminator 1
 2302 0390 334B     		ldr	r3, .L98+4
 2303 0392 1B68     		ldr	r3, [r3]
 2304 0394 032B     		cmp	r3, #3
 2305 0396 02DD     		ble	.L89
ARM GAS  C:\Users\sergio\AppData\Local\Temp\cc6XWpSt.s 			page 55


 648:main.c        ****                  counter = 0;
 2306              		.loc 1 648 0 is_stmt 1
 2307 0398 314B     		ldr	r3, .L98+4
 2308 039a 0022     		movs	r2, #0
 2309 039c 1A60     		str	r2, [r3]
 2310              	.L89:
 649:main.c        ****             }
 650:main.c        ****             if(acStates != 0x0){
 2311              		.loc 1 650 0
 2312 039e 2F4B     		ldr	r3, .L98
 2313 03a0 1B68     		ldr	r3, [r3]
 2314 03a2 002B     		cmp	r3, #0
 2315 03a4 21D0     		beq	.L90
 651:main.c        ****                 if(counter == 1){
 2316              		.loc 1 651 0
 2317 03a6 2E4B     		ldr	r3, .L98+4
 2318 03a8 1B68     		ldr	r3, [r3]
 2319 03aa 012B     		cmp	r3, #1
 2320 03ac 05D1     		bne	.L91
 652:main.c        ****                     RelayC_3_Write(1);
 2321              		.loc 1 652 0
 2322 03ae 0120     		movs	r0, #1
 2323 03b0 FFF7FEFF 		bl	RelayC_3_Write
 653:main.c        ****                     Comp_out_Write(0);
 2324              		.loc 1 653 0
 2325 03b4 0020     		movs	r0, #0
 2326 03b6 FFF7FEFF 		bl	Comp_out_Write
 2327              	.L91:
 654:main.c        ****                 }
 655:main.c        ****                 if(counter == 2){
 2328              		.loc 1 655 0
 2329 03ba 294B     		ldr	r3, .L98+4
 2330 03bc 1B68     		ldr	r3, [r3]
 2331 03be 022B     		cmp	r3, #2
 2332 03c0 05D1     		bne	.L92
 656:main.c        ****                     RelayHF_2_Write(1);
 2333              		.loc 1 656 0
 2334 03c2 0120     		movs	r0, #1
 2335 03c4 FFF7FEFF 		bl	RelayHF_2_Write
 657:main.c        ****                     HighF_out_Write(0);
 2336              		.loc 1 657 0
 2337 03c8 0020     		movs	r0, #0
 2338 03ca FFF7FEFF 		bl	HighF_out_Write
 2339              	.L92:
 658:main.c        ****                 }
 659:main.c        ****                 if(counter == 3){
 2340              		.loc 1 659 0
 2341 03ce 244B     		ldr	r3, .L98+4
 2342 03d0 1B68     		ldr	r3, [r3]
 2343 03d2 032B     		cmp	r3, #3
 2344 03d4 1FD1     		bne	.L94
 660:main.c        ****                     RelayLF_1_Write(1);
 2345              		.loc 1 660 0
 2346 03d6 0120     		movs	r0, #1
 2347 03d8 FFF7FEFF 		bl	RelayLF_1_Write
 661:main.c        ****                     LowF_out_Write(0);
 2348              		.loc 1 661 0
ARM GAS  C:\Users\sergio\AppData\Local\Temp\cc6XWpSt.s 			page 56


 2349 03dc 0020     		movs	r0, #0
 2350 03de FFF7FEFF 		bl	LowF_out_Write
 662:main.c        ****                     acStates = 0x0;
 2351              		.loc 1 662 0
 2352 03e2 1E4B     		ldr	r3, .L98
 2353 03e4 0022     		movs	r2, #0
 2354 03e6 1A60     		str	r2, [r3]
 2355 03e8 15E0     		b	.L94
 2356              	.L90:
 663:main.c        ****                 }
 664:main.c        ****             }
 665:main.c        ****             else{
 666:main.c        ****                if(acStates == 0x00){
 2357              		.loc 1 666 0
 2358 03ea 1C4B     		ldr	r3, .L98
 2359 03ec 1B68     		ldr	r3, [r3]
 2360 03ee 002B     		cmp	r3, #0
 2361 03f0 11D1     		bne	.L94
 667:main.c        ****                     RelayC_3_Write(1);
 2362              		.loc 1 667 0
 2363 03f2 0120     		movs	r0, #1
 2364 03f4 FFF7FEFF 		bl	RelayC_3_Write
 668:main.c        ****                     RelayHF_2_Write(1);
 2365              		.loc 1 668 0
 2366 03f8 0120     		movs	r0, #1
 2367 03fa FFF7FEFF 		bl	RelayHF_2_Write
 669:main.c        ****                     RelayLF_1_Write(1);
 2368              		.loc 1 669 0
 2369 03fe 0120     		movs	r0, #1
 2370 0400 FFF7FEFF 		bl	RelayLF_1_Write
 670:main.c        ****                     
 671:main.c        ****                     HighF_out_Write(0);
 2371              		.loc 1 671 0
 2372 0404 0020     		movs	r0, #0
 2373 0406 FFF7FEFF 		bl	HighF_out_Write
 672:main.c        ****                     LowF_out_Write(0);
 2374              		.loc 1 672 0
 2375 040a 0020     		movs	r0, #0
 2376 040c FFF7FEFF 		bl	LowF_out_Write
 673:main.c        ****                     Comp_out_Write(0);
 2377              		.loc 1 673 0
 2378 0410 0020     		movs	r0, #0
 2379 0412 FFF7FEFF 		bl	Comp_out_Write
 2380              	.L94:
 674:main.c        ****                 }
 675:main.c        ****             }
 676:main.c        ****             
 677:main.c        ****             sprintf(uartStr,"0x00  switch gpio: %x  acstate: %x LF: %d, HF: %d, Comp:%d\n",gpioPins
 2381              		.loc 1 677 0
 2382 0416 134B     		ldr	r3, .L98+8
 2383 0418 1B78     		ldrb	r3, [r3]
 2384 041a 7B60     		str	r3, [r7, #4]
 2385 041c 0F4B     		ldr	r3, .L98
 2386 041e 1C68     		ldr	r4, [r3]
 678:main.c        ****             RelayLF_1_Read(), RelayHF_2_Read(),RelayC_3_Read());
 2387              		.loc 1 678 0
 2388 0420 FFF7FEFF 		bl	RelayLF_1_Read
ARM GAS  C:\Users\sergio\AppData\Local\Temp\cc6XWpSt.s 			page 57


 2389 0424 0300     		movs	r3, r0
 677:main.c        ****             RelayLF_1_Read(), RelayHF_2_Read(),RelayC_3_Read());
 2390              		.loc 1 677 0
 2391 0426 1D00     		movs	r5, r3
 2392              		.loc 1 678 0
 2393 0428 FFF7FEFF 		bl	RelayHF_2_Read
 2394 042c 0300     		movs	r3, r0
 677:main.c        ****             RelayLF_1_Read(), RelayHF_2_Read(),RelayC_3_Read());
 2395              		.loc 1 677 0
 2396 042e 1E00     		movs	r6, r3
 2397              		.loc 1 678 0
 2398 0430 FFF7FEFF 		bl	RelayC_3_Read
 2399 0434 0300     		movs	r3, r0
 677:main.c        ****             RelayLF_1_Read(), RelayHF_2_Read(),RelayC_3_Read());
 2400              		.loc 1 677 0
 2401 0436 0C49     		ldr	r1, .L98+12
 2402 0438 0C48     		ldr	r0, .L98+16
 2403 043a 0293     		str	r3, [sp, #8]
 2404 043c 0196     		str	r6, [sp, #4]
 2405 043e 0095     		str	r5, [sp]
 2406 0440 2300     		movs	r3, r4
 2407 0442 7A68     		ldr	r2, [r7, #4]
 2408 0444 FFF7FEFF 		bl	sprintf
 679:main.c        ****             MyUART_PutString(uartStr);
 2409              		.loc 1 679 0
 2410 0448 084B     		ldr	r3, .L98+16
 2411 044a 1800     		movs	r0, r3
 2412 044c FFF7FEFF 		bl	MyUART_PutString
 680:main.c        ****             
 681:main.c        ****             break;  
 2413              		.loc 1 681 0
 2414 0450 00E0     		b	.L75
 2415              	.L95:
 682:main.c        ****         default:
 683:main.c        ****             break;
 2416              		.loc 1 683 0
 2417 0452 C046     		nop
 2418              	.L75:
 684:main.c        ****     }
 685:main.c        **** 
 686:main.c        **** }
 2419              		.loc 1 686 0
 2420 0454 C046     		nop
 2421 0456 BD46     		mov	sp, r7
 2422 0458 03B0     		add	sp, sp, #12
 2423              		@ sp needed
 2424 045a F0BD     		pop	{r4, r5, r6, r7, pc}
 2425              	.L99:
 2426              		.align	2
 2427              	.L98:
 2428 045c 00000000 		.word	acStates
 2429 0460 00000000 		.word	counter
 2430 0464 00000000 		.word	gpioPins
 2431 0468 A4010000 		.word	.LC48
 2432 046c 00000000 		.word	uartStr
 2433              		.cfi_endproc
 2434              	.LFE51:
ARM GAS  C:\Users\sergio\AppData\Local\Temp\cc6XWpSt.s 			page 58


 2435              		.size	run_ac, .-run_ac
 2436              		.section	.rodata
 2437              		.align	2
 2438              	.LC57:
 2439 0234 72656164 		.ascii	"reading error\012\000"
 2439      696E6720 
 2439      6572726F 
 2439      720A00
 2440 0243 00       		.align	2
 2441              	.LC60:
 2442 0244 636F756E 		.ascii	"counter: %d\012\012 status start: %d\012 ID: %x\012"
 2442      7465723A 
 2442      2025640A 
 2442      0A207374 
 2442      61747573 
 2443 026b 00       		.ascii	"\000"
 2444              		.align	2
 2445              	.LC65:
 2446 026c 53656E73 		.ascii	"Sensor 1 temperature is %d\012\000"
 2446      6F722031 
 2446      2074656D 
 2446      70657261 
 2446      74757265 
 2447              		.align	2
 2448              	.LC67:
 2449 0288 53656E73 		.ascii	"Sensor 1 Remote temperature 1 is %d \012\000"
 2449      6F722031 
 2449      2052656D 
 2449      6F746520 
 2449      74656D70 
 2450 02ae 0000     		.align	2
 2451              	.LC69:
 2452 02b0 53656E73 		.ascii	"Sensor 1 Remote temperature 2 is %d \012\000"
 2452      6F722031 
 2452      2052656D 
 2452      6F746520 
 2452      74656D70 
 2453 02d6 0000     		.align	2
 2454              	.LC71:
 2455 02d8 0A0A544D 		.ascii	"\012\012TMP432B           ID: %x\012\000"
 2455      50343332 
 2455      42202020 
 2455      20202020 
 2455      20202020 
 2456              		.align	2
 2457              	.LC75:
 2458 02f4 53656E73 		.ascii	"Sensor 2 temperature is %d\012\000"
 2458      6F722032 
 2458      2074656D 
 2458      70657261 
 2458      74757265 
 2459              		.align	2
 2460              	.LC77:
 2461 0310 53656E73 		.ascii	"Sensor 2 Remote temperature 1 is %d \012\000"
 2461      6F722032 
 2461      2052656D 
 2461      6F746520 
ARM GAS  C:\Users\sergio\AppData\Local\Temp\cc6XWpSt.s 			page 59


 2461      74656D70 
 2462 0336 0000     		.align	2
 2463              	.LC79:
 2464 0338 53656E73 		.ascii	"Sensor 2 Remote temperature 2 is %d \012\012\012\012"
 2464      6F722032 
 2464      2052656D 
 2464      6F746520 
 2464      74656D70 
 2465 0360 00       		.ascii	"\000"
 2466 0361 000000   		.align	2
 2467              	.LC81:
 2468 0364 0A583A20 		.ascii	"\012X: %d %d    12 bit x: %d\012\000"
 2468      25642025 
 2468      64202020 
 2468      20313220 
 2468      62697420 
 2469 037f 00       		.align	2
 2470              	.LC83:
 2471 0380 793A2025 		.ascii	"y: %d %d      12 bit y: %d\012\000"
 2471      64202564 
 2471      20202020 
 2471      20203132 
 2471      20626974 
 2472              		.align	2
 2473              	.LC85:
 2474 039c 5A3A2025 		.ascii	"Z: %d %d      12 bit z: %d\012\012\012\000"
 2474      64202564 
 2474      20202020 
 2474      20203132 
 2474      20626974 
 2475 03ba 0000     		.align	2
 2476              	.LC89:
 2477 03bc 0A546865 		.ascii	"\012Thermostast pins are 0x%x thermoState %x com %d"
 2477      726D6F73 
 2477      74617374 
 2477      2070696E 
 2477      73206172 
 2478 03ec 2C204C66 		.ascii	", Lf %d, Hf %d\012\012\000"
 2478      2025642C 
 2478      20486620 
 2478      25640A0A 
 2478      00
 2479              		.section	.text.main,"ax",%progbits
 2480              		.align	2
 2481              		.global	main
 2482              		.code	16
 2483              		.thumb_func
 2484              		.type	main, %function
 2485              	main:
 2486              	.LFB52:
 687:main.c        **** 
 688:main.c        **** int main (void)
 689:main.c        **** {
 2487              		.loc 1 689 0
 2488              		.cfi_startproc
 2489              		@ args = 0, pretend = 0, frame = 72
 2490              		@ frame_needed = 1, uses_anonymous_args = 0
ARM GAS  C:\Users\sergio\AppData\Local\Temp\cc6XWpSt.s 			page 60


 2491 0000 F0B5     		push	{r4, r5, r6, r7, lr}
 2492              		.cfi_def_cfa_offset 20
 2493              		.cfi_offset 4, -20
 2494              		.cfi_offset 5, -16
 2495              		.cfi_offset 6, -12
 2496              		.cfi_offset 7, -8
 2497              		.cfi_offset 14, -4
 2498 0002 97B0     		sub	sp, sp, #92
 2499              		.cfi_def_cfa_offset 112
 2500 0004 04AF     		add	r7, sp, #16
 2501              		.cfi_def_cfa 7, 96
 690:main.c        ****     /* Place your initialization/startup code here (e.g. MyInst_Start()) */
 691:main.c        **** 
 692:main.c        ****      CyGlobalIntEnable;  /* Uncomment this line to enable global interrupts. */
 2502              		.loc 1 692 0
 2503              		.syntax divided
 2504              	@ 692 "main.c" 1
 2505 0006 62B6     		CPSIE   i
 2506              	@ 0 "" 2
 693:main.c        ****             
 694:main.c        ****     CEPIN_Write(1);
 2507              		.loc 1 694 0
 2508              		.thumb
 2509              		.syntax unified
 2510 0008 0120     		movs	r0, #1
 2511 000a FFF7FEFF 		bl	CEPIN_Write
 695:main.c        ****     
 696:main.c        ****     
 697:main.c        ****     RED_Write(0);
 2512              		.loc 1 697 0
 2513 000e 0020     		movs	r0, #0
 2514 0010 FFF7FEFF 		bl	RED_Write
 698:main.c        ****     GREEN_Write(0);
 2515              		.loc 1 698 0
 2516 0014 0020     		movs	r0, #0
 2517 0016 FFF7FEFF 		bl	GREEN_Write
 699:main.c        ****     BLUE_Write(0);
 2518              		.loc 1 699 0
 2519 001a 0020     		movs	r0, #0
 2520 001c FFF7FEFF 		bl	BLUE_Write
 700:main.c        ****     CyDelay(500);
 2521              		.loc 1 700 0
 2522 0020 FA23     		movs	r3, #250
 2523 0022 5B00     		lsls	r3, r3, #1
 2524 0024 1800     		movs	r0, r3
 2525 0026 FFF7FEFF 		bl	CyDelay
 701:main.c        ****     RED_Write(1);
 2526              		.loc 1 701 0
 2527 002a 0120     		movs	r0, #1
 2528 002c FFF7FEFF 		bl	RED_Write
 702:main.c        ****     GREEN_Write(1);
 2529              		.loc 1 702 0
 2530 0030 0120     		movs	r0, #1
 2531 0032 FFF7FEFF 		bl	GREEN_Write
 703:main.c        ****     BLUE_Write(1);
 2532              		.loc 1 703 0
 2533 0036 0120     		movs	r0, #1
ARM GAS  C:\Users\sergio\AppData\Local\Temp\cc6XWpSt.s 			page 61


 2534 0038 FFF7FEFF 		bl	BLUE_Write
 704:main.c        ****     
 705:main.c        ****     I2C_1_Start();
 2535              		.loc 1 705 0
 2536 003c FFF7FEFF 		bl	I2C_1_Start
 706:main.c        ****     
 707:main.c        ****     MyUART_Start();
 2537              		.loc 1 707 0
 2538 0040 FFF7FEFF 		bl	MyUART_Start
 708:main.c        ****     
 709:main.c        ****     MyADC_Start();
 2539              		.loc 1 709 0
 2540 0044 FFF7FEFF 		bl	MyADC_Start
 710:main.c        ****     
 711:main.c        ****     MyADC_StartConvert();
 2541              		.loc 1 711 0
 2542 0048 FFF7FEFF 		bl	MyADC_StartConvert
 712:main.c        ****     
 713:main.c        ****     // call after I2C have been initiated
 714:main.c        ****     configure_temperature_sensor2();
 2543              		.loc 1 714 0
 2544 004c FFF7FEFF 		bl	configure_temperature_sensor2
 715:main.c        ****     configure_temperature_sensor1();
 2545              		.loc 1 715 0
 2546 0050 FFF7FEFF 		bl	configure_temperature_sensor1
 716:main.c        ****     initialized_input_gpioExp();
 2547              		.loc 1 716 0
 2548 0054 FFF7FEFF 		bl	initialized_input_gpioExp
 717:main.c        ****     
 718:main.c        ****     // only need to calibrate the firt time the board is ever used
 719:main.c        **** //   auto_calibrate_gain(ADDR_POWER1);
 720:main.c        **** //    auto_calibrate_gain(ADDR_POWER2);
 721:main.c        **** //    auto_calibrate_gain(ADDR_POWER3);
 722:main.c        ****     
 723:main.c        ****     // start BLE
 724:main.c        ****     CyBle_Start(bleStack);
 2549              		.loc 1 724 0
 2550 0058 FA4B     		ldr	r3, .L131
 2551 005a 1800     		movs	r0, r3
 2552 005c FFF7FEFF 		bl	CyBle_Start
 725:main.c        ****     
 726:main.c        ****     // 1sec interrupt
 727:main.c        ****     CySysWdtEnable(CY_SYS_WDT_COUNTER2);
 2553              		.loc 1 727 0
 2554 0060 0220     		movs	r0, #2
 2555 0062 FFF7FEFF 		bl	CySysWdtEnable
 728:main.c        ****     int_1_StartEx(my_interrupt);
 2556              		.loc 1 728 0
 2557 0066 F84B     		ldr	r3, .L131+4
 2558 0068 1800     		movs	r0, r3
 2559 006a FFF7FEFF 		bl	int_1_StartEx
 729:main.c        ****     
 730:main.c        ****     RelayLF_1_Write(1);
 2560              		.loc 1 730 0
 2561 006e 0120     		movs	r0, #1
 2562 0070 FFF7FEFF 		bl	RelayLF_1_Write
 731:main.c        ****     HighF_out_Write(1);
ARM GAS  C:\Users\sergio\AppData\Local\Temp\cc6XWpSt.s 			page 62


 2563              		.loc 1 731 0
 2564 0074 0120     		movs	r0, #1
 2565 0076 FFF7FEFF 		bl	HighF_out_Write
 732:main.c        ****     
 733:main.c        ****     RelayHF_2_Write(1);
 2566              		.loc 1 733 0
 2567 007a 0120     		movs	r0, #1
 2568 007c FFF7FEFF 		bl	RelayHF_2_Write
 734:main.c        ****     LowF_out_Write(1);
 2569              		.loc 1 734 0
 2570 0080 0120     		movs	r0, #1
 2571 0082 FFF7FEFF 		bl	LowF_out_Write
 735:main.c        ****     
 736:main.c        ****     RelayC_3_Write(1);
 2572              		.loc 1 736 0
 2573 0086 0120     		movs	r0, #1
 2574 0088 FFF7FEFF 		bl	RelayC_3_Write
 737:main.c        ****     Comp_out_Write(1);
 2575              		.loc 1 737 0
 2576 008c 0120     		movs	r0, #1
 2577 008e FFF7FEFF 		bl	Comp_out_Write
 738:main.c        ****     
 739:main.c        **** acStates = 0u;
 2578              		.loc 1 739 0
 2579 0092 EE4B     		ldr	r3, .L131+8
 2580 0094 0022     		movs	r2, #0
 2581 0096 1A60     		str	r2, [r3]
 740:main.c        **** thermoState = 0u;
 2582              		.loc 1 740 0
 2583 0098 ED4B     		ldr	r3, .L131+12
 2584 009a 0022     		movs	r2, #0
 2585 009c 1A70     		strb	r2, [r3]
 741:main.c        **** 
 742:main.c        ****     
 743:main.c        **** //uint8 temp1 = 0;
 744:main.c        **** //uint8 tempR1 = 0;
 745:main.c        **** //uint8 tempR2 = 0;
 746:main.c        ****  uint8_t temp2 = 0;
 2586              		.loc 1 746 0
 2587 009e 3F23     		movs	r3, #63
 2588 00a0 FB18     		adds	r3, r7, r3
 2589 00a2 0022     		movs	r2, #0
 2590 00a4 1A70     		strb	r2, [r3]
 747:main.c        **** //uint8_t tempR12 = 0;    
 748:main.c        **** //uint8_t tempR22 = 0;
 749:main.c        ****    // volatile thermostatData thermo;
 750:main.c        ****    // volatile dataCollected sensorData;
 751:main.c        **** thermo.setTemperature = 0;
 2591              		.loc 1 751 0
 2592 00a6 EB4B     		ldr	r3, .L131+16
 2593 00a8 0022     		movs	r2, #0
 2594 00aa DA70     		strb	r2, [r3, #3]
 752:main.c        **** thermo.ambientTemp = 0;
 2595              		.loc 1 752 0
 2596 00ac E94B     		ldr	r3, .L131+16
 2597 00ae 0022     		movs	r2, #0
 2598 00b0 1A71     		strb	r2, [r3, #4]
ARM GAS  C:\Users\sergio\AppData\Local\Temp\cc6XWpSt.s 			page 63


 753:main.c        ****  uint8 comp = 0u;
 2599              		.loc 1 753 0
 2600 00b2 4723     		movs	r3, #71
 2601 00b4 FB18     		adds	r3, r7, r3
 2602 00b6 0022     		movs	r2, #0
 2603 00b8 1A70     		strb	r2, [r3]
 754:main.c        ****  uint8 fanL = 0u;
 2604              		.loc 1 754 0
 2605 00ba 4623     		movs	r3, #70
 2606 00bc FB18     		adds	r3, r7, r3
 2607 00be 0022     		movs	r2, #0
 2608 00c0 1A70     		strb	r2, [r3]
 755:main.c        ****  uint8 fanH = 0u;
 2609              		.loc 1 755 0
 2610 00c2 4523     		movs	r3, #69
 2611 00c4 FB18     		adds	r3, r7, r3
 2612 00c6 0022     		movs	r2, #0
 2613 00c8 1A70     		strb	r2, [r3]
 2614              	.L129:
 756:main.c        ****     
 757:main.c        **** 
 758:main.c        ****     
 759:main.c        ****     for(;;){
 760:main.c        **** 
 761:main.c        ****  if(interruptFlag == 1){
 2615              		.loc 1 761 0
 2616 00ca E34B     		ldr	r3, .L131+20
 2617 00cc 1B68     		ldr	r3, [r3]
 2618 00ce 012B     		cmp	r3, #1
 2619 00d0 00D0     		beq	.LCB1984
 2620 00d2 E8E2     		b	.L101	@long jump
 2621              	.LCB1984:
 2622              	.LBB5:
 762:main.c        ****     
 763:main.c        **** //    if(MyADC_IsEndConversion(MyADC_RETURN_STATUS)){
 764:main.c        **** //        adcRead = MyADC_GetResult16(0);
 765:main.c        **** ////    
 766:main.c        **** //    sprintf(uartStr, "*-*-*-*-*-*-*-*-  ADC is: %d -*-*-*-*-*-*-*-*-\n", adcRead);
 767:main.c        **** //    MyUART_PutString(uartStr);
 768:main.c        **** //    }
 769:main.c        **** //    
 770:main.c        ****   // if(adcRead < 1300){
 771:main.c        ****    // if(adcRead < 1501){
 772:main.c        ****        //CEPIN_Write(0);
 773:main.c        ****     // }
 774:main.c        ****   // }
 775:main.c        ****     //else if(adcRead > 1500){
 776:main.c        ****      //  CEPIN_Write(1);
 777:main.c        ****        
 778:main.c        ****     volatile uint8 read_buff[2] = {0,0};
 2623              		.loc 1 778 0
 2624 00d4 3C23     		movs	r3, #60
 2625 00d6 FB18     		adds	r3, r7, r3
 2626 00d8 0022     		movs	r2, #0
 2627 00da 1A70     		strb	r2, [r3]
 2628 00dc 3C23     		movs	r3, #60
 2629 00de FB18     		adds	r3, r7, r3
ARM GAS  C:\Users\sergio\AppData\Local\Temp\cc6XWpSt.s 			page 64


 2630 00e0 0022     		movs	r2, #0
 2631 00e2 5A70     		strb	r2, [r3, #1]
 779:main.c        ****     
 780:main.c        ****         int statusStart = 0;
 2632              		.loc 1 780 0
 2633 00e4 0023     		movs	r3, #0
 2634 00e6 3B64     		str	r3, [r7, #64]
 781:main.c        **** 
 782:main.c        ****         
 783:main.c        ****     // -----------------------read temperatures--------------------------------------
 784:main.c        ****     char str[50];
 785:main.c        ****     
 786:main.c        **** //   ID  TMP432A
 787:main.c        **** 
 788:main.c        ****   I2C_1_I2CMasterSendStart(0x4C, I2C_1_I2C_WRITE_XFER_MODE, 0);
 2635              		.loc 1 788 0
 2636 00e8 0022     		movs	r2, #0
 2637 00ea 0021     		movs	r1, #0
 2638 00ec 4C20     		movs	r0, #76
 2639 00ee FFF7FEFF 		bl	I2C_1_I2CMasterSendStart
 789:main.c        **** if ((I2C_1_I2CMasterStatus() & I2C_1_I2C_MSTAT_ERR_ADDR_NAK)==1){ MyUART_PutString("slave NACK addr
 2640              		.loc 1 789 0
 2641 00f2 FFF7FEFF 		bl	I2C_1_I2CMasterStatus
 790:main.c        ****    I2C_1_I2CMasterWriteByte(0xFD, 0); // check ID 
 2642              		.loc 1 790 0
 2643 00f6 0021     		movs	r1, #0
 2644 00f8 FD20     		movs	r0, #253
 2645 00fa FFF7FEFF 		bl	I2C_1_I2CMasterWriteByte
 791:main.c        **** if ((I2C_1_I2CMasterStatus() & I2C_1_I2C_MSTAT_WR_CMPLT)==1){ MyUART_PutString("writing error\n");}
 2646              		.loc 1 791 0
 2647 00fe FFF7FEFF 		bl	I2C_1_I2CMasterStatus
 792:main.c        ****    I2C_1_I2CMasterSendRestart(0x4C,I2C_1_I2C_READ_XFER_MODE, 0);
 2648              		.loc 1 792 0
 2649 0102 0022     		movs	r2, #0
 2650 0104 0121     		movs	r1, #1
 2651 0106 4C20     		movs	r0, #76
 2652 0108 FFF7FEFF 		bl	I2C_1_I2CMasterSendRestart
 793:main.c        **** 
 794:main.c        ****    I2C_1_I2CMasterReadByte(I2C_1_I2C_NAK_DATA,(uint8 *) &thermo.ambientTemp, 0);
 2653              		.loc 1 794 0
 2654 010c D34B     		ldr	r3, .L131+24
 2655 010e 0022     		movs	r2, #0
 2656 0110 1900     		movs	r1, r3
 2657 0112 0120     		movs	r0, #1
 2658 0114 FFF7FEFF 		bl	I2C_1_I2CMasterReadByte
 795:main.c        **** if ((I2C_1_I2CMasterStatus() & I2C_1_I2C_MSTAT_RD_CMPLT)==1){ MyUART_PutString("reading error\n");}
 2659              		.loc 1 795 0
 2660 0118 FFF7FEFF 		bl	I2C_1_I2CMasterStatus
 2661 011c 0200     		movs	r2, r0
 2662 011e 0123     		movs	r3, #1
 2663 0120 1340     		ands	r3, r2
 2664 0122 03D0     		beq	.L102
 2665              		.loc 1 795 0 is_stmt 0 discriminator 1
 2666 0124 CE4B     		ldr	r3, .L131+28
 2667 0126 1800     		movs	r0, r3
 2668 0128 FFF7FEFF 		bl	MyUART_PutString
 2669              	.L102:
ARM GAS  C:\Users\sergio\AppData\Local\Temp\cc6XWpSt.s 			page 65


 796:main.c        ****    I2C_1_I2CMasterSendStop(0);
 2670              		.loc 1 796 0 is_stmt 1
 2671 012c 0020     		movs	r0, #0
 2672 012e FFF7FEFF 		bl	I2C_1_I2CMasterSendStop
 797:main.c        **** 
 798:main.c        **** 
 799:main.c        ****   sprintf(str, "counter: %d\n\n status start: %d\n ID: %x\n", counter,statusStart, thermo.ambientTe
 2673              		.loc 1 799 0
 2674 0132 CC4B     		ldr	r3, .L131+32
 2675 0134 1A68     		ldr	r2, [r3]
 2676 0136 C74B     		ldr	r3, .L131+16
 2677 0138 1B79     		ldrb	r3, [r3, #4]
 2678 013a 1C00     		movs	r4, r3
 2679 013c 3B6C     		ldr	r3, [r7, #64]
 2680 013e CA49     		ldr	r1, .L131+36
 2681 0140 381D     		adds	r0, r7, #4
 2682 0142 0094     		str	r4, [sp]
 2683 0144 FFF7FEFF 		bl	sprintf
 800:main.c        ****     MyUART_PutString(str);
 2684              		.loc 1 800 0
 2685 0148 3B1D     		adds	r3, r7, #4
 2686 014a 1800     		movs	r0, r3
 2687 014c FFF7FEFF 		bl	MyUART_PutString
 801:main.c        ****     
 802:main.c        **** //    
 803:main.c        **** //  READ local sensor  TMP432A
 804:main.c        ****     I2C_1_I2CMasterSendStart(0x4C, I2C_1_I2C_WRITE_XFER_MODE, 0u);
 2688              		.loc 1 804 0
 2689 0150 0022     		movs	r2, #0
 2690 0152 0021     		movs	r1, #0
 2691 0154 4C20     		movs	r0, #76
 2692 0156 FFF7FEFF 		bl	I2C_1_I2CMasterSendStart
 805:main.c        ****    I2C_1_I2CMasterWriteByte(0x00, 0u);
 2693              		.loc 1 805 0
 2694 015a 0021     		movs	r1, #0
 2695 015c 0020     		movs	r0, #0
 2696 015e FFF7FEFF 		bl	I2C_1_I2CMasterWriteByte
 806:main.c        ****    I2C_1_I2CMasterSendRestart(0x4C,I2C_1_I2C_READ_XFER_MODE, 0u);
 2697              		.loc 1 806 0
 2698 0162 0022     		movs	r2, #0
 2699 0164 0121     		movs	r1, #1
 2700 0166 4C20     		movs	r0, #76
 2701 0168 FFF7FEFF 		bl	I2C_1_I2CMasterSendRestart
 807:main.c        ****    //I2C_1_I2CMasterReadByte(I2C_1_I2C_ACK_DATA,(uint8 *) &read_buff[0],100u);
 808:main.c        ****    I2C_1_I2CMasterReadByte(I2C_1_I2C_NAK_DATA,(uint8 *) &sensorData.localTemp,0u);
 2702              		.loc 1 808 0
 2703 016c BF4B     		ldr	r3, .L131+40
 2704 016e 0022     		movs	r2, #0
 2705 0170 1900     		movs	r1, r3
 2706 0172 0120     		movs	r0, #1
 2707 0174 FFF7FEFF 		bl	I2C_1_I2CMasterReadByte
 809:main.c        ****    I2C_1_I2CMasterSendStop(0u);
 2708              		.loc 1 809 0
 2709 0178 0020     		movs	r0, #0
 2710 017a FFF7FEFF 		bl	I2C_1_I2CMasterSendStop
 810:main.c        ****     
 811:main.c        **** ////  READ remote sensor 1 TMP432A    hot side exp valve
ARM GAS  C:\Users\sergio\AppData\Local\Temp\cc6XWpSt.s 			page 66


 812:main.c        ****   I2C_1_I2CMasterSendStart(0x4C, I2C_1_I2C_WRITE_XFER_MODE, 0u);
 2711              		.loc 1 812 0
 2712 017e 0022     		movs	r2, #0
 2713 0180 0021     		movs	r1, #0
 2714 0182 4C20     		movs	r0, #76
 2715 0184 FFF7FEFF 		bl	I2C_1_I2CMasterSendStart
 813:main.c        ****    I2C_1_I2CMasterWriteByte(0x01, 0u);
 2716              		.loc 1 813 0
 2717 0188 0021     		movs	r1, #0
 2718 018a 0120     		movs	r0, #1
 2719 018c FFF7FEFF 		bl	I2C_1_I2CMasterWriteByte
 814:main.c        ****    I2C_1_I2CMasterSendRestart(0x4C,I2C_1_I2C_READ_XFER_MODE, 0u);
 2720              		.loc 1 814 0
 2721 0190 0022     		movs	r2, #0
 2722 0192 0121     		movs	r1, #1
 2723 0194 4C20     		movs	r0, #76
 2724 0196 FFF7FEFF 		bl	I2C_1_I2CMasterSendRestart
 815:main.c        ****    //I2C_1_I2CMasterReadByte(I2C_1_I2C_ACK_DATA,(uint8 *) &read_buff[0],100u);
 816:main.c        ****    I2C_1_I2CMasterReadByte(I2C_1_I2C_NAK_DATA,(uint8 *) &sensorData.remoteTemp1,0u);
 2725              		.loc 1 816 0
 2726 019a B54B     		ldr	r3, .L131+44
 2727 019c 0022     		movs	r2, #0
 2728 019e 1900     		movs	r1, r3
 2729 01a0 0120     		movs	r0, #1
 2730 01a2 FFF7FEFF 		bl	I2C_1_I2CMasterReadByte
 817:main.c        ****    I2C_1_I2CMasterSendStop(0u);
 2731              		.loc 1 817 0
 2732 01a6 0020     		movs	r0, #0
 2733 01a8 FFF7FEFF 		bl	I2C_1_I2CMasterSendStop
 818:main.c        **** //
 819:main.c        **** //
 820:main.c        **** ////  READ remote sensor 2   TMP432A   hot side evaporator
 821:main.c        ****   I2C_1_I2CMasterSendStart(0x4C, I2C_1_I2C_WRITE_XFER_MODE, 0u);
 2734              		.loc 1 821 0
 2735 01ac 0022     		movs	r2, #0
 2736 01ae 0021     		movs	r1, #0
 2737 01b0 4C20     		movs	r0, #76
 2738 01b2 FFF7FEFF 		bl	I2C_1_I2CMasterSendStart
 822:main.c        ****    I2C_1_I2CMasterWriteByte(0x23, 0u);
 2739              		.loc 1 822 0
 2740 01b6 0021     		movs	r1, #0
 2741 01b8 2320     		movs	r0, #35
 2742 01ba FFF7FEFF 		bl	I2C_1_I2CMasterWriteByte
 823:main.c        ****    I2C_1_I2CMasterSendRestart(0x4C,I2C_1_I2C_READ_XFER_MODE, 0u);
 2743              		.loc 1 823 0
 2744 01be 0022     		movs	r2, #0
 2745 01c0 0121     		movs	r1, #1
 2746 01c2 4C20     		movs	r0, #76
 2747 01c4 FFF7FEFF 		bl	I2C_1_I2CMasterSendRestart
 824:main.c        ****    //I2C_1_I2CMasterReadByte(I2C_1_I2C_ACK_DATA,(uint8 *) &read_buff[0],100u);
 825:main.c        ****    I2C_1_I2CMasterReadByte(I2C_1_I2C_NAK_DATA,(uint8 *) &sensorData.remoteTemp2,0u);
 2748              		.loc 1 825 0
 2749 01c8 AA4B     		ldr	r3, .L131+48
 2750 01ca 0022     		movs	r2, #0
 2751 01cc 1900     		movs	r1, r3
 2752 01ce 0120     		movs	r0, #1
 2753 01d0 FFF7FEFF 		bl	I2C_1_I2CMasterReadByte
ARM GAS  C:\Users\sergio\AppData\Local\Temp\cc6XWpSt.s 			page 67


 826:main.c        ****    I2C_1_I2CMasterSendStop(0u);
 2754              		.loc 1 826 0
 2755 01d4 0020     		movs	r0, #0
 2756 01d6 FFF7FEFF 		bl	I2C_1_I2CMasterSendStop
 827:main.c        **** //
 828:main.c        **** //
 829:main.c        **** //
 830:main.c        **** //
 831:main.c        **** sprintf(str, "Sensor 1 temperature is %d\n", sensorData.localTemp-64);
 2757              		.loc 1 831 0
 2758 01da A44B     		ldr	r3, .L131+40
 2759 01dc 1B78     		ldrb	r3, [r3]
 2760 01de 403B     		subs	r3, r3, #64
 2761 01e0 1A00     		movs	r2, r3
 2762 01e2 A549     		ldr	r1, .L131+52
 2763 01e4 3B1D     		adds	r3, r7, #4
 2764 01e6 1800     		movs	r0, r3
 2765 01e8 FFF7FEFF 		bl	sprintf
 832:main.c        **** MyUART_PutString(str);
 2766              		.loc 1 832 0
 2767 01ec 3B1D     		adds	r3, r7, #4
 2768 01ee 1800     		movs	r0, r3
 2769 01f0 FFF7FEFF 		bl	MyUART_PutString
 833:main.c        **** 
 834:main.c        **** sprintf(str, "Sensor 1 Remote temperature 1 is %d \n", (sensorData.remoteTemp1-64));
 2770              		.loc 1 834 0
 2771 01f4 9D4B     		ldr	r3, .L131+40
 2772 01f6 9B78     		ldrb	r3, [r3, #2]
 2773 01f8 403B     		subs	r3, r3, #64
 2774 01fa 1A00     		movs	r2, r3
 2775 01fc 9F49     		ldr	r1, .L131+56
 2776 01fe 3B1D     		adds	r3, r7, #4
 2777 0200 1800     		movs	r0, r3
 2778 0202 FFF7FEFF 		bl	sprintf
 835:main.c        **** MyUART_PutString(str);
 2779              		.loc 1 835 0
 2780 0206 3B1D     		adds	r3, r7, #4
 2781 0208 1800     		movs	r0, r3
 2782 020a FFF7FEFF 		bl	MyUART_PutString
 836:main.c        **** 
 837:main.c        **** 
 838:main.c        **** sprintf(str, "Sensor 1 Remote temperature 2 is %d \n", (sensorData.remoteTemp2-64));
 2783              		.loc 1 838 0
 2784 020e 974B     		ldr	r3, .L131+40
 2785 0210 DB78     		ldrb	r3, [r3, #3]
 2786 0212 403B     		subs	r3, r3, #64
 2787 0214 1A00     		movs	r2, r3
 2788 0216 9A49     		ldr	r1, .L131+60
 2789 0218 3B1D     		adds	r3, r7, #4
 2790 021a 1800     		movs	r0, r3
 2791 021c FFF7FEFF 		bl	sprintf
 839:main.c        **** MyUART_PutString(str);
 2792              		.loc 1 839 0
 2793 0220 3B1D     		adds	r3, r7, #4
 2794 0222 1800     		movs	r0, r3
 2795 0224 FFF7FEFF 		bl	MyUART_PutString
 840:main.c        **** 
ARM GAS  C:\Users\sergio\AppData\Local\Temp\cc6XWpSt.s 			page 68


 841:main.c        **** 
 842:main.c        **** //
 843:main.c        **** //   ID  TMP432B
 844:main.c        ****    I2C_1_I2CMasterSendStart(0x4D, I2C_1_I2C_WRITE_XFER_MODE, 0u);
 2796              		.loc 1 844 0
 2797 0228 0022     		movs	r2, #0
 2798 022a 0021     		movs	r1, #0
 2799 022c 4D20     		movs	r0, #77
 2800 022e FFF7FEFF 		bl	I2C_1_I2CMasterSendStart
 845:main.c        **** if ((I2C_1_I2CMasterStatus() & I2C_1_I2C_MSTAT_ERR_ADDR_NAK)==1){ MyUART_PutString("slave NACK addr
 2801              		.loc 1 845 0
 2802 0232 FFF7FEFF 		bl	I2C_1_I2CMasterStatus
 846:main.c        ****    I2C_1_I2CMasterWriteByte(0xFD, 0u); // check ID 
 2803              		.loc 1 846 0
 2804 0236 0021     		movs	r1, #0
 2805 0238 FD20     		movs	r0, #253
 2806 023a FFF7FEFF 		bl	I2C_1_I2CMasterWriteByte
 847:main.c        **** if ((I2C_1_I2CMasterStatus() & I2C_1_I2C_MSTAT_WR_CMPLT)==1){ MyUART_PutString("writing error\n");}
 2807              		.loc 1 847 0
 2808 023e FFF7FEFF 		bl	I2C_1_I2CMasterStatus
 848:main.c        ****    I2C_1_I2CMasterSendRestart(0x4D,I2C_1_I2C_READ_XFER_MODE, 0u);
 2809              		.loc 1 848 0
 2810 0242 0022     		movs	r2, #0
 2811 0244 0121     		movs	r1, #1
 2812 0246 4D20     		movs	r0, #77
 2813 0248 FFF7FEFF 		bl	I2C_1_I2CMasterSendRestart
 849:main.c        **** temp2 =0;
 2814              		.loc 1 849 0
 2815 024c 3F23     		movs	r3, #63
 2816 024e FB18     		adds	r3, r7, r3
 2817 0250 0022     		movs	r2, #0
 2818 0252 1A70     		strb	r2, [r3]
 850:main.c        ****    I2C_1_I2CMasterReadByte(I2C_1_I2C_NAK_DATA,(uint8 *) &temp2, 0u);
 2819              		.loc 1 850 0
 2820 0254 3F23     		movs	r3, #63
 2821 0256 FB18     		adds	r3, r7, r3
 2822 0258 0022     		movs	r2, #0
 2823 025a 1900     		movs	r1, r3
 2824 025c 0120     		movs	r0, #1
 2825 025e FFF7FEFF 		bl	I2C_1_I2CMasterReadByte
 851:main.c        **** if ((I2C_1_I2CMasterStatus() & I2C_1_I2C_MSTAT_RD_CMPLT)==1){ MyUART_PutString("reading error\n");}
 2826              		.loc 1 851 0
 2827 0262 FFF7FEFF 		bl	I2C_1_I2CMasterStatus
 2828 0266 0200     		movs	r2, r0
 2829 0268 0123     		movs	r3, #1
 2830 026a 1340     		ands	r3, r2
 2831 026c 03D0     		beq	.L103
 2832              		.loc 1 851 0 is_stmt 0 discriminator 1
 2833 026e 7C4B     		ldr	r3, .L131+28
 2834 0270 1800     		movs	r0, r3
 2835 0272 FFF7FEFF 		bl	MyUART_PutString
 2836              	.L103:
 852:main.c        ****    I2C_1_I2CMasterSendStop(0);
 2837              		.loc 1 852 0 is_stmt 1
 2838 0276 0020     		movs	r0, #0
 2839 0278 FFF7FEFF 		bl	I2C_1_I2CMasterSendStop
 853:main.c        **** 
ARM GAS  C:\Users\sergio\AppData\Local\Temp\cc6XWpSt.s 			page 69


 854:main.c        **** 
 855:main.c        ****   sprintf(str, "\n\nTMP432B           ID: %x\n", temp2);
 2840              		.loc 1 855 0
 2841 027c 3F23     		movs	r3, #63
 2842 027e FB18     		adds	r3, r7, r3
 2843 0280 1B78     		ldrb	r3, [r3]
 2844 0282 1A00     		movs	r2, r3
 2845 0284 7F49     		ldr	r1, .L131+64
 2846 0286 3B1D     		adds	r3, r7, #4
 2847 0288 1800     		movs	r0, r3
 2848 028a FFF7FEFF 		bl	sprintf
 856:main.c        ****     MyUART_PutString(str);
 2849              		.loc 1 856 0
 2850 028e 3B1D     		adds	r3, r7, #4
 2851 0290 1800     		movs	r0, r3
 2852 0292 FFF7FEFF 		bl	MyUART_PutString
 857:main.c        **** 
 858:main.c        **** temp2 = 0;
 2853              		.loc 1 858 0
 2854 0296 3F23     		movs	r3, #63
 2855 0298 FB18     		adds	r3, r7, r3
 2856 029a 0022     		movs	r2, #0
 2857 029c 1A70     		strb	r2, [r3]
 859:main.c        ****   //READ local sensor  2  TMP432B
 860:main.c        ****    I2C_1_I2CMasterSendStart(0x4D, I2C_1_I2C_WRITE_XFER_MODE, 0u);
 2858              		.loc 1 860 0
 2859 029e 0022     		movs	r2, #0
 2860 02a0 0021     		movs	r1, #0
 2861 02a2 4D20     		movs	r0, #77
 2862 02a4 FFF7FEFF 		bl	I2C_1_I2CMasterSendStart
 861:main.c        ****    I2C_1_I2CMasterWriteByte(0x00, 0u);
 2863              		.loc 1 861 0
 2864 02a8 0021     		movs	r1, #0
 2865 02aa 0020     		movs	r0, #0
 2866 02ac FFF7FEFF 		bl	I2C_1_I2CMasterWriteByte
 862:main.c        ****    I2C_1_I2CMasterSendRestart(0x4D,I2C_1_I2C_READ_XFER_MODE, 0u);
 2867              		.loc 1 862 0
 2868 02b0 0022     		movs	r2, #0
 2869 02b2 0121     		movs	r1, #1
 2870 02b4 4D20     		movs	r0, #77
 2871 02b6 FFF7FEFF 		bl	I2C_1_I2CMasterSendRestart
 863:main.c        ****    //I2C_1_I2CMasterReadByte(I2C_1_I2C_ACK_DATA,(uint8 *) &read_buff[0],100u);
 864:main.c        ****    I2C_1_I2CMasterReadByte(I2C_1_I2C_NAK_DATA,(uint8 *) &temp2,0u);
 2872              		.loc 1 864 0
 2873 02ba 3F23     		movs	r3, #63
 2874 02bc FB18     		adds	r3, r7, r3
 2875 02be 0022     		movs	r2, #0
 2876 02c0 1900     		movs	r1, r3
 2877 02c2 0120     		movs	r0, #1
 2878 02c4 FFF7FEFF 		bl	I2C_1_I2CMasterReadByte
 865:main.c        ****    I2C_1_I2CMasterSendStop(0u);
 2879              		.loc 1 865 0
 2880 02c8 0020     		movs	r0, #0
 2881 02ca FFF7FEFF 		bl	I2C_1_I2CMasterSendStop
 866:main.c        **** 
 867:main.c        **** //  READ remote 2 sensor 1 TMP432B    cold side exp val
 868:main.c        ****   I2C_1_I2CMasterSendStart(0x4D, I2C_1_I2C_WRITE_XFER_MODE, 0u);
ARM GAS  C:\Users\sergio\AppData\Local\Temp\cc6XWpSt.s 			page 70


 2882              		.loc 1 868 0
 2883 02ce 0022     		movs	r2, #0
 2884 02d0 0021     		movs	r1, #0
 2885 02d2 4D20     		movs	r0, #77
 2886 02d4 FFF7FEFF 		bl	I2C_1_I2CMasterSendStart
 869:main.c        ****    I2C_1_I2CMasterWriteByte(0x23, 0u);
 2887              		.loc 1 869 0
 2888 02d8 0021     		movs	r1, #0
 2889 02da 2320     		movs	r0, #35
 2890 02dc FFF7FEFF 		bl	I2C_1_I2CMasterWriteByte
 870:main.c        ****    I2C_1_I2CMasterSendRestart(0x4D,I2C_1_I2C_READ_XFER_MODE, 0u);
 2891              		.loc 1 870 0
 2892 02e0 0022     		movs	r2, #0
 2893 02e2 0121     		movs	r1, #1
 2894 02e4 4D20     		movs	r0, #77
 2895 02e6 FFF7FEFF 		bl	I2C_1_I2CMasterSendRestart
 871:main.c        ****    //I2C_1_I2CMasterReadByte(I2C_1_I2C_ACK_DATA,(uint8 *) &read_buff[0],100u);
 872:main.c        ****    I2C_1_I2CMasterReadByte(I2C_1_I2C_NAK_DATA,(uint8 *) &sensorData.remoteTemp3,0u);
 2896              		.loc 1 872 0
 2897 02ea 674B     		ldr	r3, .L131+68
 2898 02ec 0022     		movs	r2, #0
 2899 02ee 1900     		movs	r1, r3
 2900 02f0 0120     		movs	r0, #1
 2901 02f2 FFF7FEFF 		bl	I2C_1_I2CMasterReadByte
 873:main.c        ****    I2C_1_I2CMasterSendStop(0u);
 2902              		.loc 1 873 0
 2903 02f6 0020     		movs	r0, #0
 2904 02f8 FFF7FEFF 		bl	I2C_1_I2CMasterSendStop
 874:main.c        **** 
 875:main.c        **** 
 876:main.c        **** //  READ remote 2 sensor 2  TMP432B   cold side evaporator
 877:main.c        ****   I2C_1_I2CMasterSendStart(0x4D, I2C_1_I2C_WRITE_XFER_MODE, 0u);
 2905              		.loc 1 877 0
 2906 02fc 0022     		movs	r2, #0
 2907 02fe 0021     		movs	r1, #0
 2908 0300 4D20     		movs	r0, #77
 2909 0302 FFF7FEFF 		bl	I2C_1_I2CMasterSendStart
 878:main.c        ****    I2C_1_I2CMasterWriteByte(0x01, 0u);
 2910              		.loc 1 878 0
 2911 0306 0021     		movs	r1, #0
 2912 0308 0120     		movs	r0, #1
 2913 030a FFF7FEFF 		bl	I2C_1_I2CMasterWriteByte
 879:main.c        ****    I2C_1_I2CMasterSendRestart(0x4D,I2C_1_I2C_READ_XFER_MODE, 0u);
 2914              		.loc 1 879 0
 2915 030e 0022     		movs	r2, #0
 2916 0310 0121     		movs	r1, #1
 2917 0312 4D20     		movs	r0, #77
 2918 0314 FFF7FEFF 		bl	I2C_1_I2CMasterSendRestart
 880:main.c        ****    //I2C_1_I2CMasterReadByte(I2C_1_I2C_ACK_DATA,(uint8 *) &read_buff[0],100u);
 881:main.c        ****    I2C_1_I2CMasterReadByte(I2C_1_I2C_NAK_DATA,(uint8 *) &sensorData.remoteTemp4,0u);
 2919              		.loc 1 881 0
 2920 0318 5C4B     		ldr	r3, .L131+72
 2921 031a 0022     		movs	r2, #0
 2922 031c 1900     		movs	r1, r3
 2923 031e 0120     		movs	r0, #1
 2924 0320 FFF7FEFF 		bl	I2C_1_I2CMasterReadByte
 882:main.c        ****    I2C_1_I2CMasterSendStop(0u);
ARM GAS  C:\Users\sergio\AppData\Local\Temp\cc6XWpSt.s 			page 71


 2925              		.loc 1 882 0
 2926 0324 0020     		movs	r0, #0
 2927 0326 FFF7FEFF 		bl	I2C_1_I2CMasterSendStop
 883:main.c        **** 
 884:main.c        **** 
 885:main.c        **** //sensorData.localTemp = (sensorData.localTemp+temp2)/2;
 886:main.c        **** 
 887:main.c        **** sprintf(str, "Sensor 2 temperature is %d\n", (temp2-64));
 2928              		.loc 1 887 0
 2929 032a 3F23     		movs	r3, #63
 2930 032c FB18     		adds	r3, r7, r3
 2931 032e 1B78     		ldrb	r3, [r3]
 2932 0330 403B     		subs	r3, r3, #64
 2933 0332 1A00     		movs	r2, r3
 2934 0334 5649     		ldr	r1, .L131+76
 2935 0336 3B1D     		adds	r3, r7, #4
 2936 0338 1800     		movs	r0, r3
 2937 033a FFF7FEFF 		bl	sprintf
 888:main.c        **** MyUART_PutString(str);
 2938              		.loc 1 888 0
 2939 033e 3B1D     		adds	r3, r7, #4
 2940 0340 1800     		movs	r0, r3
 2941 0342 FFF7FEFF 		bl	MyUART_PutString
 889:main.c        **** 
 890:main.c        **** sprintf(str, "Sensor 2 Remote temperature 1 is %d \n", (sensorData.remoteTemp3-64));
 2942              		.loc 1 890 0
 2943 0346 494B     		ldr	r3, .L131+40
 2944 0348 1B79     		ldrb	r3, [r3, #4]
 2945 034a 403B     		subs	r3, r3, #64
 2946 034c 1A00     		movs	r2, r3
 2947 034e 5149     		ldr	r1, .L131+80
 2948 0350 3B1D     		adds	r3, r7, #4
 2949 0352 1800     		movs	r0, r3
 2950 0354 FFF7FEFF 		bl	sprintf
 891:main.c        **** MyUART_PutString(str);
 2951              		.loc 1 891 0
 2952 0358 3B1D     		adds	r3, r7, #4
 2953 035a 1800     		movs	r0, r3
 2954 035c FFF7FEFF 		bl	MyUART_PutString
 892:main.c        **** 
 893:main.c        **** 
 894:main.c        **** sprintf(str, "Sensor 2 Remote temperature 2 is %d \n\n\n\n", (sensorData.remoteTemp4-64));
 2955              		.loc 1 894 0
 2956 0360 424B     		ldr	r3, .L131+40
 2957 0362 5B79     		ldrb	r3, [r3, #5]
 2958 0364 403B     		subs	r3, r3, #64
 2959 0366 1A00     		movs	r2, r3
 2960 0368 4B49     		ldr	r1, .L131+84
 2961 036a 3B1D     		adds	r3, r7, #4
 2962 036c 1800     		movs	r0, r3
 2963 036e FFF7FEFF 		bl	sprintf
 895:main.c        **** MyUART_PutString(str);
 2964              		.loc 1 895 0
 2965 0372 3B1D     		adds	r3, r7, #4
 2966 0374 1800     		movs	r0, r3
 2967 0376 FFF7FEFF 		bl	MyUART_PutString
 896:main.c        **** 
ARM GAS  C:\Users\sergio\AppData\Local\Temp\cc6XWpSt.s 			page 72


 897:main.c        **** 
 898:main.c        **** 
 899:main.c        **** /*  ---------------------------- ACCELEROMETER -----------------------------------   */
 900:main.c        **** 
 901:main.c        **** uint8 xLSB;
 902:main.c        **** uint8 xMSB;
 903:main.c        **** uint8 yLSB;
 904:main.c        **** uint8 yMSB;
 905:main.c        **** uint8 zLSB;
 906:main.c        **** uint8 zMSB;
 907:main.c        **** 
 908:main.c        **** I2C_1_I2CMasterSendStart(0x18,I2C_1_I2C_WRITE_XFER_MODE, 100u);
 2968              		.loc 1 908 0
 2969 037a 6422     		movs	r2, #100
 2970 037c 0021     		movs	r1, #0
 2971 037e 1820     		movs	r0, #24
 2972 0380 FFF7FEFF 		bl	I2C_1_I2CMasterSendStart
 909:main.c        **** I2C_1_I2CMasterWriteByte(0x02, 100u);
 2973              		.loc 1 909 0
 2974 0384 6421     		movs	r1, #100
 2975 0386 0220     		movs	r0, #2
 2976 0388 FFF7FEFF 		bl	I2C_1_I2CMasterWriteByte
 910:main.c        **** I2C_1_I2CMasterSendRestart(0x18, I2C_1_I2C_READ_XFER_MODE, 100u);
 2977              		.loc 1 910 0
 2978 038c 6422     		movs	r2, #100
 2979 038e 0121     		movs	r1, #1
 2980 0390 1820     		movs	r0, #24
 2981 0392 FFF7FEFF 		bl	I2C_1_I2CMasterSendRestart
 911:main.c        **** I2C_1_I2CMasterReadByte(I2C_1_I2C_NAK_DATA,(uint8 *) &xLSB ,100u);
 2982              		.loc 1 911 0
 2983 0396 3B23     		movs	r3, #59
 2984 0398 FB18     		adds	r3, r7, r3
 2985 039a 6422     		movs	r2, #100
 2986 039c 1900     		movs	r1, r3
 2987 039e 0120     		movs	r0, #1
 2988 03a0 FFF7FEFF 		bl	I2C_1_I2CMasterReadByte
 912:main.c        **** I2C_1_I2CMasterSendStop(100u);
 2989              		.loc 1 912 0
 2990 03a4 6420     		movs	r0, #100
 2991 03a6 FFF7FEFF 		bl	I2C_1_I2CMasterSendStop
 913:main.c        **** 
 914:main.c        **** I2C_1_I2CMasterSendStart(0x18,I2C_1_I2C_WRITE_XFER_MODE, 100u);
 2992              		.loc 1 914 0
 2993 03aa 6422     		movs	r2, #100
 2994 03ac 0021     		movs	r1, #0
 2995 03ae 1820     		movs	r0, #24
 2996 03b0 FFF7FEFF 		bl	I2C_1_I2CMasterSendStart
 915:main.c        **** I2C_1_I2CMasterWriteByte(0x03, 100u);
 2997              		.loc 1 915 0
 2998 03b4 6421     		movs	r1, #100
 2999 03b6 0320     		movs	r0, #3
 3000 03b8 FFF7FEFF 		bl	I2C_1_I2CMasterWriteByte
 916:main.c        **** I2C_1_I2CMasterSendRestart(0x18, I2C_1_I2C_READ_XFER_MODE, 100u);
 3001              		.loc 1 916 0
 3002 03bc 6422     		movs	r2, #100
 3003 03be 0121     		movs	r1, #1
 3004 03c0 1820     		movs	r0, #24
ARM GAS  C:\Users\sergio\AppData\Local\Temp\cc6XWpSt.s 			page 73


 3005 03c2 FFF7FEFF 		bl	I2C_1_I2CMasterSendRestart
 917:main.c        **** I2C_1_I2CMasterReadByte(I2C_1_I2C_NAK_DATA,(uint8 *) &xMSB ,100u);
 3006              		.loc 1 917 0
 3007 03c6 3A23     		movs	r3, #58
 3008 03c8 FB18     		adds	r3, r7, r3
 3009 03ca 6422     		movs	r2, #100
 3010 03cc 1900     		movs	r1, r3
 3011 03ce 0120     		movs	r0, #1
 3012 03d0 FFF7FEFF 		bl	I2C_1_I2CMasterReadByte
 918:main.c        **** I2C_1_I2CMasterSendStop(100u);
 3013              		.loc 1 918 0
 3014 03d4 6420     		movs	r0, #100
 3015 03d6 FFF7FEFF 		bl	I2C_1_I2CMasterSendStop
 919:main.c        **** 
 920:main.c        **** I2C_1_I2CMasterSendStart(0x18,I2C_1_I2C_WRITE_XFER_MODE, 100u);
 3016              		.loc 1 920 0
 3017 03da 6422     		movs	r2, #100
 3018 03dc 0021     		movs	r1, #0
 3019 03de 1820     		movs	r0, #24
 3020 03e0 FFF7FEFF 		bl	I2C_1_I2CMasterSendStart
 921:main.c        **** I2C_1_I2CMasterWriteByte(0x04, 100u);
 3021              		.loc 1 921 0
 3022 03e4 6421     		movs	r1, #100
 3023 03e6 0420     		movs	r0, #4
 3024 03e8 FFF7FEFF 		bl	I2C_1_I2CMasterWriteByte
 922:main.c        **** I2C_1_I2CMasterSendRestart(0x18, I2C_1_I2C_READ_XFER_MODE, 100u);
 3025              		.loc 1 922 0
 3026 03ec 6422     		movs	r2, #100
 3027 03ee 0121     		movs	r1, #1
 3028 03f0 1820     		movs	r0, #24
 3029 03f2 FFF7FEFF 		bl	I2C_1_I2CMasterSendRestart
 923:main.c        **** I2C_1_I2CMasterReadByte(I2C_1_I2C_NAK_DATA,(uint8 *) &yLSB ,100u);
 3030              		.loc 1 923 0
 3031 03f6 3923     		movs	r3, #57
 3032 03f8 FB18     		adds	r3, r7, r3
 3033 03fa 6422     		movs	r2, #100
 3034 03fc 1900     		movs	r1, r3
 3035 03fe 0120     		movs	r0, #1
 3036 0400 FFF7FEFF 		bl	I2C_1_I2CMasterReadByte
 924:main.c        **** I2C_1_I2CMasterSendStop(100u);
 3037              		.loc 1 924 0
 3038 0404 6420     		movs	r0, #100
 3039 0406 FFF7FEFF 		bl	I2C_1_I2CMasterSendStop
 925:main.c        **** 
 926:main.c        **** I2C_1_I2CMasterSendStart(0x18,I2C_1_I2C_WRITE_XFER_MODE, 100u);
 3040              		.loc 1 926 0
 3041 040a 6422     		movs	r2, #100
 3042 040c 0021     		movs	r1, #0
 3043 040e 1820     		movs	r0, #24
 3044 0410 FFF7FEFF 		bl	I2C_1_I2CMasterSendStart
 927:main.c        **** I2C_1_I2CMasterWriteByte(0x05, 100u);
 3045              		.loc 1 927 0
 3046 0414 6421     		movs	r1, #100
 3047 0416 0520     		movs	r0, #5
 3048 0418 FFF7FEFF 		bl	I2C_1_I2CMasterWriteByte
 928:main.c        **** I2C_1_I2CMasterSendRestart(0x18, I2C_1_I2C_READ_XFER_MODE, 100u);
 3049              		.loc 1 928 0
ARM GAS  C:\Users\sergio\AppData\Local\Temp\cc6XWpSt.s 			page 74


 3050 041c 6422     		movs	r2, #100
 3051 041e 0121     		movs	r1, #1
 3052 0420 1820     		movs	r0, #24
 3053 0422 FFF7FEFF 		bl	I2C_1_I2CMasterSendRestart
 929:main.c        **** I2C_1_I2CMasterReadByte(I2C_1_I2C_NAK_DATA,(uint8 *) &yMSB ,100u);
 3054              		.loc 1 929 0
 3055 0426 3823     		movs	r3, #56
 3056 0428 FB18     		adds	r3, r7, r3
 3057 042a 6422     		movs	r2, #100
 3058 042c 1900     		movs	r1, r3
 3059 042e 0120     		movs	r0, #1
 3060 0430 FFF7FEFF 		bl	I2C_1_I2CMasterReadByte
 930:main.c        **** I2C_1_I2CMasterSendStop(100u);
 3061              		.loc 1 930 0
 3062 0434 6420     		movs	r0, #100
 3063 0436 FFF7FEFF 		bl	I2C_1_I2CMasterSendStop
 931:main.c        **** 
 932:main.c        **** I2C_1_I2CMasterSendStart(0x18,I2C_1_I2C_WRITE_XFER_MODE, 100u);
 3064              		.loc 1 932 0
 3065 043a 6422     		movs	r2, #100
 3066 043c 0021     		movs	r1, #0
 3067 043e 1820     		movs	r0, #24
 3068 0440 2CE0     		b	.L132
 3069              	.L133:
 3070 0442 C046     		.align	2
 3071              	.L131:
 3072 0444 00000000 		.word	bleStack
 3073 0448 00000000 		.word	my_interrupt
 3074 044c 00000000 		.word	acStates
 3075 0450 00000000 		.word	thermoState
 3076 0454 00000000 		.word	thermo
 3077 0458 00000000 		.word	interruptFlag
 3078 045c 04000000 		.word	thermo+4
 3079 0460 34020000 		.word	.LC57
 3080 0464 00000000 		.word	counter
 3081 0468 44020000 		.word	.LC60
 3082 046c 00000000 		.word	sensorData
 3083 0470 02000000 		.word	sensorData+2
 3084 0474 03000000 		.word	sensorData+3
 3085 0478 6C020000 		.word	.LC65
 3086 047c 88020000 		.word	.LC67
 3087 0480 B0020000 		.word	.LC69
 3088 0484 D8020000 		.word	.LC71
 3089 0488 04000000 		.word	sensorData+4
 3090 048c 05000000 		.word	sensorData+5
 3091 0490 F4020000 		.word	.LC75
 3092 0494 10030000 		.word	.LC77
 3093 0498 38030000 		.word	.LC79
 3094              	.L132:
 3095 049c FFF7FEFF 		bl	I2C_1_I2CMasterSendStart
 933:main.c        **** I2C_1_I2CMasterWriteByte(0x06, 100u);
 3096              		.loc 1 933 0
 3097 04a0 6421     		movs	r1, #100
 3098 04a2 0620     		movs	r0, #6
 3099 04a4 FFF7FEFF 		bl	I2C_1_I2CMasterWriteByte
 934:main.c        **** I2C_1_I2CMasterSendRestart(0x18, I2C_1_I2C_READ_XFER_MODE, 100u);
 3100              		.loc 1 934 0
ARM GAS  C:\Users\sergio\AppData\Local\Temp\cc6XWpSt.s 			page 75


 3101 04a8 6422     		movs	r2, #100
 3102 04aa 0121     		movs	r1, #1
 3103 04ac 1820     		movs	r0, #24
 3104 04ae FFF7FEFF 		bl	I2C_1_I2CMasterSendRestart
 935:main.c        **** I2C_1_I2CMasterReadByte(I2C_1_I2C_NAK_DATA,(uint8 *) &zLSB ,100u);
 3105              		.loc 1 935 0
 3106 04b2 3723     		movs	r3, #55
 3107 04b4 FB18     		adds	r3, r7, r3
 3108 04b6 6422     		movs	r2, #100
 3109 04b8 1900     		movs	r1, r3
 3110 04ba 0120     		movs	r0, #1
 3111 04bc FFF7FEFF 		bl	I2C_1_I2CMasterReadByte
 936:main.c        **** I2C_1_I2CMasterSendStop(100u);
 3112              		.loc 1 936 0
 3113 04c0 6420     		movs	r0, #100
 3114 04c2 FFF7FEFF 		bl	I2C_1_I2CMasterSendStop
 937:main.c        **** 
 938:main.c        **** I2C_1_I2CMasterSendStart(0x18,I2C_1_I2C_WRITE_XFER_MODE, 100u);
 3115              		.loc 1 938 0
 3116 04c6 6422     		movs	r2, #100
 3117 04c8 0021     		movs	r1, #0
 3118 04ca 1820     		movs	r0, #24
 3119 04cc FFF7FEFF 		bl	I2C_1_I2CMasterSendStart
 939:main.c        **** I2C_1_I2CMasterWriteByte(0x07, 100u);
 3120              		.loc 1 939 0
 3121 04d0 6421     		movs	r1, #100
 3122 04d2 0720     		movs	r0, #7
 3123 04d4 FFF7FEFF 		bl	I2C_1_I2CMasterWriteByte
 940:main.c        **** I2C_1_I2CMasterSendRestart(0x18, I2C_1_I2C_READ_XFER_MODE, 100u);
 3124              		.loc 1 940 0
 3125 04d8 6422     		movs	r2, #100
 3126 04da 0121     		movs	r1, #1
 3127 04dc 1820     		movs	r0, #24
 3128 04de FFF7FEFF 		bl	I2C_1_I2CMasterSendRestart
 941:main.c        **** I2C_1_I2CMasterReadByte(I2C_1_I2C_NAK_DATA,(uint8 *) &zMSB ,100u);
 3129              		.loc 1 941 0
 3130 04e2 3623     		movs	r3, #54
 3131 04e4 FB18     		adds	r3, r7, r3
 3132 04e6 6422     		movs	r2, #100
 3133 04e8 1900     		movs	r1, r3
 3134 04ea 0120     		movs	r0, #1
 3135 04ec FFF7FEFF 		bl	I2C_1_I2CMasterReadByte
 942:main.c        **** I2C_1_I2CMasterSendStop(100u);
 3136              		.loc 1 942 0
 3137 04f0 6420     		movs	r0, #100
 3138 04f2 FFF7FEFF 		bl	I2C_1_I2CMasterSendStop
 943:main.c        **** 
 944:main.c        **** sensorData.accX = (xMSB );
 3139              		.loc 1 944 0
 3140 04f6 3A23     		movs	r3, #58
 3141 04f8 FB18     		adds	r3, r7, r3
 3142 04fa 1A78     		ldrb	r2, [r3]
 3143 04fc D24B     		ldr	r3, .L134
 3144 04fe 9A77     		strb	r2, [r3, #30]
 945:main.c        **** sensorData.accY = (yMSB );
 3145              		.loc 1 945 0
 3146 0500 3823     		movs	r3, #56
ARM GAS  C:\Users\sergio\AppData\Local\Temp\cc6XWpSt.s 			page 76


 3147 0502 FB18     		adds	r3, r7, r3
 3148 0504 1A78     		ldrb	r2, [r3]
 3149 0506 D04B     		ldr	r3, .L134
 3150 0508 DA77     		strb	r2, [r3, #31]
 946:main.c        **** sensorData.accZ = (zMSB );
 3151              		.loc 1 946 0
 3152 050a 3623     		movs	r3, #54
 3153 050c FB18     		adds	r3, r7, r3
 3154 050e 1978     		ldrb	r1, [r3]
 3155 0510 CD4B     		ldr	r3, .L134
 3156 0512 2022     		movs	r2, #32
 3157 0514 9954     		strb	r1, [r3, r2]
 947:main.c        **** I2C_1_Sleep();
 3158              		.loc 1 947 0
 3159 0516 FFF7FEFF 		bl	I2C_1_Sleep
 948:main.c        ****     I2C_1_Wakeup();
 3160              		.loc 1 948 0
 3161 051a FFF7FEFF 		bl	I2C_1_Wakeup
 949:main.c        **** 
 950:main.c        **** 
 951:main.c        **** sprintf(str,"\nX: %d %d    12 bit x: %d\n", xMSB, xLSB, sensorData.accX);
 3162              		.loc 1 951 0
 3163 051e 3A23     		movs	r3, #58
 3164 0520 FB18     		adds	r3, r7, r3
 3165 0522 1B78     		ldrb	r3, [r3]
 3166 0524 1A00     		movs	r2, r3
 3167 0526 3B23     		movs	r3, #59
 3168 0528 FB18     		adds	r3, r7, r3
 3169 052a 1B78     		ldrb	r3, [r3]
 3170 052c 1C00     		movs	r4, r3
 3171 052e C64B     		ldr	r3, .L134
 3172 0530 9B7F     		ldrb	r3, [r3, #30]
 3173 0532 C649     		ldr	r1, .L134+4
 3174 0534 381D     		adds	r0, r7, #4
 3175 0536 0093     		str	r3, [sp]
 3176 0538 2300     		movs	r3, r4
 3177 053a FFF7FEFF 		bl	sprintf
 952:main.c        **** MyUART_PutString(str);
 3178              		.loc 1 952 0
 3179 053e 3B1D     		adds	r3, r7, #4
 3180 0540 1800     		movs	r0, r3
 3181 0542 FFF7FEFF 		bl	MyUART_PutString
 953:main.c        **** sprintf(str,"y: %d %d      12 bit y: %d\n", yMSB, yLSB, sensorData.accY);
 3182              		.loc 1 953 0
 3183 0546 3823     		movs	r3, #56
 3184 0548 FB18     		adds	r3, r7, r3
 3185 054a 1B78     		ldrb	r3, [r3]
 3186 054c 1A00     		movs	r2, r3
 3187 054e 3923     		movs	r3, #57
 3188 0550 FB18     		adds	r3, r7, r3
 3189 0552 1B78     		ldrb	r3, [r3]
 3190 0554 1C00     		movs	r4, r3
 3191 0556 BC4B     		ldr	r3, .L134
 3192 0558 DB7F     		ldrb	r3, [r3, #31]
 3193 055a BD49     		ldr	r1, .L134+8
 3194 055c 381D     		adds	r0, r7, #4
 3195 055e 0093     		str	r3, [sp]
ARM GAS  C:\Users\sergio\AppData\Local\Temp\cc6XWpSt.s 			page 77


 3196 0560 2300     		movs	r3, r4
 3197 0562 FFF7FEFF 		bl	sprintf
 954:main.c        **** MyUART_PutString(str);
 3198              		.loc 1 954 0
 3199 0566 3B1D     		adds	r3, r7, #4
 3200 0568 1800     		movs	r0, r3
 3201 056a FFF7FEFF 		bl	MyUART_PutString
 955:main.c        **** sprintf(str,"Z: %d %d      12 bit z: %d\n\n\n", zMSB, zLSB, sensorData.accZ);
 3202              		.loc 1 955 0
 3203 056e 3623     		movs	r3, #54
 3204 0570 FB18     		adds	r3, r7, r3
 3205 0572 1B78     		ldrb	r3, [r3]
 3206 0574 1C00     		movs	r4, r3
 3207 0576 3723     		movs	r3, #55
 3208 0578 FB18     		adds	r3, r7, r3
 3209 057a 1B78     		ldrb	r3, [r3]
 3210 057c 1D00     		movs	r5, r3
 3211 057e B24B     		ldr	r3, .L134
 3212 0580 2022     		movs	r2, #32
 3213 0582 9B5C     		ldrb	r3, [r3, r2]
 3214 0584 B349     		ldr	r1, .L134+12
 3215 0586 381D     		adds	r0, r7, #4
 3216 0588 0093     		str	r3, [sp]
 3217 058a 2B00     		movs	r3, r5
 3218 058c 2200     		movs	r2, r4
 3219 058e FFF7FEFF 		bl	sprintf
 956:main.c        **** MyUART_PutString(str);
 3220              		.loc 1 956 0
 3221 0592 3B1D     		adds	r3, r7, #4
 3222 0594 1800     		movs	r0, r3
 3223 0596 FFF7FEFF 		bl	MyUART_PutString
 957:main.c        **** 
 958:main.c        **** // ---------------  Read humidity ---------------
 959:main.c        **** read_buff[0]=0;
 3224              		.loc 1 959 0
 3225 059a 3C23     		movs	r3, #60
 3226 059c FB18     		adds	r3, r7, r3
 3227 059e 0022     		movs	r2, #0
 3228 05a0 1A70     		strb	r2, [r3]
 960:main.c        **** read_buff[1]=0;
 3229              		.loc 1 960 0
 3230 05a2 3C23     		movs	r3, #60
 3231 05a4 FB18     		adds	r3, r7, r3
 3232 05a6 0022     		movs	r2, #0
 3233 05a8 5A70     		strb	r2, [r3, #1]
 961:main.c        **** //I2C_1_I2CMasterSendStart(0x18,I2C_1_I2C_WRITE_XFER_MODE, 0u);
 962:main.c        **** //I2C_1_I2CMasterWriteByte(0xE5, 0u);
 963:main.c        **** //I2C_1_I2CMasterSendRestart(0x18, I2C_1_I2C_READ_XFER_MODE, 0u);
 964:main.c        **** //I2C_1_I2CMasterReadByte(I2C_1_I2C_ACK_DATA,(uint8 *) &read_buff[0] ,0u);
 965:main.c        **** //I2C_1_I2CMasterReadByte(I2C_1_I2C_NAK_DATA,(uint8 *) &read_buff[1] ,0u);
 966:main.c        **** //I2C_1_I2CMasterSendStop(0u);
 967:main.c        **** //
 968:main.c        **** ////    I2C_1_Sleep();
 969:main.c        **** ////    I2C_1_Wakeup();
 970:main.c        **** //
 971:main.c        **** //uint16 rh = ((read_buff[0] << 8) | read_buff[1]);
 972:main.c        **** //
ARM GAS  C:\Users\sergio\AppData\Local\Temp\cc6XWpSt.s 			page 78


 973:main.c        **** //sensorData.humidity = ((125 * rh)/65536)-6; 
 974:main.c        **** //rh = 0;
 975:main.c        **** //
 976:main.c        **** //I2C_1_I2CMasterSendStart(0x18,I2C_1_I2C_WRITE_XFER_MODE, 0u);
 977:main.c        **** //I2C_1_I2CMasterWriteByte(0xE3, 0u);
 978:main.c        **** //I2C_1_I2CMasterSendRestart(0x18, I2C_1_I2C_READ_XFER_MODE, 0u);
 979:main.c        **** //I2C_1_I2CMasterReadByte(I2C_1_I2C_ACK_DATA,(uint8 *) &read_buff[0] ,0u);
 980:main.c        **** //I2C_1_I2CMasterReadByte(I2C_1_I2C_NAK_DATA,(uint8 *) &read_buff[1] ,0u);
 981:main.c        **** //I2C_1_I2CMasterSendStop(0u);
 982:main.c        **** //
 983:main.c        **** //uint16 tp = ((read_buff[0] << 8) | read_buff[1]);
 984:main.c        **** //tp = ((175.72 * tp)/65536) - 46.85;
 985:main.c        **** 
 986:main.c        **** //sprintf(str, "\nThe humidity is %d   temp = %d\n", sensorData.humidity, tp);
 987:main.c        **** MyUART_PutString(str);
 3234              		.loc 1 987 0
 3235 05aa 3B1D     		adds	r3, r7, #4
 3236 05ac 1800     		movs	r0, r3
 3237 05ae FFF7FEFF 		bl	MyUART_PutString
 988:main.c        **** 
 989:main.c        **** 
 990:main.c        **** 
 991:main.c        **** // ---------------------  Read thermostat pins ---------------------
 992:main.c        **** 
 993:main.c        ****  gpioPins = read_thermostat_pins();
 3238              		.loc 1 993 0
 3239 05b2 FFF7FEFF 		bl	read_thermostat_pins
 3240 05b6 0300     		movs	r3, r0
 3241 05b8 1A00     		movs	r2, r3
 3242 05ba A74B     		ldr	r3, .L134+16
 3243 05bc 1A70     		strb	r2, [r3]
 994:main.c        **** if(bleConnected != 1){ thermoState = (gpioPins & 0x1F);}
 3244              		.loc 1 994 0
 3245 05be A74B     		ldr	r3, .L134+20
 3246 05c0 1B78     		ldrb	r3, [r3]
 3247 05c2 012B     		cmp	r3, #1
 3248 05c4 06D0     		beq	.L104
 3249              		.loc 1 994 0 is_stmt 0 discriminator 1
 3250 05c6 A44B     		ldr	r3, .L134+16
 3251 05c8 1B78     		ldrb	r3, [r3]
 3252 05ca 1F22     		movs	r2, #31
 3253 05cc 1340     		ands	r3, r2
 3254 05ce DAB2     		uxtb	r2, r3
 3255 05d0 A34B     		ldr	r3, .L134+24
 3256 05d2 1A70     		strb	r2, [r3]
 3257              	.L104:
 995:main.c        **** // comp = (gpioPins & 0x01)==  0x04? 1:0;
 996:main.c        **** // fanH = (gpioPins & 0x08) == 0x08? 1:0;
 997:main.c        **** // fanL = (gpioPins & 0x10) == 0x10? 1:0;
 998:main.c        **** //gpioPins =0u;
 999:main.c        **** 
1000:main.c        **** 
1001:main.c        **** 
1002:main.c        **** sprintf(str, "\nThermostast pins are 0x%x thermoState %x com %d, Lf %d, Hf %d\n\n", gpioPins, therm
 3258              		.loc 1 1002 0 is_stmt 1
 3259 05d4 A04B     		ldr	r3, .L134+16
 3260 05d6 1B78     		ldrb	r3, [r3]
ARM GAS  C:\Users\sergio\AppData\Local\Temp\cc6XWpSt.s 			page 79


 3261 05d8 1D00     		movs	r5, r3
 3262 05da A14B     		ldr	r3, .L134+24
 3263 05dc 1B78     		ldrb	r3, [r3]
 3264 05de 1E00     		movs	r6, r3
 3265 05e0 4723     		movs	r3, #71
 3266 05e2 FB18     		adds	r3, r7, r3
 3267 05e4 1B78     		ldrb	r3, [r3]
 3268 05e6 4622     		movs	r2, #70
 3269 05e8 BA18     		adds	r2, r7, r2
 3270 05ea 1278     		ldrb	r2, [r2]
 3271 05ec 4521     		movs	r1, #69
 3272 05ee 7918     		adds	r1, r7, r1
 3273 05f0 0978     		ldrb	r1, [r1]
 3274 05f2 9C4C     		ldr	r4, .L134+28
 3275 05f4 381D     		adds	r0, r7, #4
 3276 05f6 0291     		str	r1, [sp, #8]
 3277 05f8 0192     		str	r2, [sp, #4]
 3278 05fa 0093     		str	r3, [sp]
 3279 05fc 3300     		movs	r3, r6
 3280 05fe 2A00     		movs	r2, r5
 3281 0600 2100     		movs	r1, r4
 3282 0602 FFF7FEFF 		bl	sprintf
1003:main.c        **** MyUART_PutString(str);
 3283              		.loc 1 1003 0
 3284 0606 3B1D     		adds	r3, r7, #4
 3285 0608 1800     		movs	r0, r3
 3286 060a FFF7FEFF 		bl	MyUART_PutString
1004:main.c        **** 
1005:main.c        **** 
1006:main.c        **** //// ------------------------------- power sensors check version  -----------------------
1007:main.c        **** 
1008:main.c        **** //        read_power_chips(ADDR_POWER1);
1009:main.c        **** //        sprintf(str, "\nComp volt: %d  freq: %d  current: %lu\n", sensorData.voltCompressor, sens
1010:main.c        **** //        MyUART_PutString(str);
1011:main.c        **** //        
1012:main.c        **** //        read_power_chips(ADDR_POWER2);
1013:main.c        **** //        sprintf(str, "\nLow Fan volt: %d  freq: %d  current: %lu\n", sensorData.voltFan, sensorDa
1014:main.c        **** //        MyUART_PutString(str);
1015:main.c        **** //        
1016:main.c        **** //        read_power_chips(ADDR_POWER3);
1017:main.c        **** //        sprintf(str, "\nHigh Fan volt: %d  freq: %d  current: %lu\n", sensorData.volt, sensorData
1018:main.c        **** //        MyUART_PutString(str);
1019:main.c        **** 
1020:main.c        ****   // } //end of  if adc result is > 1500 turn regulator
1021:main.c        **** 
1022:main.c        **** // --------------- AIR FLOW ------------
1023:main.c        **** 
1024:main.c        ****     //read_Air_Flow();
1025:main.c        **** 
1026:main.c        **** // ----- BLE CODE ----------
1027:main.c        **** 
1028:main.c        **** 
1029:main.c        ****      if(bleConnected == 1){ ///
 3287              		.loc 1 1029 0
 3288 060e 934B     		ldr	r3, .L134+20
 3289 0610 1B78     		ldrb	r3, [r3]
 3290 0612 012B     		cmp	r3, #1
ARM GAS  C:\Users\sergio\AppData\Local\Temp\cc6XWpSt.s 			page 80


 3291 0614 2AD1     		bne	.L105
1030:main.c        **** //                RED_Write(1);
1031:main.c        **** //                BLUE_Write(1);
1032:main.c        **** //                GREEN_Write(1);
1033:main.c        ****             updateNotificationCCCD();
 3292              		.loc 1 1033 0
 3293 0616 FFF7FEFF 		bl	updateNotificationCCCD
1034:main.c        ****             
1035:main.c        ****             if(isNotify == 1){
 3294              		.loc 1 1035 0
 3295 061a 934B     		ldr	r3, .L134+32
 3296 061c 1B78     		ldrb	r3, [r3]
 3297 061e 012B     		cmp	r3, #1
 3298 0620 16D1     		bne	.L106
1036:main.c        ****                 GREEN_Write(1);
 3299              		.loc 1 1036 0
 3300 0622 0120     		movs	r0, #1
 3301 0624 FFF7FEFF 		bl	GREEN_Write
1037:main.c        ****                 RED_Write(1);
 3302              		.loc 1 1037 0
 3303 0628 0120     		movs	r0, #1
 3304 062a FFF7FEFF 		bl	RED_Write
1038:main.c        ****                 if(CyBle_GattGetBusStatus() == CYBLE_STACK_STATE_FREE){
 3305              		.loc 1 1038 0
 3306 062e 8F4B     		ldr	r3, .L134+36
 3307 0630 1B78     		ldrb	r3, [r3]
 3308 0632 DBB2     		uxtb	r3, r3
 3309 0634 002B     		cmp	r3, #0
 3310 0636 2ED1     		bne	.L109
1039:main.c        ****                  BLUE_Write(!BLUE_Read());
 3311              		.loc 1 1039 0
 3312 0638 FFF7FEFF 		bl	BLUE_Read
 3313 063c 0300     		movs	r3, r0
 3314 063e 5A42     		rsbs	r2, r3, #0
 3315 0640 5341     		adcs	r3, r3, r2
 3316 0642 DBB2     		uxtb	r3, r3
 3317 0644 1800     		movs	r0, r3
 3318 0646 FFF7FEFF 		bl	BLUE_Write
1040:main.c        ****                     SendDataNotify();
 3319              		.loc 1 1040 0
 3320 064a FFF7FEFF 		bl	SendDataNotify
 3321 064e 22E0     		b	.L109
 3322              	.L106:
1041:main.c        ****                  //BLUE_Write(1);
1042:main.c        ****                }
1043:main.c        ****             } // end of notification
1044:main.c        ****             else{
1045:main.c        ****                 thermo.ambientTemp = sensorData.localTemp;
 3323              		.loc 1 1045 0
 3324 0650 7D4B     		ldr	r3, .L134
 3325 0652 1A78     		ldrb	r2, [r3]
 3326 0654 864B     		ldr	r3, .L134+40
 3327 0656 1A71     		strb	r2, [r3, #4]
1046:main.c        ****                 
1047:main.c        ****                 GREEN_Write(0);
 3328              		.loc 1 1047 0
 3329 0658 0020     		movs	r0, #0
ARM GAS  C:\Users\sergio\AppData\Local\Temp\cc6XWpSt.s 			page 81


 3330 065a FFF7FEFF 		bl	GREEN_Write
1048:main.c        ****                 RED_Write(1);
 3331              		.loc 1 1048 0
 3332 065e 0120     		movs	r0, #1
 3333 0660 FFF7FEFF 		bl	RED_Write
1049:main.c        ****                 BLUE_Write(1);
 3334              		.loc 1 1049 0
 3335 0664 0120     		movs	r0, #1
 3336 0666 FFF7FEFF 		bl	BLUE_Write
 3337 066a 14E0     		b	.L109
 3338              	.L105:
1050:main.c        ****                 
1051:main.c        ****             } //end of read/write 
1052:main.c        ****         } // end ble connected if  
1053:main.c        ****     else{
1054:main.c        ****         RED_Write(!RED_Read());
 3339              		.loc 1 1054 0
 3340 066c FFF7FEFF 		bl	RED_Read
 3341 0670 0300     		movs	r3, r0
 3342 0672 5A42     		rsbs	r2, r3, #0
 3343 0674 5341     		adcs	r3, r3, r2
 3344 0676 DBB2     		uxtb	r3, r3
 3345 0678 1800     		movs	r0, r3
 3346 067a FFF7FEFF 		bl	RED_Write
1055:main.c        ****         GREEN_Write(!GREEN_Read());
 3347              		.loc 1 1055 0
 3348 067e FFF7FEFF 		bl	GREEN_Read
 3349 0682 0300     		movs	r3, r0
 3350 0684 5A42     		rsbs	r2, r3, #0
 3351 0686 5341     		adcs	r3, r3, r2
 3352 0688 DBB2     		uxtb	r3, r3
 3353 068a 1800     		movs	r0, r3
 3354 068c FFF7FEFF 		bl	GREEN_Write
1056:main.c        ****         BLUE_Write(1);
 3355              		.loc 1 1056 0
 3356 0690 0120     		movs	r0, #1
 3357 0692 FFF7FEFF 		bl	BLUE_Write
 3358              	.L109:
1057:main.c        ****     }
1058:main.c        ****     counter +=1;
 3359              		.loc 1 1058 0 discriminator 2
 3360 0696 774B     		ldr	r3, .L134+44
 3361 0698 1B68     		ldr	r3, [r3]
 3362 069a 5A1C     		adds	r2, r3, #1
 3363 069c 754B     		ldr	r3, .L134+44
 3364 069e 1A60     		str	r2, [r3]
1059:main.c        ****     interruptFlag = 0;
 3365              		.loc 1 1059 0 discriminator 2
 3366 06a0 754B     		ldr	r3, .L134+48
 3367 06a2 0022     		movs	r2, #0
 3368 06a4 1A60     		str	r2, [r3]
 3369              	.L101:
 3370              	.LBE5:
1060:main.c        ****     }// end if int flag
1061:main.c        **** 
1062:main.c        **** // --------------------   control relays and high switch  -----------------
1063:main.c        **** //  0x04 comp  0x08 low fan   0x10 high  fan  gipo masks for checking pins
ARM GAS  C:\Users\sergio\AppData\Local\Temp\cc6XWpSt.s 			page 82


1064:main.c        **** 
1065:main.c        **** if (bleConnected == 1){
 3371              		.loc 1 1065 0
 3372 06a6 6D4B     		ldr	r3, .L134+20
 3373 06a8 1B78     		ldrb	r3, [r3]
 3374 06aa 012B     		cmp	r3, #1
 3375 06ac 00D0     		beq	.LCB2614
 3376 06ae 4DE1     		b	.L110	@long jump
 3377              	.LCB2614:
1066:main.c        ****     
1067:main.c        **** //    if(thermo.power == 1 && thermo.fanLow == 1 && thermo.compressor == 1){           // Asking fo
1068:main.c        **** //        thermoState = 0x11;
1069:main.c        **** //    }
1070:main.c        **** //    else if(thermo.power == 1 && thermo.fanHigh == 1 && thermo.compressor == 1){     // Asking fo
1071:main.c        **** //        thermoState = 0x09;
1072:main.c        **** //    }
1073:main.c        **** //    else if (thermo.power == 1 && thermo.fanLow == 1 && thermo.compressor == 0){    // Asking .
1074:main.c        **** //        thermoState = 0x10;
1075:main.c        **** //    }
1076:main.c        **** //    else if(thermo.power == 1 && thermo.fanHigh == 1 && thermo.compressor == 0){
1077:main.c        **** //        thermoState = 0x08;
1078:main.c        **** //    }else if(thermo.power == 0){
1079:main.c        **** //        thermoState = 0x00;
1080:main.c        **** //    }
1081:main.c        **** 
1082:main.c        ****         if(thermo.power == 1 && thermo.test == 0){
 3378              		.loc 1 1082 0
 3379 06b0 6F4B     		ldr	r3, .L134+40
 3380 06b2 5B79     		ldrb	r3, [r3, #5]
 3381 06b4 012B     		cmp	r3, #1
 3382 06b6 00D0     		beq	.LCB2618
 3383 06b8 B7E0     		b	.L111	@long jump
 3384              	.LCB2618:
 3385              		.loc 1 1082 0 is_stmt 0 discriminator 1
 3386 06ba 6D4B     		ldr	r3, .L134+40
 3387 06bc 9B79     		ldrb	r3, [r3, #6]
 3388 06be 002B     		cmp	r3, #0
 3389 06c0 00D0     		beq	.LCB2622
 3390 06c2 B2E0     		b	.L111	@long jump
 3391              	.LCB2622:
1083:main.c        ****             if(thermo.compressor == 1){
 3392              		.loc 1 1083 0 is_stmt 1
 3393 06c4 6A4B     		ldr	r3, .L134+40
 3394 06c6 1B78     		ldrb	r3, [r3]
 3395 06c8 012B     		cmp	r3, #1
 3396 06ca 00D0     		beq	.LCB2626
 3397 06cc 7CE0     		b	.L112	@long jump
 3398              	.LCB2626:
1084:main.c        ****                 // if the temperature of ambient is higher than the temprature set turn on the comp
1085:main.c        ****                 if(sensorData.localTemp > (thermo.setTemperature + 2)){
 3399              		.loc 1 1085 0
 3400 06ce 5E4B     		ldr	r3, .L134
 3401 06d0 1B78     		ldrb	r3, [r3]
 3402 06d2 1A00     		movs	r2, r3
 3403 06d4 664B     		ldr	r3, .L134+40
 3404 06d6 DB78     		ldrb	r3, [r3, #3]
 3405 06d8 0233     		adds	r3, r3, #2
ARM GAS  C:\Users\sergio\AppData\Local\Temp\cc6XWpSt.s 			page 83


 3406 06da 9A42     		cmp	r2, r3
 3407 06dc 36DD     		ble	.L113
1086:main.c        ****                     if(sensorData.localTemp > thermo.setTemperature){
 3408              		.loc 1 1086 0
 3409 06de 5A4B     		ldr	r3, .L134
 3410 06e0 1A78     		ldrb	r2, [r3]
 3411 06e2 634B     		ldr	r3, .L134+40
 3412 06e4 DB78     		ldrb	r3, [r3, #3]
 3413 06e6 9A42     		cmp	r2, r3
 3414 06e8 00D8     		bhi	.LCB2640
 3415 06ea 32E1     		b	.L130	@long jump
 3416              	.LCB2640:
1087:main.c        ****                         if(thermo.power == 1 && thermo.fanLow == 1 && thermo.compressor == 1 && the
 3417              		.loc 1 1087 0
 3418 06ec 604B     		ldr	r3, .L134+40
 3419 06ee 5B79     		ldrb	r3, [r3, #5]
 3420 06f0 012B     		cmp	r3, #1
 3421 06f2 11D1     		bne	.L115
 3422              		.loc 1 1087 0 is_stmt 0 discriminator 1
 3423 06f4 5E4B     		ldr	r3, .L134+40
 3424 06f6 5B78     		ldrb	r3, [r3, #1]
 3425 06f8 012B     		cmp	r3, #1
 3426 06fa 0DD1     		bne	.L115
 3427              		.loc 1 1087 0 discriminator 2
 3428 06fc 5C4B     		ldr	r3, .L134+40
 3429 06fe 1B78     		ldrb	r3, [r3]
 3430 0700 012B     		cmp	r3, #1
 3431 0702 09D1     		bne	.L115
 3432              		.loc 1 1087 0 discriminator 3
 3433 0704 5A4B     		ldr	r3, .L134+40
 3434 0706 9B78     		ldrb	r3, [r3, #2]
 3435 0708 002B     		cmp	r3, #0
 3436 070a 05D1     		bne	.L115
1088:main.c        ****                             thermoState = 0x14;
 3437              		.loc 1 1088 0 is_stmt 1
 3438 070c 544B     		ldr	r3, .L134+24
 3439 070e 1422     		movs	r2, #20
 3440 0710 1A70     		strb	r2, [r3]
1089:main.c        ****                             run_ac();
 3441              		.loc 1 1089 0
 3442 0712 FFF7FEFF 		bl	run_ac
 3443 0716 87E0     		b	.L118
 3444              	.L115:
1090:main.c        ****                         }
1091:main.c        ****                         else if(thermo.power == 1 && thermo.fanHigh == 1 && thermo.compressor == 1 
 3445              		.loc 1 1091 0
 3446 0718 554B     		ldr	r3, .L134+40
 3447 071a 5B79     		ldrb	r3, [r3, #5]
 3448 071c 012B     		cmp	r3, #1
 3449 071e 00D0     		beq	.LCB2668
 3450 0720 17E1     		b	.L130	@long jump
 3451              	.LCB2668:
 3452              		.loc 1 1091 0 is_stmt 0 discriminator 1
 3453 0722 534B     		ldr	r3, .L134+40
 3454 0724 9B78     		ldrb	r3, [r3, #2]
 3455 0726 012B     		cmp	r3, #1
 3456 0728 00D0     		beq	.LCB2672
ARM GAS  C:\Users\sergio\AppData\Local\Temp\cc6XWpSt.s 			page 84


 3457 072a 12E1     		b	.L130	@long jump
 3458              	.LCB2672:
 3459              		.loc 1 1091 0 discriminator 2
 3460 072c 504B     		ldr	r3, .L134+40
 3461 072e 1B78     		ldrb	r3, [r3]
 3462 0730 012B     		cmp	r3, #1
 3463 0732 00D0     		beq	.LCB2676
 3464 0734 0DE1     		b	.L130	@long jump
 3465              	.LCB2676:
 3466              		.loc 1 1091 0 discriminator 3
 3467 0736 4E4B     		ldr	r3, .L134+40
 3468 0738 5B78     		ldrb	r3, [r3, #1]
 3469 073a 002B     		cmp	r3, #0
 3470 073c 00D0     		beq	.LCB2680
 3471 073e 08E1     		b	.L130	@long jump
 3472              	.LCB2680:
1092:main.c        ****                             thermoState = 0x0C;
 3473              		.loc 1 1092 0 is_stmt 1
 3474 0740 474B     		ldr	r3, .L134+24
 3475 0742 0C22     		movs	r2, #12
 3476 0744 1A70     		strb	r2, [r3]
1093:main.c        ****                             run_ac();
 3477              		.loc 1 1093 0
 3478 0746 FFF7FEFF 		bl	run_ac
1083:main.c        ****                 // if the temperature of ambient is higher than the temprature set turn on the comp
 3479              		.loc 1 1083 0
 3480 074a 02E1     		b	.L130
 3481              	.L113:
1094:main.c        ****                         }
1095:main.c        ****                     }
1096:main.c        ****                 }
1097:main.c        ****                 // if the ambient temperature is equal or less to the set temperature turn off the 
1098:main.c        ****                 else if(sensorData.localTemp <= (thermo.setTemperature - 2)){
 3482              		.loc 1 1098 0
 3483 074c 3E4B     		ldr	r3, .L134
 3484 074e 1B78     		ldrb	r3, [r3]
 3485 0750 1A00     		movs	r2, r3
 3486 0752 474B     		ldr	r3, .L134+40
 3487 0754 DB78     		ldrb	r3, [r3, #3]
 3488 0756 023B     		subs	r3, r3, #2
 3489 0758 9A42     		cmp	r2, r3
 3490 075a 00DD     		ble	.LCB2696
 3491 075c F9E0     		b	.L130	@long jump
 3492              	.LCB2696:
1099:main.c        ****                     if(sensorData.localTemp <= thermo.setTemperature){
 3493              		.loc 1 1099 0
 3494 075e 3A4B     		ldr	r3, .L134
 3495 0760 1A78     		ldrb	r2, [r3]
 3496 0762 434B     		ldr	r3, .L134+40
 3497 0764 DB78     		ldrb	r3, [r3, #3]
 3498 0766 9A42     		cmp	r2, r3
 3499 0768 00D9     		bls	.LCB2702
 3500 076a F2E0     		b	.L130	@long jump
 3501              	.LCB2702:
1100:main.c        ****                         if (thermo.power == 1 && thermo.fanLow == 1 && thermo.fanHigh == 0 && therm
 3502              		.loc 1 1100 0
 3503 076c 404B     		ldr	r3, .L134+40
ARM GAS  C:\Users\sergio\AppData\Local\Temp\cc6XWpSt.s 			page 85


 3504 076e 5B79     		ldrb	r3, [r3, #5]
 3505 0770 012B     		cmp	r3, #1
 3506 0772 0FD1     		bne	.L117
 3507              		.loc 1 1100 0 is_stmt 0 discriminator 1
 3508 0774 3E4B     		ldr	r3, .L134+40
 3509 0776 5B78     		ldrb	r3, [r3, #1]
 3510 0778 012B     		cmp	r3, #1
 3511 077a 0BD1     		bne	.L117
 3512              		.loc 1 1100 0 discriminator 2
 3513 077c 3C4B     		ldr	r3, .L134+40
 3514 077e 9B78     		ldrb	r3, [r3, #2]
 3515 0780 002B     		cmp	r3, #0
 3516 0782 07D1     		bne	.L117
 3517              		.loc 1 1100 0 discriminator 3
 3518 0784 3A4B     		ldr	r3, .L134+40
 3519 0786 1B78     		ldrb	r3, [r3]
 3520 0788 012B     		cmp	r3, #1
 3521 078a 03D1     		bne	.L117
1101:main.c        ****                             thermoState = 0x10;
 3522              		.loc 1 1101 0 is_stmt 1
 3523 078c 344B     		ldr	r3, .L134+24
 3524 078e 1022     		movs	r2, #16
 3525 0790 1A70     		strb	r2, [r3]
 3526 0792 49E0     		b	.L118
 3527              	.L117:
1102:main.c        ****                         }
1103:main.c        ****                         else if(thermo.power == 1 && thermo.fanLow == 0 && thermo.fanHigh == 1 && t
 3528              		.loc 1 1103 0
 3529 0794 364B     		ldr	r3, .L134+40
 3530 0796 5B79     		ldrb	r3, [r3, #5]
 3531 0798 012B     		cmp	r3, #1
 3532 079a 00D0     		beq	.LCB2729
 3533 079c D9E0     		b	.L130	@long jump
 3534              	.LCB2729:
 3535              		.loc 1 1103 0 is_stmt 0 discriminator 1
 3536 079e 344B     		ldr	r3, .L134+40
 3537 07a0 5B78     		ldrb	r3, [r3, #1]
 3538 07a2 002B     		cmp	r3, #0
 3539 07a4 00D0     		beq	.LCB2733
 3540 07a6 D4E0     		b	.L130	@long jump
 3541              	.LCB2733:
 3542              		.loc 1 1103 0 discriminator 2
 3543 07a8 314B     		ldr	r3, .L134+40
 3544 07aa 9B78     		ldrb	r3, [r3, #2]
 3545 07ac 012B     		cmp	r3, #1
 3546 07ae 00D0     		beq	.LCB2737
 3547 07b0 CFE0     		b	.L130	@long jump
 3548              	.LCB2737:
 3549              		.loc 1 1103 0 discriminator 3
 3550 07b2 2F4B     		ldr	r3, .L134+40
 3551 07b4 1B78     		ldrb	r3, [r3]
 3552 07b6 012B     		cmp	r3, #1
 3553 07b8 00D0     		beq	.LCB2741
 3554 07ba CAE0     		b	.L130	@long jump
 3555              	.LCB2741:
1104:main.c        ****                             thermoState = 0x08;
 3556              		.loc 1 1104 0 is_stmt 1
ARM GAS  C:\Users\sergio\AppData\Local\Temp\cc6XWpSt.s 			page 86


 3557 07bc 284B     		ldr	r3, .L134+24
 3558 07be 0822     		movs	r2, #8
 3559 07c0 1A70     		strb	r2, [r3]
1105:main.c        ****                             run_ac();
 3560              		.loc 1 1105 0
 3561 07c2 FFF7FEFF 		bl	run_ac
1083:main.c        ****                 // if the temperature of ambient is higher than the temprature set turn on the comp
 3562              		.loc 1 1083 0
 3563 07c6 C4E0     		b	.L130
 3564              	.L112:
1106:main.c        ****                         }
1107:main.c        ****                     }
1108:main.c        ****                 }
1109:main.c        ****                 
1110:main.c        ****              } // end comp on
1111:main.c        ****              else{
1112:main.c        ****                 if (thermo.power == 1 && thermo.fanLow == 1 && thermo.fanHigh == 0 && thermo.compre
 3565              		.loc 1 1112 0
 3566 07c8 294B     		ldr	r3, .L134+40
 3567 07ca 5B79     		ldrb	r3, [r3, #5]
 3568 07cc 012B     		cmp	r3, #1
 3569 07ce 11D1     		bne	.L119
 3570              		.loc 1 1112 0 is_stmt 0 discriminator 1
 3571 07d0 274B     		ldr	r3, .L134+40
 3572 07d2 5B78     		ldrb	r3, [r3, #1]
 3573 07d4 012B     		cmp	r3, #1
 3574 07d6 0DD1     		bne	.L119
 3575              		.loc 1 1112 0 discriminator 2
 3576 07d8 254B     		ldr	r3, .L134+40
 3577 07da 9B78     		ldrb	r3, [r3, #2]
 3578 07dc 002B     		cmp	r3, #0
 3579 07de 09D1     		bne	.L119
 3580              		.loc 1 1112 0 discriminator 3
 3581 07e0 234B     		ldr	r3, .L134+40
 3582 07e2 1B78     		ldrb	r3, [r3]
 3583 07e4 002B     		cmp	r3, #0
 3584 07e6 05D1     		bne	.L119
1113:main.c        ****                     thermoState = 0x10;
 3585              		.loc 1 1113 0 is_stmt 1
 3586 07e8 1D4B     		ldr	r3, .L134+24
 3587 07ea 1022     		movs	r2, #16
 3588 07ec 1A70     		strb	r2, [r3]
1114:main.c        ****                     run_ac();
 3589              		.loc 1 1114 0
 3590 07ee FFF7FEFF 		bl	run_ac
 3591 07f2 19E0     		b	.L118
 3592              	.L119:
1115:main.c        ****                 }
1116:main.c        ****                 else if(thermo.power == 1 && thermo.fanLow == 0 && thermo.fanHigh == 1 && thermo.co
 3593              		.loc 1 1116 0
 3594 07f4 1E4B     		ldr	r3, .L134+40
 3595 07f6 5B79     		ldrb	r3, [r3, #5]
 3596 07f8 012B     		cmp	r3, #1
 3597 07fa 00D0     		beq	.LCB2777
 3598 07fc A9E0     		b	.L130	@long jump
 3599              	.LCB2777:
 3600              		.loc 1 1116 0 is_stmt 0 discriminator 1
ARM GAS  C:\Users\sergio\AppData\Local\Temp\cc6XWpSt.s 			page 87


 3601 07fe 1C4B     		ldr	r3, .L134+40
 3602 0800 5B78     		ldrb	r3, [r3, #1]
 3603 0802 002B     		cmp	r3, #0
 3604 0804 00D0     		beq	.LCB2781
 3605 0806 A4E0     		b	.L130	@long jump
 3606              	.LCB2781:
 3607              		.loc 1 1116 0 discriminator 2
 3608 0808 194B     		ldr	r3, .L134+40
 3609 080a 9B78     		ldrb	r3, [r3, #2]
 3610 080c 012B     		cmp	r3, #1
 3611 080e 00D0     		beq	.LCB2785
 3612 0810 9FE0     		b	.L130	@long jump
 3613              	.LCB2785:
 3614              		.loc 1 1116 0 discriminator 3
 3615 0812 174B     		ldr	r3, .L134+40
 3616 0814 1B78     		ldrb	r3, [r3]
 3617 0816 002B     		cmp	r3, #0
 3618 0818 00D0     		beq	.LCB2789
 3619 081a 9AE0     		b	.L130	@long jump
 3620              	.LCB2789:
1117:main.c        ****                     thermoState = 0x08;
 3621              		.loc 1 1117 0 is_stmt 1
 3622 081c 104B     		ldr	r3, .L134+24
 3623 081e 0822     		movs	r2, #8
 3624 0820 1A70     		strb	r2, [r3]
1118:main.c        ****                     run_ac();
 3625              		.loc 1 1118 0
 3626 0822 FFF7FEFF 		bl	run_ac
1083:main.c        ****                 // if the temperature of ambient is higher than the temprature set turn on the comp
 3627              		.loc 1 1083 0
 3628 0826 94E0     		b	.L130
 3629              	.L118:
1083:main.c        ****                 // if the temperature of ambient is higher than the temprature set turn on the comp
 3630              		.loc 1 1083 0 is_stmt 0 discriminator 4
 3631 0828 93E0     		b	.L130
 3632              	.L111:
1119:main.c        ****                 }
1120:main.c        ****             }
1121:main.c        ****         }
1122:main.c        ****         else if(thermo.power == 0 && thermo.test == 0){
 3633              		.loc 1 1122 0 is_stmt 1
 3634 082a 114B     		ldr	r3, .L134+40
 3635 082c 5B79     		ldrb	r3, [r3, #5]
 3636 082e 002B     		cmp	r3, #0
 3637 0830 24D1     		bne	.L121
 3638              		.loc 1 1122 0 is_stmt 0 discriminator 1
 3639 0832 0F4B     		ldr	r3, .L134+40
 3640 0834 9B79     		ldrb	r3, [r3, #6]
 3641 0836 002B     		cmp	r3, #0
 3642 0838 20D1     		bne	.L121
1123:main.c        ****             thermoState = 0x00;
 3643              		.loc 1 1123 0 is_stmt 1
 3644 083a 094B     		ldr	r3, .L134+24
 3645 083c 0022     		movs	r2, #0
 3646 083e 1A70     		strb	r2, [r3]
1124:main.c        ****             run_ac();
 3647              		.loc 1 1124 0
ARM GAS  C:\Users\sergio\AppData\Local\Temp\cc6XWpSt.s 			page 88


 3648 0840 FFF7FEFF 		bl	run_ac
 3649 0844 86E0     		b	.L128
 3650              	.L135:
 3651 0846 C046     		.align	2
 3652              	.L134:
 3653 0848 00000000 		.word	sensorData
 3654 084c 64030000 		.word	.LC81
 3655 0850 80030000 		.word	.LC83
 3656 0854 9C030000 		.word	.LC85
 3657 0858 00000000 		.word	gpioPins
 3658 085c 00000000 		.word	bleConnected
 3659 0860 00000000 		.word	thermoState
 3660 0864 BC030000 		.word	.LC89
 3661 0868 00000000 		.word	isNotify
 3662 086c 00000000 		.word	cyBle_busyStatus
 3663 0870 00000000 		.word	thermo
 3664 0874 00000000 		.word	counter
 3665 0878 00000000 		.word	interruptFlag
 3666              	.L121:
1125:main.c        ****         }
1126:main.c        **** //---------------------------------- test page here -----------------------------------------------
1127:main.c        ****         else if(thermo.test == 1){
 3667              		.loc 1 1127 0
 3668 087c 384B     		ldr	r3, .L136
 3669 087e 9B79     		ldrb	r3, [r3, #6]
 3670 0880 012B     		cmp	r3, #1
 3671 0882 67D1     		bne	.L128
1128:main.c        ****             if(thermo.power == 0){
 3672              		.loc 1 1128 0
 3673 0884 364B     		ldr	r3, .L136
 3674 0886 5B79     		ldrb	r3, [r3, #5]
 3675 0888 002B     		cmp	r3, #0
 3676 088a 12D1     		bne	.L122
1129:main.c        ****                  RelayC_3_Write(1);
 3677              		.loc 1 1129 0
 3678 088c 0120     		movs	r0, #1
 3679 088e FFF7FEFF 		bl	RelayC_3_Write
1130:main.c        ****                  Comp_out_Write(1);
 3680              		.loc 1 1130 0
 3681 0892 0120     		movs	r0, #1
 3682 0894 FFF7FEFF 		bl	Comp_out_Write
1131:main.c        ****                 
1132:main.c        ****                  RelayLF_1_Write(1);
 3683              		.loc 1 1132 0
 3684 0898 0120     		movs	r0, #1
 3685 089a FFF7FEFF 		bl	RelayLF_1_Write
1133:main.c        ****                  LowF_out_Write(1);
 3686              		.loc 1 1133 0
 3687 089e 0120     		movs	r0, #1
 3688 08a0 FFF7FEFF 		bl	LowF_out_Write
1134:main.c        ****             
1135:main.c        ****                  RelayHF_2_Write(1);
 3689              		.loc 1 1135 0
 3690 08a4 0120     		movs	r0, #1
 3691 08a6 FFF7FEFF 		bl	RelayHF_2_Write
1136:main.c        ****                  LowF_out_Write(1);
 3692              		.loc 1 1136 0
ARM GAS  C:\Users\sergio\AppData\Local\Temp\cc6XWpSt.s 			page 89


 3693 08aa 0120     		movs	r0, #1
 3694 08ac FFF7FEFF 		bl	LowF_out_Write
 3695 08b0 50E0     		b	.L128
 3696              	.L122:
1137:main.c        ****             } // end power off
1138:main.c        ****             else if(thermo.power == 1){
 3697              		.loc 1 1138 0
 3698 08b2 2B4B     		ldr	r3, .L136
 3699 08b4 5B79     		ldrb	r3, [r3, #5]
 3700 08b6 012B     		cmp	r3, #1
 3701 08b8 4CD1     		bne	.L128
1139:main.c        ****                 if(thermo.compressor == 1){
 3702              		.loc 1 1139 0
 3703 08ba 294B     		ldr	r3, .L136
 3704 08bc 1B78     		ldrb	r3, [r3]
 3705 08be 012B     		cmp	r3, #1
 3706 08c0 09D1     		bne	.L123
1140:main.c        ****                     RelayC_3_Write(0);
 3707              		.loc 1 1140 0
 3708 08c2 0020     		movs	r0, #0
 3709 08c4 FFF7FEFF 		bl	RelayC_3_Write
1141:main.c        ****                     Comp_out_Write(0);
 3710              		.loc 1 1141 0
 3711 08c8 0020     		movs	r0, #0
 3712 08ca FFF7FEFF 		bl	Comp_out_Write
1142:main.c        ****                     
1143:main.c        ****                  //   if(sensorData.voltCompressor > 2){
1144:main.c        ****                    //     if(sensorData.currentCompressor > 1000){
1145:main.c        ****                             thermo.compressor = 1u;
 3713              		.loc 1 1145 0
 3714 08ce 244B     		ldr	r3, .L136
 3715 08d0 0122     		movs	r2, #1
 3716 08d2 1A70     		strb	r2, [r3]
 3717 08d4 09E0     		b	.L124
 3718              	.L123:
1146:main.c        ****                         //}
1147:main.c        ****                      //   else{
1148:main.c        ****                        //     errorPower.err_Comp_curr = 1;
1149:main.c        ****                          //   thermo.compressor = 0u;
1150:main.c        ****                         //}
1151:main.c        ****                     //}
1152:main.c        ****                     //else{
1153:main.c        ****                       //  errorPower.err_Comp_volt = 1; 
1154:main.c        ****                         //thermo.compressor = 0u;
1155:main.c        ****                    // }
1156:main.c        ****                 } // end compressor on
1157:main.c        ****                 else if(thermo.compressor == 0){
 3719              		.loc 1 1157 0
 3720 08d6 224B     		ldr	r3, .L136
 3721 08d8 1B78     		ldrb	r3, [r3]
 3722 08da 002B     		cmp	r3, #0
 3723 08dc 05D1     		bne	.L124
1158:main.c        ****                     RelayC_3_Write(1);
 3724              		.loc 1 1158 0
 3725 08de 0120     		movs	r0, #1
 3726 08e0 FFF7FEFF 		bl	RelayC_3_Write
1159:main.c        ****                     Comp_out_Write(1);
ARM GAS  C:\Users\sergio\AppData\Local\Temp\cc6XWpSt.s 			page 90


 3727              		.loc 1 1159 0
 3728 08e4 0120     		movs	r0, #1
 3729 08e6 FFF7FEFF 		bl	Comp_out_Write
 3730              	.L124:
1160:main.c        ****                     
1161:main.c        ****                     //if(sensorData.voltCompressor < 2){
1162:main.c        ****                       //  errorPower.err_Comp_volt = 1;
1163:main.c        ****                         //if(sensorData.currentCompressor < 1000){
1164:main.c        ****                           //  errorPower.err_Comp_curr = 1;
1165:main.c        ****                         //}
1166:main.c        ****                     //}
1167:main.c        ****                 } // end compressor on
1168:main.c        ****                 
1169:main.c        ****                 if(thermo.fanLow == 1){
 3731              		.loc 1 1169 0
 3732 08ea 1D4B     		ldr	r3, .L136
 3733 08ec 5B78     		ldrb	r3, [r3, #1]
 3734 08ee 012B     		cmp	r3, #1
 3735 08f0 09D1     		bne	.L125
1170:main.c        ****                     RelayLF_1_Write(0);
 3736              		.loc 1 1170 0
 3737 08f2 0020     		movs	r0, #0
 3738 08f4 FFF7FEFF 		bl	RelayLF_1_Write
1171:main.c        ****                     LowF_out_Write(0);
 3739              		.loc 1 1171 0
 3740 08f8 0020     		movs	r0, #0
 3741 08fa FFF7FEFF 		bl	LowF_out_Write
1172:main.c        ****                     
1173:main.c        ****                     //if(sensorData.volt > 2){
1174:main.c        ****                         //if(sensorData.current > 1000){
1175:main.c        ****                            thermo.fanLow = 1;
 3742              		.loc 1 1175 0
 3743 08fe 184B     		ldr	r3, .L136
 3744 0900 0122     		movs	r2, #1
 3745 0902 5A70     		strb	r2, [r3, #1]
 3746 0904 09E0     		b	.L126
 3747              	.L125:
1176:main.c        ****                         //}
1177:main.c        **** //                        else{
1178:main.c        **** //                           errorPower.err_LFan_curr = 1;
1179:main.c        **** //                           thermo.fanLow = 0;
1180:main.c        **** //                        }
1181:main.c        ****                     //}
1182:main.c        **** //                    else{
1183:main.c        **** //                        errorPower.err_LFan_volt = 1; 
1184:main.c        **** //                        thermo.fanLow = 0;
1185:main.c        **** //                    }
1186:main.c        ****                 } // end of low fan on
1187:main.c        ****                 else if(thermo.fanLow == 0){
 3748              		.loc 1 1187 0
 3749 0906 164B     		ldr	r3, .L136
 3750 0908 5B78     		ldrb	r3, [r3, #1]
 3751 090a 002B     		cmp	r3, #0
 3752 090c 05D1     		bne	.L126
1188:main.c        ****                     RelayLF_1_Write(1);
 3753              		.loc 1 1188 0
 3754 090e 0120     		movs	r0, #1
ARM GAS  C:\Users\sergio\AppData\Local\Temp\cc6XWpSt.s 			page 91


 3755 0910 FFF7FEFF 		bl	RelayLF_1_Write
1189:main.c        ****                     LowF_out_Write(1);
 3756              		.loc 1 1189 0
 3757 0914 0120     		movs	r0, #1
 3758 0916 FFF7FEFF 		bl	LowF_out_Write
 3759              	.L126:
1190:main.c        ****                     
1191:main.c        ****                     //if(sensorData.volt > 2){
1192:main.c        ****                         //errorPower.err_Comp_volt = 1;
1193:main.c        ****                         
1194:main.c        **** //                        if(sensorData.current > 1000){
1195:main.c        **** //                            errorPower.err_Comp_curr = 1;
1196:main.c        **** //                        }
1197:main.c        **** //                    }
1198:main.c        ****                 } // end of low fan off
1199:main.c        ****                 
1200:main.c        ****                 if(thermo.fanHigh == 1){
 3760              		.loc 1 1200 0
 3761 091a 114B     		ldr	r3, .L136
 3762 091c 9B78     		ldrb	r3, [r3, #2]
 3763 091e 012B     		cmp	r3, #1
 3764 0920 09D1     		bne	.L127
1201:main.c        ****                     RelayHF_2_Write(0);
 3765              		.loc 1 1201 0
 3766 0922 0020     		movs	r0, #0
 3767 0924 FFF7FEFF 		bl	RelayHF_2_Write
1202:main.c        ****                     HighF_out_Write(0);
 3768              		.loc 1 1202 0
 3769 0928 0020     		movs	r0, #0
 3770 092a FFF7FEFF 		bl	HighF_out_Write
1203:main.c        ****                     
1204:main.c        ****                     //if(sensorData.voltFan > 2){                        
1205:main.c        ****                       //  if(sensorData.currentFan > 1000){
1206:main.c        ****                             thermo.fanHigh = 1;
 3771              		.loc 1 1206 0
 3772 092e 0C4B     		ldr	r3, .L136
 3773 0930 0122     		movs	r2, #1
 3774 0932 9A70     		strb	r2, [r3, #2]
 3775 0934 0EE0     		b	.L128
 3776              	.L127:
1207:main.c        ****                         //}
1208:main.c        ****                         //else{
1209:main.c        ****                           //  errorPower.err_HFan_curr = 1;
1210:main.c        ****                            // thermo.fanHigh = 0;
1211:main.c        ****                         //}
1212:main.c        ****                     //}
1213:main.c        ****                     //else{
1214:main.c        ****                       //  errorPower.err_HFan_volt = 1;
1215:main.c        ****                         //thermo.fanHigh = 0;
1216:main.c        ****                   //  }
1217:main.c        ****                 } // end of High fan on
1218:main.c        ****                 else if(thermo.fanHigh == 0){
 3777              		.loc 1 1218 0
 3778 0936 0A4B     		ldr	r3, .L136
 3779 0938 9B78     		ldrb	r3, [r3, #2]
 3780 093a 002B     		cmp	r3, #0
 3781 093c 0AD1     		bne	.L128
ARM GAS  C:\Users\sergio\AppData\Local\Temp\cc6XWpSt.s 			page 92


1219:main.c        ****                     RelayHF_2_Write(1);
 3782              		.loc 1 1219 0
 3783 093e 0120     		movs	r0, #1
 3784 0940 FFF7FEFF 		bl	RelayHF_2_Write
1220:main.c        ****                     HighF_out_Write(1);
 3785              		.loc 1 1220 0
 3786 0944 0120     		movs	r0, #1
 3787 0946 FFF7FEFF 		bl	HighF_out_Write
 3788 094a 03E0     		b	.L128
 3789              	.L110:
1221:main.c        ****                     
1222:main.c        ****                  //   if(sensorData.voltFan > 2){
1223:main.c        ****                     //    errorPower.err_HFan_volt = 1;
1224:main.c        ****                         
1225:main.c        ****                       //  if(sensorData.currentFan > 1000){
1226:main.c        ****                           //  errorPower.err_HFan_curr = 1;
1227:main.c        ****                         //}
1228:main.c        ****                     //}
1229:main.c        ****                 } //end of high fan off
1230:main.c        ****             } // end of power on
1231:main.c        ****         } // end of test
1232:main.c        **** } // end of ble connected 
1233:main.c        **** else{
1234:main.c        ****     run_ac();
 3790              		.loc 1 1234 0
 3791 094c FFF7FEFF 		bl	run_ac
 3792 0950 00E0     		b	.L128
 3793              	.L130:
1083:main.c        ****                 // if the temperature of ambient is higher than the temprature set turn on the comp
 3794              		.loc 1 1083 0
 3795 0952 C046     		nop
 3796              	.L128:
1235:main.c        **** }
1236:main.c        **** 
1237:main.c        ****         //send_Error_Power_to_Phone();
1238:main.c        ****         send_Thermo_to_phone();
 3797              		.loc 1 1238 0
 3798 0954 FFF7FEFF 		bl	send_Thermo_to_phone
1239:main.c        ****         CyBle_ProcessEvents();
 3799              		.loc 1 1239 0
 3800 0958 FFF7FEFF 		bl	CyBle_ProcessEvents
1240:main.c        ****    
1241:main.c        ****     } // end for loop
 3801              		.loc 1 1241 0
 3802 095c FFF7B5FB 		bl	.L129	@ far jump
 3803              	.L137:
 3804              		.align	2
 3805              	.L136:
 3806 0960 00000000 		.word	thermo
 3807              		.cfi_endproc
 3808              	.LFE52:
 3809              		.size	main, .-main
 3810              		.text
 3811              	.Letext0:
 3812              		.file 2 "c:\\program files (x86)\\cypress\\psoc creator\\4.2\\psoc creator\\import\\gnu\\arm\\5.4.
 3813              		.file 3 "c:\\program files (x86)\\cypress\\psoc creator\\4.2\\psoc creator\\import\\gnu\\arm\\5.4.
 3814              		.file 4 "Generated_Source\\PSoC4/cytypes.h"
ARM GAS  C:\Users\sergio\AppData\Local\Temp\cc6XWpSt.s 			page 93


 3815              		.file 5 "Generated_Source\\PSoC4/BLE_1_StackGatt.h"
 3816              		.file 6 "Generated_Source\\PSoC4/BLE_1_StackGattServer.h"
 3817              		.file 7 "Generated_Source\\PSoC4/BLE_1_Stack.h"
 3818              		.file 8 "Generated_Source\\PSoC4/BLE_1_eventHandler.h"
 3819              		.section	.debug_info,"",%progbits
 3820              	.Ldebug_info0:
 3821 0000 C10A0000 		.4byte	0xac1
 3822 0004 0400     		.2byte	0x4
 3823 0006 00000000 		.4byte	.Ldebug_abbrev0
 3824 000a 04       		.byte	0x4
 3825 000b 01       		.uleb128 0x1
 3826 000c F2070000 		.4byte	.LASF208
 3827 0010 0C       		.byte	0xc
 3828 0011 7A0E0000 		.4byte	.LASF209
 3829 0015 13040000 		.4byte	.LASF210
 3830 0019 00000000 		.4byte	.Ldebug_ranges0+0
 3831 001d 00000000 		.4byte	0
 3832 0021 00000000 		.4byte	.Ldebug_line0
 3833 0025 02       		.uleb128 0x2
 3834 0026 01       		.byte	0x1
 3835 0027 06       		.byte	0x6
 3836 0028 8C020000 		.4byte	.LASF0
 3837 002c 03       		.uleb128 0x3
 3838 002d D2000000 		.4byte	.LASF9
 3839 0031 02       		.byte	0x2
 3840 0032 1D       		.byte	0x1d
 3841 0033 37000000 		.4byte	0x37
 3842 0037 02       		.uleb128 0x2
 3843 0038 01       		.byte	0x1
 3844 0039 08       		.byte	0x8
 3845 003a A20B0000 		.4byte	.LASF1
 3846 003e 02       		.uleb128 0x2
 3847 003f 02       		.byte	0x2
 3848 0040 05       		.byte	0x5
 3849 0041 030C0000 		.4byte	.LASF2
 3850 0045 02       		.uleb128 0x2
 3851 0046 02       		.byte	0x2
 3852 0047 07       		.byte	0x7
 3853 0048 89060000 		.4byte	.LASF3
 3854 004c 02       		.uleb128 0x2
 3855 004d 04       		.byte	0x4
 3856 004e 05       		.byte	0x5
 3857 004f FF000000 		.4byte	.LASF4
 3858 0053 02       		.uleb128 0x2
 3859 0054 04       		.byte	0x4
 3860 0055 07       		.byte	0x7
 3861 0056 C4050000 		.4byte	.LASF5
 3862 005a 02       		.uleb128 0x2
 3863 005b 08       		.byte	0x8
 3864 005c 05       		.byte	0x5
 3865 005d DF030000 		.4byte	.LASF6
 3866 0061 02       		.uleb128 0x2
 3867 0062 08       		.byte	0x8
 3868 0063 07       		.byte	0x7
 3869 0064 2F010000 		.4byte	.LASF7
 3870 0068 04       		.uleb128 0x4
 3871 0069 04       		.byte	0x4
ARM GAS  C:\Users\sergio\AppData\Local\Temp\cc6XWpSt.s 			page 94


 3872 006a 05       		.byte	0x5
 3873 006b 696E7400 		.ascii	"int\000"
 3874 006f 02       		.uleb128 0x2
 3875 0070 04       		.byte	0x4
 3876 0071 07       		.byte	0x7
 3877 0072 73050000 		.4byte	.LASF8
 3878 0076 03       		.uleb128 0x3
 3879 0077 CE0E0000 		.4byte	.LASF10
 3880 007b 03       		.byte	0x3
 3881 007c 18       		.byte	0x18
 3882 007d 2C000000 		.4byte	0x2c
 3883 0081 05       		.uleb128 0x5
 3884 0082 D9030000 		.4byte	.LASF11
 3885 0086 04       		.byte	0x4
 3886 0087 E401     		.2byte	0x1e4
 3887 0089 37000000 		.4byte	0x37
 3888 008d 05       		.uleb128 0x5
 3889 008e B00B0000 		.4byte	.LASF12
 3890 0092 04       		.byte	0x4
 3891 0093 E501     		.2byte	0x1e5
 3892 0095 45000000 		.4byte	0x45
 3893 0099 05       		.uleb128 0x5
 3894 009a 4A040000 		.4byte	.LASF13
 3895 009e 04       		.byte	0x4
 3896 009f E601     		.2byte	0x1e6
 3897 00a1 53000000 		.4byte	0x53
 3898 00a5 05       		.uleb128 0x5
 3899 00a6 FE060000 		.4byte	.LASF14
 3900 00aa 04       		.byte	0x4
 3901 00ab E701     		.2byte	0x1e7
 3902 00ad 25000000 		.4byte	0x25
 3903 00b1 02       		.uleb128 0x2
 3904 00b2 04       		.byte	0x4
 3905 00b3 04       		.byte	0x4
 3906 00b4 170B0000 		.4byte	.LASF15
 3907 00b8 02       		.uleb128 0x2
 3908 00b9 08       		.byte	0x8
 3909 00ba 04       		.byte	0x4
 3910 00bb 0C040000 		.4byte	.LASF16
 3911 00bf 02       		.uleb128 0x2
 3912 00c0 01       		.byte	0x1
 3913 00c1 08       		.byte	0x8
 3914 00c2 160D0000 		.4byte	.LASF17
 3915 00c6 06       		.uleb128 0x6
 3916 00c7 81000000 		.4byte	0x81
 3917 00cb 02       		.uleb128 0x2
 3918 00cc 08       		.byte	0x8
 3919 00cd 04       		.byte	0x4
 3920 00ce A8090000 		.4byte	.LASF18
 3921 00d2 02       		.uleb128 0x2
 3922 00d3 04       		.byte	0x4
 3923 00d4 07       		.byte	0x7
 3924 00d5 80090000 		.4byte	.LASF19
 3925 00d9 07       		.uleb128 0x7
 3926 00da 04       		.byte	0x4
 3927 00db 08       		.uleb128 0x8
 3928 00dc 01       		.byte	0x1
ARM GAS  C:\Users\sergio\AppData\Local\Temp\cc6XWpSt.s 			page 95


 3929 00dd 37000000 		.4byte	0x37
 3930 00e1 07       		.byte	0x7
 3931 00e2 3501     		.2byte	0x135
 3932 00e4 99020000 		.4byte	0x299
 3933 00e8 09       		.uleb128 0x9
 3934 00e9 9C060000 		.4byte	.LASF20
 3935 00ed 00       		.byte	0
 3936 00ee 09       		.uleb128 0x9
 3937 00ef 98020000 		.4byte	.LASF21
 3938 00f3 01       		.byte	0x1
 3939 00f4 09       		.uleb128 0x9
 3940 00f5 ED000000 		.4byte	.LASF22
 3941 00f9 02       		.byte	0x2
 3942 00fa 09       		.uleb128 0x9
 3943 00fb F20D0000 		.4byte	.LASF23
 3944 00ff 03       		.byte	0x3
 3945 0100 09       		.uleb128 0x9
 3946 0101 59010000 		.4byte	.LASF24
 3947 0105 04       		.byte	0x4
 3948 0106 09       		.uleb128 0x9
 3949 0107 1E000000 		.4byte	.LASF25
 3950 010b 05       		.byte	0x5
 3951 010c 09       		.uleb128 0x9
 3952 010d D1060000 		.4byte	.LASF26
 3953 0111 06       		.byte	0x6
 3954 0112 09       		.uleb128 0x9
 3955 0113 F8040000 		.4byte	.LASF27
 3956 0117 20       		.byte	0x20
 3957 0118 09       		.uleb128 0x9
 3958 0119 E0020000 		.4byte	.LASF28
 3959 011d 21       		.byte	0x21
 3960 011e 09       		.uleb128 0x9
 3961 011f 41070000 		.4byte	.LASF29
 3962 0123 22       		.byte	0x22
 3963 0124 09       		.uleb128 0x9
 3964 0125 CC0D0000 		.4byte	.LASF30
 3965 0129 23       		.byte	0x23
 3966 012a 09       		.uleb128 0x9
 3967 012b 250A0000 		.4byte	.LASF31
 3968 012f 24       		.byte	0x24
 3969 0130 09       		.uleb128 0x9
 3970 0131 C00C0000 		.4byte	.LASF32
 3971 0135 25       		.byte	0x25
 3972 0136 09       		.uleb128 0x9
 3973 0137 80030000 		.4byte	.LASF33
 3974 013b 26       		.byte	0x26
 3975 013c 09       		.uleb128 0x9
 3976 013d 65070000 		.4byte	.LASF34
 3977 0141 27       		.byte	0x27
 3978 0142 09       		.uleb128 0x9
 3979 0143 CB010000 		.4byte	.LASF35
 3980 0147 28       		.byte	0x28
 3981 0148 09       		.uleb128 0x9
 3982 0149 ED010000 		.4byte	.LASF36
 3983 014d 29       		.byte	0x29
 3984 014e 09       		.uleb128 0x9
 3985 014f F7050000 		.4byte	.LASF37
ARM GAS  C:\Users\sergio\AppData\Local\Temp\cc6XWpSt.s 			page 96


 3986 0153 2A       		.byte	0x2a
 3987 0154 09       		.uleb128 0x9
 3988 0155 B7020000 		.4byte	.LASF38
 3989 0159 2B       		.byte	0x2b
 3990 015a 09       		.uleb128 0x9
 3991 015b 2C0F0000 		.4byte	.LASF39
 3992 015f 2C       		.byte	0x2c
 3993 0160 09       		.uleb128 0x9
 3994 0161 18020000 		.4byte	.LASF40
 3995 0165 2D       		.byte	0x2d
 3996 0166 09       		.uleb128 0x9
 3997 0167 B70B0000 		.4byte	.LASF41
 3998 016b 2E       		.byte	0x2e
 3999 016c 09       		.uleb128 0x9
 4000 016d 4A0B0000 		.4byte	.LASF42
 4001 0171 2F       		.byte	0x2f
 4002 0172 09       		.uleb128 0x9
 4003 0173 040A0000 		.4byte	.LASF43
 4004 0177 30       		.byte	0x30
 4005 0178 09       		.uleb128 0x9
 4006 0179 C40F0000 		.4byte	.LASF44
 4007 017d 31       		.byte	0x31
 4008 017e 09       		.uleb128 0x9
 4009 017f E3090000 		.4byte	.LASF45
 4010 0183 32       		.byte	0x32
 4011 0184 09       		.uleb128 0x9
 4012 0185 DA0C0000 		.4byte	.LASF46
 4013 0189 33       		.byte	0x33
 4014 018a 09       		.uleb128 0x9
 4015 018b D6050000 		.4byte	.LASF47
 4016 018f 34       		.byte	0x34
 4017 0190 09       		.uleb128 0x9
 4018 0191 DB040000 		.4byte	.LASF48
 4019 0195 35       		.byte	0x35
 4020 0196 09       		.uleb128 0x9
 4021 0197 BF070000 		.4byte	.LASF49
 4022 019b 36       		.byte	0x36
 4023 019c 09       		.uleb128 0x9
 4024 019d F8080000 		.4byte	.LASF50
 4025 01a1 37       		.byte	0x37
 4026 01a2 09       		.uleb128 0x9
 4027 01a3 77040000 		.4byte	.LASF51
 4028 01a7 40       		.byte	0x40
 4029 01a8 09       		.uleb128 0x9
 4030 01a9 8D080000 		.4byte	.LASF52
 4031 01ad 41       		.byte	0x41
 4032 01ae 09       		.uleb128 0x9
 4033 01af 840B0000 		.4byte	.LASF53
 4034 01b3 42       		.byte	0x42
 4035 01b4 09       		.uleb128 0x9
 4036 01b5 BB030000 		.4byte	.LASF54
 4037 01b9 43       		.byte	0x43
 4038 01ba 09       		.uleb128 0x9
 4039 01bb 20060000 		.4byte	.LASF55
 4040 01bf 44       		.byte	0x44
 4041 01c0 09       		.uleb128 0x9
 4042 01c1 E80A0000 		.4byte	.LASF56
ARM GAS  C:\Users\sergio\AppData\Local\Temp\cc6XWpSt.s 			page 97


 4043 01c5 45       		.byte	0x45
 4044 01c6 09       		.uleb128 0x9
 4045 01c7 4B090000 		.4byte	.LASF57
 4046 01cb 46       		.byte	0x46
 4047 01cc 09       		.uleb128 0x9
 4048 01cd B3060000 		.4byte	.LASF58
 4049 01d1 47       		.byte	0x47
 4050 01d2 09       		.uleb128 0x9
 4051 01d3 050F0000 		.4byte	.LASF59
 4052 01d7 48       		.byte	0x48
 4053 01d8 09       		.uleb128 0x9
 4054 01d9 01030000 		.4byte	.LASF60
 4055 01dd 49       		.byte	0x49
 4056 01de 09       		.uleb128 0x9
 4057 01df 00000000 		.4byte	.LASF61
 4058 01e3 4A       		.byte	0x4a
 4059 01e4 09       		.uleb128 0x9
 4060 01e5 1B0D0000 		.4byte	.LASF62
 4061 01e9 4B       		.byte	0x4b
 4062 01ea 09       		.uleb128 0x9
 4063 01eb A5070000 		.4byte	.LASF63
 4064 01ef 4C       		.byte	0x4c
 4065 01f0 09       		.uleb128 0x9
 4066 01f1 C9090000 		.4byte	.LASF64
 4067 01f5 4D       		.byte	0x4d
 4068 01f6 09       		.uleb128 0x9
 4069 01f7 3C030000 		.4byte	.LASF65
 4070 01fb 4E       		.byte	0x4e
 4071 01fc 09       		.uleb128 0x9
 4072 01fd 510C0000 		.4byte	.LASF66
 4073 0201 4F       		.byte	0x4f
 4074 0202 09       		.uleb128 0x9
 4075 0203 03070000 		.4byte	.LASF67
 4076 0207 50       		.byte	0x50
 4077 0208 09       		.uleb128 0x9
 4078 0209 ED030000 		.4byte	.LASF68
 4079 020d 51       		.byte	0x51
 4080 020e 09       		.uleb128 0x9
 4081 020f 5F0A0000 		.4byte	.LASF69
 4082 0213 52       		.byte	0x52
 4083 0214 09       		.uleb128 0x9
 4084 0215 84070000 		.4byte	.LASF70
 4085 0219 53       		.byte	0x53
 4086 021a 09       		.uleb128 0x9
 4087 021b 920C0000 		.4byte	.LASF71
 4088 021f 54       		.byte	0x54
 4089 0220 09       		.uleb128 0x9
 4090 0221 3E060000 		.4byte	.LASF72
 4091 0225 55       		.byte	0x55
 4092 0226 09       		.uleb128 0x9
 4093 0227 4C050000 		.4byte	.LASF73
 4094 022b 56       		.byte	0x56
 4095 022c 09       		.uleb128 0x9
 4096 022d 440D0000 		.4byte	.LASF74
 4097 0231 57       		.byte	0x57
 4098 0232 09       		.uleb128 0x9
 4099 0233 22050000 		.4byte	.LASF75
ARM GAS  C:\Users\sergio\AppData\Local\Temp\cc6XWpSt.s 			page 98


 4100 0237 58       		.byte	0x58
 4101 0238 09       		.uleb128 0x9
 4102 0239 A5010000 		.4byte	.LASF76
 4103 023d 70       		.byte	0x70
 4104 023e 09       		.uleb128 0x9
 4105 023f 990F0000 		.4byte	.LASF77
 4106 0243 71       		.byte	0x71
 4107 0244 09       		.uleb128 0x9
 4108 0245 C9080000 		.4byte	.LASF78
 4109 0249 72       		.byte	0x72
 4110 024a 09       		.uleb128 0x9
 4111 024b 2D090000 		.4byte	.LASF79
 4112 024f 73       		.byte	0x73
 4113 0250 09       		.uleb128 0x9
 4114 0251 BD0A0000 		.4byte	.LASF80
 4115 0255 74       		.byte	0x74
 4116 0256 09       		.uleb128 0x9
 4117 0257 500F0000 		.4byte	.LASF81
 4118 025b 75       		.byte	0x75
 4119 025c 09       		.uleb128 0x9
 4120 025d 62060000 		.4byte	.LASF82
 4121 0261 76       		.byte	0x76
 4122 0262 09       		.uleb128 0x9
 4123 0263 22070000 		.4byte	.LASF83
 4124 0267 77       		.byte	0x77
 4125 0268 09       		.uleb128 0x9
 4126 0269 6D0D0000 		.4byte	.LASF84
 4127 026d 78       		.byte	0x78
 4128 026e 09       		.uleb128 0x9
 4129 026f A90D0000 		.4byte	.LASF85
 4130 0273 79       		.byte	0x79
 4131 0274 09       		.uleb128 0x9
 4132 0275 B7040000 		.4byte	.LASF86
 4133 0279 7A       		.byte	0x7a
 4134 027a 09       		.uleb128 0x9
 4135 027b 97000000 		.4byte	.LASF87
 4136 027f FA       		.byte	0xfa
 4137 0280 09       		.uleb128 0x9
 4138 0281 8F050000 		.4byte	.LASF88
 4139 0285 FB       		.byte	0xfb
 4140 0286 09       		.uleb128 0x9
 4141 0287 3A0C0000 		.4byte	.LASF89
 4142 028b FC       		.byte	0xfc
 4143 028c 09       		.uleb128 0x9
 4144 028d 19100000 		.4byte	.LASF90
 4145 0291 FD       		.byte	0xfd
 4146 0292 09       		.uleb128 0x9
 4147 0293 69040000 		.4byte	.LASF91
 4148 0297 FF       		.byte	0xff
 4149 0298 00       		.byte	0
 4150 0299 0A       		.uleb128 0xa
 4151 029a 81000000 		.4byte	0x81
 4152 029e A9020000 		.4byte	0x2a9
 4153 02a2 0B       		.uleb128 0xb
 4154 02a3 D2000000 		.4byte	0xd2
 4155 02a7 05       		.byte	0x5
 4156 02a8 00       		.byte	0
ARM GAS  C:\Users\sergio\AppData\Local\Temp\cc6XWpSt.s 			page 99


 4157 02a9 0C       		.uleb128 0xc
 4158 02aa 04       		.byte	0x4
 4159 02ab 81000000 		.4byte	0x81
 4160 02af 0A       		.uleb128 0xa
 4161 02b0 81000000 		.4byte	0x81
 4162 02b4 BF020000 		.4byte	0x2bf
 4163 02b8 0B       		.uleb128 0xb
 4164 02b9 D2000000 		.4byte	0xd2
 4165 02bd 06       		.byte	0x6
 4166 02be 00       		.byte	0
 4167 02bf 05       		.uleb128 0x5
 4168 02c0 E80F0000 		.4byte	.LASF92
 4169 02c4 05       		.byte	0x5
 4170 02c5 8901     		.2byte	0x189
 4171 02c7 8D000000 		.4byte	0x8d
 4172 02cb 0D       		.uleb128 0xd
 4173 02cc 02       		.byte	0x2
 4174 02cd 05       		.byte	0x5
 4175 02ce 9301     		.2byte	0x193
 4176 02d0 EF020000 		.4byte	0x2ef
 4177 02d4 0E       		.uleb128 0xe
 4178 02d5 91040000 		.4byte	.LASF93
 4179 02d9 05       		.byte	0x5
 4180 02da 9A01     		.2byte	0x19a
 4181 02dc 81000000 		.4byte	0x81
 4182 02e0 00       		.byte	0
 4183 02e1 0E       		.uleb128 0xe
 4184 02e2 E0070000 		.4byte	.LASF94
 4185 02e6 05       		.byte	0x5
 4186 02e7 A001     		.2byte	0x1a0
 4187 02e9 81000000 		.4byte	0x81
 4188 02ed 01       		.byte	0x1
 4189 02ee 00       		.byte	0
 4190 02ef 05       		.uleb128 0x5
 4191 02f0 6F000000 		.4byte	.LASF95
 4192 02f4 05       		.byte	0x5
 4193 02f5 A201     		.2byte	0x1a2
 4194 02f7 CB020000 		.4byte	0x2cb
 4195 02fb 0D       		.uleb128 0xd
 4196 02fc 08       		.byte	0x8
 4197 02fd 05       		.byte	0x5
 4198 02fe BE01     		.2byte	0x1be
 4199 0300 2C030000 		.4byte	0x32c
 4200 0304 0F       		.uleb128 0xf
 4201 0305 76616C00 		.ascii	"val\000"
 4202 0309 05       		.byte	0x5
 4203 030a C101     		.2byte	0x1c1
 4204 030c A9020000 		.4byte	0x2a9
 4205 0310 00       		.byte	0
 4206 0311 0F       		.uleb128 0xf
 4207 0312 6C656E00 		.ascii	"len\000"
 4208 0316 05       		.byte	0x5
 4209 0317 C401     		.2byte	0x1c4
 4210 0319 8D000000 		.4byte	0x8d
 4211 031d 04       		.byte	0x4
 4212 031e 0E       		.uleb128 0xe
 4213 031f D6020000 		.4byte	.LASF96
ARM GAS  C:\Users\sergio\AppData\Local\Temp\cc6XWpSt.s 			page 100


 4214 0323 05       		.byte	0x5
 4215 0324 CB01     		.2byte	0x1cb
 4216 0326 8D000000 		.4byte	0x8d
 4217 032a 06       		.byte	0x6
 4218 032b 00       		.byte	0
 4219 032c 05       		.uleb128 0x5
 4220 032d 46010000 		.4byte	.LASF97
 4221 0331 05       		.byte	0x5
 4222 0332 CD01     		.2byte	0x1cd
 4223 0334 FB020000 		.4byte	0x2fb
 4224 0338 0D       		.uleb128 0xd
 4225 0339 0C       		.byte	0xc
 4226 033a 05       		.byte	0x5
 4227 033b D001     		.2byte	0x1d0
 4228 033d 5C030000 		.4byte	0x35c
 4229 0341 0E       		.uleb128 0xe
 4230 0342 1C050000 		.4byte	.LASF98
 4231 0346 05       		.byte	0x5
 4232 0347 D301     		.2byte	0x1d3
 4233 0349 2C030000 		.4byte	0x32c
 4234 034d 00       		.byte	0
 4235 034e 0E       		.uleb128 0xe
 4236 034f 9A040000 		.4byte	.LASF99
 4237 0353 05       		.byte	0x5
 4238 0354 D601     		.2byte	0x1d6
 4239 0356 BF020000 		.4byte	0x2bf
 4240 035a 08       		.byte	0x8
 4241 035b 00       		.byte	0
 4242 035c 05       		.uleb128 0x5
 4243 035d 800A0000 		.4byte	.LASF100
 4244 0361 05       		.byte	0x5
 4245 0362 D801     		.2byte	0x1d8
 4246 0364 38030000 		.4byte	0x338
 4247 0368 03       		.uleb128 0x3
 4248 0369 89090000 		.4byte	.LASF101
 4249 036d 06       		.byte	0x6
 4250 036e 34       		.byte	0x34
 4251 036f 5C030000 		.4byte	0x35c
 4252 0373 10       		.uleb128 0x10
 4253 0374 10       		.byte	0x10
 4254 0375 06       		.byte	0x6
 4255 0376 8A       		.byte	0x8a
 4256 0377 94030000 		.4byte	0x394
 4257 037b 11       		.uleb128 0x11
 4258 037c 8C000000 		.4byte	.LASF102
 4259 0380 06       		.byte	0x6
 4260 0381 8D       		.byte	0x8d
 4261 0382 EF020000 		.4byte	0x2ef
 4262 0386 00       		.byte	0
 4263 0387 11       		.uleb128 0x11
 4264 0388 5E0E0000 		.4byte	.LASF103
 4265 038c 06       		.byte	0x6
 4266 038d 90       		.byte	0x90
 4267 038e 5C030000 		.4byte	0x35c
 4268 0392 04       		.byte	0x4
 4269 0393 00       		.byte	0
 4270 0394 03       		.uleb128 0x3
ARM GAS  C:\Users\sergio\AppData\Local\Temp\cc6XWpSt.s 			page 101


 4271 0395 78010000 		.4byte	.LASF104
 4272 0399 06       		.byte	0x6
 4273 039a 92       		.byte	0x92
 4274 039b 73030000 		.4byte	0x373
 4275 039f 08       		.uleb128 0x8
 4276 03a0 01       		.byte	0x1
 4277 03a1 37000000 		.4byte	0x37
 4278 03a5 08       		.byte	0x8
 4279 03a6 A808     		.2byte	0x8a8
 4280 03a8 CB030000 		.4byte	0x3cb
 4281 03ac 09       		.uleb128 0x9
 4282 03ad 45000000 		.4byte	.LASF105
 4283 03b1 00       		.byte	0
 4284 03b2 09       		.uleb128 0x9
 4285 03b3 D60E0000 		.4byte	.LASF106
 4286 03b7 01       		.byte	0x1
 4287 03b8 09       		.uleb128 0x9
 4288 03b9 EF0E0000 		.4byte	.LASF107
 4289 03bd 02       		.byte	0x2
 4290 03be 09       		.uleb128 0x9
 4291 03bf 5C020000 		.4byte	.LASF108
 4292 03c3 03       		.byte	0x3
 4293 03c4 09       		.uleb128 0x9
 4294 03c5 5A030000 		.4byte	.LASF109
 4295 03c9 04       		.byte	0x4
 4296 03ca 00       		.byte	0
 4297 03cb 05       		.uleb128 0x5
 4298 03cc B80E0000 		.4byte	.LASF110
 4299 03d0 08       		.byte	0x8
 4300 03d1 B608     		.2byte	0x8b6
 4301 03d3 9F030000 		.4byte	0x39f
 4302 03d7 10       		.uleb128 0x10
 4303 03d8 24       		.byte	0x24
 4304 03d9 01       		.byte	0x1
 4305 03da 2E       		.byte	0x2e
 4306 03db C4040000 		.4byte	0x4c4
 4307 03df 11       		.uleb128 0x11
 4308 03e0 5F040000 		.4byte	.LASF111
 4309 03e4 01       		.byte	0x1
 4310 03e5 30       		.byte	0x30
 4311 03e6 81000000 		.4byte	0x81
 4312 03ea 00       		.byte	0
 4313 03eb 11       		.uleb128 0x11
 4314 03ec F5060000 		.4byte	.LASF112
 4315 03f0 01       		.byte	0x1
 4316 03f1 31       		.byte	0x31
 4317 03f2 81000000 		.4byte	0x81
 4318 03f6 01       		.byte	0x1
 4319 03f7 11       		.uleb128 0x11
 4320 03f8 50020000 		.4byte	.LASF113
 4321 03fc 01       		.byte	0x1
 4322 03fd 32       		.byte	0x32
 4323 03fe 81000000 		.4byte	0x81
 4324 0402 02       		.byte	0x2
 4325 0403 11       		.uleb128 0x11
 4326 0404 F70B0000 		.4byte	.LASF114
 4327 0408 01       		.byte	0x1
ARM GAS  C:\Users\sergio\AppData\Local\Temp\cc6XWpSt.s 			page 102


 4328 0409 33       		.byte	0x33
 4329 040a 81000000 		.4byte	0x81
 4330 040e 03       		.byte	0x3
 4331 040f 11       		.uleb128 0x11
 4332 0410 74020000 		.4byte	.LASF115
 4333 0414 01       		.byte	0x1
 4334 0415 34       		.byte	0x34
 4335 0416 81000000 		.4byte	0x81
 4336 041a 04       		.byte	0x4
 4337 041b 11       		.uleb128 0x11
 4338 041c 80020000 		.4byte	.LASF116
 4339 0420 01       		.byte	0x1
 4340 0421 35       		.byte	0x35
 4341 0422 81000000 		.4byte	0x81
 4342 0426 05       		.byte	0x5
 4343 0427 11       		.uleb128 0x11
 4344 0428 96010000 		.4byte	.LASF117
 4345 042c 01       		.byte	0x1
 4346 042d 37       		.byte	0x37
 4347 042e 8D000000 		.4byte	0x8d
 4348 0432 06       		.byte	0x6
 4349 0433 11       		.uleb128 0x11
 4350 0434 A8030000 		.4byte	.LASF118
 4351 0438 01       		.byte	0x1
 4352 0439 38       		.byte	0x38
 4353 043a 8D000000 		.4byte	0x8d
 4354 043e 08       		.byte	0x8
 4355 043f 11       		.uleb128 0x11
 4356 0440 B2020000 		.4byte	.LASF119
 4357 0444 01       		.byte	0x1
 4358 0445 39       		.byte	0x39
 4359 0446 8D000000 		.4byte	0x8d
 4360 044a 0A       		.byte	0xa
 4361 044b 11       		.uleb128 0x11
 4362 044c A5040000 		.4byte	.LASF120
 4363 0450 01       		.byte	0x1
 4364 0451 3B       		.byte	0x3b
 4365 0452 99000000 		.4byte	0x99
 4366 0456 0C       		.byte	0xc
 4367 0457 11       		.uleb128 0x11
 4368 0458 B0030000 		.4byte	.LASF121
 4369 045c 01       		.byte	0x1
 4370 045d 3C       		.byte	0x3c
 4371 045e 99000000 		.4byte	0x99
 4372 0462 10       		.byte	0x10
 4373 0463 11       		.uleb128 0x11
 4374 0464 DB0A0000 		.4byte	.LASF122
 4375 0468 01       		.byte	0x1
 4376 0469 3D       		.byte	0x3d
 4377 046a 99000000 		.4byte	0x99
 4378 046e 14       		.byte	0x14
 4379 046f 11       		.uleb128 0x11
 4380 0470 B30C0000 		.4byte	.LASF123
 4381 0474 01       		.byte	0x1
 4382 0475 3F       		.byte	0x3f
 4383 0476 8D000000 		.4byte	0x8d
 4384 047a 18       		.byte	0x18
ARM GAS  C:\Users\sergio\AppData\Local\Temp\cc6XWpSt.s 			page 103


 4385 047b 11       		.uleb128 0x11
 4386 047c C6000000 		.4byte	.LASF124
 4387 0480 01       		.byte	0x1
 4388 0481 40       		.byte	0x40
 4389 0482 8D000000 		.4byte	0x8d
 4390 0486 1A       		.byte	0x1a
 4391 0487 11       		.uleb128 0x11
 4392 0488 410A0000 		.4byte	.LASF125
 4393 048c 01       		.byte	0x1
 4394 048d 41       		.byte	0x41
 4395 048e 8D000000 		.4byte	0x8d
 4396 0492 1C       		.byte	0x1c
 4397 0493 11       		.uleb128 0x11
 4398 0494 1D0B0000 		.4byte	.LASF126
 4399 0498 01       		.byte	0x1
 4400 0499 44       		.byte	0x44
 4401 049a 81000000 		.4byte	0x81
 4402 049e 1E       		.byte	0x1e
 4403 049f 11       		.uleb128 0x11
 4404 04a0 6E010000 		.4byte	.LASF127
 4405 04a4 01       		.byte	0x1
 4406 04a5 45       		.byte	0x45
 4407 04a6 81000000 		.4byte	0x81
 4408 04aa 1F       		.byte	0x1f
 4409 04ab 11       		.uleb128 0x11
 4410 04ac 73010000 		.4byte	.LASF128
 4411 04b0 01       		.byte	0x1
 4412 04b1 46       		.byte	0x46
 4413 04b2 81000000 		.4byte	0x81
 4414 04b6 20       		.byte	0x20
 4415 04b7 11       		.uleb128 0x11
 4416 04b8 0F0B0000 		.4byte	.LASF129
 4417 04bc 01       		.byte	0x1
 4418 04bd 48       		.byte	0x48
 4419 04be 8D000000 		.4byte	0x8d
 4420 04c2 22       		.byte	0x22
 4421 04c3 00       		.byte	0
 4422 04c4 03       		.uleb128 0x3
 4423 04c5 61000000 		.4byte	.LASF130
 4424 04c9 01       		.byte	0x1
 4425 04ca 4A       		.byte	0x4a
 4426 04cb D7030000 		.4byte	0x3d7
 4427 04cf 10       		.uleb128 0x10
 4428 04d0 07       		.byte	0x7
 4429 04d1 01       		.byte	0x1
 4430 04d2 4E       		.byte	0x4e
 4431 04d3 2C050000 		.4byte	0x52c
 4432 04d7 11       		.uleb128 0x11
 4433 04d8 08010000 		.4byte	.LASF131
 4434 04dc 01       		.byte	0x1
 4435 04dd 4F       		.byte	0x4f
 4436 04de 81000000 		.4byte	0x81
 4437 04e2 00       		.byte	0
 4438 04e3 11       		.uleb128 0x11
 4439 04e4 AB020000 		.4byte	.LASF132
 4440 04e8 01       		.byte	0x1
 4441 04e9 50       		.byte	0x50
ARM GAS  C:\Users\sergio\AppData\Local\Temp\cc6XWpSt.s 			page 104


 4442 04ea 81000000 		.4byte	0x81
 4443 04ee 01       		.byte	0x1
 4444 04ef 11       		.uleb128 0x11
 4445 04f0 C60E0000 		.4byte	.LASF133
 4446 04f4 01       		.byte	0x1
 4447 04f5 51       		.byte	0x51
 4448 04f6 81000000 		.4byte	0x81
 4449 04fa 02       		.byte	0x2
 4450 04fb 11       		.uleb128 0x11
 4451 04fc 2D030000 		.4byte	.LASF134
 4452 0500 01       		.byte	0x1
 4453 0501 52       		.byte	0x52
 4454 0502 81000000 		.4byte	0x81
 4455 0506 03       		.byte	0x3
 4456 0507 11       		.uleb128 0x11
 4457 0508 010D0000 		.4byte	.LASF135
 4458 050c 01       		.byte	0x1
 4459 050d 53       		.byte	0x53
 4460 050e 81000000 		.4byte	0x81
 4461 0512 04       		.byte	0x4
 4462 0513 11       		.uleb128 0x11
 4463 0514 7E0B0000 		.4byte	.LASF136
 4464 0518 01       		.byte	0x1
 4465 0519 54       		.byte	0x54
 4466 051a 81000000 		.4byte	0x81
 4467 051e 05       		.byte	0x5
 4468 051f 11       		.uleb128 0x11
 4469 0520 A40D0000 		.4byte	.LASF137
 4470 0524 01       		.byte	0x1
 4471 0525 55       		.byte	0x55
 4472 0526 81000000 		.4byte	0x81
 4473 052a 06       		.byte	0x6
 4474 052b 00       		.byte	0
 4475 052c 03       		.uleb128 0x3
 4476 052d 80050000 		.4byte	.LASF138
 4477 0531 01       		.byte	0x1
 4478 0532 56       		.byte	0x56
 4479 0533 CF040000 		.4byte	0x4cf
 4480 0537 10       		.uleb128 0x10
 4481 0538 06       		.byte	0x6
 4482 0539 01       		.byte	0x1
 4483 053a 5C       		.byte	0x5c
 4484 053b 88050000 		.4byte	0x588
 4485 053f 11       		.uleb128 0x11
 4486 0540 8B0F0000 		.4byte	.LASF139
 4487 0544 01       		.byte	0x1
 4488 0545 5D       		.byte	0x5d
 4489 0546 A5000000 		.4byte	0xa5
 4490 054a 00       		.byte	0
 4491 054b 11       		.uleb128 0x11
 4492 054c 9C0E0000 		.4byte	.LASF140
 4493 0550 01       		.byte	0x1
 4494 0551 5E       		.byte	0x5e
 4495 0552 A5000000 		.4byte	0xa5
 4496 0556 01       		.byte	0x1
 4497 0557 11       		.uleb128 0x11
 4498 0558 E5080000 		.4byte	.LASF141
ARM GAS  C:\Users\sergio\AppData\Local\Temp\cc6XWpSt.s 			page 105


 4499 055c 01       		.byte	0x1
 4500 055d 5F       		.byte	0x5f
 4501 055e A5000000 		.4byte	0xa5
 4502 0562 02       		.byte	0x2
 4503 0563 11       		.uleb128 0x11
 4504 0564 51040000 		.4byte	.LASF142
 4505 0568 01       		.byte	0x1
 4506 0569 60       		.byte	0x60
 4507 056a A5000000 		.4byte	0xa5
 4508 056e 03       		.byte	0x3
 4509 056f 11       		.uleb128 0x11
 4510 0570 AA0E0000 		.4byte	.LASF143
 4511 0574 01       		.byte	0x1
 4512 0575 61       		.byte	0x61
 4513 0576 A5000000 		.4byte	0xa5
 4514 057a 04       		.byte	0x4
 4515 057b 11       		.uleb128 0x11
 4516 057c 0D0C0000 		.4byte	.LASF144
 4517 0580 01       		.byte	0x1
 4518 0581 62       		.byte	0x62
 4519 0582 A5000000 		.4byte	0xa5
 4520 0586 05       		.byte	0x5
 4521 0587 00       		.byte	0
 4522 0588 03       		.uleb128 0x3
 4523 0589 23030000 		.4byte	.LASF145
 4524 058d 01       		.byte	0x1
 4525 058e 64       		.byte	0x64
 4526 058f 37050000 		.4byte	0x537
 4527 0593 12       		.uleb128 0x12
 4528 0594 13010000 		.4byte	.LASF146
 4529 0598 01       		.byte	0x1
 4530 0599 70       		.byte	0x70
 4531 059a 00000000 		.4byte	.LFB36
 4532 059e 78000000 		.4byte	.LFE36-.LFB36
 4533 05a2 01       		.uleb128 0x1
 4534 05a3 9C       		.byte	0x9c
 4535 05a4 B7050000 		.4byte	0x5b7
 4536 05a8 13       		.uleb128 0x13
 4537 05a9 31100000 		.4byte	.LASF150
 4538 05ad 01       		.byte	0x1
 4539 05ae 73       		.byte	0x73
 4540 05af AF020000 		.4byte	0x2af
 4541 05b3 02       		.uleb128 0x2
 4542 05b4 91       		.byte	0x91
 4543 05b5 70       		.sleb128 -16
 4544 05b6 00       		.byte	0
 4545 05b7 12       		.uleb128 0x12
 4546 05b8 EE050000 		.4byte	.LASF147
 4547 05bc 01       		.byte	0x1
 4548 05bd 7D       		.byte	0x7d
 4549 05be 00000000 		.4byte	.LFB37
 4550 05c2 7C010000 		.4byte	.LFE37-.LFB37
 4551 05c6 01       		.uleb128 0x1
 4552 05c7 9C       		.byte	0x9c
 4553 05c8 F7050000 		.4byte	0x5f7
 4554 05cc 14       		.uleb128 0x14
 4555 05cd 83060000 		.4byte	.LASF148
ARM GAS  C:\Users\sergio\AppData\Local\Temp\cc6XWpSt.s 			page 106


 4556 05d1 01       		.byte	0x1
 4557 05d2 7D       		.byte	0x7d
 4558 05d3 99000000 		.4byte	0x99
 4559 05d7 02       		.uleb128 0x2
 4560 05d8 91       		.byte	0x91
 4561 05d9 5C       		.sleb128 -36
 4562 05da 14       		.uleb128 0x14
 4563 05db 910E0000 		.4byte	.LASF149
 4564 05df 01       		.byte	0x1
 4565 05e0 7D       		.byte	0x7d
 4566 05e1 D9000000 		.4byte	0xd9
 4567 05e5 02       		.uleb128 0x2
 4568 05e6 91       		.byte	0x91
 4569 05e7 58       		.sleb128 -40
 4570 05e8 13       		.uleb128 0x13
 4571 05e9 340C0000 		.4byte	.LASF151
 4572 05ed 01       		.byte	0x1
 4573 05ee 7F       		.byte	0x7f
 4574 05ef 94030000 		.4byte	0x394
 4575 05f3 02       		.uleb128 0x2
 4576 05f4 91       		.byte	0x91
 4577 05f5 60       		.sleb128 -32
 4578 05f6 00       		.byte	0
 4579 05f7 15       		.uleb128 0x15
 4580 05f8 700C0000 		.4byte	.LASF153
 4581 05fc 01       		.byte	0x1
 4582 05fd D8       		.byte	0xd8
 4583 05fe 00000000 		.4byte	.LFB38
 4584 0602 84000000 		.4byte	.LFE38-.LFB38
 4585 0606 01       		.uleb128 0x1
 4586 0607 9C       		.byte	0x9c
 4587 0608 29060000 		.4byte	0x629
 4588 060c 13       		.uleb128 0x13
 4589 060d F7020000 		.4byte	.LASF152
 4590 0611 01       		.byte	0x1
 4591 0612 D9       		.byte	0xd9
 4592 0613 5C030000 		.4byte	0x35c
 4593 0617 02       		.uleb128 0x2
 4594 0618 91       		.byte	0x91
 4595 0619 6C       		.sleb128 -20
 4596 061a 16       		.uleb128 0x16
 4597 061b 65727200 		.ascii	"err\000"
 4598 061f 01       		.byte	0x1
 4599 0620 DB       		.byte	0xdb
 4600 0621 99020000 		.4byte	0x299
 4601 0625 02       		.uleb128 0x2
 4602 0626 91       		.byte	0x91
 4603 0627 64       		.sleb128 -28
 4604 0628 00       		.byte	0
 4605 0629 15       		.uleb128 0x15
 4606 062a 4A0A0000 		.4byte	.LASF154
 4607 062e 01       		.byte	0x1
 4608 062f E6       		.byte	0xe6
 4609 0630 00000000 		.4byte	.LFB39
 4610 0634 74000000 		.4byte	.LFE39-.LFB39
 4611 0638 01       		.uleb128 0x1
 4612 0639 9C       		.byte	0x9c
ARM GAS  C:\Users\sergio\AppData\Local\Temp\cc6XWpSt.s 			page 107


 4613 063a 5B060000 		.4byte	0x65b
 4614 063e 13       		.uleb128 0x13
 4615 063f 280B0000 		.4byte	.LASF155
 4616 0643 01       		.byte	0x1
 4617 0644 E7       		.byte	0xe7
 4618 0645 5C030000 		.4byte	0x35c
 4619 0649 02       		.uleb128 0x2
 4620 064a 91       		.byte	0x91
 4621 064b 6C       		.sleb128 -20
 4622 064c 13       		.uleb128 0x13
 4623 064d EA060000 		.4byte	.LASF156
 4624 0651 01       		.byte	0x1
 4625 0652 E9       		.byte	0xe9
 4626 0653 AF020000 		.4byte	0x2af
 4627 0657 02       		.uleb128 0x2
 4628 0658 91       		.byte	0x91
 4629 0659 64       		.sleb128 -28
 4630 065a 00       		.byte	0
 4631 065b 15       		.uleb128 0x15
 4632 065c 41020000 		.4byte	.LASF157
 4633 0660 01       		.byte	0x1
 4634 0661 FA       		.byte	0xfa
 4635 0662 00000000 		.4byte	.LFB40
 4636 0666 A4000000 		.4byte	.LFE40-.LFB40
 4637 066a 01       		.uleb128 0x1
 4638 066b 9C       		.byte	0x9c
 4639 066c 8D060000 		.4byte	0x68d
 4640 0670 13       		.uleb128 0x13
 4641 0671 290C0000 		.4byte	.LASF158
 4642 0675 01       		.byte	0x1
 4643 0676 FB       		.byte	0xfb
 4644 0677 68030000 		.4byte	0x368
 4645 067b 02       		.uleb128 0x2
 4646 067c 91       		.byte	0x91
 4647 067d 6C       		.sleb128 -20
 4648 067e 13       		.uleb128 0x13
 4649 067f 730B0000 		.4byte	.LASF159
 4650 0683 01       		.byte	0x1
 4651 0684 FD       		.byte	0xfd
 4652 0685 8D060000 		.4byte	0x68d
 4653 0689 02       		.uleb128 0x2
 4654 068a 91       		.byte	0x91
 4655 068b 48       		.sleb128 -56
 4656 068c 00       		.byte	0
 4657 068d 0A       		.uleb128 0xa
 4658 068e 81000000 		.4byte	0x81
 4659 0692 9D060000 		.4byte	0x69d
 4660 0696 0B       		.uleb128 0xb
 4661 0697 D2000000 		.4byte	0xd2
 4662 069b 21       		.byte	0x21
 4663 069c 00       		.byte	0
 4664 069d 17       		.uleb128 0x17
 4665 069e 330B0000 		.4byte	.LASF160
 4666 06a2 01       		.byte	0x1
 4667 06a3 2E01     		.2byte	0x12e
 4668 06a5 00000000 		.4byte	.LFB41
 4669 06a9 58000000 		.4byte	.LFE41-.LFB41
ARM GAS  C:\Users\sergio\AppData\Local\Temp\cc6XWpSt.s 			page 108


 4670 06ad 01       		.uleb128 0x1
 4671 06ae 9C       		.byte	0x9c
 4672 06af D2060000 		.4byte	0x6d2
 4673 06b3 18       		.uleb128 0x18
 4674 06b4 900D0000 		.4byte	.LASF161
 4675 06b8 01       		.byte	0x1
 4676 06b9 2F01     		.2byte	0x12f
 4677 06bb 5C030000 		.4byte	0x35c
 4678 06bf 02       		.uleb128 0x2
 4679 06c0 91       		.byte	0x91
 4680 06c1 6C       		.sleb128 -20
 4681 06c2 18       		.uleb128 0x18
 4682 06c3 6C0E0000 		.4byte	.LASF162
 4683 06c7 01       		.byte	0x1
 4684 06c8 3101     		.2byte	0x131
 4685 06ca D2060000 		.4byte	0x6d2
 4686 06ce 02       		.uleb128 0x2
 4687 06cf 91       		.byte	0x91
 4688 06d0 68       		.sleb128 -24
 4689 06d1 00       		.byte	0
 4690 06d2 0A       		.uleb128 0xa
 4691 06d3 81000000 		.4byte	0x81
 4692 06d7 E2060000 		.4byte	0x6e2
 4693 06db 0B       		.uleb128 0xb
 4694 06dc D2000000 		.4byte	0xd2
 4695 06e0 01       		.byte	0x1
 4696 06e1 00       		.byte	0
 4697 06e2 19       		.uleb128 0x19
 4698 06e3 710F0000 		.4byte	.LASF165
 4699 06e7 01       		.byte	0x1
 4700 06e8 4301     		.2byte	0x143
 4701 06ea 00000000 		.4byte	.LFB42
 4702 06ee 2A000000 		.4byte	.LFE42-.LFB42
 4703 06f2 01       		.uleb128 0x1
 4704 06f3 9C       		.byte	0x9c
 4705 06f4 1A       		.uleb128 0x1a
 4706 06f5 9F0A0000 		.4byte	.LASF163
 4707 06f9 01       		.byte	0x1
 4708 06fa 4D01     		.2byte	0x14d
 4709 06fc 81000000 		.4byte	0x81
 4710 0700 00000000 		.4byte	.LFB43
 4711 0704 46000000 		.4byte	.LFE43-.LFB43
 4712 0708 01       		.uleb128 0x1
 4713 0709 9C       		.byte	0x9c
 4714 070a 1E070000 		.4byte	0x71e
 4715 070e 18       		.uleb128 0x18
 4716 070f 810E0000 		.4byte	.LASF164
 4717 0713 01       		.byte	0x1
 4718 0714 4F01     		.2byte	0x14f
 4719 0716 81000000 		.4byte	0x81
 4720 071a 02       		.uleb128 0x2
 4721 071b 91       		.byte	0x91
 4722 071c 77       		.sleb128 -9
 4723 071d 00       		.byte	0
 4724 071e 19       		.uleb128 0x19
 4725 071f 400E0000 		.4byte	.LASF166
 4726 0723 01       		.byte	0x1
ARM GAS  C:\Users\sergio\AppData\Local\Temp\cc6XWpSt.s 			page 109


 4727 0724 5A01     		.2byte	0x15a
 4728 0726 00000000 		.4byte	.LFB44
 4729 072a 4A000000 		.4byte	.LFE44-.LFB44
 4730 072e 01       		.uleb128 0x1
 4731 072f 9C       		.byte	0x9c
 4732 0730 19       		.uleb128 0x19
 4733 0731 220E0000 		.4byte	.LASF167
 4734 0735 01       		.byte	0x1
 4735 0736 6701     		.2byte	0x167
 4736 0738 00000000 		.4byte	.LFB45
 4737 073c 4A000000 		.4byte	.LFE45-.LFB45
 4738 0740 01       		.uleb128 0x1
 4739 0741 9C       		.byte	0x9c
 4740 0742 17       		.uleb128 0x17
 4741 0743 6C090000 		.4byte	.LASF168
 4742 0747 01       		.byte	0x1
 4743 0748 7501     		.2byte	0x175
 4744 074a 00000000 		.4byte	.LFB46
 4745 074e 78010000 		.4byte	.LFE46-.LFB46
 4746 0752 01       		.uleb128 0x1
 4747 0753 9C       		.byte	0x9c
 4748 0754 68070000 		.4byte	0x768
 4749 0758 1B       		.uleb128 0x1b
 4750 0759 C1090000 		.4byte	.LASF169
 4751 075d 01       		.byte	0x1
 4752 075e 7501     		.2byte	0x175
 4753 0760 99000000 		.4byte	0x99
 4754 0764 02       		.uleb128 0x2
 4755 0765 91       		.byte	0x91
 4756 0766 74       		.sleb128 -12
 4757 0767 00       		.byte	0
 4758 0768 17       		.uleb128 0x17
 4759 0769 B5000000 		.4byte	.LASF170
 4760 076d 01       		.byte	0x1
 4761 076e AF01     		.2byte	0x1af
 4762 0770 00000000 		.4byte	.LFB47
 4763 0774 F0010000 		.4byte	.LFE47-.LFB47
 4764 0778 01       		.uleb128 0x1
 4765 0779 9C       		.byte	0x9c
 4766 077a B4070000 		.4byte	0x7b4
 4767 077e 1B       		.uleb128 0x1b
 4768 077f C1090000 		.4byte	.LASF169
 4769 0783 01       		.byte	0x1
 4770 0784 AF01     		.2byte	0x1af
 4771 0786 99000000 		.4byte	0x99
 4772 078a 02       		.uleb128 0x2
 4773 078b 91       		.byte	0x91
 4774 078c 4C       		.sleb128 -52
 4775 078d 18       		.uleb128 0x18
 4776 078e 220B0000 		.4byte	.LASF171
 4777 0792 01       		.byte	0x1
 4778 0793 B101     		.2byte	0x1b1
 4779 0795 B4070000 		.4byte	0x7b4
 4780 0799 02       		.uleb128 0x2
 4781 079a 91       		.byte	0x91
 4782 079b 50       		.sleb128 -48
 4783 079c 1C       		.uleb128 0x1c
ARM GAS  C:\Users\sergio\AppData\Local\Temp\cc6XWpSt.s 			page 110


 4784 079d 6E000000 		.4byte	.LBB2
 4785 07a1 24000000 		.4byte	.LBE2-.LBB2
 4786 07a5 1D       		.uleb128 0x1d
 4787 07a6 6900     		.ascii	"i\000"
 4788 07a8 01       		.byte	0x1
 4789 07a9 C201     		.2byte	0x1c2
 4790 07ab 68000000 		.4byte	0x68
 4791 07af 02       		.uleb128 0x2
 4792 07b0 91       		.byte	0x91
 4793 07b1 74       		.sleb128 -12
 4794 07b2 00       		.byte	0
 4795 07b3 00       		.byte	0
 4796 07b4 0A       		.uleb128 0xa
 4797 07b5 81000000 		.4byte	0x81
 4798 07b9 C4070000 		.4byte	0x7c4
 4799 07bd 0B       		.uleb128 0xb
 4800 07be D2000000 		.4byte	0xd2
 4801 07c2 22       		.byte	0x22
 4802 07c3 00       		.byte	0
 4803 07c4 1E       		.uleb128 0x1e
 4804 07c5 0A020000 		.4byte	.LASF172
 4805 07c9 01       		.byte	0x1
 4806 07ca E001     		.2byte	0x1e0
 4807 07cc 00000000 		.4byte	.LFB48
 4808 07d0 50000000 		.4byte	.LFE48-.LFB48
 4809 07d4 01       		.uleb128 0x1
 4810 07d5 9C       		.byte	0x9c
 4811 07d6 01080000 		.4byte	0x801
 4812 07da 18       		.uleb128 0x18
 4813 07db 0F0B0000 		.4byte	.LASF129
 4814 07df 01       		.byte	0x1
 4815 07e0 E101     		.2byte	0x1e1
 4816 07e2 8D000000 		.4byte	0x8d
 4817 07e6 02       		.uleb128 0x2
 4818 07e7 91       		.byte	0x91
 4819 07e8 76       		.sleb128 -10
 4820 07e9 1C       		.uleb128 0x1c
 4821 07ea 0C000000 		.4byte	.LBB3
 4822 07ee 30000000 		.4byte	.LBE3-.LBB3
 4823 07f2 1D       		.uleb128 0x1d
 4824 07f3 6900     		.ascii	"i\000"
 4825 07f5 01       		.byte	0x1
 4826 07f6 E201     		.2byte	0x1e2
 4827 07f8 68000000 		.4byte	0x68
 4828 07fc 02       		.uleb128 0x2
 4829 07fd 91       		.byte	0x91
 4830 07fe 70       		.sleb128 -16
 4831 07ff 00       		.byte	0
 4832 0800 00       		.byte	0
 4833 0801 1F       		.uleb128 0x1f
 4834 0802 E00B0000 		.4byte	.LASF173
 4835 0806 01       		.byte	0x1
 4836 0807 E801     		.2byte	0x1e8
 4837 0809 00000000 		.4byte	.LFB49
 4838 080d 22000000 		.4byte	.LFE49-.LFB49
 4839 0811 01       		.uleb128 0x1
 4840 0812 9C       		.byte	0x9c
ARM GAS  C:\Users\sergio\AppData\Local\Temp\cc6XWpSt.s 			page 111


 4841 0813 3C080000 		.4byte	0x83c
 4842 0817 20       		.uleb128 0x20
 4843 0818 6400     		.ascii	"d\000"
 4844 081a 01       		.byte	0x1
 4845 081b E801     		.2byte	0x1e8
 4846 081d 68000000 		.4byte	0x68
 4847 0821 02       		.uleb128 0x2
 4848 0822 91       		.byte	0x91
 4849 0823 6C       		.sleb128 -20
 4850 0824 1C       		.uleb128 0x1c
 4851 0825 08000000 		.4byte	.LBB4
 4852 0829 12000000 		.4byte	.LBE4-.LBB4
 4853 082d 1D       		.uleb128 0x1d
 4854 082e 6900     		.ascii	"i\000"
 4855 0830 01       		.byte	0x1
 4856 0831 E901     		.2byte	0x1e9
 4857 0833 68000000 		.4byte	0x68
 4858 0837 02       		.uleb128 0x2
 4859 0838 91       		.byte	0x91
 4860 0839 74       		.sleb128 -12
 4861 083a 00       		.byte	0
 4862 083b 00       		.byte	0
 4863 083c 19       		.uleb128 0x19
 4864 083d B4090000 		.4byte	.LASF174
 4865 0841 01       		.byte	0x1
 4866 0842 ED01     		.2byte	0x1ed
 4867 0844 00000000 		.4byte	.LFB50
 4868 0848 20000000 		.4byte	.LFE50-.LFB50
 4869 084c 01       		.uleb128 0x1
 4870 084d 9C       		.byte	0x9c
 4871 084e 19       		.uleb128 0x19
 4872 084f 28010000 		.4byte	.LASF175
 4873 0853 01       		.byte	0x1
 4874 0854 F401     		.2byte	0x1f4
 4875 0856 00000000 		.4byte	.LFB51
 4876 085a 70040000 		.4byte	.LFE51-.LFB51
 4877 085e 01       		.uleb128 0x1
 4878 085f 9C       		.byte	0x9c
 4879 0860 21       		.uleb128 0x21
 4880 0861 BF0F0000 		.4byte	.LASF211
 4881 0865 01       		.byte	0x1
 4882 0866 B002     		.2byte	0x2b0
 4883 0868 68000000 		.4byte	0x68
 4884 086c 00000000 		.4byte	.LFB52
 4885 0870 64090000 		.4byte	.LFE52-.LFB52
 4886 0874 01       		.uleb128 0x1
 4887 0875 9C       		.byte	0x9c
 4888 0876 49090000 		.4byte	0x949
 4889 087a 18       		.uleb128 0x18
 4890 087b 230C0000 		.4byte	.LASF176
 4891 087f 01       		.byte	0x1
 4892 0880 EA02     		.2byte	0x2ea
 4893 0882 76000000 		.4byte	0x76
 4894 0886 02       		.uleb128 0x2
 4895 0887 91       		.byte	0x91
 4896 0888 5F       		.sleb128 -33
 4897 0889 18       		.uleb128 0x18
ARM GAS  C:\Users\sergio\AppData\Local\Temp\cc6XWpSt.s 			page 112


 4898 088a E8000000 		.4byte	.LASF177
 4899 088e 01       		.byte	0x1
 4900 088f F102     		.2byte	0x2f1
 4901 0891 81000000 		.4byte	0x81
 4902 0895 02       		.uleb128 0x2
 4903 0896 91       		.byte	0x91
 4904 0897 67       		.sleb128 -25
 4905 0898 18       		.uleb128 0x18
 4906 0899 AE050000 		.4byte	.LASF178
 4907 089d 01       		.byte	0x1
 4908 089e F202     		.2byte	0x2f2
 4909 08a0 81000000 		.4byte	0x81
 4910 08a4 02       		.uleb128 0x2
 4911 08a5 91       		.byte	0x91
 4912 08a6 66       		.sleb128 -26
 4913 08a7 18       		.uleb128 0x18
 4914 08a8 6E050000 		.4byte	.LASF179
 4915 08ac 01       		.byte	0x1
 4916 08ad F302     		.2byte	0x2f3
 4917 08af 81000000 		.4byte	0x81
 4918 08b3 02       		.uleb128 0x2
 4919 08b4 91       		.byte	0x91
 4920 08b5 65       		.sleb128 -27
 4921 08b6 1C       		.uleb128 0x1c
 4922 08b7 D4000000 		.4byte	.LBB5
 4923 08bb D2050000 		.4byte	.LBE5-.LBB5
 4924 08bf 18       		.uleb128 0x18
 4925 08c0 A8080000 		.4byte	.LASF180
 4926 08c4 01       		.byte	0x1
 4927 08c5 0A03     		.2byte	0x30a
 4928 08c7 59090000 		.4byte	0x959
 4929 08cb 02       		.uleb128 0x2
 4930 08cc 91       		.byte	0x91
 4931 08cd 5C       		.sleb128 -36
 4932 08ce 18       		.uleb128 0x18
 4933 08cf DC000000 		.4byte	.LASF181
 4934 08d3 01       		.byte	0x1
 4935 08d4 0C03     		.2byte	0x30c
 4936 08d6 68000000 		.4byte	0x68
 4937 08da 02       		.uleb128 0x2
 4938 08db 91       		.byte	0x91
 4939 08dc 60       		.sleb128 -32
 4940 08dd 1D       		.uleb128 0x1d
 4941 08de 73747200 		.ascii	"str\000"
 4942 08e2 01       		.byte	0x1
 4943 08e3 1003     		.2byte	0x310
 4944 08e5 5E090000 		.4byte	0x95e
 4945 08e9 03       		.uleb128 0x3
 4946 08ea 91       		.byte	0x91
 4947 08eb A47F     		.sleb128 -92
 4948 08ed 18       		.uleb128 0x18
 4949 08ee 3A0D0000 		.4byte	.LASF182
 4950 08f2 01       		.byte	0x1
 4951 08f3 8503     		.2byte	0x385
 4952 08f5 81000000 		.4byte	0x81
 4953 08f9 02       		.uleb128 0x2
 4954 08fa 91       		.byte	0x91
ARM GAS  C:\Users\sergio\AppData\Local\Temp\cc6XWpSt.s 			page 113


 4955 08fb 5B       		.sleb128 -37
 4956 08fc 18       		.uleb128 0x18
 4957 08fd 4C0C0000 		.4byte	.LASF183
 4958 0901 01       		.byte	0x1
 4959 0902 8603     		.2byte	0x386
 4960 0904 81000000 		.4byte	0x81
 4961 0908 02       		.uleb128 0x2
 4962 0909 91       		.byte	0x91
 4963 090a 5A       		.sleb128 -38
 4964 090b 18       		.uleb128 0x18
 4965 090c 3F0D0000 		.4byte	.LASF184
 4966 0910 01       		.byte	0x1
 4967 0911 8703     		.2byte	0x387
 4968 0913 81000000 		.4byte	0x81
 4969 0917 02       		.uleb128 0x2
 4970 0918 91       		.byte	0x91
 4971 0919 59       		.sleb128 -39
 4972 091a 18       		.uleb128 0x18
 4973 091b E30A0000 		.4byte	.LASF185
 4974 091f 01       		.byte	0x1
 4975 0920 8803     		.2byte	0x388
 4976 0922 81000000 		.4byte	0x81
 4977 0926 02       		.uleb128 0x2
 4978 0927 91       		.byte	0x91
 4979 0928 58       		.sleb128 -40
 4980 0929 18       		.uleb128 0x18
 4981 092a DB0B0000 		.4byte	.LASF186
 4982 092e 01       		.byte	0x1
 4983 092f 8903     		.2byte	0x389
 4984 0931 81000000 		.4byte	0x81
 4985 0935 02       		.uleb128 0x2
 4986 0936 91       		.byte	0x91
 4987 0937 57       		.sleb128 -41
 4988 0938 18       		.uleb128 0x18
 4989 0939 F3080000 		.4byte	.LASF187
 4990 093d 01       		.byte	0x1
 4991 093e 8A03     		.2byte	0x38a
 4992 0940 81000000 		.4byte	0x81
 4993 0944 02       		.uleb128 0x2
 4994 0945 91       		.byte	0x91
 4995 0946 56       		.sleb128 -42
 4996 0947 00       		.byte	0
 4997 0948 00       		.byte	0
 4998 0949 0A       		.uleb128 0xa
 4999 094a C6000000 		.4byte	0xc6
 5000 094e 59090000 		.4byte	0x959
 5001 0952 0B       		.uleb128 0xb
 5002 0953 D2000000 		.4byte	0xd2
 5003 0957 01       		.byte	0x1
 5004 0958 00       		.byte	0
 5005 0959 06       		.uleb128 0x6
 5006 095a 49090000 		.4byte	0x949
 5007 095e 0A       		.uleb128 0xa
 5008 095f BF000000 		.4byte	0xbf
 5009 0963 6E090000 		.4byte	0x96e
 5010 0967 0B       		.uleb128 0xb
 5011 0968 D2000000 		.4byte	0xd2
ARM GAS  C:\Users\sergio\AppData\Local\Temp\cc6XWpSt.s 			page 114


 5012 096c 31       		.byte	0x31
 5013 096d 00       		.byte	0
 5014 096e 22       		.uleb128 0x22
 5015 096f E6070000 		.4byte	.LASF188
 5016 0973 08       		.byte	0x8
 5017 0974 160B     		.2byte	0xb16
 5018 0976 CB030000 		.4byte	0x3cb
 5019 097a 22       		.uleb128 0x22
 5020 097b B3050000 		.4byte	.LASF189
 5021 097f 08       		.byte	0x8
 5022 0980 170B     		.2byte	0xb17
 5023 0982 EF020000 		.4byte	0x2ef
 5024 0986 22       		.uleb128 0x22
 5025 0987 E60B0000 		.4byte	.LASF190
 5026 098b 08       		.byte	0x8
 5027 098c 180B     		.2byte	0xb18
 5028 098e C6000000 		.4byte	0xc6
 5029 0992 23       		.uleb128 0x23
 5030 0993 80080000 		.4byte	.LASF191
 5031 0997 01       		.byte	0x1
 5032 0998 12       		.byte	0x12
 5033 0999 5C030000 		.4byte	0x35c
 5034 099d 05       		.uleb128 0x5
 5035 099e 03       		.byte	0x3
 5036 099f 00000000 		.4byte	thermoHandle
 5037 09a3 23       		.uleb128 0x23
 5038 09a4 BB080000 		.4byte	.LASF192
 5039 09a8 01       		.byte	0x1
 5040 09a9 21       		.byte	0x21
 5041 09aa 68000000 		.4byte	0x68
 5042 09ae 05       		.uleb128 0x5
 5043 09af 03       		.byte	0x3
 5044 09b0 00000000 		.4byte	interruptFlag
 5045 09b4 23       		.uleb128 0x23
 5046 09b5 04100000 		.4byte	.LASF193
 5047 09b9 01       		.byte	0x1
 5048 09ba 22       		.byte	0x22
 5049 09bb 81000000 		.4byte	0x81
 5050 09bf 05       		.uleb128 0x5
 5051 09c0 03       		.byte	0x3
 5052 09c1 00000000 		.4byte	isNotify
 5053 09c5 23       		.uleb128 0x23
 5054 09c6 0B0E0000 		.4byte	.LASF194
 5055 09ca 01       		.byte	0x1
 5056 09cb 23       		.byte	0x23
 5057 09cc 81000000 		.4byte	0x81
 5058 09d0 05       		.uleb128 0x5
 5059 09d1 03       		.byte	0x3
 5060 09d2 00000000 		.4byte	updateIsNotifyCCCDAttr
 5061 09d6 23       		.uleb128 0x23
 5062 09d7 73030000 		.4byte	.LASF195
 5063 09db 01       		.byte	0x1
 5064 09dc 24       		.byte	0x24
 5065 09dd 81000000 		.4byte	0x81
 5066 09e1 05       		.uleb128 0x5
 5067 09e2 03       		.byte	0x3
 5068 09e3 00000000 		.4byte	bleConnected
ARM GAS  C:\Users\sergio\AppData\Local\Temp\cc6XWpSt.s 			page 115


 5069 09e7 23       		.uleb128 0x23
 5070 09e8 8A0C0000 		.4byte	.LASF196
 5071 09ec 01       		.byte	0x1
 5072 09ed 25       		.byte	0x25
 5073 09ee 5E090000 		.4byte	0x95e
 5074 09f2 05       		.uleb128 0x5
 5075 09f3 03       		.byte	0x3
 5076 09f4 00000000 		.4byte	uartStr
 5077 09f8 23       		.uleb128 0x23
 5078 09f9 0D0D0000 		.4byte	.LASF197
 5079 09fd 01       		.byte	0x1
 5080 09fe 27       		.byte	0x27
 5081 09ff 81000000 		.4byte	0x81
 5082 0a03 05       		.uleb128 0x5
 5083 0a04 03       		.byte	0x3
 5084 0a05 00000000 		.4byte	gpioPins
 5085 0a09 23       		.uleb128 0x23
 5086 0a0a 59000000 		.4byte	.LASF198
 5087 0a0e 01       		.byte	0x1
 5088 0a0f 28       		.byte	0x28
 5089 0a10 8D000000 		.4byte	0x8d
 5090 0a14 05       		.uleb128 0x5
 5091 0a15 03       		.byte	0x3
 5092 0a16 00000000 		.4byte	adcRead
 5093 0a1a 23       		.uleb128 0x23
 5094 0a1b B40A0000 		.4byte	.LASF199
 5095 0a1f 01       		.byte	0x1
 5096 0a20 29       		.byte	0x29
 5097 0a21 68000000 		.4byte	0x68
 5098 0a25 05       		.uleb128 0x5
 5099 0a26 03       		.byte	0x3
 5100 0a27 00000000 		.4byte	acStates
 5101 0a2b 23       		.uleb128 0x23
 5102 0a2c 0D100000 		.4byte	.LASF200
 5103 0a30 01       		.byte	0x1
 5104 0a31 2A       		.byte	0x2a
 5105 0a32 81000000 		.4byte	0x81
 5106 0a36 05       		.uleb128 0x5
 5107 0a37 03       		.byte	0x3
 5108 0a38 00000000 		.4byte	thermoState
 5109 0a3c 23       		.uleb128 0x23
 5110 0a3d 1B0C0000 		.4byte	.LASF201
 5111 0a41 01       		.byte	0x1
 5112 0a42 2B       		.byte	0x2b
 5113 0a43 68000000 		.4byte	0x68
 5114 0a47 05       		.uleb128 0x5
 5115 0a48 03       		.byte	0x3
 5116 0a49 00000000 		.4byte	counter
 5117 0a4d 23       		.uleb128 0x23
 5118 0a4e 860E0000 		.4byte	.LASF202
 5119 0a52 01       		.byte	0x1
 5120 0a53 4C       		.byte	0x4c
 5121 0a54 C4040000 		.4byte	0x4c4
 5122 0a58 05       		.uleb128 0x5
 5123 0a59 03       		.byte	0x3
 5124 0a5a 00000000 		.4byte	sensorData
 5125 0a5e 23       		.uleb128 0x23
ARM GAS  C:\Users\sergio\AppData\Local\Temp\cc6XWpSt.s 			page 116


 5126 0a5f 45050000 		.4byte	.LASF203
 5127 0a63 01       		.byte	0x1
 5128 0a64 5A       		.byte	0x5a
 5129 0a65 2C050000 		.4byte	0x52c
 5130 0a69 05       		.uleb128 0x5
 5131 0a6a 03       		.byte	0x3
 5132 0a6b 00000000 		.4byte	thermo
 5133 0a6f 23       		.uleb128 0x23
 5134 0a70 3A000000 		.4byte	.LASF204
 5135 0a74 01       		.byte	0x1
 5136 0a75 66       		.byte	0x66
 5137 0a76 88050000 		.4byte	0x588
 5138 0a7a 05       		.uleb128 0x5
 5139 0a7b 03       		.byte	0x3
 5140 0a7c 00000000 		.4byte	errorPower
 5141 0a80 23       		.uleb128 0x23
 5142 0a81 2D030000 		.4byte	.LASF134
 5143 0a85 01       		.byte	0x1
 5144 0a86 68       		.byte	0x68
 5145 0a87 81000000 		.4byte	0x81
 5146 0a8b 05       		.uleb128 0x5
 5147 0a8c 03       		.byte	0x3
 5148 0a8d 00000000 		.4byte	setTemperature
 5149 0a91 23       		.uleb128 0x23
 5150 0a92 1A030000 		.4byte	.LASF205
 5151 0a96 01       		.byte	0x1
 5152 0a97 6A       		.byte	0x6a
 5153 0a98 81000000 		.4byte	0x81
 5154 0a9c 05       		.uleb128 0x5
 5155 0a9d 03       		.byte	0x3
 5156 0a9e 00000000 		.4byte	prevComp
 5157 0aa2 23       		.uleb128 0x23
 5158 0aa3 83000000 		.4byte	.LASF206
 5159 0aa7 01       		.byte	0x1
 5160 0aa8 6B       		.byte	0x6b
 5161 0aa9 81000000 		.4byte	0x81
 5162 0aad 05       		.uleb128 0x5
 5163 0aae 03       		.byte	0x3
 5164 0aaf 00000000 		.4byte	prevLFan
 5165 0ab3 23       		.uleb128 0x23
 5166 0ab4 B2080000 		.4byte	.LASF207
 5167 0ab8 01       		.byte	0x1
 5168 0ab9 6C       		.byte	0x6c
 5169 0aba 81000000 		.4byte	0x81
 5170 0abe 05       		.uleb128 0x5
 5171 0abf 03       		.byte	0x3
 5172 0ac0 00000000 		.4byte	prevHFan
 5173 0ac4 00       		.byte	0
 5174              		.section	.debug_abbrev,"",%progbits
 5175              	.Ldebug_abbrev0:
 5176 0000 01       		.uleb128 0x1
 5177 0001 11       		.uleb128 0x11
 5178 0002 01       		.byte	0x1
 5179 0003 25       		.uleb128 0x25
 5180 0004 0E       		.uleb128 0xe
 5181 0005 13       		.uleb128 0x13
 5182 0006 0B       		.uleb128 0xb
ARM GAS  C:\Users\sergio\AppData\Local\Temp\cc6XWpSt.s 			page 117


 5183 0007 03       		.uleb128 0x3
 5184 0008 0E       		.uleb128 0xe
 5185 0009 1B       		.uleb128 0x1b
 5186 000a 0E       		.uleb128 0xe
 5187 000b 55       		.uleb128 0x55
 5188 000c 17       		.uleb128 0x17
 5189 000d 11       		.uleb128 0x11
 5190 000e 01       		.uleb128 0x1
 5191 000f 10       		.uleb128 0x10
 5192 0010 17       		.uleb128 0x17
 5193 0011 00       		.byte	0
 5194 0012 00       		.byte	0
 5195 0013 02       		.uleb128 0x2
 5196 0014 24       		.uleb128 0x24
 5197 0015 00       		.byte	0
 5198 0016 0B       		.uleb128 0xb
 5199 0017 0B       		.uleb128 0xb
 5200 0018 3E       		.uleb128 0x3e
 5201 0019 0B       		.uleb128 0xb
 5202 001a 03       		.uleb128 0x3
 5203 001b 0E       		.uleb128 0xe
 5204 001c 00       		.byte	0
 5205 001d 00       		.byte	0
 5206 001e 03       		.uleb128 0x3
 5207 001f 16       		.uleb128 0x16
 5208 0020 00       		.byte	0
 5209 0021 03       		.uleb128 0x3
 5210 0022 0E       		.uleb128 0xe
 5211 0023 3A       		.uleb128 0x3a
 5212 0024 0B       		.uleb128 0xb
 5213 0025 3B       		.uleb128 0x3b
 5214 0026 0B       		.uleb128 0xb
 5215 0027 49       		.uleb128 0x49
 5216 0028 13       		.uleb128 0x13
 5217 0029 00       		.byte	0
 5218 002a 00       		.byte	0
 5219 002b 04       		.uleb128 0x4
 5220 002c 24       		.uleb128 0x24
 5221 002d 00       		.byte	0
 5222 002e 0B       		.uleb128 0xb
 5223 002f 0B       		.uleb128 0xb
 5224 0030 3E       		.uleb128 0x3e
 5225 0031 0B       		.uleb128 0xb
 5226 0032 03       		.uleb128 0x3
 5227 0033 08       		.uleb128 0x8
 5228 0034 00       		.byte	0
 5229 0035 00       		.byte	0
 5230 0036 05       		.uleb128 0x5
 5231 0037 16       		.uleb128 0x16
 5232 0038 00       		.byte	0
 5233 0039 03       		.uleb128 0x3
 5234 003a 0E       		.uleb128 0xe
 5235 003b 3A       		.uleb128 0x3a
 5236 003c 0B       		.uleb128 0xb
 5237 003d 3B       		.uleb128 0x3b
 5238 003e 05       		.uleb128 0x5
 5239 003f 49       		.uleb128 0x49
ARM GAS  C:\Users\sergio\AppData\Local\Temp\cc6XWpSt.s 			page 118


 5240 0040 13       		.uleb128 0x13
 5241 0041 00       		.byte	0
 5242 0042 00       		.byte	0
 5243 0043 06       		.uleb128 0x6
 5244 0044 35       		.uleb128 0x35
 5245 0045 00       		.byte	0
 5246 0046 49       		.uleb128 0x49
 5247 0047 13       		.uleb128 0x13
 5248 0048 00       		.byte	0
 5249 0049 00       		.byte	0
 5250 004a 07       		.uleb128 0x7
 5251 004b 0F       		.uleb128 0xf
 5252 004c 00       		.byte	0
 5253 004d 0B       		.uleb128 0xb
 5254 004e 0B       		.uleb128 0xb
 5255 004f 00       		.byte	0
 5256 0050 00       		.byte	0
 5257 0051 08       		.uleb128 0x8
 5258 0052 04       		.uleb128 0x4
 5259 0053 01       		.byte	0x1
 5260 0054 0B       		.uleb128 0xb
 5261 0055 0B       		.uleb128 0xb
 5262 0056 49       		.uleb128 0x49
 5263 0057 13       		.uleb128 0x13
 5264 0058 3A       		.uleb128 0x3a
 5265 0059 0B       		.uleb128 0xb
 5266 005a 3B       		.uleb128 0x3b
 5267 005b 05       		.uleb128 0x5
 5268 005c 01       		.uleb128 0x1
 5269 005d 13       		.uleb128 0x13
 5270 005e 00       		.byte	0
 5271 005f 00       		.byte	0
 5272 0060 09       		.uleb128 0x9
 5273 0061 28       		.uleb128 0x28
 5274 0062 00       		.byte	0
 5275 0063 03       		.uleb128 0x3
 5276 0064 0E       		.uleb128 0xe
 5277 0065 1C       		.uleb128 0x1c
 5278 0066 0B       		.uleb128 0xb
 5279 0067 00       		.byte	0
 5280 0068 00       		.byte	0
 5281 0069 0A       		.uleb128 0xa
 5282 006a 01       		.uleb128 0x1
 5283 006b 01       		.byte	0x1
 5284 006c 49       		.uleb128 0x49
 5285 006d 13       		.uleb128 0x13
 5286 006e 01       		.uleb128 0x1
 5287 006f 13       		.uleb128 0x13
 5288 0070 00       		.byte	0
 5289 0071 00       		.byte	0
 5290 0072 0B       		.uleb128 0xb
 5291 0073 21       		.uleb128 0x21
 5292 0074 00       		.byte	0
 5293 0075 49       		.uleb128 0x49
 5294 0076 13       		.uleb128 0x13
 5295 0077 2F       		.uleb128 0x2f
 5296 0078 0B       		.uleb128 0xb
ARM GAS  C:\Users\sergio\AppData\Local\Temp\cc6XWpSt.s 			page 119


 5297 0079 00       		.byte	0
 5298 007a 00       		.byte	0
 5299 007b 0C       		.uleb128 0xc
 5300 007c 0F       		.uleb128 0xf
 5301 007d 00       		.byte	0
 5302 007e 0B       		.uleb128 0xb
 5303 007f 0B       		.uleb128 0xb
 5304 0080 49       		.uleb128 0x49
 5305 0081 13       		.uleb128 0x13
 5306 0082 00       		.byte	0
 5307 0083 00       		.byte	0
 5308 0084 0D       		.uleb128 0xd
 5309 0085 13       		.uleb128 0x13
 5310 0086 01       		.byte	0x1
 5311 0087 0B       		.uleb128 0xb
 5312 0088 0B       		.uleb128 0xb
 5313 0089 3A       		.uleb128 0x3a
 5314 008a 0B       		.uleb128 0xb
 5315 008b 3B       		.uleb128 0x3b
 5316 008c 05       		.uleb128 0x5
 5317 008d 01       		.uleb128 0x1
 5318 008e 13       		.uleb128 0x13
 5319 008f 00       		.byte	0
 5320 0090 00       		.byte	0
 5321 0091 0E       		.uleb128 0xe
 5322 0092 0D       		.uleb128 0xd
 5323 0093 00       		.byte	0
 5324 0094 03       		.uleb128 0x3
 5325 0095 0E       		.uleb128 0xe
 5326 0096 3A       		.uleb128 0x3a
 5327 0097 0B       		.uleb128 0xb
 5328 0098 3B       		.uleb128 0x3b
 5329 0099 05       		.uleb128 0x5
 5330 009a 49       		.uleb128 0x49
 5331 009b 13       		.uleb128 0x13
 5332 009c 38       		.uleb128 0x38
 5333 009d 0B       		.uleb128 0xb
 5334 009e 00       		.byte	0
 5335 009f 00       		.byte	0
 5336 00a0 0F       		.uleb128 0xf
 5337 00a1 0D       		.uleb128 0xd
 5338 00a2 00       		.byte	0
 5339 00a3 03       		.uleb128 0x3
 5340 00a4 08       		.uleb128 0x8
 5341 00a5 3A       		.uleb128 0x3a
 5342 00a6 0B       		.uleb128 0xb
 5343 00a7 3B       		.uleb128 0x3b
 5344 00a8 05       		.uleb128 0x5
 5345 00a9 49       		.uleb128 0x49
 5346 00aa 13       		.uleb128 0x13
 5347 00ab 38       		.uleb128 0x38
 5348 00ac 0B       		.uleb128 0xb
 5349 00ad 00       		.byte	0
 5350 00ae 00       		.byte	0
 5351 00af 10       		.uleb128 0x10
 5352 00b0 13       		.uleb128 0x13
 5353 00b1 01       		.byte	0x1
ARM GAS  C:\Users\sergio\AppData\Local\Temp\cc6XWpSt.s 			page 120


 5354 00b2 0B       		.uleb128 0xb
 5355 00b3 0B       		.uleb128 0xb
 5356 00b4 3A       		.uleb128 0x3a
 5357 00b5 0B       		.uleb128 0xb
 5358 00b6 3B       		.uleb128 0x3b
 5359 00b7 0B       		.uleb128 0xb
 5360 00b8 01       		.uleb128 0x1
 5361 00b9 13       		.uleb128 0x13
 5362 00ba 00       		.byte	0
 5363 00bb 00       		.byte	0
 5364 00bc 11       		.uleb128 0x11
 5365 00bd 0D       		.uleb128 0xd
 5366 00be 00       		.byte	0
 5367 00bf 03       		.uleb128 0x3
 5368 00c0 0E       		.uleb128 0xe
 5369 00c1 3A       		.uleb128 0x3a
 5370 00c2 0B       		.uleb128 0xb
 5371 00c3 3B       		.uleb128 0x3b
 5372 00c4 0B       		.uleb128 0xb
 5373 00c5 49       		.uleb128 0x49
 5374 00c6 13       		.uleb128 0x13
 5375 00c7 38       		.uleb128 0x38
 5376 00c8 0B       		.uleb128 0xb
 5377 00c9 00       		.byte	0
 5378 00ca 00       		.byte	0
 5379 00cb 12       		.uleb128 0x12
 5380 00cc 2E       		.uleb128 0x2e
 5381 00cd 01       		.byte	0x1
 5382 00ce 3F       		.uleb128 0x3f
 5383 00cf 19       		.uleb128 0x19
 5384 00d0 03       		.uleb128 0x3
 5385 00d1 0E       		.uleb128 0xe
 5386 00d2 3A       		.uleb128 0x3a
 5387 00d3 0B       		.uleb128 0xb
 5388 00d4 3B       		.uleb128 0x3b
 5389 00d5 0B       		.uleb128 0xb
 5390 00d6 27       		.uleb128 0x27
 5391 00d7 19       		.uleb128 0x19
 5392 00d8 11       		.uleb128 0x11
 5393 00d9 01       		.uleb128 0x1
 5394 00da 12       		.uleb128 0x12
 5395 00db 06       		.uleb128 0x6
 5396 00dc 40       		.uleb128 0x40
 5397 00dd 18       		.uleb128 0x18
 5398 00de 9642     		.uleb128 0x2116
 5399 00e0 19       		.uleb128 0x19
 5400 00e1 01       		.uleb128 0x1
 5401 00e2 13       		.uleb128 0x13
 5402 00e3 00       		.byte	0
 5403 00e4 00       		.byte	0
 5404 00e5 13       		.uleb128 0x13
 5405 00e6 34       		.uleb128 0x34
 5406 00e7 00       		.byte	0
 5407 00e8 03       		.uleb128 0x3
 5408 00e9 0E       		.uleb128 0xe
 5409 00ea 3A       		.uleb128 0x3a
 5410 00eb 0B       		.uleb128 0xb
ARM GAS  C:\Users\sergio\AppData\Local\Temp\cc6XWpSt.s 			page 121


 5411 00ec 3B       		.uleb128 0x3b
 5412 00ed 0B       		.uleb128 0xb
 5413 00ee 49       		.uleb128 0x49
 5414 00ef 13       		.uleb128 0x13
 5415 00f0 02       		.uleb128 0x2
 5416 00f1 18       		.uleb128 0x18
 5417 00f2 00       		.byte	0
 5418 00f3 00       		.byte	0
 5419 00f4 14       		.uleb128 0x14
 5420 00f5 05       		.uleb128 0x5
 5421 00f6 00       		.byte	0
 5422 00f7 03       		.uleb128 0x3
 5423 00f8 0E       		.uleb128 0xe
 5424 00f9 3A       		.uleb128 0x3a
 5425 00fa 0B       		.uleb128 0xb
 5426 00fb 3B       		.uleb128 0x3b
 5427 00fc 0B       		.uleb128 0xb
 5428 00fd 49       		.uleb128 0x49
 5429 00fe 13       		.uleb128 0x13
 5430 00ff 02       		.uleb128 0x2
 5431 0100 18       		.uleb128 0x18
 5432 0101 00       		.byte	0
 5433 0102 00       		.byte	0
 5434 0103 15       		.uleb128 0x15
 5435 0104 2E       		.uleb128 0x2e
 5436 0105 01       		.byte	0x1
 5437 0106 3F       		.uleb128 0x3f
 5438 0107 19       		.uleb128 0x19
 5439 0108 03       		.uleb128 0x3
 5440 0109 0E       		.uleb128 0xe
 5441 010a 3A       		.uleb128 0x3a
 5442 010b 0B       		.uleb128 0xb
 5443 010c 3B       		.uleb128 0x3b
 5444 010d 0B       		.uleb128 0xb
 5445 010e 11       		.uleb128 0x11
 5446 010f 01       		.uleb128 0x1
 5447 0110 12       		.uleb128 0x12
 5448 0111 06       		.uleb128 0x6
 5449 0112 40       		.uleb128 0x40
 5450 0113 18       		.uleb128 0x18
 5451 0114 9642     		.uleb128 0x2116
 5452 0116 19       		.uleb128 0x19
 5453 0117 01       		.uleb128 0x1
 5454 0118 13       		.uleb128 0x13
 5455 0119 00       		.byte	0
 5456 011a 00       		.byte	0
 5457 011b 16       		.uleb128 0x16
 5458 011c 34       		.uleb128 0x34
 5459 011d 00       		.byte	0
 5460 011e 03       		.uleb128 0x3
 5461 011f 08       		.uleb128 0x8
 5462 0120 3A       		.uleb128 0x3a
 5463 0121 0B       		.uleb128 0xb
 5464 0122 3B       		.uleb128 0x3b
 5465 0123 0B       		.uleb128 0xb
 5466 0124 49       		.uleb128 0x49
 5467 0125 13       		.uleb128 0x13
ARM GAS  C:\Users\sergio\AppData\Local\Temp\cc6XWpSt.s 			page 122


 5468 0126 02       		.uleb128 0x2
 5469 0127 18       		.uleb128 0x18
 5470 0128 00       		.byte	0
 5471 0129 00       		.byte	0
 5472 012a 17       		.uleb128 0x17
 5473 012b 2E       		.uleb128 0x2e
 5474 012c 01       		.byte	0x1
 5475 012d 3F       		.uleb128 0x3f
 5476 012e 19       		.uleb128 0x19
 5477 012f 03       		.uleb128 0x3
 5478 0130 0E       		.uleb128 0xe
 5479 0131 3A       		.uleb128 0x3a
 5480 0132 0B       		.uleb128 0xb
 5481 0133 3B       		.uleb128 0x3b
 5482 0134 05       		.uleb128 0x5
 5483 0135 27       		.uleb128 0x27
 5484 0136 19       		.uleb128 0x19
 5485 0137 11       		.uleb128 0x11
 5486 0138 01       		.uleb128 0x1
 5487 0139 12       		.uleb128 0x12
 5488 013a 06       		.uleb128 0x6
 5489 013b 40       		.uleb128 0x40
 5490 013c 18       		.uleb128 0x18
 5491 013d 9642     		.uleb128 0x2116
 5492 013f 19       		.uleb128 0x19
 5493 0140 01       		.uleb128 0x1
 5494 0141 13       		.uleb128 0x13
 5495 0142 00       		.byte	0
 5496 0143 00       		.byte	0
 5497 0144 18       		.uleb128 0x18
 5498 0145 34       		.uleb128 0x34
 5499 0146 00       		.byte	0
 5500 0147 03       		.uleb128 0x3
 5501 0148 0E       		.uleb128 0xe
 5502 0149 3A       		.uleb128 0x3a
 5503 014a 0B       		.uleb128 0xb
 5504 014b 3B       		.uleb128 0x3b
 5505 014c 05       		.uleb128 0x5
 5506 014d 49       		.uleb128 0x49
 5507 014e 13       		.uleb128 0x13
 5508 014f 02       		.uleb128 0x2
 5509 0150 18       		.uleb128 0x18
 5510 0151 00       		.byte	0
 5511 0152 00       		.byte	0
 5512 0153 19       		.uleb128 0x19
 5513 0154 2E       		.uleb128 0x2e
 5514 0155 00       		.byte	0
 5515 0156 3F       		.uleb128 0x3f
 5516 0157 19       		.uleb128 0x19
 5517 0158 03       		.uleb128 0x3
 5518 0159 0E       		.uleb128 0xe
 5519 015a 3A       		.uleb128 0x3a
 5520 015b 0B       		.uleb128 0xb
 5521 015c 3B       		.uleb128 0x3b
 5522 015d 05       		.uleb128 0x5
 5523 015e 11       		.uleb128 0x11
 5524 015f 01       		.uleb128 0x1
ARM GAS  C:\Users\sergio\AppData\Local\Temp\cc6XWpSt.s 			page 123


 5525 0160 12       		.uleb128 0x12
 5526 0161 06       		.uleb128 0x6
 5527 0162 40       		.uleb128 0x40
 5528 0163 18       		.uleb128 0x18
 5529 0164 9642     		.uleb128 0x2116
 5530 0166 19       		.uleb128 0x19
 5531 0167 00       		.byte	0
 5532 0168 00       		.byte	0
 5533 0169 1A       		.uleb128 0x1a
 5534 016a 2E       		.uleb128 0x2e
 5535 016b 01       		.byte	0x1
 5536 016c 3F       		.uleb128 0x3f
 5537 016d 19       		.uleb128 0x19
 5538 016e 03       		.uleb128 0x3
 5539 016f 0E       		.uleb128 0xe
 5540 0170 3A       		.uleb128 0x3a
 5541 0171 0B       		.uleb128 0xb
 5542 0172 3B       		.uleb128 0x3b
 5543 0173 05       		.uleb128 0x5
 5544 0174 49       		.uleb128 0x49
 5545 0175 13       		.uleb128 0x13
 5546 0176 11       		.uleb128 0x11
 5547 0177 01       		.uleb128 0x1
 5548 0178 12       		.uleb128 0x12
 5549 0179 06       		.uleb128 0x6
 5550 017a 40       		.uleb128 0x40
 5551 017b 18       		.uleb128 0x18
 5552 017c 9642     		.uleb128 0x2116
 5553 017e 19       		.uleb128 0x19
 5554 017f 01       		.uleb128 0x1
 5555 0180 13       		.uleb128 0x13
 5556 0181 00       		.byte	0
 5557 0182 00       		.byte	0
 5558 0183 1B       		.uleb128 0x1b
 5559 0184 05       		.uleb128 0x5
 5560 0185 00       		.byte	0
 5561 0186 03       		.uleb128 0x3
 5562 0187 0E       		.uleb128 0xe
 5563 0188 3A       		.uleb128 0x3a
 5564 0189 0B       		.uleb128 0xb
 5565 018a 3B       		.uleb128 0x3b
 5566 018b 05       		.uleb128 0x5
 5567 018c 49       		.uleb128 0x49
 5568 018d 13       		.uleb128 0x13
 5569 018e 02       		.uleb128 0x2
 5570 018f 18       		.uleb128 0x18
 5571 0190 00       		.byte	0
 5572 0191 00       		.byte	0
 5573 0192 1C       		.uleb128 0x1c
 5574 0193 0B       		.uleb128 0xb
 5575 0194 01       		.byte	0x1
 5576 0195 11       		.uleb128 0x11
 5577 0196 01       		.uleb128 0x1
 5578 0197 12       		.uleb128 0x12
 5579 0198 06       		.uleb128 0x6
 5580 0199 00       		.byte	0
 5581 019a 00       		.byte	0
ARM GAS  C:\Users\sergio\AppData\Local\Temp\cc6XWpSt.s 			page 124


 5582 019b 1D       		.uleb128 0x1d
 5583 019c 34       		.uleb128 0x34
 5584 019d 00       		.byte	0
 5585 019e 03       		.uleb128 0x3
 5586 019f 08       		.uleb128 0x8
 5587 01a0 3A       		.uleb128 0x3a
 5588 01a1 0B       		.uleb128 0xb
 5589 01a2 3B       		.uleb128 0x3b
 5590 01a3 05       		.uleb128 0x5
 5591 01a4 49       		.uleb128 0x49
 5592 01a5 13       		.uleb128 0x13
 5593 01a6 02       		.uleb128 0x2
 5594 01a7 18       		.uleb128 0x18
 5595 01a8 00       		.byte	0
 5596 01a9 00       		.byte	0
 5597 01aa 1E       		.uleb128 0x1e
 5598 01ab 2E       		.uleb128 0x2e
 5599 01ac 01       		.byte	0x1
 5600 01ad 3F       		.uleb128 0x3f
 5601 01ae 19       		.uleb128 0x19
 5602 01af 03       		.uleb128 0x3
 5603 01b0 0E       		.uleb128 0xe
 5604 01b1 3A       		.uleb128 0x3a
 5605 01b2 0B       		.uleb128 0xb
 5606 01b3 3B       		.uleb128 0x3b
 5607 01b4 05       		.uleb128 0x5
 5608 01b5 11       		.uleb128 0x11
 5609 01b6 01       		.uleb128 0x1
 5610 01b7 12       		.uleb128 0x12
 5611 01b8 06       		.uleb128 0x6
 5612 01b9 40       		.uleb128 0x40
 5613 01ba 18       		.uleb128 0x18
 5614 01bb 9642     		.uleb128 0x2116
 5615 01bd 19       		.uleb128 0x19
 5616 01be 01       		.uleb128 0x1
 5617 01bf 13       		.uleb128 0x13
 5618 01c0 00       		.byte	0
 5619 01c1 00       		.byte	0
 5620 01c2 1F       		.uleb128 0x1f
 5621 01c3 2E       		.uleb128 0x2e
 5622 01c4 01       		.byte	0x1
 5623 01c5 3F       		.uleb128 0x3f
 5624 01c6 19       		.uleb128 0x19
 5625 01c7 03       		.uleb128 0x3
 5626 01c8 0E       		.uleb128 0xe
 5627 01c9 3A       		.uleb128 0x3a
 5628 01ca 0B       		.uleb128 0xb
 5629 01cb 3B       		.uleb128 0x3b
 5630 01cc 05       		.uleb128 0x5
 5631 01cd 27       		.uleb128 0x27
 5632 01ce 19       		.uleb128 0x19
 5633 01cf 11       		.uleb128 0x11
 5634 01d0 01       		.uleb128 0x1
 5635 01d1 12       		.uleb128 0x12
 5636 01d2 06       		.uleb128 0x6
 5637 01d3 40       		.uleb128 0x40
 5638 01d4 18       		.uleb128 0x18
ARM GAS  C:\Users\sergio\AppData\Local\Temp\cc6XWpSt.s 			page 125


 5639 01d5 9742     		.uleb128 0x2117
 5640 01d7 19       		.uleb128 0x19
 5641 01d8 01       		.uleb128 0x1
 5642 01d9 13       		.uleb128 0x13
 5643 01da 00       		.byte	0
 5644 01db 00       		.byte	0
 5645 01dc 20       		.uleb128 0x20
 5646 01dd 05       		.uleb128 0x5
 5647 01de 00       		.byte	0
 5648 01df 03       		.uleb128 0x3
 5649 01e0 08       		.uleb128 0x8
 5650 01e1 3A       		.uleb128 0x3a
 5651 01e2 0B       		.uleb128 0xb
 5652 01e3 3B       		.uleb128 0x3b
 5653 01e4 05       		.uleb128 0x5
 5654 01e5 49       		.uleb128 0x49
 5655 01e6 13       		.uleb128 0x13
 5656 01e7 02       		.uleb128 0x2
 5657 01e8 18       		.uleb128 0x18
 5658 01e9 00       		.byte	0
 5659 01ea 00       		.byte	0
 5660 01eb 21       		.uleb128 0x21
 5661 01ec 2E       		.uleb128 0x2e
 5662 01ed 01       		.byte	0x1
 5663 01ee 3F       		.uleb128 0x3f
 5664 01ef 19       		.uleb128 0x19
 5665 01f0 03       		.uleb128 0x3
 5666 01f1 0E       		.uleb128 0xe
 5667 01f2 3A       		.uleb128 0x3a
 5668 01f3 0B       		.uleb128 0xb
 5669 01f4 3B       		.uleb128 0x3b
 5670 01f5 05       		.uleb128 0x5
 5671 01f6 27       		.uleb128 0x27
 5672 01f7 19       		.uleb128 0x19
 5673 01f8 49       		.uleb128 0x49
 5674 01f9 13       		.uleb128 0x13
 5675 01fa 11       		.uleb128 0x11
 5676 01fb 01       		.uleb128 0x1
 5677 01fc 12       		.uleb128 0x12
 5678 01fd 06       		.uleb128 0x6
 5679 01fe 40       		.uleb128 0x40
 5680 01ff 18       		.uleb128 0x18
 5681 0200 9642     		.uleb128 0x2116
 5682 0202 19       		.uleb128 0x19
 5683 0203 01       		.uleb128 0x1
 5684 0204 13       		.uleb128 0x13
 5685 0205 00       		.byte	0
 5686 0206 00       		.byte	0
 5687 0207 22       		.uleb128 0x22
 5688 0208 34       		.uleb128 0x34
 5689 0209 00       		.byte	0
 5690 020a 03       		.uleb128 0x3
 5691 020b 0E       		.uleb128 0xe
 5692 020c 3A       		.uleb128 0x3a
 5693 020d 0B       		.uleb128 0xb
 5694 020e 3B       		.uleb128 0x3b
 5695 020f 05       		.uleb128 0x5
ARM GAS  C:\Users\sergio\AppData\Local\Temp\cc6XWpSt.s 			page 126


 5696 0210 49       		.uleb128 0x49
 5697 0211 13       		.uleb128 0x13
 5698 0212 3F       		.uleb128 0x3f
 5699 0213 19       		.uleb128 0x19
 5700 0214 3C       		.uleb128 0x3c
 5701 0215 19       		.uleb128 0x19
 5702 0216 00       		.byte	0
 5703 0217 00       		.byte	0
 5704 0218 23       		.uleb128 0x23
 5705 0219 34       		.uleb128 0x34
 5706 021a 00       		.byte	0
 5707 021b 03       		.uleb128 0x3
 5708 021c 0E       		.uleb128 0xe
 5709 021d 3A       		.uleb128 0x3a
 5710 021e 0B       		.uleb128 0xb
 5711 021f 3B       		.uleb128 0x3b
 5712 0220 0B       		.uleb128 0xb
 5713 0221 49       		.uleb128 0x49
 5714 0222 13       		.uleb128 0x13
 5715 0223 3F       		.uleb128 0x3f
 5716 0224 19       		.uleb128 0x19
 5717 0225 02       		.uleb128 0x2
 5718 0226 18       		.uleb128 0x18
 5719 0227 00       		.byte	0
 5720 0228 00       		.byte	0
 5721 0229 00       		.byte	0
 5722              		.section	.debug_aranges,"",%progbits
 5723 0000 9C000000 		.4byte	0x9c
 5724 0004 0200     		.2byte	0x2
 5725 0006 00000000 		.4byte	.Ldebug_info0
 5726 000a 04       		.byte	0x4
 5727 000b 00       		.byte	0
 5728 000c 0000     		.2byte	0
 5729 000e 0000     		.2byte	0
 5730 0010 00000000 		.4byte	.LFB36
 5731 0014 78000000 		.4byte	.LFE36-.LFB36
 5732 0018 00000000 		.4byte	.LFB37
 5733 001c 7C010000 		.4byte	.LFE37-.LFB37
 5734 0020 00000000 		.4byte	.LFB38
 5735 0024 84000000 		.4byte	.LFE38-.LFB38
 5736 0028 00000000 		.4byte	.LFB39
 5737 002c 74000000 		.4byte	.LFE39-.LFB39
 5738 0030 00000000 		.4byte	.LFB40
 5739 0034 A4000000 		.4byte	.LFE40-.LFB40
 5740 0038 00000000 		.4byte	.LFB41
 5741 003c 58000000 		.4byte	.LFE41-.LFB41
 5742 0040 00000000 		.4byte	.LFB42
 5743 0044 2A000000 		.4byte	.LFE42-.LFB42
 5744 0048 00000000 		.4byte	.LFB43
 5745 004c 46000000 		.4byte	.LFE43-.LFB43
 5746 0050 00000000 		.4byte	.LFB44
 5747 0054 4A000000 		.4byte	.LFE44-.LFB44
 5748 0058 00000000 		.4byte	.LFB45
 5749 005c 4A000000 		.4byte	.LFE45-.LFB45
 5750 0060 00000000 		.4byte	.LFB46
 5751 0064 78010000 		.4byte	.LFE46-.LFB46
 5752 0068 00000000 		.4byte	.LFB47
ARM GAS  C:\Users\sergio\AppData\Local\Temp\cc6XWpSt.s 			page 127


 5753 006c F0010000 		.4byte	.LFE47-.LFB47
 5754 0070 00000000 		.4byte	.LFB48
 5755 0074 50000000 		.4byte	.LFE48-.LFB48
 5756 0078 00000000 		.4byte	.LFB49
 5757 007c 22000000 		.4byte	.LFE49-.LFB49
 5758 0080 00000000 		.4byte	.LFB50
 5759 0084 20000000 		.4byte	.LFE50-.LFB50
 5760 0088 00000000 		.4byte	.LFB51
 5761 008c 70040000 		.4byte	.LFE51-.LFB51
 5762 0090 00000000 		.4byte	.LFB52
 5763 0094 64090000 		.4byte	.LFE52-.LFB52
 5764 0098 00000000 		.4byte	0
 5765 009c 00000000 		.4byte	0
 5766              		.section	.debug_ranges,"",%progbits
 5767              	.Ldebug_ranges0:
 5768 0000 00000000 		.4byte	.LFB36
 5769 0004 78000000 		.4byte	.LFE36
 5770 0008 00000000 		.4byte	.LFB37
 5771 000c 7C010000 		.4byte	.LFE37
 5772 0010 00000000 		.4byte	.LFB38
 5773 0014 84000000 		.4byte	.LFE38
 5774 0018 00000000 		.4byte	.LFB39
 5775 001c 74000000 		.4byte	.LFE39
 5776 0020 00000000 		.4byte	.LFB40
 5777 0024 A4000000 		.4byte	.LFE40
 5778 0028 00000000 		.4byte	.LFB41
 5779 002c 58000000 		.4byte	.LFE41
 5780 0030 00000000 		.4byte	.LFB42
 5781 0034 2A000000 		.4byte	.LFE42
 5782 0038 00000000 		.4byte	.LFB43
 5783 003c 46000000 		.4byte	.LFE43
 5784 0040 00000000 		.4byte	.LFB44
 5785 0044 4A000000 		.4byte	.LFE44
 5786 0048 00000000 		.4byte	.LFB45
 5787 004c 4A000000 		.4byte	.LFE45
 5788 0050 00000000 		.4byte	.LFB46
 5789 0054 78010000 		.4byte	.LFE46
 5790 0058 00000000 		.4byte	.LFB47
 5791 005c F0010000 		.4byte	.LFE47
 5792 0060 00000000 		.4byte	.LFB48
 5793 0064 50000000 		.4byte	.LFE48
 5794 0068 00000000 		.4byte	.LFB49
 5795 006c 22000000 		.4byte	.LFE49
 5796 0070 00000000 		.4byte	.LFB50
 5797 0074 20000000 		.4byte	.LFE50
 5798 0078 00000000 		.4byte	.LFB51
 5799 007c 70040000 		.4byte	.LFE51
 5800 0080 00000000 		.4byte	.LFB52
 5801 0084 64090000 		.4byte	.LFE52
 5802 0088 00000000 		.4byte	0
 5803 008c 00000000 		.4byte	0
 5804              		.section	.debug_line,"",%progbits
 5805              	.Ldebug_line0:
 5806 0000 46060000 		.section	.debug_str,"MS",%progbits,1
 5806      02009701 
 5806      00000201 
 5806      FB0E0D00 
ARM GAS  C:\Users\sergio\AppData\Local\Temp\cc6XWpSt.s 			page 128


 5806      01010101 
 5807              	.LASF61:
 5808 0000 4359424C 		.ascii	"CYBLE_EVT_GATTC_READ_BLOB_RSP\000"
 5808      455F4556 
 5808      545F4741 
 5808      5454435F 
 5808      52454144 
 5809              	.LASF25:
 5810 001e 4359424C 		.ascii	"CYBLE_EVT_STACK_BUSY_STATUS\000"
 5810      455F4556 
 5810      545F5354 
 5810      41434B5F 
 5810      42555359 
 5811              	.LASF204:
 5812 003a 6572726F 		.ascii	"errorPower\000"
 5812      72506F77 
 5812      657200
 5813              	.LASF105:
 5814 0045 4359424C 		.ascii	"CYBLE_STATE_STOPPED\000"
 5814      455F5354 
 5814      4154455F 
 5814      53544F50 
 5814      50454400 
 5815              	.LASF198:
 5816 0059 61646352 		.ascii	"adcRead\000"
 5816      65616400 
 5817              	.LASF130:
 5818 0061 64617461 		.ascii	"dataCollected\000"
 5818      436F6C6C 
 5818      65637465 
 5818      6400
 5819              	.LASF95:
 5820 006f 4359424C 		.ascii	"CYBLE_CONN_HANDLE_T\000"
 5820      455F434F 
 5820      4E4E5F48 
 5820      414E444C 
 5820      455F5400 
 5821              	.LASF206:
 5822 0083 70726576 		.ascii	"prevLFan\000"
 5822      4C46616E 
 5822      00
 5823              	.LASF102:
 5824 008c 636F6E6E 		.ascii	"connHandle\000"
 5824      48616E64 
 5824      6C6500
 5825              	.LASF87:
 5826 0097 4359424C 		.ascii	"CYBLE_EVT_PENDING_FLASH_WRITE\000"
 5826      455F4556 
 5826      545F5045 
 5826      4E44494E 
 5826      475F464C 
 5827              	.LASF170:
 5828 00b5 72656164 		.ascii	"read_power_chips\000"
 5828      5F706F77 
 5828      65725F63 
 5828      68697073 
 5828      00
ARM GAS  C:\Users\sergio\AppData\Local\Temp\cc6XWpSt.s 			page 129


 5829              	.LASF124:
 5830 00c6 6C696E65 		.ascii	"lineFreqFan\000"
 5830      46726571 
 5830      46616E00 
 5831              	.LASF9:
 5832 00d2 5F5F7569 		.ascii	"__uint8_t\000"
 5832      6E74385F 
 5832      7400
 5833              	.LASF181:
 5834 00dc 73746174 		.ascii	"statusStart\000"
 5834      75735374 
 5834      61727400 
 5835              	.LASF177:
 5836 00e8 636F6D70 		.ascii	"comp\000"
 5836      00
 5837              	.LASF22:
 5838 00ed 4359424C 		.ascii	"CYBLE_EVT_TIMEOUT\000"
 5838      455F4556 
 5838      545F5449 
 5838      4D454F55 
 5838      5400
 5839              	.LASF4:
 5840 00ff 6C6F6E67 		.ascii	"long int\000"
 5840      20696E74 
 5840      00
 5841              	.LASF131:
 5842 0108 636F6D70 		.ascii	"compressor\000"
 5842      72657373 
 5842      6F7200
 5843              	.LASF146:
 5844 0113 75706461 		.ascii	"updateThermostatData\000"
 5844      74655468 
 5844      65726D6F 
 5844      73746174 
 5844      44617461 
 5845              	.LASF175:
 5846 0128 72756E5F 		.ascii	"run_ac\000"
 5846      616300
 5847              	.LASF7:
 5848 012f 6C6F6E67 		.ascii	"long long unsigned int\000"
 5848      206C6F6E 
 5848      6720756E 
 5848      7369676E 
 5848      65642069 
 5849              	.LASF97:
 5850 0146 4359424C 		.ascii	"CYBLE_GATT_VALUE_T\000"
 5850      455F4741 
 5850      54545F56 
 5850      414C5545 
 5850      5F5400
 5851              	.LASF24:
 5852 0159 4359424C 		.ascii	"CYBLE_EVT_HCI_STATUS\000"
 5852      455F4556 
 5852      545F4843 
 5852      495F5354 
 5852      41545553 
 5853              	.LASF127:
ARM GAS  C:\Users\sergio\AppData\Local\Temp\cc6XWpSt.s 			page 130


 5854 016e 61636359 		.ascii	"accY\000"
 5854      00
 5855              	.LASF128:
 5856 0173 6163635A 		.ascii	"accZ\000"
 5856      00
 5857              	.LASF104:
 5858 0178 4359424C 		.ascii	"CYBLE_GATTS_WRITE_REQ_PARAM_T\000"
 5858      455F4741 
 5858      5454535F 
 5858      57524954 
 5858      455F5245 
 5859              	.LASF117:
 5860 0196 766F6C74 		.ascii	"voltCompressor\000"
 5860      436F6D70 
 5860      72657373 
 5860      6F7200
 5861              	.LASF76:
 5862 01a5 4359424C 		.ascii	"CYBLE_EVT_L2CAP_CONN_PARAM_UPDATE_REQ\000"
 5862      455F4556 
 5862      545F4C32 
 5862      4341505F 
 5862      434F4E4E 
 5863              	.LASF35:
 5864 01cb 4359424C 		.ascii	"CYBLE_EVT_GAP_DEVICE_DISCONNECTED\000"
 5864      455F4556 
 5864      545F4741 
 5864      505F4445 
 5864      56494345 
 5865              	.LASF36:
 5866 01ed 4359424C 		.ascii	"CYBLE_EVT_GAP_ENCRYPT_CHANGE\000"
 5866      455F4556 
 5866      545F4741 
 5866      505F454E 
 5866      43525950 
 5867              	.LASF172:
 5868 020a 72656164 		.ascii	"read_Air_Flow\000"
 5868      5F416972 
 5868      5F466C6F 
 5868      7700
 5869              	.LASF40:
 5870 0218 4359424C 		.ascii	"CYBLE_EVT_GAP_NUMERIC_COMPARISON_REQUEST\000"
 5870      455F4556 
 5870      545F4741 
 5870      505F4E55 
 5870      4D455249 
 5871              	.LASF157:
 5872 0241 53656E64 		.ascii	"SendDataNotify\000"
 5872      44617461 
 5872      4E6F7469 
 5872      667900
 5873              	.LASF113:
 5874 0250 72656D6F 		.ascii	"remoteTemp1\000"
 5874      74655465 
 5874      6D703100 
 5875              	.LASF108:
 5876 025c 4359424C 		.ascii	"CYBLE_STATE_ADVERTISING\000"
 5876      455F5354 
ARM GAS  C:\Users\sergio\AppData\Local\Temp\cc6XWpSt.s 			page 131


 5876      4154455F 
 5876      41445645 
 5876      52544953 
 5877              	.LASF115:
 5878 0274 72656D6F 		.ascii	"remoteTemp3\000"
 5878      74655465 
 5878      6D703300 
 5879              	.LASF116:
 5880 0280 72656D6F 		.ascii	"remoteTemp4\000"
 5880      74655465 
 5880      6D703400 
 5881              	.LASF0:
 5882 028c 7369676E 		.ascii	"signed char\000"
 5882      65642063 
 5882      68617200 
 5883              	.LASF21:
 5884 0298 4359424C 		.ascii	"CYBLE_EVT_STACK_ON\000"
 5884      455F4556 
 5884      545F5354 
 5884      41434B5F 
 5884      4F4E00
 5885              	.LASF132:
 5886 02ab 66616E4C 		.ascii	"fanLow\000"
 5886      6F7700
 5887              	.LASF119:
 5888 02b2 766F6C74 		.ascii	"volt\000"
 5888      00
 5889              	.LASF38:
 5890 02b7 4359424C 		.ascii	"CYBLE_EVT_GAPC_SCAN_START_STOP\000"
 5890      455F4556 
 5890      545F4741 
 5890      50435F53 
 5890      43414E5F 
 5891              	.LASF96:
 5892 02d6 61637475 		.ascii	"actualLen\000"
 5892      616C4C65 
 5892      6E00
 5893              	.LASF28:
 5894 02e0 4359424C 		.ascii	"CYBLE_EVT_GAP_AUTH_REQ\000"
 5894      455F4556 
 5894      545F4741 
 5894      505F4155 
 5894      54485F52 
 5895              	.LASF152:
 5896 02f7 6572726F 		.ascii	"errorRead\000"
 5896      72526561 
 5896      6400
 5897              	.LASF60:
 5898 0301 4359424C 		.ascii	"CYBLE_EVT_GATTC_READ_RSP\000"
 5898      455F4556 
 5898      545F4741 
 5898      5454435F 
 5898      52454144 
 5899              	.LASF205:
 5900 031a 70726576 		.ascii	"prevComp\000"
 5900      436F6D70 
 5900      00
ARM GAS  C:\Users\sergio\AppData\Local\Temp\cc6XWpSt.s 			page 132


 5901              	.LASF145:
 5902 0323 6572726F 		.ascii	"errorCode\000"
 5902      72436F64 
 5902      6500
 5903              	.LASF134:
 5904 032d 73657454 		.ascii	"setTemperature\000"
 5904      656D7065 
 5904      72617475 
 5904      726500
 5905              	.LASF65:
 5906 033c 4359424C 		.ascii	"CYBLE_EVT_GATTS_WRITE_CMD_REQ\000"
 5906      455F4556 
 5906      545F4741 
 5906      5454535F 
 5906      57524954 
 5907              	.LASF109:
 5908 035a 4359424C 		.ascii	"CYBLE_STATE_DISCONNECTED\000"
 5908      455F5354 
 5908      4154455F 
 5908      44495343 
 5908      4F4E4E45 
 5909              	.LASF195:
 5910 0373 626C6543 		.ascii	"bleConnected\000"
 5910      6F6E6E65 
 5910      63746564 
 5910      00
 5911              	.LASF33:
 5912 0380 4359424C 		.ascii	"CYBLE_EVT_GAPP_ADVERTISEMENT_START_STOP\000"
 5912      455F4556 
 5912      545F4741 
 5912      50505F41 
 5912      44564552 
 5913              	.LASF118:
 5914 03a8 766F6C74 		.ascii	"voltFan\000"
 5914      46616E00 
 5915              	.LASF121:
 5916 03b0 63757272 		.ascii	"currentFan\000"
 5916      656E7446 
 5916      616E00
 5917              	.LASF54:
 5918 03bb 4359424C 		.ascii	"CYBLE_EVT_GATTS_XCNHG_MTU_REQ\000"
 5918      455F4556 
 5918      545F4741 
 5918      5454535F 
 5918      58434E48 
 5919              	.LASF11:
 5920 03d9 75696E74 		.ascii	"uint8\000"
 5920      3800
 5921              	.LASF6:
 5922 03df 6C6F6E67 		.ascii	"long long int\000"
 5922      206C6F6E 
 5922      6720696E 
 5922      7400
 5923              	.LASF68:
 5924 03ed 4359424C 		.ascii	"CYBLE_EVT_GATTC_EXEC_WRITE_RSP\000"
 5924      455F4556 
 5924      545F4741 
ARM GAS  C:\Users\sergio\AppData\Local\Temp\cc6XWpSt.s 			page 133


 5924      5454435F 
 5924      45584543 
 5925              	.LASF16:
 5926 040c 646F7562 		.ascii	"double\000"
 5926      6C6500
 5927              	.LASF210:
 5928 0413 433A5C55 		.ascii	"C:\\Users\\sergio\\Documents\\GitHub\\thermostat\\t"
 5928      73657273 
 5928      5C736572 
 5928      67696F5C 
 5928      446F6375 
 5929 0440 6573742E 		.ascii	"est.cydsn\000"
 5929      63796473 
 5929      6E00
 5930              	.LASF13:
 5931 044a 75696E74 		.ascii	"uint32\000"
 5931      333200
 5932              	.LASF142:
 5933 0451 6572725F 		.ascii	"err_LFan_curr\000"
 5933      4C46616E 
 5933      5F637572 
 5933      7200
 5934              	.LASF111:
 5935 045f 6C6F6361 		.ascii	"localTemp\000"
 5935      6C54656D 
 5935      7000
 5936              	.LASF91:
 5937 0469 4359424C 		.ascii	"CYBLE_EVT_MAX\000"
 5937      455F4556 
 5937      545F4D41 
 5937      5800
 5938              	.LASF51:
 5939 0477 4359424C 		.ascii	"CYBLE_EVT_GATTC_ERROR_RSP\000"
 5939      455F4556 
 5939      545F4741 
 5939      5454435F 
 5939      4552524F 
 5940              	.LASF93:
 5941 0491 62644861 		.ascii	"bdHandle\000"
 5941      6E646C65 
 5941      00
 5942              	.LASF99:
 5943 049a 61747472 		.ascii	"attrHandle\000"
 5943      48616E64 
 5943      6C6500
 5944              	.LASF120:
 5945 04a5 63757272 		.ascii	"currentCompressor\000"
 5945      656E7443 
 5945      6F6D7072 
 5945      6573736F 
 5945      7200
 5946              	.LASF86:
 5947 04b7 4359424C 		.ascii	"CYBLE_EVT_L2CAP_CBFC_DATA_WRITE_IND\000"
 5947      455F4556 
 5947      545F4C32 
 5947      4341505F 
 5947      43424643 
ARM GAS  C:\Users\sergio\AppData\Local\Temp\cc6XWpSt.s 			page 134


 5948              	.LASF48:
 5949 04db 4359424C 		.ascii	"CYBLE_EVT_GAP_SCAN_REQ_RECVD\000"
 5949      455F4556 
 5949      545F4741 
 5949      505F5343 
 5949      414E5F52 
 5950              	.LASF27:
 5951 04f8 4359424C 		.ascii	"CYBLE_EVT_GAPC_SCAN_PROGRESS_RESULT\000"
 5951      455F4556 
 5951      545F4741 
 5951      50435F53 
 5951      43414E5F 
 5952              	.LASF98:
 5953 051c 76616C75 		.ascii	"value\000"
 5953      6500
 5954              	.LASF75:
 5955 0522 4359424C 		.ascii	"CYBLE_EVT_GATTC_LONG_PROCEDURE_END\000"
 5955      455F4556 
 5955      545F4741 
 5955      5454435F 
 5955      4C4F4E47 
 5956              	.LASF203:
 5957 0545 74686572 		.ascii	"thermo\000"
 5957      6D6F00
 5958              	.LASF73:
 5959 054c 4359424C 		.ascii	"CYBLE_EVT_GATTC_STOP_CMD_COMPLETE\000"
 5959      455F4556 
 5959      545F4741 
 5959      5454435F 
 5959      53544F50 
 5960              	.LASF179:
 5961 056e 66616E48 		.ascii	"fanH\000"
 5961      00
 5962              	.LASF8:
 5963 0573 756E7369 		.ascii	"unsigned int\000"
 5963      676E6564 
 5963      20696E74 
 5963      00
 5964              	.LASF138:
 5965 0580 74686572 		.ascii	"thermostatData\000"
 5965      6D6F7374 
 5965      61744461 
 5965      746100
 5966              	.LASF88:
 5967 058f 4359424C 		.ascii	"CYBLE_EVT_LE_PING_AUTH_TIMEOUT\000"
 5967      455F4556 
 5967      545F4C45 
 5967      5F50494E 
 5967      475F4155 
 5968              	.LASF178:
 5969 05ae 66616E4C 		.ascii	"fanL\000"
 5969      00
 5970              	.LASF189:
 5971 05b3 6379426C 		.ascii	"cyBle_connHandle\000"
 5971      655F636F 
 5971      6E6E4861 
 5971      6E646C65 
ARM GAS  C:\Users\sergio\AppData\Local\Temp\cc6XWpSt.s 			page 135


 5971      00
 5972              	.LASF5:
 5973 05c4 6C6F6E67 		.ascii	"long unsigned int\000"
 5973      20756E73 
 5973      69676E65 
 5973      6420696E 
 5973      7400
 5974              	.LASF47:
 5975 05d6 4359424C 		.ascii	"CYBLE_EVT_GAP_CONN_ESTB\000"
 5975      455F4556 
 5975      545F4741 
 5975      505F434F 
 5975      4E4E5F45 
 5976              	.LASF147:
 5977 05ee 626C6553 		.ascii	"bleStack\000"
 5977      7461636B 
 5977      00
 5978              	.LASF37:
 5979 05f7 4359424C 		.ascii	"CYBLE_EVT_GAP_CONNECTION_UPDATE_COMPLETE\000"
 5979      455F4556 
 5979      545F4741 
 5979      505F434F 
 5979      4E4E4543 
 5980              	.LASF55:
 5981 0620 4359424C 		.ascii	"CYBLE_EVT_GATTC_XCHNG_MTU_RSP\000"
 5981      455F4556 
 5981      545F4741 
 5981      5454435F 
 5981      5843484E 
 5982              	.LASF72:
 5983 063e 4359424C 		.ascii	"CYBLE_EVT_GATTS_DATA_SIGNED_CMD_REQ\000"
 5983      455F4556 
 5983      545F4741 
 5983      5454535F 
 5983      44415441 
 5984              	.LASF82:
 5985 0662 4359424C 		.ascii	"CYBLE_EVT_L2CAP_CBFC_DISCONN_CNF\000"
 5985      455F4556 
 5985      545F4C32 
 5985      4341505F 
 5985      43424643 
 5986              	.LASF148:
 5987 0683 6576656E 		.ascii	"event\000"
 5987      7400
 5988              	.LASF3:
 5989 0689 73686F72 		.ascii	"short unsigned int\000"
 5989      7420756E 
 5989      7369676E 
 5989      65642069 
 5989      6E7400
 5990              	.LASF20:
 5991 069c 4359424C 		.ascii	"CYBLE_EVT_HOST_INVALID\000"
 5991      455F4556 
 5991      545F484F 
 5991      53545F49 
 5991      4E56414C 
 5992              	.LASF58:
ARM GAS  C:\Users\sergio\AppData\Local\Temp\cc6XWpSt.s 			page 136


 5993 06b3 4359424C 		.ascii	"CYBLE_EVT_GATTC_FIND_INFO_RSP\000"
 5993      455F4556 
 5993      545F4741 
 5993      5454435F 
 5993      46494E44 
 5994              	.LASF26:
 5995 06d1 4359424C 		.ascii	"CYBLE_EVT_MEMORY_REQUEST\000"
 5995      455F4556 
 5995      545F4D45 
 5995      4D4F5259 
 5995      5F524551 
 5996              	.LASF156:
 5997 06ea 72656164 		.ascii	"readThermo\000"
 5997      54686572 
 5997      6D6F00
 5998              	.LASF112:
 5999 06f5 68756D69 		.ascii	"humidity\000"
 5999      64697479 
 5999      00
 6000              	.LASF14:
 6001 06fe 696E7438 		.ascii	"int8\000"
 6001      00
 6002              	.LASF67:
 6003 0703 4359424C 		.ascii	"CYBLE_EVT_GATTS_EXEC_WRITE_REQ\000"
 6003      455F4556 
 6003      545F4741 
 6003      5454535F 
 6003      45584543 
 6004              	.LASF83:
 6005 0722 4359424C 		.ascii	"CYBLE_EVT_L2CAP_CBFC_DATA_READ\000"
 6005      455F4556 
 6005      545F4C32 
 6005      4341505F 
 6005      43424643 
 6006              	.LASF29:
 6007 0741 4359424C 		.ascii	"CYBLE_EVT_GAP_PASSKEY_ENTRY_REQUEST\000"
 6007      455F4556 
 6007      545F4741 
 6007      505F5041 
 6007      53534B45 
 6008              	.LASF34:
 6009 0765 4359424C 		.ascii	"CYBLE_EVT_GAP_DEVICE_CONNECTED\000"
 6009      455F4556 
 6009      545F4741 
 6009      505F4445 
 6009      56494345 
 6010              	.LASF70:
 6011 0784 4359424C 		.ascii	"CYBLE_EVT_GATTC_HANDLE_VALUE_IND\000"
 6011      455F4556 
 6011      545F4741 
 6011      5454435F 
 6011      48414E44 
 6012              	.LASF63:
 6013 07a5 4359424C 		.ascii	"CYBLE_EVT_GATTS_WRITE_REQ\000"
 6013      455F4556 
 6013      545F4741 
 6013      5454535F 
ARM GAS  C:\Users\sergio\AppData\Local\Temp\cc6XWpSt.s 			page 137


 6013      57524954 
 6014              	.LASF49:
 6015 07bf 4359424C 		.ascii	"CYBLE_EVT_GAP_AUTH_REQ_REPLY_ERR\000"
 6015      455F4556 
 6015      545F4741 
 6015      505F4155 
 6015      54485F52 
 6016              	.LASF94:
 6017 07e0 61747449 		.ascii	"attId\000"
 6017      6400
 6018              	.LASF188:
 6019 07e6 6379426C 		.ascii	"cyBle_state\000"
 6019      655F7374 
 6019      61746500 
 6020              	.LASF208:
 6021 07f2 474E5520 		.ascii	"GNU C11 5.4.1 20160609 (release) [ARM/embedded-5-br"
 6021      43313120 
 6021      352E342E 
 6021      31203230 
 6021      31363036 
 6022 0825 616E6368 		.ascii	"anch revision 237715] -mcpu=cortex-m0 -mthumb -g -O"
 6022      20726576 
 6022      6973696F 
 6022      6E203233 
 6022      37373135 
 6023 0858 30202D66 		.ascii	"0 -ffunction-sections -ffat-lto-objects\000"
 6023      66756E63 
 6023      74696F6E 
 6023      2D736563 
 6023      74696F6E 
 6024              	.LASF191:
 6025 0880 74686572 		.ascii	"thermoHandle\000"
 6025      6D6F4861 
 6025      6E646C65 
 6025      00
 6026              	.LASF52:
 6027 088d 4359424C 		.ascii	"CYBLE_EVT_GATT_CONNECT_IND\000"
 6027      455F4556 
 6027      545F4741 
 6027      54545F43 
 6027      4F4E4E45 
 6028              	.LASF180:
 6029 08a8 72656164 		.ascii	"read_buff\000"
 6029      5F627566 
 6029      6600
 6030              	.LASF207:
 6031 08b2 70726576 		.ascii	"prevHFan\000"
 6031      4846616E 
 6031      00
 6032              	.LASF192:
 6033 08bb 696E7465 		.ascii	"interruptFlag\000"
 6033      72727570 
 6033      74466C61 
 6033      6700
 6034              	.LASF78:
 6035 08c9 4359424C 		.ascii	"CYBLE_EVT_L2CAP_COMMAND_REJ\000"
 6035      455F4556 
ARM GAS  C:\Users\sergio\AppData\Local\Temp\cc6XWpSt.s 			page 138


 6035      545F4C32 
 6035      4341505F 
 6035      434F4D4D 
 6036              	.LASF141:
 6037 08e5 6572725F 		.ascii	"err_LFan_volt\000"
 6037      4C46616E 
 6037      5F766F6C 
 6037      7400
 6038              	.LASF187:
 6039 08f3 7A4D5342 		.ascii	"zMSB\000"
 6039      00
 6040              	.LASF50:
 6041 08f8 4359424C 		.ascii	"CYBLE_EVT_GAP_SMP_LOC_P256_KEYS_GEN_AND_SET_COMPLET"
 6041      455F4556 
 6041      545F4741 
 6041      505F534D 
 6041      505F4C4F 
 6042 092b 4500     		.ascii	"E\000"
 6043              	.LASF79:
 6044 092d 4359424C 		.ascii	"CYBLE_EVT_L2CAP_CBFC_CONN_IND\000"
 6044      455F4556 
 6044      545F4C32 
 6044      4341505F 
 6044      43424643 
 6045              	.LASF57:
 6046 094b 4359424C 		.ascii	"CYBLE_EVT_GATTC_READ_BY_TYPE_RSP\000"
 6046      455F4556 
 6046      545F4741 
 6046      5454435F 
 6046      52454144 
 6047              	.LASF168:
 6048 096c 6175746F 		.ascii	"auto_calibrate_gain\000"
 6048      5F63616C 
 6048      69627261 
 6048      74655F67 
 6048      61696E00 
 6049              	.LASF19:
 6050 0980 73697A65 		.ascii	"sizetype\000"
 6050      74797065 
 6050      00
 6051              	.LASF101:
 6052 0989 4359424C 		.ascii	"CYBLE_GATTS_HANDLE_VALUE_NTF_T\000"
 6052      455F4741 
 6052      5454535F 
 6052      48414E44 
 6052      4C455F56 
 6053              	.LASF18:
 6054 09a8 6C6F6E67 		.ascii	"long double\000"
 6054      20646F75 
 6054      626C6500 
 6055              	.LASF174:
 6056 09b4 6D795F69 		.ascii	"my_interrupt\000"
 6056      6E746572 
 6056      72757074 
 6056      00
 6057              	.LASF169:
 6058 09c1 61646472 		.ascii	"address\000"
ARM GAS  C:\Users\sergio\AppData\Local\Temp\cc6XWpSt.s 			page 139


 6058      65737300 
 6059              	.LASF64:
 6060 09c9 4359424C 		.ascii	"CYBLE_EVT_GATTC_WRITE_RSP\000"
 6060      455F4556 
 6060      545F4741 
 6060      5454435F 
 6060      57524954 
 6061              	.LASF45:
 6062 09e3 4359424C 		.ascii	"CYBLE_EVT_GAPC_DIRECT_ADV_REPORT\000"
 6062      455F4556 
 6062      545F4741 
 6062      50435F44 
 6062      49524543 
 6063              	.LASF43:
 6064 0a04 4359424C 		.ascii	"CYBLE_EVT_GAP_DATA_LENGTH_CHANGE\000"
 6064      455F4556 
 6064      545F4741 
 6064      505F4441 
 6064      54415F4C 
 6065              	.LASF31:
 6066 0a25 4359424C 		.ascii	"CYBLE_EVT_GAP_AUTH_COMPLETE\000"
 6066      455F4556 
 6066      545F4741 
 6066      505F4155 
 6066      54485F43 
 6067              	.LASF125:
 6068 0a41 6C696E65 		.ascii	"lineFreq\000"
 6068      46726571 
 6068      00
 6069              	.LASF154:
 6070 0a4a 73656E64 		.ascii	"send_Thermo_to_phone\000"
 6070      5F546865 
 6070      726D6F5F 
 6070      746F5F70 
 6070      686F6E65 
 6071              	.LASF69:
 6072 0a5f 4359424C 		.ascii	"CYBLE_EVT_GATTC_HANDLE_VALUE_NTF\000"
 6072      455F4556 
 6072      545F4741 
 6072      5454435F 
 6072      48414E44 
 6073              	.LASF100:
 6074 0a80 4359424C 		.ascii	"CYBLE_GATT_HANDLE_VALUE_PAIR_T\000"
 6074      455F4741 
 6074      54545F48 
 6074      414E444C 
 6074      455F5641 
 6075              	.LASF163:
 6076 0a9f 72656164 		.ascii	"read_thermostat_pins\000"
 6076      5F746865 
 6076      726D6F73 
 6076      7461745F 
 6076      70696E73 
 6077              	.LASF199:
 6078 0ab4 61635374 		.ascii	"acStates\000"
 6078      61746573 
 6078      00
ARM GAS  C:\Users\sergio\AppData\Local\Temp\cc6XWpSt.s 			page 140


 6079              	.LASF80:
 6080 0abd 4359424C 		.ascii	"CYBLE_EVT_L2CAP_CBFC_CONN_CNF\000"
 6080      455F4556 
 6080      545F4C32 
 6080      4341505F 
 6080      43424643 
 6081              	.LASF122:
 6082 0adb 63757272 		.ascii	"current\000"
 6082      656E7400 
 6083              	.LASF185:
 6084 0ae3 794D5342 		.ascii	"yMSB\000"
 6084      00
 6085              	.LASF56:
 6086 0ae8 4359424C 		.ascii	"CYBLE_EVT_GATTC_READ_BY_GROUP_TYPE_RSP\000"
 6086      455F4556 
 6086      545F4741 
 6086      5454435F 
 6086      52454144 
 6087              	.LASF129:
 6088 0b0f 61697246 		.ascii	"airFlow\000"
 6088      6C6F7700 
 6089              	.LASF15:
 6090 0b17 666C6F61 		.ascii	"float\000"
 6090      7400
 6091              	.LASF126:
 6092 0b1d 61636358 		.ascii	"accX\000"
 6092      00
 6093              	.LASF171:
 6094 0b22 72427566 		.ascii	"rBuff\000"
 6094      6600
 6095              	.LASF155:
 6096 0b28 74686572 		.ascii	"thermoRead\000"
 6096      6D6F5265 
 6096      616400
 6097              	.LASF160:
 6098 0b33 75706461 		.ascii	"updateNotificationCCCD\000"
 6098      74654E6F 
 6098      74696669 
 6098      63617469 
 6098      6F6E4343 
 6099              	.LASF42:
 6100 0b4a 4359424C 		.ascii	"CYBLE_EVT_GAP_OOB_GENERATED_NOTIFICATION\000"
 6100      455F4556 
 6100      545F4741 
 6100      505F4F4F 
 6100      425F4745 
 6101              	.LASF159:
 6102 0b73 64617461 		.ascii	"dataForBLE\000"
 6102      466F7242 
 6102      4C4500
 6103              	.LASF136:
 6104 0b7e 706F7765 		.ascii	"power\000"
 6104      7200
 6105              	.LASF53:
 6106 0b84 4359424C 		.ascii	"CYBLE_EVT_GATT_DISCONNECT_IND\000"
 6106      455F4556 
 6106      545F4741 
ARM GAS  C:\Users\sergio\AppData\Local\Temp\cc6XWpSt.s 			page 141


 6106      54545F44 
 6106      4953434F 
 6107              	.LASF1:
 6108 0ba2 756E7369 		.ascii	"unsigned char\000"
 6108      676E6564 
 6108      20636861 
 6108      7200
 6109              	.LASF12:
 6110 0bb0 75696E74 		.ascii	"uint16\000"
 6110      313600
 6111              	.LASF41:
 6112 0bb7 4359424C 		.ascii	"CYBLE_EVT_GAP_KEYPRESS_NOTIFICATION\000"
 6112      455F4556 
 6112      545F4741 
 6112      505F4B45 
 6112      59505245 
 6113              	.LASF186:
 6114 0bdb 7A4C5342 		.ascii	"zLSB\000"
 6114      00
 6115              	.LASF173:
 6116 0be0 64656C61 		.ascii	"delay\000"
 6116      7900
 6117              	.LASF190:
 6118 0be6 6379426C 		.ascii	"cyBle_busyStatus\000"
 6118      655F6275 
 6118      73795374 
 6118      61747573 
 6118      00
 6119              	.LASF114:
 6120 0bf7 72656D6F 		.ascii	"remoteTemp2\000"
 6120      74655465 
 6120      6D703200 
 6121              	.LASF2:
 6122 0c03 73686F72 		.ascii	"short int\000"
 6122      7420696E 
 6122      7400
 6123              	.LASF144:
 6124 0c0d 6572725F 		.ascii	"err_HFan_curr\000"
 6124      4846616E 
 6124      5F637572 
 6124      7200
 6125              	.LASF201:
 6126 0c1b 636F756E 		.ascii	"counter\000"
 6126      74657200 
 6127              	.LASF176:
 6128 0c23 74656D70 		.ascii	"temp2\000"
 6128      3200
 6129              	.LASF158:
 6130 0c29 6E6F7469 		.ascii	"notiHandle\000"
 6130      48616E64 
 6130      6C6500
 6131              	.LASF151:
 6132 0c34 77725265 		.ascii	"wrReq\000"
 6132      7100
 6133              	.LASF89:
 6134 0c3a 4359424C 		.ascii	"CYBLE_EVT_HCI_PKT\000"
 6134      455F4556 
ARM GAS  C:\Users\sergio\AppData\Local\Temp\cc6XWpSt.s 			page 142


 6134      545F4843 
 6134      495F504B 
 6134      5400
 6135              	.LASF183:
 6136 0c4c 784D5342 		.ascii	"xMSB\000"
 6136      00
 6137              	.LASF66:
 6138 0c51 4359424C 		.ascii	"CYBLE_EVT_GATTS_PREP_WRITE_REQ\000"
 6138      455F4556 
 6138      545F4741 
 6138      5454535F 
 6138      50524550 
 6139              	.LASF153:
 6140 0c70 73656E64 		.ascii	"send_Error_Power_to_Phone\000"
 6140      5F457272 
 6140      6F725F50 
 6140      6F776572 
 6140      5F746F5F 
 6141              	.LASF196:
 6142 0c8a 75617274 		.ascii	"uartStr\000"
 6142      53747200 
 6143              	.LASF71:
 6144 0c92 4359424C 		.ascii	"CYBLE_EVT_GATTS_HANDLE_VALUE_CNF\000"
 6144      455F4556 
 6144      545F4741 
 6144      5454535F 
 6144      48414E44 
 6145              	.LASF123:
 6146 0cb3 6C696E65 		.ascii	"lineFreqComp\000"
 6146      46726571 
 6146      436F6D70 
 6146      00
 6147              	.LASF32:
 6148 0cc0 4359424C 		.ascii	"CYBLE_EVT_GAP_AUTH_FAILED\000"
 6148      455F4556 
 6148      545F4741 
 6148      505F4155 
 6148      54485F46 
 6149              	.LASF46:
 6150 0cda 4359424C 		.ascii	"CYBLE_EVT_GAP_SMP_NEGOTIATED_AUTH_INFO\000"
 6150      455F4556 
 6150      545F4741 
 6150      505F534D 
 6150      505F4E45 
 6151              	.LASF135:
 6152 0d01 616D6269 		.ascii	"ambientTemp\000"
 6152      656E7454 
 6152      656D7000 
 6153              	.LASF197:
 6154 0d0d 6770696F 		.ascii	"gpioPins\000"
 6154      50696E73 
 6154      00
 6155              	.LASF17:
 6156 0d16 63686172 		.ascii	"char\000"
 6156      00
 6157              	.LASF62:
 6158 0d1b 4359424C 		.ascii	"CYBLE_EVT_GATTC_READ_MULTI_RSP\000"
ARM GAS  C:\Users\sergio\AppData\Local\Temp\cc6XWpSt.s 			page 143


 6158      455F4556 
 6158      545F4741 
 6158      5454435F 
 6158      52454144 
 6159              	.LASF182:
 6160 0d3a 784C5342 		.ascii	"xLSB\000"
 6160      00
 6161              	.LASF184:
 6162 0d3f 794C5342 		.ascii	"yLSB\000"
 6162      00
 6163              	.LASF74:
 6164 0d44 4359424C 		.ascii	"CYBLE_EVT_GATTS_READ_CHAR_VAL_ACCESS_REQ\000"
 6164      455F4556 
 6164      545F4741 
 6164      5454535F 
 6164      52454144 
 6165              	.LASF84:
 6166 0d6d 4359424C 		.ascii	"CYBLE_EVT_L2CAP_CBFC_RX_CREDIT_IND\000"
 6166      455F4556 
 6166      545F4C32 
 6166      4341505F 
 6166      43424643 
 6167              	.LASF161:
 6168 0d90 73656E73 		.ascii	"sensorNotCCCDHandle\000"
 6168      6F724E6F 
 6168      74434343 
 6168      4448616E 
 6168      646C6500 
 6169              	.LASF137:
 6170 0da4 74657374 		.ascii	"test\000"
 6170      00
 6171              	.LASF85:
 6172 0da9 4359424C 		.ascii	"CYBLE_EVT_L2CAP_CBFC_TX_CREDIT_IND\000"
 6172      455F4556 
 6172      545F4C32 
 6172      4341505F 
 6172      43424643 
 6173              	.LASF30:
 6174 0dcc 4359424C 		.ascii	"CYBLE_EVT_GAP_PASSKEY_DISPLAY_REQUEST\000"
 6174      455F4556 
 6174      545F4741 
 6174      505F5041 
 6174      53534B45 
 6175              	.LASF23:
 6176 0df2 4359424C 		.ascii	"CYBLE_EVT_HARDWARE_ERROR\000"
 6176      455F4556 
 6176      545F4841 
 6176      52445741 
 6176      52455F45 
 6177              	.LASF194:
 6178 0e0b 75706461 		.ascii	"updateIsNotifyCCCDAttr\000"
 6178      74654973 
 6178      4E6F7469 
 6178      66794343 
 6178      43444174 
 6179              	.LASF167:
 6180 0e22 636F6E66 		.ascii	"configure_temperature_sensor1\000"
ARM GAS  C:\Users\sergio\AppData\Local\Temp\cc6XWpSt.s 			page 144


 6180      69677572 
 6180      655F7465 
 6180      6D706572 
 6180      61747572 
 6181              	.LASF166:
 6182 0e40 636F6E66 		.ascii	"configure_temperature_sensor2\000"
 6182      69677572 
 6182      655F7465 
 6182      6D706572 
 6182      61747572 
 6183              	.LASF103:
 6184 0e5e 68616E64 		.ascii	"handleValPair\000"
 6184      6C655661 
 6184      6C506169 
 6184      7200
 6185              	.LASF162:
 6186 0e6c 73656E73 		.ascii	"sensorCCCDVal\000"
 6186      6F724343 
 6186      43445661 
 6186      6C00
 6187              	.LASF209:
 6188 0e7a 6D61696E 		.ascii	"main.c\000"
 6188      2E6300
 6189              	.LASF164:
 6190 0e81 70696E73 		.ascii	"pins\000"
 6190      00
 6191              	.LASF202:
 6192 0e86 73656E73 		.ascii	"sensorData\000"
 6192      6F724461 
 6192      746100
 6193              	.LASF149:
 6194 0e91 6576656E 		.ascii	"eventParam\000"
 6194      74506172 
 6194      616D00
 6195              	.LASF140:
 6196 0e9c 6572725F 		.ascii	"err_Comp_curr\000"
 6196      436F6D70 
 6196      5F637572 
 6196      7200
 6197              	.LASF143:
 6198 0eaa 6572725F 		.ascii	"err_HFan_volt\000"
 6198      4846616E 
 6198      5F766F6C 
 6198      7400
 6199              	.LASF110:
 6200 0eb8 4359424C 		.ascii	"CYBLE_STATE_T\000"
 6200      455F5354 
 6200      4154455F 
 6200      5400
 6201              	.LASF133:
 6202 0ec6 66616E48 		.ascii	"fanHigh\000"
 6202      69676800 
 6203              	.LASF10:
 6204 0ece 75696E74 		.ascii	"uint8_t\000"
 6204      385F7400 
 6205              	.LASF106:
 6206 0ed6 4359424C 		.ascii	"CYBLE_STATE_INITIALIZING\000"
ARM GAS  C:\Users\sergio\AppData\Local\Temp\cc6XWpSt.s 			page 145


 6206      455F5354 
 6206      4154455F 
 6206      494E4954 
 6206      49414C49 
 6207              	.LASF107:
 6208 0eef 4359424C 		.ascii	"CYBLE_STATE_CONNECTED\000"
 6208      455F5354 
 6208      4154455F 
 6208      434F4E4E 
 6208      45435445 
 6209              	.LASF59:
 6210 0f05 4359424C 		.ascii	"CYBLE_EVT_GATTC_FIND_BY_TYPE_VALUE_RSP\000"
 6210      455F4556 
 6210      545F4741 
 6210      5454435F 
 6210      46494E44 
 6211              	.LASF39:
 6212 0f2c 4359424C 		.ascii	"CYBLE_EVT_GAP_KEYINFO_EXCHNGE_CMPLT\000"
 6212      455F4556 
 6212      545F4741 
 6212      505F4B45 
 6212      59494E46 
 6213              	.LASF81:
 6214 0f50 4359424C 		.ascii	"CYBLE_EVT_L2CAP_CBFC_DISCONN_IND\000"
 6214      455F4556 
 6214      545F4C32 
 6214      4341505F 
 6214      43424643 
 6215              	.LASF165:
 6216 0f71 696E6974 		.ascii	"initialized_input_gpioExp\000"
 6216      69616C69 
 6216      7A65645F 
 6216      696E7075 
 6216      745F6770 
 6217              	.LASF139:
 6218 0f8b 6572725F 		.ascii	"err_Comp_volt\000"
 6218      436F6D70 
 6218      5F766F6C 
 6218      7400
 6219              	.LASF77:
 6220 0f99 4359424C 		.ascii	"CYBLE_EVT_L2CAP_CONN_PARAM_UPDATE_RSP\000"
 6220      455F4556 
 6220      545F4C32 
 6220      4341505F 
 6220      434F4E4E 
 6221              	.LASF211:
 6222 0fbf 6D61696E 		.ascii	"main\000"
 6222      00
 6223              	.LASF44:
 6224 0fc4 4359424C 		.ascii	"CYBLE_EVT_GAP_ENHANCE_CONN_COMPLETE\000"
 6224      455F4556 
 6224      545F4741 
 6224      505F454E 
 6224      48414E43 
 6225              	.LASF92:
 6226 0fe8 4359424C 		.ascii	"CYBLE_GATT_DB_ATTR_HANDLE_T\000"
 6226      455F4741 
ARM GAS  C:\Users\sergio\AppData\Local\Temp\cc6XWpSt.s 			page 146


 6226      54545F44 
 6226      425F4154 
 6226      54525F48 
 6227              	.LASF193:
 6228 1004 69734E6F 		.ascii	"isNotify\000"
 6228      74696679 
 6228      00
 6229              	.LASF200:
 6230 100d 74686572 		.ascii	"thermoState\000"
 6230      6D6F5374 
 6230      61746500 
 6231              	.LASF90:
 6232 1019 4359424C 		.ascii	"CYBLE_EVT_FLASH_CORRUPT\000"
 6232      455F4556 
 6232      545F464C 
 6232      4153485F 
 6232      434F5252 
 6233              	.LASF150:
 6234 1031 74686572 		.ascii	"thermoTemp\000"
 6234      6D6F5465 
 6234      6D7000
 6235              		.ident	"GCC: (GNU Tools for ARM Embedded Processors) 5.4.1 20160609 (release) [ARM/embedded-5-bran
